
 Start         Length     Name                   Class
 0001:00401000 000A1FCCH .text                   CODE
 0002:004A3000 00000444H .itext                  ICODE
 0003:004A4000 00000EFCH .data                   DATA
 0004:004A5000 000000C0H .bss                    BSS
 0005:00000000 00000000H .tls                    TLS
 0006:00400000 00000000H .pdata                  PDATA


Detailed map of segments

 0001:00000000 000004A0 C=CODE     S=.text    G=(none)   M=System   ACBP=A9
 0001:000004A0 0000080C C=CODE     S=.text    G=(none)   M=SysInit  ACBP=A9
 0001:00000CAC 00000260 C=CODE     S=.text    G=(none)   M=Winapi.Windows ACBP=A9
 0001:00000F0C 00000008 C=CODE     S=.text    G=(none)   M=System.Internal.ExcUtils ACBP=A9
 0001:00000F14 000001E0 C=CODE     S=.text    G=(none)   M=System.SysUtils ACBP=A9
 0001:000010F4 00000008 C=CODE     S=.text    G=(none)   M=System.VarUtils ACBP=A9
 0001:000010FC 00000010 C=CODE     S=.text    G=(none)   M=System.Variants ACBP=A9
 0001:0000110C 00000008 C=CODE     S=.text    G=(none)   M=System.TypInfo ACBP=A9
 0001:00001114 000000A8 C=CODE     S=.text    G=(none)   M=System.Classes ACBP=A9
 0001:000011BC 00000030 C=CODE     S=.text    G=(none)   M=Data.DBXClassRegistry ACBP=A9
 0001:000011EC 00000008 C=CODE     S=.text    G=(none)   M=System.Math ACBP=A9
 0001:000011F4 00000008 C=CODE     S=.text    G=(none)   M=System.TimeSpan ACBP=A9
 0001:000011FC 00000010 C=CODE     S=.text    G=(none)   M=System.SyncObjs ACBP=A9
 0001:0000120C 00000008 C=CODE     S=.text    G=(none)   M=System.StrUtils ACBP=A9
 0001:00001214 00000070 C=CODE     S=.text    G=(none)   M=System.AnsiStrings ACBP=A9
 0001:00001284 00000010 C=CODE     S=.text    G=(none)   M=System.DateUtils ACBP=A9
 0001:00001294 00000008 C=CODE     S=.text    G=(none)   M=Data.SqlTimSt ACBP=A9
 0001:0000129C 00000008 C=CODE     S=.text    G=(none)   M=Data.FmtBcd ACBP=A9
 0001:000012A4 00000008 C=CODE     S=.text    G=(none)   M=Data.DB  ACBP=A9
 0001:000012AC 00000030 C=CODE     S=.text    G=(none)   M=Data.DBXPlatform ACBP=A9
 0001:000012DC 00000010 C=CODE     S=.text    G=(none)   M=System.IOUtils ACBP=A9
 0001:000012EC 00000008 C=CODE     S=.text    G=(none)   M=System.IniFiles ACBP=A9
 0001:000012F4 00000010 C=CODE     S=.text    G=(none)   M=System.Win.ComObj ACBP=A9
 0001:00001304 00000008 C=CODE     S=.text    G=(none)   M=Datasnap.DSIntf ACBP=A9
 0001:0000130C 00000008 C=CODE     S=.text    G=(none)   M=Datasnap.DBClient ACBP=A9
 0001:00001314 00000008 C=CODE     S=.text    G=(none)   M=Datasnap.Provider ACBP=A9
 0001:0000131C 00000048 C=CODE     S=.text    G=(none)   M=System.Win.Registry ACBP=A9
 0001:00001364 000002A8 C=CODE     S=.text    G=(none)   M=Data.DBXCommon ACBP=A9
 0001:0000160C 00000018 C=CODE     S=.text    G=(none)   M=Data.DBXDynalinkNative ACBP=A9
 0001:00001624 00000080 C=CODE     S=.text    G=(none)   M=Data.DBXDynalink ACBP=A9
 0001:000016A4 00000318 C=CODE     S=.text    G=(none)   M=Data.DBXMetaDataReader ACBP=A9
 0001:000019BC 00000058 C=CODE     S=.text    G=(none)   M=Data.DBXMetaDataCommand ACBP=A9
 0001:00001A14 00000068 C=CODE     S=.text    G=(none)   M=Data.DBXMetaDataCommandFactory ACBP=A9
 0001:00001A7C 0003776C C=CODE     S=.text    G=(none)   M=Dbx34DrvDbms ACBP=A9
 0001:000391E8 00005670 C=CODE     S=.text    G=(none)   M=Dbx34Drv ACBP=A9
 0001:0003E858 0000000C C=CODE     S=.text    G=(none)   M=DbxXXDrv ACBP=A9
 0001:0003E864 000017A8 C=CODE     S=.text    G=(none)   M=DbxOpenOdbcApiHook ACBP=A9
 0001:0004000C 00000008 C=CODE     S=.text    G=(none)   M=DbxDBFix ACBP=A9
 0001:00040014 00000008 C=CODE     S=.text    G=(none)   M=DbxOpenOdbcTypes ACBP=A9
 0001:0004001C 00000018 C=CODE     S=.text    G=(none)   M=Winapi.ShlObj ACBP=A9
 0001:00040034 0000376C C=CODE     S=.text    G=(none)   M=DbxOpenOdbcFuncs ACBP=A9
 0001:000437A0 0000EA44 C=CODE     S=.text    G=(none)   M=OdbcApi  ACBP=A9
 0001:000521E4 000012C8 C=CODE     S=.text    G=(none)   M=DbxOpenOdbcDbx3Types ACBP=A9
 0001:000534AC 00001EA8 C=CODE     S=.text    G=(none)   M=DbxOpenOdbcInterface ACBP=A9
 0001:00055354 000035CC C=CODE     S=.text    G=(none)   M=DbxOpenOdbcTrace ACBP=A9
 0001:00058920 0000190C C=CODE     S=.text    G=(none)   M=DbxOpenOdbcUtils ACBP=A9
 0001:0005A22C 00005D98 C=CODE     S=.text    G=(none)   M=RegExpr  ACBP=A9
 0001:0005FFC4 0000198C C=CODE     S=.text    G=(none)   M=DbxObjectParser ACBP=A9
 0001:00061950 00000440 C=CODE     S=.text    G=(none)   M=DbxOpenOdbcCallback ACBP=A9
 0001:00061D90 000000E4 C=CODE     S=.text    G=(none)   M=DbxOpenOdbcASA ACBP=A9
 0001:00061E74 00006F9C C=CODE     S=.text    G=(none)   M=DbxOpenOdbc3 ACBP=A9
 0001:00068E10 00037EC8 C=CODE     S=.text    G=(none)   M=DbxOpenOdbc ACBP=A9
 0001:000A0CD8 000007B8 C=CODE     S=.text    G=(none)   M=DbxOpenOdbcStatic ACBP=A9
 0001:000A1490 00000B3C C=CODE     S=.text    G=(none)   M=.dbxoodbc_emb ACBP=A9
 0002:00000000 00000008 C=ICODE    S=.itext   G=(none)   M=System   ACBP=A9
 0002:00000008 00000008 C=ICODE    S=.itext   G=(none)   M=SysInit  ACBP=A9
 0002:00000010 00000018 C=ICODE    S=.itext   G=(none)   M=Winapi.Windows ACBP=A9
 0002:00000028 00000008 C=ICODE    S=.itext   G=(none)   M=System.Internal.ExcUtils ACBP=A9
 0002:00000030 00000028 C=ICODE    S=.itext   G=(none)   M=System.SysUtils ACBP=A9
 0002:00000058 00000008 C=ICODE    S=.itext   G=(none)   M=System.VarUtils ACBP=A9
 0002:00000060 00000008 C=ICODE    S=.itext   G=(none)   M=System.Variants ACBP=A9
 0002:00000068 00000008 C=ICODE    S=.itext   G=(none)   M=System.TypInfo ACBP=A9
 0002:00000070 00000028 C=ICODE    S=.itext   G=(none)   M=System.Classes ACBP=A9
 0002:00000098 00000008 C=ICODE    S=.itext   G=(none)   M=Data.DBXClassRegistry ACBP=A9
 0002:000000A0 00000008 C=ICODE    S=.itext   G=(none)   M=System.Math ACBP=A9
 0002:000000A8 00000008 C=ICODE    S=.itext   G=(none)   M=System.TimeSpan ACBP=A9
 0002:000000B0 00000008 C=ICODE    S=.itext   G=(none)   M=System.SyncObjs ACBP=A9
 0002:000000B8 00000008 C=ICODE    S=.itext   G=(none)   M=System.DateUtils ACBP=A9
 0002:000000C0 00000008 C=ICODE    S=.itext   G=(none)   M=Data.SqlTimSt ACBP=A9
 0002:000000C8 00000008 C=ICODE    S=.itext   G=(none)   M=Data.FmtBcd ACBP=A9
 0002:000000D0 00000008 C=ICODE    S=.itext   G=(none)   M=Data.DB  ACBP=A9
 0002:000000D8 00000010 C=ICODE    S=.itext   G=(none)   M=System.IOUtils ACBP=A9
 0002:000000E8 00000008 C=ICODE    S=.itext   G=(none)   M=System.IniFiles ACBP=A9
 0002:000000F0 00000010 C=ICODE    S=.itext   G=(none)   M=System.Win.ComObj ACBP=A9
 0002:00000100 00000008 C=ICODE    S=.itext   G=(none)   M=Datasnap.DSIntf ACBP=A9
 0002:00000108 00000008 C=ICODE    S=.itext   G=(none)   M=Datasnap.DBClient ACBP=A9
 0002:00000110 00000008 C=ICODE    S=.itext   G=(none)   M=Datasnap.Provider ACBP=A9
 0002:00000118 00000010 C=ICODE    S=.itext   G=(none)   M=System.Win.Registry ACBP=A9
 0002:00000128 00000008 C=ICODE    S=.itext   G=(none)   M=Data.DBXCommon ACBP=A9
 0002:00000130 00000008 C=ICODE    S=.itext   G=(none)   M=Data.DBXDynalink ACBP=A9
 0002:00000138 00000084 C=ICODE    S=.itext   G=(none)   M=Dbx34DrvDbms ACBP=A9
 0002:000001BC 000000A8 C=ICODE    S=.itext   G=(none)   M=Dbx34Drv ACBP=A9
 0002:00000264 00000008 C=ICODE    S=.itext   G=(none)   M=DbxXXDrv ACBP=A9
 0002:0000026C 00000008 C=ICODE    S=.itext   G=(none)   M=DbxOpenOdbcApiHook ACBP=A9
 0002:00000274 00000008 C=ICODE    S=.itext   G=(none)   M=DbxDBFix ACBP=A9
 0002:0000027C 00000008 C=ICODE    S=.itext   G=(none)   M=DbxOpenOdbcTypes ACBP=A9
 0002:00000284 00000008 C=ICODE    S=.itext   G=(none)   M=DbxOpenOdbcFuncs ACBP=A9
 0002:0000028C 00000020 C=ICODE    S=.itext   G=(none)   M=OdbcApi  ACBP=A9
 0002:000002AC 00000008 C=ICODE    S=.itext   G=(none)   M=DbxOpenOdbcDbx3Types ACBP=A9
 0002:000002B4 00000008 C=ICODE    S=.itext   G=(none)   M=DbxOpenOdbcInterface ACBP=A9
 0002:000002BC 00000008 C=ICODE    S=.itext   G=(none)   M=DbxOpenOdbcTrace ACBP=A9
 0002:000002C4 00000008 C=ICODE    S=.itext   G=(none)   M=DbxOpenOdbcUtils ACBP=A9
 0002:000002CC 00000008 C=ICODE    S=.itext   G=(none)   M=RegExpr  ACBP=A9
 0002:000002D4 00000008 C=ICODE    S=.itext   G=(none)   M=DbxObjectParser ACBP=A9
 0002:000002DC 00000008 C=ICODE    S=.itext   G=(none)   M=DbxOpenOdbcCallback ACBP=A9
 0002:000002E4 00000020 C=ICODE    S=.itext   G=(none)   M=DbxOpenOdbcASA ACBP=A9
 0002:00000304 00000044 C=ICODE    S=.itext   G=(none)   M=DbxOpenOdbc3 ACBP=A9
 0002:00000348 00000010 C=ICODE    S=.itext   G=(none)   M=DbxOpenOdbc ACBP=A9
 0002:00000358 000000E4 C=ICODE    S=.itext   G=(none)   M=DbxOpenOdbcStatic ACBP=A9
 0002:0000043C 00000008 C=ICODE    S=.itext   G=(none)   M=.dbxoodbc_emb ACBP=A9
 0003:00000000 00000088 C=DATA     S=.data    G=DGROUP   M=SysInit  ACBP=A9
 0003:00000088 0000000C C=DATA     S=.data    G=DGROUP   M=Winapi.Windows ACBP=A9
 0003:00000094 00000004 C=DATA     S=.data    G=DGROUP   M=Dbx34Drv ACBP=A9
 0003:00000098 00000540 C=DATA     S=.data    G=DGROUP   M=DbxOpenOdbcApiHook ACBP=A9
 0003:000005D8 00000004 C=DATA     S=.data    G=DGROUP   M=DbxOpenOdbcFuncs ACBP=A9
 0003:000005DC 00000008 C=DATA     S=.data    G=DGROUP   M=OdbcApi  ACBP=A9
 0003:000005E4 000000C8 C=DATA     S=.data    G=DGROUP   M=DbxOpenOdbcDbx3Types ACBP=A9
 0003:000006AC 00000174 C=DATA     S=.data    G=DGROUP   M=DbxOpenOdbcInterface ACBP=A9
 0003:00000820 00000274 C=DATA     S=.data    G=DGROUP   M=DbxOpenOdbcTrace ACBP=A9
 0003:00000A94 00000040 C=DATA     S=.data    G=DGROUP   M=RegExpr  ACBP=A9
 0003:00000AD4 0000022C C=DATA     S=.data    G=DGROUP   M=DbxObjectParser ACBP=A9
 0003:00000D00 00000008 C=DATA     S=.data    G=DGROUP   M=DbxOpenOdbcASA ACBP=A9
 0003:00000D08 00000004 C=DATA     S=.data    G=DGROUP   M=DbxOpenOdbc3 ACBP=A9
 0003:00000D0C 00000194 C=DATA     S=.data    G=DGROUP   M=DbxOpenOdbc ACBP=A9
 0003:00000EA0 00000008 C=DATA     S=.data    G=DGROUP   M=DbxOpenOdbcStatic ACBP=A9
 0004:00000000 0000001C C=BSS      S=.bss     G=DGROUP   M=SysInit  ACBP=A9
 0004:0000001C 00000008 C=BSS      S=.bss     G=DGROUP   M=Winapi.Windows ACBP=A9
 0004:00000024 00000004 C=BSS      S=.bss     G=DGROUP   M=Dbx34DrvDbms ACBP=A9
 0004:00000028 00000004 C=BSS      S=.bss     G=DGROUP   M=Dbx34Drv ACBP=A9
 0004:0000002C 00000004 C=BSS      S=.bss     G=DGROUP   M=DbxXXDrv ACBP=A9
 0004:00000030 00000004 C=BSS      S=.bss     G=DGROUP   M=DbxOpenOdbcApiHook ACBP=A9
 0004:00000034 00000004 C=BSS      S=.bss     G=DGROUP   M=DbxDBFix ACBP=A9
 0004:00000038 00000004 C=BSS      S=.bss     G=DGROUP   M=DbxOpenOdbcTypes ACBP=A9
 0004:0000003C 00000004 C=BSS      S=.bss     G=DGROUP   M=DbxOpenOdbcFuncs ACBP=A9
 0004:00000040 00000008 C=BSS      S=.bss     G=DGROUP   M=OdbcApi  ACBP=A9
 0004:00000048 00000004 C=BSS      S=.bss     G=DGROUP   M=DbxOpenOdbcDbx3Types ACBP=A9
 0004:0000004C 00000014 C=BSS      S=.bss     G=DGROUP   M=DbxOpenOdbcInterface ACBP=A9
 0004:00000060 00000004 C=BSS      S=.bss     G=DGROUP   M=DbxOpenOdbcTrace ACBP=A9
 0004:00000064 00000004 C=BSS      S=.bss     G=DGROUP   M=DbxOpenOdbcUtils ACBP=A9
 0004:00000068 00000004 C=BSS      S=.bss     G=DGROUP   M=RegExpr  ACBP=A9
 0004:0000006C 00000004 C=BSS      S=.bss     G=DGROUP   M=DbxObjectParser ACBP=A9
 0004:00000070 00000004 C=BSS      S=.bss     G=DGROUP   M=DbxOpenOdbcCallback ACBP=A9
 0004:00000074 00000008 C=BSS      S=.bss     G=DGROUP   M=DbxOpenOdbcASA ACBP=A9
 0004:0000007C 0000002C C=BSS      S=.bss     G=DGROUP   M=DbxOpenOdbc3 ACBP=A9
 0004:000000A8 00000004 C=BSS      S=.bss     G=DGROUP   M=DbxOpenOdbc ACBP=A9
 0004:000000AC 00000014 C=BSS      S=.bss     G=DGROUP   M=DbxOpenOdbcStatic ACBP=A9
 0005:00000000 00000004 C=TLS      S=.tls     G=(none)   M=DbxOpenOdbcTrace ACBP=A9


  Address             Publics by Name

 0002:0000043C       .dbxoodbc_emb..dbxoodbc_emb
 0001:000A1FAC       .dbxoodbc_emb.@GetPackageInfoTable
 0001:000A1FB4       .dbxoodbc_emb.@PackageLoad
 0001:000A1FC0       .dbxoodbc_emb.@PackageUnload
 0002:000000D0       Data.DB.Data.DB
 0001:000012A4       Data.DB.Finalization
 0002:00000098       Data.DBXClassRegistry.Data.DBXClassRegistry
 0001:000011E4       Data.DBXClassRegistry.Finalization
 0001:000011BC       Data.DBXClassRegistry.TClassRegistry.CreateInstance
 0001:000011C4       Data.DBXClassRegistry.TClassRegistry.GetClassRegistry
 0001:000011CC       Data.DBXClassRegistry.TClassRegistry.HasClass
 0001:000011D4       Data.DBXClassRegistry.TClassRegistry.RegisterRegistryClass
 0001:000011DC       Data.DBXClassRegistry.TClassRegistry.UnregisterClass
 0002:00000128       Data.DBXCommon.Data.DBXCommon
 0001:00001604       Data.DBXCommon.Finalization
 0001:0000151C       Data.DBXCommon.TDBXCommand.Close
 0001:000014CC       Data.DBXCommon.TDBXCommand.CloseReader
 0001:00001494       Data.DBXCommon.TDBXCommand.CreateParameter
 0001:0000149C       Data.DBXCommon.TDBXCommand.CreateParameterRow
 0001:000014A4       Data.DBXCommon.TDBXCommand.CreateParameters
 0001:00001514       Data.DBXCommon.TDBXCommand.DerivedClearParameters
 0001:000014B4       Data.DBXCommon.TDBXCommand.ExecuteQuery
 0001:000014BC       Data.DBXCommon.TDBXCommand.ExecuteUpdate
 0001:000014C4       Data.DBXCommon.TDBXCommand.FreeOnExecute
 0001:000015F4       Data.DBXCommon.TDBXCommand.GetCommandTimeout
 0001:000014D4       Data.DBXCommon.TDBXCommand.GetCommandType
 0001:000014DC       Data.DBXCommon.TDBXCommand.GetErrorEvent
 0001:000014E4       Data.DBXCommon.TDBXCommand.GetNextReader
 0001:000014EC       Data.DBXCommon.TDBXCommand.GetParameters
 0001:000014F4       Data.DBXCommon.TDBXCommand.GetText
 0001:0000150C       Data.DBXCommon.TDBXCommand.Open
 0001:000014FC       Data.DBXCommon.TDBXCommand.Prepare
 0001:000015FC       Data.DBXCommon.TDBXCommand.SetCommandTimeout
 0001:000014AC       Data.DBXCommon.TDBXCommand.SetCommandType
 0001:00001504       Data.DBXCommon.TDBXCommand.SetText
 0001:00001424       Data.DBXCommon.TDBXConnection.BeginTransaction
 0001:0000142C       Data.DBXCommon.TDBXConnection.BeginTransaction
 0001:00001434       Data.DBXCommon.TDBXConnection.CommitFreeAndNil
 0001:000013FC       Data.DBXCommon.TDBXConnection.CreateCommand
 0001:000013F4       Data.DBXCommon.TDBXConnection.CreateMorphCommand
 0001:000013EC       Data.DBXCommon.TDBXConnection.Destroy
 0001:0000144C       Data.DBXCommon.TDBXConnection.GetConnectionProperties
 0001:00001464       Data.DBXCommon.TDBXConnection.GetConnectionProperty
 0001:0000140C       Data.DBXCommon.TDBXConnection.GetDatabaseMetaData
 0001:0000147C       Data.DBXCommon.TDBXConnection.GetDBXFormatter
 0001:00001454       Data.DBXCommon.TDBXConnection.GetErrorEvent
 0001:0000145C       Data.DBXCommon.TDBXConnection.GetIsOpen
 0001:00001414       Data.DBXCommon.TDBXConnection.GetTraceFlags
 0001:0000141C       Data.DBXCommon.TDBXConnection.GetTraceInfoEvent
 0001:00001404       Data.DBXCommon.TDBXConnection.Open
 0001:0000143C       Data.DBXCommon.TDBXConnection.RollbackFreeAndNil
 0001:00001444       Data.DBXCommon.TDBXConnection.RollbackIncompleteFreeAndNil
 0001:00001474       Data.DBXCommon.TDBXConnection.SetConnectionProperties
 0001:00001484       Data.DBXCommon.TDBXConnection.SetDBXFormatter
 0001:0000146C       Data.DBXCommon.TDBXConnection.SetErrorEvent
 0001:0000148C       Data.DBXCommon.TDBXConnection.SetTraceFlags
 0001:000015DC       Data.DBXCommon.TDBXConnectionBuilder.GetConnectionProperties
 0001:000015D4       Data.DBXCommon.TDBXContext.Error
 0001:0000139C       Data.DBXCommon.TDBXDriver.AddCommandFactory
 0001:000013A4       Data.DBXCommon.TDBXDriver.CreateMorphCommand
 0001:000013AC       Data.DBXCommon.TDBXDriver.GetDriverClass
 0001:000013B4       Data.DBXCommon.TDBXDriver.GetDriverName
 0001:000013BC       Data.DBXCommon.TDBXDriver.GetDriverProperties
 0001:000013C4       Data.DBXCommon.TDBXDriver.GetDriverPropertyNames
 0001:000013D4       Data.DBXCommon.TDBXDriver.InitDriverProperties
 0001:000013CC       Data.DBXCommon.TDBXDriver.SetDriverName
 0001:000015E4       Data.DBXCommon.TDBXDriverHelp.GetMetaDataReader
 0001:000015EC       Data.DBXCommon.TDBXDriverHelp.SetMetaDataReader
 0001:000013DC       Data.DBXCommon.TDBXDriverRegistry.RegisterDriverClass
 0001:000013E4       Data.DBXCommon.TDBXDriverRegistry.UnregisterDriverClass
 0001:000015CC       Data.DBXCommon.TDBXMorphicCommand.CloseReader
 0001:00001524       Data.DBXCommon.TDBXMorphicCommand.Create
 0001:00001554       Data.DBXCommon.TDBXMorphicCommand.CreateParameterRow
 0001:0000152C       Data.DBXCommon.TDBXMorphicCommand.CreateParameters
 0001:0000157C       Data.DBXCommon.TDBXMorphicCommand.DerivedClose
 0001:00001584       Data.DBXCommon.TDBXMorphicCommand.DerivedExecuteQuery
 0001:0000158C       Data.DBXCommon.TDBXMorphicCommand.DerivedExecuteUpdate
 0001:00001594       Data.DBXCommon.TDBXMorphicCommand.DerivedGetNextReader
 0001:0000159C       Data.DBXCommon.TDBXMorphicCommand.DerivedOpen
 0001:000015A4       Data.DBXCommon.TDBXMorphicCommand.DerivedPrepare
 0001:00001534       Data.DBXCommon.TDBXMorphicCommand.Destroy
 0001:0000153C       Data.DBXCommon.TDBXMorphicCommand.ExecuteQuery
 0001:00001544       Data.DBXCommon.TDBXMorphicCommand.ExecuteUpdate
 0001:00001564       Data.DBXCommon.TDBXMorphicCommand.FreeOnExecute
 0001:00001574       Data.DBXCommon.TDBXMorphicCommand.GetNextReader
 0001:0000154C       Data.DBXCommon.TDBXMorphicCommand.GetParameters
 0001:0000155C       Data.DBXCommon.TDBXMorphicCommand.GetRowsAffected
 0001:0000156C       Data.DBXCommon.TDBXMorphicCommand.Prepare
 0001:000015BC       Data.DBXCommon.TDBXMorphicCommand.SetCommandType
 0001:000015AC       Data.DBXCommon.TDBXMorphicCommand.SetMaxBlobSize
 0001:000015B4       Data.DBXCommon.TDBXMorphicCommand.SetRowSetSize
 0001:000015C4       Data.DBXCommon.TDBXMorphicCommand.SetText
 0001:0000136C       Data.DBXCommon.TDBXProperties.Create
 0001:00001364       Data.DBXCommon.TDBXProperties.Create
 0001:00001374       Data.DBXCommon.TDBXProperties.Destroy
 0001:0000137C       Data.DBXCommon.TDBXProperties.DoOnChange
 0001:00001384       Data.DBXCommon.TDBXProperties.GetLists
 0001:0000138C       Data.DBXCommon.TDBXProperties.GetValue
 0001:00001394       Data.DBXCommon.TDBXProperties.SetValue
 0002:00000130       Data.DBXDynalink.Data.DBXDynalink
 0001:0000169C       Data.DBXDynalink.Finalization
 0001:00001664       Data.DBXDynalink.TDBXDynalinkConnection.Close
 0001:0000166C       Data.DBXDynalink.TDBXDynalinkConnection.Commit
 0001:00001684       Data.DBXDynalink.TDBXDynalinkConnection.Create
 0001:0000165C       Data.DBXDynalink.TDBXDynalinkConnection.CreateAndBeginTransaction
 0001:0000168C       Data.DBXDynalink.TDBXDynalinkConnection.DerivedOpen
 0001:00001694       Data.DBXDynalink.TDBXDynalinkConnection.GetVendorProperty
 0001:00001674       Data.DBXDynalink.TDBXDynalinkConnection.Rollback
 0001:0000167C       Data.DBXDynalink.TDBXDynalinkConnection.SetTraceInfoEvent
 0001:00001624       Data.DBXDynalink.TDBXDynalinkDriver.CheckResult
 0001:0000162C       Data.DBXDynalink.TDBXDynalinkDriver.Close
 0001:00001634       Data.DBXDynalink.TDBXDynalinkDriver.Destroy
 0001:0000163C       Data.DBXDynalink.TDBXDynalinkDriver.GetDriverVersion
 0001:00001644       Data.DBXDynalink.TDBXDynalinkDriverCommonLoader.Create
 0001:0000164C       Data.DBXDynalink.TDBXDynalinkDriverCommonLoader.Load
 0001:00001654       Data.DBXDynalink.TDBXDynalinkDriverCommonLoader.LoadDriverLibrary
 0001:00001614       Data.DBXDynalinkNative.TDBXDynalinkDriverLoader.CreateDynalinkDriver
 0001:0000161C       Data.DBXDynalinkNative.TDBXDynalinkDriverLoader.CreateMethodTable
 0001:0000160C       Data.DBXDynalinkNative.TDBXDynalinkDriverNative.Create
 0001:000019BC       Data.DBXMetaDataCommand.TDBXMetaDataCommand.Create
 0001:000019F4       Data.DBXMetaDataCommand.TDBXMetaDataCommand.DerivedClose
 0001:00001A04       Data.DBXMetaDataCommand.TDBXMetaDataCommand.DerivedExecuteQuery
 0001:00001A0C       Data.DBXMetaDataCommand.TDBXMetaDataCommand.DerivedExecuteUpdate
 0001:000019E4       Data.DBXMetaDataCommand.TDBXMetaDataCommand.DerivedGetNextReader
 0001:000019EC       Data.DBXMetaDataCommand.TDBXMetaDataCommand.DerivedOpen
 0001:000019FC       Data.DBXMetaDataCommand.TDBXMetaDataCommand.DerivedPrepare
 0001:000019C4       Data.DBXMetaDataCommand.TDBXMetaDataCommand.Destroy
 0001:000019DC       Data.DBXMetaDataCommand.TDBXMetaDataCommand.GetRowsAffected
 0001:000019D4       Data.DBXMetaDataCommand.TDBXMetaDataCommand.SetMaxBlobSize
 0001:000019CC       Data.DBXMetaDataCommand.TDBXMetaDataCommand.SetRowSetSize
 0001:00001A64       Data.DBXMetaDataCommandFactory.TDBXDataExpressProviderContext.Commit
 0001:00001A24       Data.DBXMetaDataCommandFactory.TDBXDataExpressProviderContext.Create
 0001:00001A4C       Data.DBXMetaDataCommandFactory.TDBXDataExpressProviderContext.CreateRowStorage
 0001:00001A44       Data.DBXMetaDataCommandFactory.TDBXDataExpressProviderContext.CreateTableStorage
 0001:00001A2C       Data.DBXMetaDataCommandFactory.TDBXDataExpressProviderContext.Destroy
 0001:00001A3C       Data.DBXMetaDataCommandFactory.TDBXDataExpressProviderContext.ExecuteQuery
 0001:00001A34       Data.DBXMetaDataCommandFactory.TDBXDataExpressProviderContext.GetPlatformTypeName
 0001:00001A74       Data.DBXMetaDataCommandFactory.TDBXDataExpressProviderContext.GetVendorProperty
 0001:00001A6C       Data.DBXMetaDataCommandFactory.TDBXDataExpressProviderContext.Rollback
 0001:00001A5C       Data.DBXMetaDataCommandFactory.TDBXDataExpressProviderContext.StartSerializedTransaction
 0001:00001A54       Data.DBXMetaDataCommandFactory.TDBXDataExpressProviderContext.StartTransaction
 0001:00001A14       Data.DBXMetaDataCommandFactory.TDBXMetaDataCommandFactory.RegisterMetaDataCommandFactory
 0001:00001A1C       Data.DBXMetaDataCommandFactory.TDBXMetaDataCommandFactory.UnRegisterMetaDataCommandFactory
 0001:000017D4       Data.DBXMetaDataReader.TDBXBaseMetaDataReader.AreCatalogFunctionsSupported
 0001:000017BC       Data.DBXMetaDataReader.TDBXBaseMetaDataReader.CompareVersion
 0001:00001784       Data.DBXMetaDataReader.TDBXBaseMetaDataReader.Destroy
 0001:00001844       Data.DBXMetaDataReader.TDBXBaseMetaDataReader.FetchCatalogs
 0001:00001824       Data.DBXMetaDataReader.TDBXBaseMetaDataReader.FetchCollection
 0001:00001834       Data.DBXMetaDataReader.TDBXBaseMetaDataReader.FetchCollectionWithStorage
 0001:0000186C       Data.DBXMetaDataReader.TDBXBaseMetaDataReader.FetchColumnConstraints
 0001:00001864       Data.DBXMetaDataReader.TDBXBaseMetaDataReader.FetchColumns
 0001:0000183C       Data.DBXMetaDataReader.TDBXBaseMetaDataReader.FetchDataTypes
 0001:0000188C       Data.DBXMetaDataReader.TDBXBaseMetaDataReader.FetchForeignKeyColumns
 0001:00001884       Data.DBXMetaDataReader.TDBXBaseMetaDataReader.FetchForeignKeys
 0001:0000187C       Data.DBXMetaDataReader.TDBXBaseMetaDataReader.FetchIndexColumns
 0001:00001874       Data.DBXMetaDataReader.TDBXBaseMetaDataReader.FetchIndexes
 0001:000018C4       Data.DBXMetaDataReader.TDBXBaseMetaDataReader.FetchPackageProcedureParameters
 0001:000018BC       Data.DBXMetaDataReader.TDBXBaseMetaDataReader.FetchPackageProcedures
 0001:000018B4       Data.DBXMetaDataReader.TDBXBaseMetaDataReader.FetchPackages
 0001:000018CC       Data.DBXMetaDataReader.TDBXBaseMetaDataReader.FetchPackageSources
 0001:000018AC       Data.DBXMetaDataReader.TDBXBaseMetaDataReader.FetchProcedureParameters
 0001:0000189C       Data.DBXMetaDataReader.TDBXBaseMetaDataReader.FetchProcedures
 0001:000018A4       Data.DBXMetaDataReader.TDBXBaseMetaDataReader.FetchProcedureSources
 0001:000018E4       Data.DBXMetaDataReader.TDBXBaseMetaDataReader.FetchReservedWords
 0001:000018DC       Data.DBXMetaDataReader.TDBXBaseMetaDataReader.FetchRoles
 0001:0000184C       Data.DBXMetaDataReader.TDBXBaseMetaDataReader.FetchSchemas
 0001:00001894       Data.DBXMetaDataReader.TDBXBaseMetaDataReader.FetchSynonyms
 0001:00001854       Data.DBXMetaDataReader.TDBXBaseMetaDataReader.FetchTables
 0001:000018D4       Data.DBXMetaDataReader.TDBXBaseMetaDataReader.FetchUsers
 0001:0000185C       Data.DBXMetaDataReader.TDBXBaseMetaDataReader.FetchViews
 0001:00001794       Data.DBXMetaDataReader.TDBXBaseMetaDataReader.GetContext
 0001:000018EC       Data.DBXMetaDataReader.TDBXBaseMetaDataReader.GetDataTypeDescriptions
 0001:0000180C       Data.DBXMetaDataReader.TDBXBaseMetaDataReader.GetDataTypeHash
 0001:00001814       Data.DBXMetaDataReader.TDBXBaseMetaDataReader.GetDataTypes
 0001:0000179C       Data.DBXMetaDataReader.TDBXBaseMetaDataReader.GetProductName
 0001:000018F4       Data.DBXMetaDataReader.TDBXBaseMetaDataReader.GetReservedWords
 0001:000017B4       Data.DBXMetaDataReader.TDBXBaseMetaDataReader.GetSqlDefaultParameterMarker
 0001:00001904       Data.DBXMetaDataReader.TDBXBaseMetaDataReader.GetSqlForCatalogs
 0001:0000192C       Data.DBXMetaDataReader.TDBXBaseMetaDataReader.GetSqlForColumnConstraints
 0001:00001924       Data.DBXMetaDataReader.TDBXBaseMetaDataReader.GetSqlForColumns
 0001:000018FC       Data.DBXMetaDataReader.TDBXBaseMetaDataReader.GetSqlForDataTypes
 0001:0000194C       Data.DBXMetaDataReader.TDBXBaseMetaDataReader.GetSqlForForeignKeyColumns
 0001:00001944       Data.DBXMetaDataReader.TDBXBaseMetaDataReader.GetSqlForForeignKeys
 0001:0000193C       Data.DBXMetaDataReader.TDBXBaseMetaDataReader.GetSqlForIndexColumns
 0001:00001934       Data.DBXMetaDataReader.TDBXBaseMetaDataReader.GetSqlForIndexes
 0001:00001984       Data.DBXMetaDataReader.TDBXBaseMetaDataReader.GetSqlForPackageProcedureParameters
 0001:0000197C       Data.DBXMetaDataReader.TDBXBaseMetaDataReader.GetSqlForPackageProcedures
 0001:00001974       Data.DBXMetaDataReader.TDBXBaseMetaDataReader.GetSqlForPackages
 0001:0000198C       Data.DBXMetaDataReader.TDBXBaseMetaDataReader.GetSqlForPackageSources
 0001:0000196C       Data.DBXMetaDataReader.TDBXBaseMetaDataReader.GetSqlForProcedureParameters
 0001:0000195C       Data.DBXMetaDataReader.TDBXBaseMetaDataReader.GetSqlForProcedures
 0001:00001964       Data.DBXMetaDataReader.TDBXBaseMetaDataReader.GetSqlForProcedureSources
 0001:000019A4       Data.DBXMetaDataReader.TDBXBaseMetaDataReader.GetSqlForReservedWords
 0001:0000199C       Data.DBXMetaDataReader.TDBXBaseMetaDataReader.GetSqlForRoles
 0001:0000190C       Data.DBXMetaDataReader.TDBXBaseMetaDataReader.GetSqlForSchemas
 0001:00001954       Data.DBXMetaDataReader.TDBXBaseMetaDataReader.GetSqlForSynonyms
 0001:00001914       Data.DBXMetaDataReader.TDBXBaseMetaDataReader.GetSqlForTables
 0001:00001994       Data.DBXMetaDataReader.TDBXBaseMetaDataReader.GetSqlForUsers
 0001:0000191C       Data.DBXMetaDataReader.TDBXBaseMetaDataReader.GetSqlForViews
 0001:000017FC       Data.DBXMetaDataReader.TDBXBaseMetaDataReader.GetSynonymType
 0001:000017EC       Data.DBXMetaDataReader.TDBXBaseMetaDataReader.GetSystemTableType
 0001:000017F4       Data.DBXMetaDataReader.TDBXBaseMetaDataReader.GetSystemViewType
 0001:000017DC       Data.DBXMetaDataReader.TDBXBaseMetaDataReader.GetTableType
 0001:000017A4       Data.DBXMetaDataReader.TDBXBaseMetaDataReader.GetVersion
 0001:000017E4       Data.DBXMetaDataReader.TDBXBaseMetaDataReader.GetViewType
 0001:000017C4       Data.DBXMetaDataReader.TDBXBaseMetaDataReader.IsQuotedIdentifiersSupported
 0001:000017CC       Data.DBXMetaDataReader.TDBXBaseMetaDataReader.IsSPReturnCodeSupported
 0001:0000182C       Data.DBXMetaDataReader.TDBXBaseMetaDataReader.MakeStorage
 0001:00001804       Data.DBXMetaDataReader.TDBXBaseMetaDataReader.MakeTableTypeString
 0001:0000181C       Data.DBXMetaDataReader.TDBXBaseMetaDataReader.PopulateDataTypes
 0001:0000178C       Data.DBXMetaDataReader.TDBXBaseMetaDataReader.SetContext
 0001:000017AC       Data.DBXMetaDataReader.TDBXBaseMetaDataReader.SetVersion
 0001:000016A4       Data.DBXMetaDataReader.TDBXCustomMetaDataTable.Create
 0001:000016AC       Data.DBXMetaDataReader.TDBXDataTypeCursor.Create
 0001:000016B4       Data.DBXMetaDataReader.TDBXDataTypeDescription.Create
 0001:000016BC       Data.DBXMetaDataReader.TDBXDataTypeDescription.Create
 0001:000016C4       Data.DBXMetaDataReader.TDBXDataTypeDescription.SetUnicodeOptionSupported
 0001:000016CC       Data.DBXMetaDataReader.TDBXEmptyTableCursor.Create
 0001:000016DC       Data.DBXMetaDataReader.TDBXMetaDataCollectionColumns.CreateCatalogsColumns
 0001:0000170C       Data.DBXMetaDataReader.TDBXMetaDataCollectionColumns.CreateColumnConstraintsColumns
 0001:00001704       Data.DBXMetaDataReader.TDBXMetaDataCollectionColumns.CreateColumnsColumns
 0001:000016D4       Data.DBXMetaDataReader.TDBXMetaDataCollectionColumns.CreateDataTypesColumns
 0001:0000172C       Data.DBXMetaDataReader.TDBXMetaDataCollectionColumns.CreateForeignKeyColumnsColumns
 0001:00001724       Data.DBXMetaDataReader.TDBXMetaDataCollectionColumns.CreateForeignKeysColumns
 0001:0000171C       Data.DBXMetaDataReader.TDBXMetaDataCollectionColumns.CreateIndexColumnsColumns
 0001:00001714       Data.DBXMetaDataReader.TDBXMetaDataCollectionColumns.CreateIndexesColumns
 0001:0000175C       Data.DBXMetaDataReader.TDBXMetaDataCollectionColumns.CreatePackageProcedureParametersColumns
 0001:00001754       Data.DBXMetaDataReader.TDBXMetaDataCollectionColumns.CreatePackageProceduresColumns
 0001:0000174C       Data.DBXMetaDataReader.TDBXMetaDataCollectionColumns.CreatePackagesColumns
 0001:00001764       Data.DBXMetaDataReader.TDBXMetaDataCollectionColumns.CreatePackageSourcesColumns
 0001:00001744       Data.DBXMetaDataReader.TDBXMetaDataCollectionColumns.CreateProcedureParametersColumns
 0001:00001734       Data.DBXMetaDataReader.TDBXMetaDataCollectionColumns.CreateProceduresColumns
 0001:0000173C       Data.DBXMetaDataReader.TDBXMetaDataCollectionColumns.CreateProcedureSourcesColumns
 0001:0000177C       Data.DBXMetaDataReader.TDBXMetaDataCollectionColumns.CreateReservedWordsColumns
 0001:00001774       Data.DBXMetaDataReader.TDBXMetaDataCollectionColumns.CreateRolesColumns
 0001:000016E4       Data.DBXMetaDataReader.TDBXMetaDataCollectionColumns.CreateSchemasColumns
 0001:000016FC       Data.DBXMetaDataReader.TDBXMetaDataCollectionColumns.CreateSynonymsColumns
 0001:000016EC       Data.DBXMetaDataReader.TDBXMetaDataCollectionColumns.CreateTablesColumns
 0001:0000176C       Data.DBXMetaDataReader.TDBXMetaDataCollectionColumns.CreateUsersColumns
 0001:000016F4       Data.DBXMetaDataReader.TDBXMetaDataCollectionColumns.CreateViewsColumns
 0001:000019AC       Data.DBXMetaDataReader.TDBXReservedWordsCursor.Create
 0001:000019B4       Data.DBXMetaDataReader.TDBXTableTypeParser.ParseTableTypes
 0001:000012B4       Data.DBXPlatform.FreeObjectArray
 0001:000012AC       Data.DBXPlatform.IncrAfter
 0001:000012BC       Data.DBXPlatform.TDBXObjectStore.SetObjectByName
 0001:000012CC       Data.DBXPlatform.TDBXPlatform.CopyWideStringBuilder
 0001:000012C4       Data.DBXPlatform.TDBXPlatform.CreateWideStringBuilder
 0001:000012D4       Data.DBXPlatform.TDBXPlatform.FreeAndNilWideStringBuilder
 0002:000000C8       Data.FmtBcd.Data.FmtBcd
 0001:0000129C       Data.FmtBcd.Finalization
 0002:000000C0       Data.SqlTimSt.Data.SqlTimSt
 0001:00001294       Data.SqlTimSt.Finalization
 0002:00000108       Datasnap.DBClient.Datasnap.DBClient
 0001:0000130C       Datasnap.DBClient.Finalization
 0002:00000100       Datasnap.DSIntf.Datasnap.DSIntf
 0001:00001304       Datasnap.DSIntf.Finalization
 0002:00000110       Datasnap.Provider.Datasnap.Provider
 0001:00001314       Datasnap.Provider.Finalization
 0004:00000028       Dbx34Drv..71
 0001:000391E8       Dbx34Drv..EDBXError
 0001:00039284       Dbx34Drv..EDbxOODBCDriverError
 0001:00039BD8       Dbx34Drv..TDBXCustomOpenODBCMetaDataReader
 0001:00039AE4       Dbx34Drv..TDBXDataExpressProviderContextOpenOdbc
 0001:0003985C       Dbx34Drv..TDBXDynalinkConnectionOpenOdbc
 0001:00039784       Dbx34Drv..TDBXDynalinkDriverLoaderOpenOdbc
 0001:000399B8       Dbx34Drv..TDBXMorphicCommandOpenOdbc
 0001:00039490       Dbx34Drv..TDbxOpenOdbcDriver
 0001:00039DE8       Dbx34Drv..TDBXOpenODBCMetaDataCommand
 0001:00039F8C       Dbx34Drv..TDBXOpenODBCMetaDataCommandFactory
 0001:0003A098       Dbx34Drv..TDBXOpenODBCMetaDataCommandFactoryCustom
 0001:0003A17C       Dbx34Drv..TDBXOpenODBCMetaDataReader
 0001:00039564       Dbx34Drv..TDBXOpenOdbcProperties
 0001:00039338       Dbx34Drv..TDBXOpenOdbcPropertyNames
 0001:000393EC       Dbx34Drv..TDBXPropertyNames
 0003:00000094       Dbx34Drv.bIsDbx34Drv
 0001:0003A6F4       Dbx34Drv.CheckGetVendorPropertyCommand
 0001:0003A9DC       Dbx34Drv.CheckLibraryName
 0001:0003A950       Dbx34Drv.CheckLibraryPath
 0001:0003A790       Dbx34Drv.CheckPathEnvironmet
 0001:0003AA28       Dbx34Drv.CheckVendorLib
 0002:000001BC       Dbx34Drv.Dbx34Drv
 0001:0003A468       Dbx34Drv.DBXStringArrayToErrorInfo
 0001:0003A370       Dbx34Drv.DBXStringArrayToNamedQueryParams
 0001:0003A5B0       Dbx34Drv.ErrorGetVendorPropertyCommand
 0001:0003E7C4       Dbx34Drv.Finalization
 0001:0003B64C       Dbx34Drv.RaiseDriverVersionFailed
 0001:0003BEB4       Dbx34Drv.TDBXCustomOpenODBCMetaDataReader.CheckMetadata
 0001:0003BF50       Dbx34Drv.TDBXCustomOpenODBCMetaDataReader.GetProductName
 0001:0003BFD0       Dbx34Drv.TDBXCustomOpenODBCMetaDataReader.GetSqlIdentifierQuoteChar
 0001:0003BF94       Dbx34Drv.TDBXCustomOpenODBCMetaDataReader.GetSqlIdentifierQuotePrefix
 0001:0003BFA8       Dbx34Drv.TDBXCustomOpenODBCMetaDataReader.GetSqlIdentifierQuoteSuffix
 0001:0003BFE4       Dbx34Drv.TDBXCustomOpenODBCMetaDataReader.GetSqlProcedureQuoteChar
 0001:0003C008       Dbx34Drv.TDBXCustomOpenODBCMetaDataReader.GetUseAnsiStrings
 0001:0003BDDC       Dbx34Drv.TDBXCustomOpenODBCMetaDataReader.InitMetadata
 0001:0003BFCC       Dbx34Drv.TDBXCustomOpenODBCMetaDataReader.IsDescendingIndexColumnsSupported
 0001:0003BFC8       Dbx34Drv.TDBXCustomOpenODBCMetaDataReader.IsDescendingIndexSupported
 0001:0003BFC0       Dbx34Drv.TDBXCustomOpenODBCMetaDataReader.IsLowerCaseIdentifiersSupported
 0001:0003BFF8       Dbx34Drv.TDBXCustomOpenODBCMetaDataReader.IsMultipleCommandsSupported
 0001:0003C000       Dbx34Drv.TDBXCustomOpenODBCMetaDataReader.IsNestedTransactionsSupported
 0001:0003BFBC       Dbx34Drv.TDBXCustomOpenODBCMetaDataReader.IsParameterMetadataSupported
 0001:0003C004       Dbx34Drv.TDBXCustomOpenODBCMetaDataReader.IsSetRowSizeSupported
 0001:0003BFFC       Dbx34Drv.TDBXCustomOpenODBCMetaDataReader.IsTransactionsSupported
 0001:0003BFC4       Dbx34Drv.TDBXCustomOpenODBCMetaDataReader.IsUpperCaseIdentifiersSupported
 0001:0003BF38       Dbx34Drv.TDBXCustomOpenODBCMetaDataReader.SetContext
 0001:0003BCFC       Dbx34Drv.TDBXDynalinkConnectionOpenOdbc.Close
 0001:0003BCF0       Dbx34Drv.TDBXDynalinkConnectionOpenOdbc.DerivedClose
 0001:0003BD04       Dbx34Drv.TDBXDynalinkConnectionOpenOdbc.DerivedCreateCommand
 0001:0003B644       Dbx34Drv.TDBXDynalinkConnectionOpenOdbc.DerivedGetCommands
 0001:0003B648       Dbx34Drv.TDBXDynalinkConnectionOpenOdbc.DerivedGetCommandTypes
 0001:0003B6D0       Dbx34Drv.TDBXDynalinkConnectionOpenOdbc.DerivedOpen
 0001:0003BC04       Dbx34Drv.TDBXDynalinkConnectionOpenOdbc.DoDerivedOpenAfter
 0001:0003B840       Dbx34Drv.TDBXDynalinkConnectionOpenOdbc.DoDerivedOpenBefore
 0001:0003BCF4       Dbx34Drv.TDBXDynalinkConnectionOpenOdbc.GetDatabaseMetaData
 0001:0003B60C       Dbx34Drv.TDBXDynalinkConnectionOpenOdbc.GetProductName
 0001:0003B5F8       Dbx34Drv.TDBXDynalinkConnectionOpenOdbc.GetProductVersion
 0001:0003BD18       Dbx34Drv.TDBXDynalinkConnectionOpenOdbc.GetVendorProperty
 0001:0003B5E0       Dbx34Drv.TDBXDynalinkDriverLoaderOpenOdbc.FreeOldLibrary
 0001:0003B34C       Dbx34Drv.TDBXDynalinkDriverLoaderOpenOdbc.LoadDriverLibraryAndMethodTable
 0001:0003BD94       Dbx34Drv.TDBXMorphicCommandOpenOdbc.Create
 0001:0003BDD4       Dbx34Drv.TDBXMorphicCommandOpenOdbc.DerivedExecuteQuery
 0001:0003AA70       Dbx34Drv.TDbxOpenOdbcDriver.Create
 0001:0003AB28       Dbx34Drv.TDbxOpenOdbcDriver.CreateCommandOpenOdbc
 0001:0003AB40       Dbx34Drv.TDbxOpenOdbcDriver.CreateConnection
 0001:0003AC10       Dbx34Drv.TDbxOpenOdbcDriver.GetDriverPropertyNames
 0001:0003AC18       Dbx34Drv.TDbxOpenOdbcDriver.GetDriverVersion
 0001:0003AB84       Dbx34Drv.TDbxOpenOdbcDriver.LoadDriverWithConnectionBuilder
 0001:0003C010       Dbx34Drv.TDBXOpenODBCMetaDataCommand.DerivedExecuteQuery
 0001:0003C220       Dbx34Drv.TDBXOpenODBCMetaDataCommandFactory.CreateCommand
 0001:0003C338       Dbx34Drv.TDBXOpenODBCMetaDataCommandFactory.CreateMetaDataReader
 0001:0003C590       Dbx34Drv.TDBXOpenODBCMetaDataCommandFactory.CreateMetaDataReader
 0001:0003C02C       Dbx34Drv.TDBXOpenODBCMetaDataCommandFactory.GetMetaDataReaderClass
 0001:0003C300       Dbx34Drv.TDBXOpenODBCMetaDataCommandFactory.GetProductName
 0001:0003C034       Dbx34Drv.TDBXOpenODBCMetaDataCommandFactory.InitMetaDataReaderClass
 0001:0003C59C       Dbx34Drv.TDBXOpenODBCMetaDataCommandFactory.RegisterMetaDataCommandFactory
 0001:0003C5A4       Dbx34Drv.TDBXOpenODBCMetaDataCommandFactory.UnRegisterMetaDataCommandFactory
 0001:0003C018       Dbx34Drv.TDBXOpenODBCMetaDataCommandFactoryCustom.CreateMetaDataReader
 0001:0003C5AC       Dbx34Drv.TDBXOpenODBCMetaDataReader.Create
 0001:0003C650       Dbx34Drv.TDBXOpenODBCMetaDataReader.FetchCatalogs
 0001:0003CF2C       Dbx34Drv.TDBXOpenODBCMetaDataReader.FetchColumnConstraints
 0001:0003CDF4       Dbx34Drv.TDBXOpenODBCMetaDataReader.FetchColumns
 0001:0003C5E8       Dbx34Drv.TDBXOpenODBCMetaDataReader.FetchDataTypes
 0001:0003D064       Dbx34Drv.TDBXOpenODBCMetaDataReader.FetchForeignKeyColumns
 0001:0003D1B4       Dbx34Drv.TDBXOpenODBCMetaDataReader.FetchForeignKeys
 0001:0003D2E0       Dbx34Drv.TDBXOpenODBCMetaDataReader.FetchIndexColumns
 0001:0003D684       Dbx34Drv.TDBXOpenODBCMetaDataReader.FetchIndexes
 0001:0003E114       Dbx34Drv.TDBXOpenODBCMetaDataReader.FetchPackageProcedureParameters
 0001:0003DFD4       Dbx34Drv.TDBXOpenODBCMetaDataReader.FetchPackageProcedures
 0001:0003DEAC       Dbx34Drv.TDBXOpenODBCMetaDataReader.FetchPackages
 0001:0003E280       Dbx34Drv.TDBXOpenODBCMetaDataReader.FetchPackageSources
 0001:0003DD58       Dbx34Drv.TDBXOpenODBCMetaDataReader.FetchProcedureParameters
 0001:0003D9C8       Dbx34Drv.TDBXOpenODBCMetaDataReader.FetchProcedures
 0001:0003DAF8       Dbx34Drv.TDBXOpenODBCMetaDataReader.FetchProcedureSources
 0001:0003E564       Dbx34Drv.TDBXOpenODBCMetaDataReader.FetchReservedWords
 0001:0003E48C       Dbx34Drv.TDBXOpenODBCMetaDataReader.FetchRoles
 0001:0003C6D0       Dbx34Drv.TDBXOpenODBCMetaDataReader.FetchSchemas
 0001:0003DC30       Dbx34Drv.TDBXOpenODBCMetaDataReader.FetchSynonyms
 0001:0003C7F0       Dbx34Drv.TDBXOpenODBCMetaDataReader.FetchTables
 0001:0003E3B4       Dbx34Drv.TDBXOpenODBCMetaDataReader.FetchUsers
 0001:0003CCCC       Dbx34Drv.TDBXOpenODBCMetaDataReader.FetchViews
 0001:0003E698       Dbx34Drv.TDBXOpenODBCMetaDataReader.GetProductName
 0001:0003E6D0       Dbx34Drv.TDBXOpenODBCMetaDataReader.GetReservedWords
 0001:0003E6E4       Dbx34Drv.TDBXOpenODBCMetaDataReader.GetSqlForColumns
 0001:0003E6F0       Dbx34Drv.TDBXOpenODBCMetaDataReader.GetSqlForForeignKeyColumns
 0001:0003E6FC       Dbx34Drv.TDBXOpenODBCMetaDataReader.GetSqlForForeignKeys
 0001:0003E708       Dbx34Drv.TDBXOpenODBCMetaDataReader.GetSqlForIndexColumns
 0001:0003E714       Dbx34Drv.TDBXOpenODBCMetaDataReader.GetSqlForIndexes
 0001:0003E720       Dbx34Drv.TDBXOpenODBCMetaDataReader.GetSqlForPackageProcedureParameters
 0001:0003E72C       Dbx34Drv.TDBXOpenODBCMetaDataReader.GetSqlForPackageProcedures
 0001:0003E738       Dbx34Drv.TDBXOpenODBCMetaDataReader.GetSqlForPackages
 0001:0003E744       Dbx34Drv.TDBXOpenODBCMetaDataReader.GetSqlForPackageSources
 0001:0003E750       Dbx34Drv.TDBXOpenODBCMetaDataReader.GetSqlForProcedureParameters
 0001:0003E75C       Dbx34Drv.TDBXOpenODBCMetaDataReader.GetSqlForProcedures
 0001:0003E768       Dbx34Drv.TDBXOpenODBCMetaDataReader.GetSqlForProcedureSources
 0001:0003E774       Dbx34Drv.TDBXOpenODBCMetaDataReader.GetSqlForRoles
 0001:0003E780       Dbx34Drv.TDBXOpenODBCMetaDataReader.GetSqlForSchemas
 0001:0003E78C       Dbx34Drv.TDBXOpenODBCMetaDataReader.GetSqlForSynonyms
 0001:0003E798       Dbx34Drv.TDBXOpenODBCMetaDataReader.GetSqlForTables
 0001:0003E7A4       Dbx34Drv.TDBXOpenODBCMetaDataReader.GetSqlForUsers
 0001:0003E7B0       Dbx34Drv.TDBXOpenODBCMetaDataReader.GetSqlForViews
 0001:0003E7BC       Dbx34Drv.TDBXOpenODBCMetaDataReader.IsNestedTransactionsSupported
 0001:0003E7C0       Dbx34Drv.TDBXOpenODBCMetaDataReader.IsSetRowSizeSupported
 0001:0003AC54       Dbx34Drv.TDBXOpenOdbcProperties.Create
 0001:0003AFBC       Dbx34Drv.TDBXOpenOdbcProperties.GetBlobSize
 0001:0003ADFC       Dbx34Drv.TDBXOpenOdbcProperties.GetConnectionString
 0001:0003B2D4       Dbx34Drv.TDBXOpenOdbcProperties.GetCustomString
 0001:0003AE84       Dbx34Drv.TDBXOpenOdbcProperties.GetDatabase
 0001:0003B160       Dbx34Drv.TDBXOpenOdbcProperties.GetDecimalSeparator
 0001:0003B0B0       Dbx34Drv.TDBXOpenOdbcProperties.GetOdbcTransIsolation
 0001:0003AF54       Dbx34Drv.TDBXOpenOdbcProperties.GetPassWord
 0001:0003B1E8       Dbx34Drv.TDBXOpenOdbcProperties.GetTrimChar
 0001:0003AEEC       Dbx34Drv.TDBXOpenOdbcProperties.GetUserName
 0001:0003B038       Dbx34Drv.TDBXOpenOdbcProperties.SetBlobSize
 0001:0003AE44       Dbx34Drv.TDBXOpenOdbcProperties.SetConnectionString
 0001:0003B314       Dbx34Drv.TDBXOpenOdbcProperties.SetCustomString
 0001:0003AEBC       Dbx34Drv.TDBXOpenOdbcProperties.SetDatabase
 0001:0003B1A8       Dbx34Drv.TDBXOpenOdbcProperties.SetDecimalSeparator
 0001:0003B10C       Dbx34Drv.TDBXOpenOdbcProperties.SetOdbcTransIsolation
 0001:0003AF8C       Dbx34Drv.TDBXOpenOdbcProperties.SetPassWord
 0001:0003B25C       Dbx34Drv.TDBXOpenOdbcProperties.SetTrimChar
 0001:0003AF24       Dbx34Drv.TDBXOpenOdbcProperties.SetUserName
 0004:00000024       Dbx34DrvDbms..52
 0001:00002EF8       Dbx34DrvDbms..TDBXOpenODBCMetaDataCommandFactoryDataStorage
 0001:00002918       Dbx34DrvDbms..TDBXOpenODBCMetaDataCommandFactoryDB2
 0001:000031F4       Dbx34DrvDbms..TDBXOpenODBCMetaDataCommandFactoryFirebird
 0001:00002BF4       Dbx34DrvDbms..TDBXOpenODBCMetaDataCommandFactoryInformix
 0001:000034F8       Dbx34DrvDbms..TDBXOpenODBCMetaDataCommandFactoryInterbase
 0001:00001D68       Dbx34DrvDbms..TDBXOpenODBCMetaDataCommandFactoryMSSQL
 0001:0000204C       Dbx34DrvDbms..TDBXOpenODBCMetaDataCommandFactoryMySQL
 0001:00001A7C       Dbx34DrvDbms..TDBXOpenODBCMetaDataCommandFactoryOracle
 0001:00003AE8       Dbx34DrvDbms..TDBXOpenODBCMetaDataCommandFactoryPostgreSQL
 0001:000037FC       Dbx34DrvDbms..TDBXOpenODBCMetaDataCommandFactorySQLite
 0001:00002330       Dbx34DrvDbms..TDBXOpenODBCMetaDataCommandFactorySybaseASA
 0001:00002624       Dbx34DrvDbms..TDBXOpenODBCMetaDataCommandFactorySybaseASE
 0001:00002FE8       Dbx34DrvDbms..TDBXOpenODBCMetaDataReaderDataStorage
 0001:000029F8       Dbx34DrvDbms..TDBXOpenODBCMetaDataReaderDB2
 0001:000032E0       Dbx34DrvDbms..TDBXOpenODBCMetaDataReaderFirebird
 0001:00002CE0       Dbx34DrvDbms..TDBXOpenODBCMetaDataReaderInformix
 0001:000035E4       Dbx34DrvDbms..TDBXOpenODBCMetaDataReaderInterbase
 0001:00001E4C       Dbx34DrvDbms..TDBXOpenODBCMetaDataReaderMSSQL
 0001:00002130       Dbx34DrvDbms..TDBXOpenODBCMetaDataReaderMySQL
 0001:00001B64       Dbx34DrvDbms..TDBXOpenODBCMetaDataReaderOracle
 0001:00003BD8       Dbx34DrvDbms..TDBXOpenODBCMetaDataReaderPostgreSQL
 0001:000038E4       Dbx34DrvDbms..TDBXOpenODBCMetaDataReaderSQLite
 0001:0000241C       Dbx34DrvDbms..TDBXOpenODBCMetaDataReaderSybaseASA
 0001:00002710       Dbx34DrvDbms..TDBXOpenODBCMetaDataReaderSybaseASE
 0002:00000138       Dbx34DrvDbms.Dbx34DrvDbms
 0001:00039164       Dbx34DrvDbms.Finalization
 0001:0002C6AC       Dbx34DrvDbms.TDBXOpenODBCMetaDataCommandFactoryDataStorage.GetMetaDataReaderClass
 0001:0001EFA8       Dbx34DrvDbms.TDBXOpenODBCMetaDataCommandFactoryDB2.GetMetaDataReaderClass
 0001:0002C9E8       Dbx34DrvDbms.TDBXOpenODBCMetaDataCommandFactoryFirebird.GetMetaDataReaderClass
 0001:00023F8C       Dbx34DrvDbms.TDBXOpenODBCMetaDataCommandFactoryInformix.GetMetaDataReaderClass
 0001:00031894       Dbx34DrvDbms.TDBXOpenODBCMetaDataCommandFactoryInterbase.GetMetaDataReaderClass
 0001:00006C3C       Dbx34DrvDbms.TDBXOpenODBCMetaDataCommandFactoryMSSQL.GetMetaDataReaderClass
 0001:0000F0CC       Dbx34DrvDbms.TDBXOpenODBCMetaDataCommandFactoryMySQL.GetMetaDataReaderClass
 0001:00003DE4       Dbx34DrvDbms.TDBXOpenODBCMetaDataCommandFactoryOracle.GetMetaDataReaderClass
 0001:00036754       Dbx34DrvDbms.TDBXOpenODBCMetaDataCommandFactoryPostgreSQL.GetMetaDataReaderClass
 0001:00036740       Dbx34DrvDbms.TDBXOpenODBCMetaDataCommandFactorySQLite.GetMetaDataReaderClass
 0001:00013ABC       Dbx34DrvDbms.TDBXOpenODBCMetaDataCommandFactorySybaseASA.GetMetaDataReaderClass
 0001:00019680       Dbx34DrvDbms.TDBXOpenODBCMetaDataCommandFactorySybaseASE.GetMetaDataReaderClass
 0001:0002C7CC       Dbx34DrvDbms.TDBXOpenODBCMetaDataReaderDataStorage.GetSqlForColumns
 0001:0002C920       Dbx34DrvDbms.TDBXOpenODBCMetaDataReaderDataStorage.GetSqlForIndexColumns
 0001:0002C87C       Dbx34DrvDbms.TDBXOpenODBCMetaDataReaderDataStorage.GetSqlForIndexes
 0001:0002C6B4       Dbx34DrvDbms.TDBXOpenODBCMetaDataReaderDataStorage.GetSqlForTables
 0001:00023994       Dbx34DrvDbms.TDBXOpenODBCMetaDataReaderDB2.GetDataTypeDescriptions
 0001:0001EFB0       Dbx34DrvDbms.TDBXOpenODBCMetaDataReaderDB2.GetProductName
 0001:00020100       Dbx34DrvDbms.TDBXOpenODBCMetaDataReaderDB2.GetReservedWords
 0001:0001F580       Dbx34DrvDbms.TDBXOpenODBCMetaDataReaderDB2.GetSqlForColumns
 0001:0001FCA4       Dbx34DrvDbms.TDBXOpenODBCMetaDataReaderDB2.GetSqlForIndexColumns
 0001:0001F904       Dbx34DrvDbms.TDBXOpenODBCMetaDataReaderDB2.GetSqlForIndexes
 0001:0001EFD8       Dbx34DrvDbms.TDBXOpenODBCMetaDataReaderDB2.GetSqlForTables
 0001:00023988       Dbx34DrvDbms.TDBXOpenODBCMetaDataReaderDB2.GetSqlProcedureQuoteChar
 0001:00023950       Dbx34DrvDbms.TDBXOpenODBCMetaDataReaderDB2.GetSystemTableType
 0001:000238E0       Dbx34DrvDbms.TDBXOpenODBCMetaDataReaderDB2.GetTableType
 0001:00023918       Dbx34DrvDbms.TDBXOpenODBCMetaDataReaderDB2.GetViewType
 0001:0002CA24       Dbx34DrvDbms.TDBXOpenODBCMetaDataReaderFirebird.Destroy
 0001:000311BC       Dbx34DrvDbms.TDBXOpenODBCMetaDataReaderFirebird.GetAllDataTypes
 0001:000317D4       Dbx34DrvDbms.TDBXOpenODBCMetaDataReaderFirebird.GetDataTypeDescriptions
 0001:0002C9F0       Dbx34DrvDbms.TDBXOpenODBCMetaDataReaderFirebird.GetProductName
 0001:0002DCA8       Dbx34DrvDbms.TDBXOpenODBCMetaDataReaderFirebird.GetReservedWords
 0001:0002CE80       Dbx34DrvDbms.TDBXOpenODBCMetaDataReaderFirebird.GetSqlForColumns
 0001:0002D78C       Dbx34DrvDbms.TDBXOpenODBCMetaDataReaderFirebird.GetSqlForIndexColumns
 0001:0002D334       Dbx34DrvDbms.TDBXOpenODBCMetaDataReaderFirebird.GetSqlForIndexes
 0001:0002CA50       Dbx34DrvDbms.TDBXOpenODBCMetaDataReaderFirebird.GetSqlForTables
 0001:0003110C       Dbx34DrvDbms.TDBXOpenODBCMetaDataReaderFirebird.IsDescendingIndexColumnsSupported
 0001:00031110       Dbx34DrvDbms.TDBXOpenODBCMetaDataReaderFirebird.SetContext
 0001:00023FE4       Dbx34DrvDbms.TDBXOpenODBCMetaDataReaderInformix.Destroy
 0001:0002BD48       Dbx34DrvDbms.TDBXOpenODBCMetaDataReaderInformix.GetAllDataTypes
 0001:0002C5A8       Dbx34DrvDbms.TDBXOpenODBCMetaDataReaderInformix.GetDataTypeDescriptions
 0001:00023F94       Dbx34DrvDbms.TDBXOpenODBCMetaDataReaderInformix.GetProductName
 0001:00026090       Dbx34DrvDbms.TDBXOpenODBCMetaDataReaderInformix.GetReservedWords
 0001:000245E4       Dbx34DrvDbms.TDBXOpenODBCMetaDataReaderInformix.GetSqlForColumns
 0001:00024EC0       Dbx34DrvDbms.TDBXOpenODBCMetaDataReaderInformix.GetSqlForIndexColumns
 0001:00024A2C       Dbx34DrvDbms.TDBXOpenODBCMetaDataReaderInformix.GetSqlForIndexes
 0001:00024010       Dbx34DrvDbms.TDBXOpenODBCMetaDataReaderInformix.GetSqlForTables
 0001:0002BD0C       Dbx34DrvDbms.TDBXOpenODBCMetaDataReaderInformix.GetSynonymType
 0001:0002BCD4       Dbx34DrvDbms.TDBXOpenODBCMetaDataReaderInformix.GetSystemTableType
 0001:0002BC64       Dbx34DrvDbms.TDBXOpenODBCMetaDataReaderInformix.GetTableType
 0001:0002BC9C       Dbx34DrvDbms.TDBXOpenODBCMetaDataReaderInformix.GetViewType
 0001:0002BD44       Dbx34DrvDbms.TDBXOpenODBCMetaDataReaderInformix.IsUpperCaseIdentifiersSupported
 0001:000318D0       Dbx34DrvDbms.TDBXOpenODBCMetaDataReaderInterbase.Destroy
 0001:00036068       Dbx34DrvDbms.TDBXOpenODBCMetaDataReaderInterbase.GetAllDataTypes
 0001:00036680       Dbx34DrvDbms.TDBXOpenODBCMetaDataReaderInterbase.GetDataTypeDescriptions
 0001:0003189C       Dbx34DrvDbms.TDBXOpenODBCMetaDataReaderInterbase.GetProductName
 0001:00032B54       Dbx34DrvDbms.TDBXOpenODBCMetaDataReaderInterbase.GetReservedWords
 0001:00031D2C       Dbx34DrvDbms.TDBXOpenODBCMetaDataReaderInterbase.GetSqlForColumns
 0001:00032638       Dbx34DrvDbms.TDBXOpenODBCMetaDataReaderInterbase.GetSqlForIndexColumns
 0001:000321E0       Dbx34DrvDbms.TDBXOpenODBCMetaDataReaderInterbase.GetSqlForIndexes
 0001:000318FC       Dbx34DrvDbms.TDBXOpenODBCMetaDataReaderInterbase.GetSqlForTables
 0001:00035FB8       Dbx34DrvDbms.TDBXOpenODBCMetaDataReaderInterbase.IsDescendingIndexColumnsSupported
 0001:00035FBC       Dbx34DrvDbms.TDBXOpenODBCMetaDataReaderInterbase.SetContext
 0001:0000E11C       Dbx34DrvDbms.TDBXOpenODBCMetaDataReaderMSSQL.GetDataTypeDescriptions
 0001:00006C44       Dbx34DrvDbms.TDBXOpenODBCMetaDataReaderMSSQL.GetProductName
 0001:000098FC       Dbx34DrvDbms.TDBXOpenODBCMetaDataReaderMSSQL.GetReservedWords
 0001:000075A8       Dbx34DrvDbms.TDBXOpenODBCMetaDataReaderMSSQL.GetSqlForColumns
 0001:00008E80       Dbx34DrvDbms.TDBXOpenODBCMetaDataReaderMSSQL.GetSqlForIndexColumns
 0001:00008358       Dbx34DrvDbms.TDBXOpenODBCMetaDataReaderMSSQL.GetSqlForIndexes
 0001:00006C90       Dbx34DrvDbms.TDBXOpenODBCMetaDataReaderMSSQL.GetSqlForTables
 0001:0000DFB8       Dbx34DrvDbms.TDBXOpenODBCMetaDataReaderMSSQL.GetSqlIdentifierQuotePrefix
 0001:0000DFDC       Dbx34DrvDbms.TDBXOpenODBCMetaDataReaderMSSQL.GetSqlIdentifierQuoteSuffix
 0001:0000E0E0       Dbx34DrvDbms.TDBXOpenODBCMetaDataReaderMSSQL.GetSynonymType
 0001:0000E070       Dbx34DrvDbms.TDBXOpenODBCMetaDataReaderMSSQL.GetSystemTableType
 0001:0000E0A8       Dbx34DrvDbms.TDBXOpenODBCMetaDataReaderMSSQL.GetSystemViewType
 0001:0000E000       Dbx34DrvDbms.TDBXOpenODBCMetaDataReaderMSSQL.GetTableType
 0001:0000E038       Dbx34DrvDbms.TDBXOpenODBCMetaDataReaderMSSQL.GetViewType
 0001:00012D80       Dbx34DrvDbms.TDBXOpenODBCMetaDataReaderMySQL.GetDataTypeDescriptions
 0001:0000F0D4       Dbx34DrvDbms.TDBXOpenODBCMetaDataReaderMySQL.GetProductName
 0001:00010260       Dbx34DrvDbms.TDBXOpenODBCMetaDataReaderMySQL.GetReservedWords
 0001:0000F4A8       Dbx34DrvDbms.TDBXOpenODBCMetaDataReaderMySQL.GetSqlForColumns
 0001:0000FEBC       Dbx34DrvDbms.TDBXOpenODBCMetaDataReaderMySQL.GetSqlForIndexColumns
 0001:0000FB0C       Dbx34DrvDbms.TDBXOpenODBCMetaDataReaderMySQL.GetSqlForIndexes
 0001:0000F100       Dbx34DrvDbms.TDBXOpenODBCMetaDataReaderMySQL.GetSqlForTables
 0001:00012BBC       Dbx34DrvDbms.TDBXOpenODBCMetaDataReaderMySQL.GetSqlIdentifierQuoteChar
 0001:00012B74       Dbx34DrvDbms.TDBXOpenODBCMetaDataReaderMySQL.GetSqlIdentifierQuotePrefix
 0001:00012B98       Dbx34DrvDbms.TDBXOpenODBCMetaDataReaderMySQL.GetSqlIdentifierQuoteSuffix
 0001:00012BE0       Dbx34DrvDbms.TDBXOpenODBCMetaDataReaderMySQL.GetTableType
 0001:00012C2C       Dbx34DrvDbms.TDBXOpenODBCMetaDataReaderMySQL.IsDescendingIndexColumnsSupported
 0001:00012C34       Dbx34DrvDbms.TDBXOpenODBCMetaDataReaderMySQL.IsMultipleCommandsSupported
 0001:00012C30       Dbx34DrvDbms.TDBXOpenODBCMetaDataReaderMySQL.IsUpperCaseIdentifiersSupported
 0001:00012CE4       Dbx34DrvDbms.TDBXOpenODBCMetaDataReaderMySQL.PopulateDataTypes
 0001:00012C38       Dbx34DrvDbms.TDBXOpenODBCMetaDataReaderMySQL.SetContext
 0001:00005F1C       Dbx34DrvDbms.TDBXOpenODBCMetaDataReaderOracle.GetDataTypeDescriptions
 0001:00003DEC       Dbx34DrvDbms.TDBXOpenODBCMetaDataReaderOracle.GetProductName
 0001:00005030       Dbx34DrvDbms.TDBXOpenODBCMetaDataReaderOracle.GetReservedWords
 0001:0000444C       Dbx34DrvDbms.TDBXOpenODBCMetaDataReaderOracle.GetSqlForColumns
 0001:00004B68       Dbx34DrvDbms.TDBXOpenODBCMetaDataReaderOracle.GetSqlForIndexColumns
 0001:0000476C       Dbx34DrvDbms.TDBXOpenODBCMetaDataReaderOracle.GetSqlForIndexes
 0001:00003E1C       Dbx34DrvDbms.TDBXOpenODBCMetaDataReaderOracle.GetSqlForSchemas
 0001:00003EF8       Dbx34DrvDbms.TDBXOpenODBCMetaDataReaderOracle.GetSqlForTables
 0001:00005DE8       Dbx34DrvDbms.TDBXOpenODBCMetaDataReaderOracle.PopulateDataTypes
 0001:000389E8       Dbx34DrvDbms.TDBXOpenODBCMetaDataReaderPostgreSQL.GetReservedWords
 0001:00036D00       Dbx34DrvDbms.TDBXOpenODBCMetaDataReaderPostgreSQL.GetSqlForColumns
 0001:00037AFC       Dbx34DrvDbms.TDBXOpenODBCMetaDataReaderPostgreSQL.GetSqlForIndexColumns
 0001:000374F4       Dbx34DrvDbms.TDBXOpenODBCMetaDataReaderPostgreSQL.GetSqlForIndexes
 0001:0003675C       Dbx34DrvDbms.TDBXOpenODBCMetaDataReaderPostgreSQL.GetSqlForTables
 0001:00036748       Dbx34DrvDbms.TDBXOpenODBCMetaDataReaderSQLite.GetSqlForTables
 0001:00018AD4       Dbx34DrvDbms.TDBXOpenODBCMetaDataReaderSybaseASA.GetDataTypeDescriptions
 0001:00013AC4       Dbx34DrvDbms.TDBXOpenODBCMetaDataReaderSybaseASA.GetProductName
 0001:00016218       Dbx34DrvDbms.TDBXOpenODBCMetaDataReaderSybaseASA.GetReservedWords
 0001:00014244       Dbx34DrvDbms.TDBXOpenODBCMetaDataReaderSybaseASA.GetSqlForColumns
 0001:00015394       Dbx34DrvDbms.TDBXOpenODBCMetaDataReaderSybaseASA.GetSqlForIndexColumns
 0001:00014730       Dbx34DrvDbms.TDBXOpenODBCMetaDataReaderSybaseASA.GetSqlForIndexes
 0001:00013C78       Dbx34DrvDbms.TDBXOpenODBCMetaDataReaderSybaseASA.GetSqlForTables
 0001:00018A54       Dbx34DrvDbms.TDBXOpenODBCMetaDataReaderSybaseASA.GetSystemTableType
 0001:00018A94       Dbx34DrvDbms.TDBXOpenODBCMetaDataReaderSybaseASA.GetSystemViewType
 0001:000189D4       Dbx34DrvDbms.TDBXOpenODBCMetaDataReaderSybaseASA.GetTableType
 0001:00018A14       Dbx34DrvDbms.TDBXOpenODBCMetaDataReaderSybaseASA.GetViewType
 0001:00013B18       Dbx34DrvDbms.TDBXOpenODBCMetaDataReaderSybaseASA.SetContext
 0001:0001E360       Dbx34DrvDbms.TDBXOpenODBCMetaDataReaderSybaseASE.GetDataTypeDescriptions
 0001:00019688       Dbx34DrvDbms.TDBXOpenODBCMetaDataReaderSybaseASE.GetProductName
 0001:0001A844       Dbx34DrvDbms.TDBXOpenODBCMetaDataReaderSybaseASE.GetReservedWords
 0001:00019A44       Dbx34DrvDbms.TDBXOpenODBCMetaDataReaderSybaseASE.GetSqlForColumns
 0001:0001A35C       Dbx34DrvDbms.TDBXOpenODBCMetaDataReaderSybaseASE.GetSqlForIndexColumns
 0001:00019FF0       Dbx34DrvDbms.TDBXOpenODBCMetaDataReaderSybaseASE.GetSqlForIndexes
 0001:000196CC       Dbx34DrvDbms.TDBXOpenODBCMetaDataReaderSybaseASE.GetSqlForTables
 0001:0001E328       Dbx34DrvDbms.TDBXOpenODBCMetaDataReaderSybaseASE.GetSystemTableType
 0001:0001E2B8       Dbx34DrvDbms.TDBXOpenODBCMetaDataReaderSybaseASE.GetTableType
 0001:0001E2F0       Dbx34DrvDbms.TDBXOpenODBCMetaDataReaderSybaseASE.GetViewType
 0004:00000034       DbxDBFix..1
 0002:00000274       DbxDBFix.DbxDBFix
 0001:0004000C       DbxDBFix.Finalization
 0004:0000006C       DbxObjectParser..2
 0001:00060174       DbxObjectParser..TObjectNameParser
 0003:00000CFC       DbxObjectParser.cRegExprSpesialSymbols
 0003:00000C84       DbxObjectParser.DbmsObjectNameTemplateInfo
 0002:000002D4       DbxObjectParser.DbxObjectParser
 0003:00000AD4       DbxObjectParser.DefaultMathesIndexes
 0003:00000AFC       DbxObjectParser.DefaultObjectNameTemplateInfo
 0001:000618C4       DbxObjectParser.Finalization
 0001:00060684       DbxObjectParser.GetDbmsObjectNameTemplateInfo
 0003:00000BE8       DbxObjectParser.InformixMathesIndexes
 0003:00000C04       DbxObjectParser.InformixObjectNameTemplateInfo
 0001:000614F4       DbxObjectParser.LDoCalculateTemplate
 0003:00000B98       DbxObjectParser.OracleMathesIndexes
 0003:00000BB4       DbxObjectParser.OracleObjectNameTemplateInfo
 0003:00000B30       DbxObjectParser.SQLServerMathesIndexes
 0003:00000B64       DbxObjectParser.SQLServerObjectNameTemplateInfo
 0003:00000C38       DbxObjectParser.TextMathesIndexes
 0003:00000C50       DbxObjectParser.TextObjectNameTemplateInfo
 0001:000606D4       DbxObjectParser.TObjectNameParser.Create
 0001:00060DC8       DbxObjectParser.TObjectNameParser.DecodeObjectFullName
 0001:00060D54       DbxObjectParser.TObjectNameParser.Destroy
 0001:00061508       DbxObjectParser.TObjectNameParser.EncodeObjectFullName
 0001:00061830       DbxObjectParser.TObjectNameParser.GetQuotedObjectName
 0004:000000A8       DbxOpenOdbc..13
 0001:00068F68       DbxOpenOdbc..EDbxError
 0001:00068E10       DbxOpenOdbc..EDbxErrorCustom
 0001:00069208       DbxOpenOdbc..EDbxInternalError
 0001:0006915C       DbxOpenOdbc..EDbxInvalidCall
 0001:000692B8       DbxOpenOdbc..EDbxInvalidParam
 0001:000690B0       DbxOpenOdbc..EDbxNotSupported
 0001:00069008       DbxOpenOdbc..EDbxOdbcError
 0001:00068EBC       DbxOpenOdbc..EDbxOdbcWarning
 0001:0006BC74       DbxOpenOdbc..TBlobChunkCollection
 0001:000697E4       DbxOpenOdbc..TDOSQLObject
 0001:0006A67C       DbxOpenOdbc..TMetaColumn
 0001:0006A760       DbxOpenOdbc..TMetaIndexColumn
 0001:0006A870       DbxOpenOdbc..TMetaProcedure
 0001:0006A94C       DbxOpenOdbc..TMetaProcedureParam
 0001:0006A588       DbxOpenOdbc..TMetaTable
 0001:0006BD20       DbxOpenOdbc..TOdbcBindCol
 0001:0006BDF8       DbxOpenOdbc..TOdbcBindParam
 0001:0006A038       DbxOpenOdbc..TSqlCommandOdbc
 0001:00069D2C       DbxOpenOdbc..TSqlConnectionOdbc
 0001:0006AC94       DbxOpenOdbc..TSqlCursorMetaData
 0001:0006B1F4       DbxOpenOdbc..TSqlCursorMetaDataColumns
 0001:0006B48C       DbxOpenOdbc..TSqlCursorMetaDataIndexes
 0001:0006B9C0       DbxOpenOdbc..TSqlCursorMetaDataProcedureParams
 0001:0006B724       DbxOpenOdbc..TSqlCursorMetaDataProcedures
 0001:0006AF60       DbxOpenOdbc..TSqlCursorMetaDataTables
 0001:0006A4D4       DbxOpenOdbc..TSqlCursorOdbc
 0001:00069954       DbxOpenOdbc..TSqlDriverOdbc
 0001:0006A1F8       DbxOpenOdbc..TSQLMetaDataOdbc
 0001:0006E624       DbxOpenOdbc.AllocateDbxHStmtNodes
 0001:00099948       DbxOpenOdbc.CacheTableIndex
 0001:0008E844       DbxOpenOdbc.CalculateBlobFixSize
 0003:00000D5C       DbxOpenOdbc.cBindMapDateTimeOdbc2
 0003:00000D68       DbxOpenOdbc.cBindMapDateTimeOdbc3
 0003:00000E9C       DbxOpenOdbc.cBoolOptionSwitches
 0003:00000D0C       DbxOpenOdbc.cConnectionOptionsDefault
 0003:00000D32       DbxOpenOdbc.cConnectionOptionsRestrictions
 0003:00000E94       DbxOpenOdbc.cDbxDriverVersionString
 0003:00000E98       DbxOpenOdbc.cDbxProductVersionString
 0003:00000D74       DbxOpenOdbc.cDecimalSeparatorDefault
 0003:00000D7C       DbxOpenOdbc.cGetOptionExceptionInfos
 0001:0008BAB8       DbxOpenOdbc.CheckAutoIncSubType
 0001:0006E5FC       DbxOpenOdbc.CheckMaxLines
 0001:00099A64       DbxOpenOdbc.CheckTableIndexColumn
 0001:0006F9F8       DbxOpenOdbc.ClearNewErrors
 0001:000747EC       DbxOpenOdbc.CompactNullConn
 0001:00074B28       DbxOpenOdbc.CompactNullConn
 0002:00000348       DbxOpenOdbc.DbxOpenOdbc
 0001:000958F0       DbxOpenOdbc.DirectoryExistsW
 0001:000839B0       DbxOpenOdbc.DoFetchColumns
 0001:00083CFC       DbxOpenOdbc.DoFetchIndexColumns
 0001:00083B50       DbxOpenOdbc.DoFetchIndexes
 0001:0008358C       DbxOpenOdbc.DoFetchTables
 0001:0006D4D4       DbxOpenOdbc.DoFormatParameter
 0001:000A04D0       DbxOpenOdbc.DoInitialzeUnit
 0001:00084038       DbxOpenOdbc.DoMetadataQuery
 0001:00083EF0       DbxOpenOdbc.DoMetadataQueryExecute
 0001:00082CB0       DbxOpenOdbc.DoPrepareNow
 0001:00082B48       DbxOpenOdbc.DoReBindParams
 0001:000A04C8       DbxOpenOdbc.DoRegisterDbXpressLibA
 0001:000A04CC       DbxOpenOdbc.DoRegisterDbXpressLibAW
 0001:00073928       DbxOpenOdbc.DoRelaseDbxConStmt
 0001:0006BE9C       DbxOpenOdbc.EmbeddedErrorTrack
 0001:0006C640       DbxOpenOdbc.ExtractCatalog
 0001:000A0C24       DbxOpenOdbc.Finalization
 0001:000959E8       DbxOpenOdbc.fix_odbc_read_table_list_w_from_folder
 0001:0006D02C       DbxOpenOdbc.FormatDbxSubType
 0001:0006C9F8       DbxOpenOdbc.FormatDbxType
 0001:0006E4FC       DbxOpenOdbc.FormatParameter
 0001:0006E514       DbxOpenOdbc.FormatParameters
 0001:0006F984       DbxOpenOdbc.GetConnection
 0001:0007C520       DbxOpenOdbc.GetConnectionCustomOptions
 0001:0007C7E8       DbxOpenOdbc.GetDatabaseNameOption
 0001:00095984       DbxOpenOdbc.GetFileExt
 0001:0006BEE4       DbxOpenOdbc.getSQLDriverODBC
 0001:0006C054       DbxOpenOdbc.getSQLDriverODBCAW
 0001:0006F3D4       DbxOpenOdbc.GetStringOptions
 0001:0007D118       DbxOpenOdbc.GetTransactionTypeName
 0001:0007F35C       DbxOpenOdbc.GetValueAsAnsiStr
 0001:0007CA3C       DbxOpenOdbc.GetVendorProperty
 0003:00000D58       DbxOpenOdbc.gHostPlatform
 0001:00074FB0       DbxOpenOdbc.HidePassword
 0001:0006F9E4       DbxOpenOdbc.IsConnection
 0003:00000D75       DbxOpenOdbc.IsDriverEmbedded
 0001:00099918       DbxOpenOdbc.IsFilteredIndex
 0001:000734A4       DbxOpenOdbc.IsFreeDbxConStmt
 0001:0006C190       DbxOpenOdbc.IsRestrictedConnectionOptionValue
 0001:00072DAC       DbxOpenOdbc.LDoClearResult
 0001:0006FAC0       DbxOpenOdbc.LDoMakeResult
 0001:00087928       DbxOpenOdbc.LDo_PostgreSQL_Make_Buffer
 0001:0007C9D8       DbxOpenOdbc.LGetISQLConnection2x
 0001:00086914       DbxOpenOdbc.MakeStoredProcParams
 0001:0006F0B0       DbxOpenOdbc.MakeStringExceptionFromInfo
 0001:00095D74       DbxOpenOdbc.MakeTableTypeString
 0003:00000D78       DbxOpenOdbc.MaxCount
 0001:000750BC       DbxOpenOdbc.MergeAndSetConnOptions
 0001:0006C734       DbxOpenOdbc.OdbcDataTypeToDbxType
 0001:0008B1E8       DbxOpenOdbc.OdbcSqlCTypeToStr
 0001:0008A748       DbxOpenOdbc.OdbcSqlTypeToStr
 0001:0008E778       DbxOpenOdbc.OptimizeNextChunkSize
 0001:00075198       DbxOpenOdbc.ParseConnectionOptions
 0001:0008777C       DbxOpenOdbc.ProcessVarDataLength
 0001:00095920       DbxOpenOdbc.RemoveFileExt
 0001:0009E15C       DbxOpenOdbc.RetrieveProcedureSchemaForSysNaming
 0001:0007F3D4       DbxOpenOdbc.SetConnectionCustomOptions
 0001:0006C21C       DbxOpenOdbc.SetConnectionOption
 0001:0008780C       DbxOpenOdbc.SetVarData
 0001:0006FB50       DbxOpenOdbc.SQLGetDiagRecLevel2
 0001:00099850       DbxOpenOdbc.SyncPKSortOrder
 0001:000A02BC       DbxOpenOdbc.TBlobChunkCollection.AddFragment
 0001:000A02FC       DbxOpenOdbc.TBlobChunkCollection.Clear
 0001:000A0338       DbxOpenOdbc.TBlobChunkCollection.Destroy
 0001:000A0364       DbxOpenOdbc.TBlobChunkCollection.GetSize
 0001:000A0388       DbxOpenOdbc.TBlobChunkCollection.Read
 0001:000A0408       DbxOpenOdbc.TBlobChunkCollection.ReadBlobToStream
 0001:000A03C0       DbxOpenOdbc.TBlobChunkCollection.ReadBlobToVariant
 0001:0006F544       DbxOpenOdbc.TDOSQLObject.SelfObj
 0001:000943C4       DbxOpenOdbc.TMetaColumn.Create
 0001:000945E4       DbxOpenOdbc.TMetaColumn.CreateW
 0001:0009478C       DbxOpenOdbc.TMetaColumn.Destroy
 0001:000947B0       DbxOpenOdbc.TMetaIndexColumn.Create
 0001:00094B70       DbxOpenOdbc.TMetaIndexColumn.CreateW
 0001:00094F18       DbxOpenOdbc.TMetaIndexColumn.Destroy
 0001:00094F3C       DbxOpenOdbc.TMetaProcedure.Create
 0001:000951A8       DbxOpenOdbc.TMetaProcedure.CreateW
 0001:000953FC       DbxOpenOdbc.TMetaProcedure.Destroy
 0001:00095420       DbxOpenOdbc.TMetaProcedureParam.Create
 0001:00095540       DbxOpenOdbc.TMetaProcedureParam.CreateW
 0001:00095654       DbxOpenOdbc.TMetaProcedureParam.Destroy
 0001:00093C48       DbxOpenOdbc.TMetaTable.Create
 0001:00093FD8       DbxOpenOdbc.TMetaTable.CreateW
 0001:00094398       DbxOpenOdbc.TMetaTable.Destroy
 0001:00093B44       DbxOpenOdbc.TOdbcBindCol.Create
 0001:00093B80       DbxOpenOdbc.TOdbcBindCol.Destroy
 0001:00093BD4       DbxOpenOdbc.TOdbcBindParam.Create
 0001:00093C10       DbxOpenOdbc.TOdbcBindParam.Destroy
 0001:00082768       DbxOpenOdbc.TSqlCommandOdbc.AddError
 0001:000827EC       DbxOpenOdbc.TSqlCommandOdbc.BuildStoredProcSQL
 0001:00084A54       DbxOpenOdbc.TSqlCommandOdbc.Cancel
 0001:000826F4       DbxOpenOdbc.TSqlCommandOdbc.ClearParams
 0001:000827B4       DbxOpenOdbc.TSqlCommandOdbc.close
 0001:0008254C       DbxOpenOdbc.TSqlCommandOdbc.CloseStmt
 0001:00082344       DbxOpenOdbc.TSqlCommandOdbc.Create
 0001:0008273C       DbxOpenOdbc.TSqlCommandOdbc.Destroy
 0001:00086308       DbxOpenOdbc.TSqlCommandOdbc.DoAllocateParams
 0001:000823D8       DbxOpenOdbc.TSqlCommandOdbc.DoAllocateStmt
 0001:00082D64       DbxOpenOdbc.TSqlCommandOdbc.DoExecute
 0001:00084118       DbxOpenOdbc.TSqlCommandOdbc.DoExecuteImmediate
 0001:00086394       DbxOpenOdbc.TSqlCommandOdbc.DoExpandParams
 0001:000863F4       DbxOpenOdbc.TSqlCommandOdbc.DoPrepare
 0001:00082A44       DbxOpenOdbc.TSqlCommandOdbc.DoSQLMoreResults
 0001:0008355C       DbxOpenOdbc.TSqlCommandOdbc.DoUnprepareStmt
 0001:000834C4       DbxOpenOdbc.TSqlCommandOdbc.execute
 0001:00084990       DbxOpenOdbc.TSqlCommandOdbc.ExecuteImmediate
 0001:00084AB0       DbxOpenOdbc.TSqlCommandOdbc.GetConnectionHandle
 0001:00084BCC       DbxOpenOdbc.TSqlCommandOdbc.getErrorMessage
 0001:00084C58       DbxOpenOdbc.TSqlCommandOdbc.getErrorMessageLen
 0001:00084B60       DbxOpenOdbc.TSqlCommandOdbc.GetLockTimeout
 0001:00084CB4       DbxOpenOdbc.TSqlCommandOdbc.getNextCursor
 0001:00084EF4       DbxOpenOdbc.TSqlCommandOdbc.GetOption
 0001:00085C80       DbxOpenOdbc.TSqlCommandOdbc.getParameter
 0001:000862F0       DbxOpenOdbc.TSqlCommandOdbc.getRowsAffected
 0001:0008278C       DbxOpenOdbc.TSqlCommandOdbc.OdbcCheck
 0001:00086828       DbxOpenOdbc.TSqlCommandOdbc.prepare
 0001:00084AC4       DbxOpenOdbc.TSqlCommandOdbc.SetLockTimeout
 0001:00086988       DbxOpenOdbc.TSqlCommandOdbc.SetOption
 0001:000879E0       DbxOpenOdbc.TSqlCommandOdbc.setParameter
 0001:000736B8       DbxOpenOdbc.TSqlConnectionOdbc.AllocHStmt
 0001:00074124       DbxOpenOdbc.TSqlConnectionOdbc.beginTransaction
 0001:0007AF60       DbxOpenOdbc.TSqlConnectionOdbc.CheckDbmsTransactionSupport
 0001:00074F9C       DbxOpenOdbc.TSqlConnectionOdbc.CheckHCon
 0001:0007ADF8       DbxOpenOdbc.TSqlConnectionOdbc.CheckTransactionSupport
 0001:00074E6C       DbxOpenOdbc.TSqlConnectionOdbc.ClearConnectionOptions
 0001:000722FC       DbxOpenOdbc.TSqlConnectionOdbc.CloneOdbcConnection
 0001:00074858       DbxOpenOdbc.TSqlConnectionOdbc.commit
 0001:0007527C       DbxOpenOdbc.TSqlConnectionOdbc.connect
 0001:00071C20       DbxOpenOdbc.TSqlConnectionOdbc.Create
 0001:00072D20       DbxOpenOdbc.TSqlConnectionOdbc.CreateRegExpObjectNameParser
 0001:000731FC       DbxOpenOdbc.TSqlConnectionOdbc.DbxCallBackSendMsg
 0001:00073424       DbxOpenOdbc.TSqlConnectionOdbc.DbxCallBackSendMsgFmt
 0001:00072DD4       DbxOpenOdbc.TSqlConnectionOdbc.DecodeObjectFullName
 0001:00071CB0       DbxOpenOdbc.TSqlConnectionOdbc.Destroy
 0001:0007A5B0       DbxOpenOdbc.TSqlConnectionOdbc.disconnect
 0001:00071CE4       DbxOpenOdbc.TSqlConnectionOdbc.DoDestroy
 0001:00072FB0       DbxOpenOdbc.TSqlConnectionOdbc.EncodeObjectFullName
 0001:000735E4       DbxOpenOdbc.TSqlConnectionOdbc.FindFreeConnection
 0001:00073C70       DbxOpenOdbc.TSqlConnectionOdbc.FreeHStmt
 0001:00073F9C       DbxOpenOdbc.TSqlConnectionOdbc.GetCatalog
 0001:00082304       DbxOpenOdbc.TSqlConnectionOdbc.GetConnectionHandle
 0001:000740B4       DbxOpenOdbc.TSqlConnectionOdbc.GetCurrentCatalog
 0001:00073F38       DbxOpenOdbc.TSqlConnectionOdbc.GetCurrentConnectionHandle
 0001:00073F18       DbxOpenOdbc.TSqlConnectionOdbc.GetCurrentDbxConStmt
 0001:00073E58       DbxOpenOdbc.TSqlConnectionOdbc.GetCurrentDbxConStmt
 0001:00082298       DbxOpenOdbc.TSqlConnectionOdbc.GetCursorPreserved
 0001:00082198       DbxOpenOdbc.TSqlConnectionOdbc.GetDbmsName
 0001:00082064       DbxOpenOdbc.TSqlConnectionOdbc.GetDbmsType
 0001:000821E0       DbxOpenOdbc.TSqlConnectionOdbc.GetDbmsVersionBuild
 0001:000821B0       DbxOpenOdbc.TSqlConnectionOdbc.GetDbmsVersionMajor
 0001:000821C0       DbxOpenOdbc.TSqlConnectionOdbc.GetDbmsVersionMinor
 0001:000821D0       DbxOpenOdbc.TSqlConnectionOdbc.GetDbmsVersionRelease
 0001:000821F0       DbxOpenOdbc.TSqlConnectionOdbc.GetDbmsVersionString
 0001:00082330       DbxOpenOdbc.TSqlConnectionOdbc.GetDecimalSeparator
 0001:00072928       DbxOpenOdbc.TSqlConnectionOdbc.GetDefaultConnectionOptions
 0001:000822F4       DbxOpenOdbc.TSqlConnectionOdbc.GetEnvironmentHandle
 0001:0007AD18       DbxOpenOdbc.TSqlConnectionOdbc.getErrorMessage
 0001:0007ADA0       DbxOpenOdbc.TSqlConnectionOdbc.getErrorMessageLen
 0001:000822AC       DbxOpenOdbc.TSqlConnectionOdbc.GetIsSystemODBCManager
 0001:00082188       DbxOpenOdbc.TSqlConnectionOdbc.GetLastOdbcSqlState
 0001:0007AF78       DbxOpenOdbc.TSqlConnectionOdbc.GetMetaDataOption
 0001:00082314       DbxOpenOdbc.TSqlConnectionOdbc.GetOdbcApiIntf
 0001:00082280       DbxOpenOdbc.TSqlConnectionOdbc.GetOdbcConnectString
 0001:00082088       DbxOpenOdbc.TSqlConnectionOdbc.GetOdbcConnectStrings
 0001:000822C0       DbxOpenOdbc.TSqlConnectionOdbc.GetOdbcDriverLevel
 0001:00082208       DbxOpenOdbc.TSqlConnectionOdbc.GetOdbcDriverName
 0001:00082074       DbxOpenOdbc.TSqlConnectionOdbc.GetOdbcDriverType
 0001:00082254       DbxOpenOdbc.TSqlConnectionOdbc.GetOdbcDriverVersionBuild
 0001:00082224       DbxOpenOdbc.TSqlConnectionOdbc.GetOdbcDriverVersionMajor
 0001:00082234       DbxOpenOdbc.TSqlConnectionOdbc.GetOdbcDriverVersionMinor
 0001:00082244       DbxOpenOdbc.TSqlConnectionOdbc.GetOdbcDriverVersionRelease
 0001:00082264       DbxOpenOdbc.TSqlConnectionOdbc.GetOdbcDriverVersionString
 0001:0007D208       DbxOpenOdbc.TSqlConnectionOdbc.GetOption
 0001:00073164       DbxOpenOdbc.TSqlConnectionOdbc.GetQuotedObjectName
 0001:0007F100       DbxOpenOdbc.TSqlConnectionOdbc.getSQLCommand
 0001:0007F22C       DbxOpenOdbc.TSqlConnectionOdbc.getSQLMetaData
 0001:000822E4       DbxOpenOdbc.TSqlConnectionOdbc.GetStatementsPerConnection
 0001:000822D0       DbxOpenOdbc.TSqlConnectionOdbc.GetSupportsSqlPrimaryKeys
 0001:000729E0       DbxOpenOdbc.TSqlConnectionOdbc.GetUnquotedName
 0001:00072AEC       DbxOpenOdbc.TSqlConnectionOdbc.GetUnquotedName
 0001:00072940       DbxOpenOdbc.TSqlConnectionOdbc.GetUnquotedNameLen
 0001:00072BF8       DbxOpenOdbc.TSqlConnectionOdbc.ObjectIsStoredProc
 0001:00073F50       DbxOpenOdbc.TSqlConnectionOdbc.OdbcCheck
 0001:00072D80       DbxOpenOdbc.TSqlConnectionOdbc.ReleaseRegExpObjectNameParser
 0001:00077CA8       DbxOpenOdbc.TSqlConnectionOdbc.RetrieveDbmsOptions
 0001:00078120       DbxOpenOdbc.TSqlConnectionOdbc.RetrieveDriverName
 0001:00074B94       DbxOpenOdbc.TSqlConnectionOdbc.rollback
 0001:000727C4       DbxOpenOdbc.TSqlConnectionOdbc.SetCurrentDbxConStmt
 0001:000727E8       DbxOpenOdbc.TSqlConnectionOdbc.SetLoginTimeout
 0001:00072888       DbxOpenOdbc.TSqlConnectionOdbc.SetNetworkTimeout
 0001:0007FA38       DbxOpenOdbc.TSqlConnectionOdbc.SetOption
 0001:00071DD0       DbxOpenOdbc.TSqlConnectionOdbc.SetVendorLib
 0001:00072074       DbxOpenOdbc.TSqlConnectionOdbc.SynchronizeInTransaction
 0001:00081EB8       DbxOpenOdbc.TSqlConnectionOdbc.TransactionCheck
 0001:00092B7C       DbxOpenOdbc.TSqlCursorMetaData.BindInteger
 0001:000927EC       DbxOpenOdbc.TSqlCursorMetaData.BindSmallint
 0001:00091F98       DbxOpenOdbc.TSqlCursorMetaData.ClearMetaData
 0001:00091EF4       DbxOpenOdbc.TSqlCursorMetaData.Create
 0001:00092078       DbxOpenOdbc.TSqlCursorMetaData.DbgColumnName
 0001:0009210C       DbxOpenOdbc.TSqlCursorMetaData.DbgPhysColumnName
 0001:000924C4       DbxOpenOdbc.TSqlCursorMetaData.DescribeAllocBindString
 0001:0009264C       DbxOpenOdbc.TSqlCursorMetaData.DescribeAllocBindWString
 0001:00091F6C       DbxOpenOdbc.TSqlCursorMetaData.Destroy
 0001:00092EF0       DbxOpenOdbc.TSqlCursorMetaData.getBcd
 0001:00092F1C       DbxOpenOdbc.TSqlCursorMetaData.getBlob
 0001:00092F30       DbxOpenOdbc.TSqlCursorMetaData.getBlobSize
 0001:00092F4C       DbxOpenOdbc.TSqlCursorMetaData.getBytes
 0001:00092F74       DbxOpenOdbc.TSqlCursorMetaData.getColumnCount
 0001:00092F9C       DbxOpenOdbc.TSqlCursorMetaData.getColumnLength
 0001:00093080       DbxOpenOdbc.TSqlCursorMetaData.getColumnName
 0001:00093138       DbxOpenOdbc.TSqlCursorMetaData.getColumnNameLength
 0001:000931E0       DbxOpenOdbc.TSqlCursorMetaData.getColumnPrecision
 0001:000932D8       DbxOpenOdbc.TSqlCursorMetaData.getColumnScale
 0001:000933B8       DbxOpenOdbc.TSqlCursorMetaData.getColumnType
 0001:0009346C       DbxOpenOdbc.TSqlCursorMetaData.getDate
 0001:00093494       DbxOpenOdbc.TSqlCursorMetaData.getDouble
 0001:000934C0       DbxOpenOdbc.TSqlCursorMetaData.getErrorMessage
 0001:00093550       DbxOpenOdbc.TSqlCursorMetaData.getErrorMessageLen
 0001:000937C4       DbxOpenOdbc.TSqlCursorMetaData.getInt64
 0001:000935A8       DbxOpenOdbc.TSqlCursorMetaData.getLong
 0001:000935D0       DbxOpenOdbc.TSqlCursorMetaData.GetOption
 0001:0009206C       DbxOpenOdbc.TSqlCursorMetaData.GetPhysColumnAnsiString
 0001:00091FC4       DbxOpenOdbc.TSqlCursorMetaData.GetPhysColumnNumber
 0001:00092070       DbxOpenOdbc.TSqlCursorMetaData.GetPhysColumnWideString
 0001:000935DC       DbxOpenOdbc.TSqlCursorMetaData.getShort
 0001:00093604       DbxOpenOdbc.TSqlCursorMetaData.getString
 0001:000937F4       DbxOpenOdbc.TSqlCursorMetaData.getTime
 0001:0009381C       DbxOpenOdbc.TSqlCursorMetaData.getTimeStamp
 0001:000936DC       DbxOpenOdbc.TSqlCursorMetaData.getWideString
 0001:00093850       DbxOpenOdbc.TSqlCursorMetaData.isAutoIncrement
 0001:00093860       DbxOpenOdbc.TSqlCursorMetaData.isBlobSizeExact
 0001:00093870       DbxOpenOdbc.TSqlCursorMetaData.isNullable
 0001:0009202C       DbxOpenOdbc.TSqlCursorMetaData.IsPhysColumnStringType
 0001:00092050       DbxOpenOdbc.TSqlCursorMetaData.IsPhysColumnWideStringType
 0001:00093880       DbxOpenOdbc.TSqlCursorMetaData.isReadOnly
 0001:00093894       DbxOpenOdbc.TSqlCursorMetaData.isSearchable
 0001:000938A4       DbxOpenOdbc.TSqlCursorMetaData.next
 0001:000939B4       DbxOpenOdbc.TSqlCursorMetaData.OdbcCheck
 0001:00092318       DbxOpenOdbc.TSqlCursorMetaData.ParseTableName
 0001:000921A8       DbxOpenOdbc.TSqlCursorMetaData.ParseTableNameBase
 0001:0009212C       DbxOpenOdbc.TSqlCursorMetaData.remap
 0001:000938C8       DbxOpenOdbc.TSqlCursorMetaData.SetOption
 0001:00097ABC       DbxOpenOdbc.TSqlCursorMetaDataColumns.Clear
 0001:00097620       DbxOpenOdbc.TSqlCursorMetaDataColumns.Create
 0001:00097A90       DbxOpenOdbc.TSqlCursorMetaDataColumns.Destroy
 0001:00097B38       DbxOpenOdbc.TSqlCursorMetaDataColumns.FetchColumns
 0001:00098E20       DbxOpenOdbc.TSqlCursorMetaDataColumns.getLong
 0001:000991C0       DbxOpenOdbc.TSqlCursorMetaDataColumns.GetPhysColumnAnsiString
 0001:000992F4       DbxOpenOdbc.TSqlCursorMetaDataColumns.GetPhysColumnWideString
 0001:00098FE0       DbxOpenOdbc.TSqlCursorMetaDataColumns.getShort
 0001:00099428       DbxOpenOdbc.TSqlCursorMetaDataColumns.next
 0001:000997D4       DbxOpenOdbc.TSqlCursorMetaDataIndexes.Clear
 0001:0009946C       DbxOpenOdbc.TSqlCursorMetaDataIndexes.Create
 0001:000997A8       DbxOpenOdbc.TSqlCursorMetaDataIndexes.Destroy
 0001:00099A78       DbxOpenOdbc.TSqlCursorMetaDataIndexes.FetchIndexes
 0001:0009CC2C       DbxOpenOdbc.TSqlCursorMetaDataIndexes.getLong
 0001:0009C604       DbxOpenOdbc.TSqlCursorMetaDataIndexes.GetPhysColumnAnsiString
 0001:0009C918       DbxOpenOdbc.TSqlCursorMetaDataIndexes.GetPhysColumnWideString
 0001:0009CDC8       DbxOpenOdbc.TSqlCursorMetaDataIndexes.getShort
 0001:0009CF90       DbxOpenOdbc.TSqlCursorMetaDataIndexes.next
 0001:0009DCF0       DbxOpenOdbc.TSqlCursorMetaDataProcedureParams.Create
 0001:0009E0C4       DbxOpenOdbc.TSqlCursorMetaDataProcedureParams.Destroy
 0001:0009E294       DbxOpenOdbc.TSqlCursorMetaDataProcedureParams.FetchProcedureParams
 0001:0009FD68       DbxOpenOdbc.TSqlCursorMetaDataProcedureParams.getLong
 0001:000A0098       DbxOpenOdbc.TSqlCursorMetaDataProcedureParams.GetPhysColumnAnsiString
 0001:000A0190       DbxOpenOdbc.TSqlCursorMetaDataProcedureParams.GetPhysColumnWideString
 0001:0009FEBC       DbxOpenOdbc.TSqlCursorMetaDataProcedureParams.getShort
 0001:000A0284       DbxOpenOdbc.TSqlCursorMetaDataProcedureParams.next
 0001:0009CFC8       DbxOpenOdbc.TSqlCursorMetaDataProcedures.Create
 0001:0009D204       DbxOpenOdbc.TSqlCursorMetaDataProcedures.Destroy
 0001:0009D264       DbxOpenOdbc.TSqlCursorMetaDataProcedures.FetchProcedures
 0001:0009D920       DbxOpenOdbc.TSqlCursorMetaDataProcedures.getLong
 0001:0009DB6C       DbxOpenOdbc.TSqlCursorMetaDataProcedures.GetPhysColumnAnsiString
 0001:0009DC14       DbxOpenOdbc.TSqlCursorMetaDataProcedures.GetPhysColumnWideString
 0001:0009DA48       DbxOpenOdbc.TSqlCursorMetaDataProcedures.getShort
 0001:0009DCB8       DbxOpenOdbc.TSqlCursorMetaDataProcedures.next
 0001:000958B0       DbxOpenOdbc.TSqlCursorMetaDataTables.Clear
 0001:00095678       DbxOpenOdbc.TSqlCursorMetaDataTables.Create
 0001:00095884       DbxOpenOdbc.TSqlCursorMetaDataTables.Destroy
 0001:00095F30       DbxOpenOdbc.TSqlCursorMetaDataTables.FetchTables
 0001:000974C8       DbxOpenOdbc.TSqlCursorMetaDataTables.getColumnLength
 0001:000970A4       DbxOpenOdbc.TSqlCursorMetaDataTables.getLong
 0001:00097294       DbxOpenOdbc.TSqlCursorMetaDataTables.GetPhysColumnAnsiString
 0001:000973A4       DbxOpenOdbc.TSqlCursorMetaDataTables.GetPhysColumnWideString
 0001:000975E8       DbxOpenOdbc.TSqlCursorMetaDataTables.next
 0001:0008E76C       DbxOpenOdbc.TSqlCursorOdbc.AddError
 0001:0008BB84       DbxOpenOdbc.TSqlCursorOdbc.BindResultSet
 0001:0008E56C       DbxOpenOdbc.TSqlCursorOdbc.CheckFetchCacheColumns
 0001:0008A550       DbxOpenOdbc.TSqlCursorOdbc.ClearCursor
 0001:0008A4A4       DbxOpenOdbc.TSqlCursorOdbc.Create
 0001:0008A5BC       DbxOpenOdbc.TSqlCursorOdbc.Destroy
 0001:0008E2F0       DbxOpenOdbc.TSqlCursorOdbc.DoFetchLateBoundData
 0001:0008E8A8       DbxOpenOdbc.TSqlCursorOdbc.DoFetchLongData
 0001:0008E408       DbxOpenOdbc.TSqlCursorOdbc.FetchLateBoundData
 0001:0008F0A4       DbxOpenOdbc.TSqlCursorOdbc.FetchLongData
 0001:0008F108       DbxOpenOdbc.TSqlCursorOdbc.getBcd
 0001:0008F2FC       DbxOpenOdbc.TSqlCursorOdbc.getBlob
 0001:0008F5B8       DbxOpenOdbc.TSqlCursorOdbc.getBlobSize
 0001:0008F7F0       DbxOpenOdbc.TSqlCursorOdbc.getBytes
 0001:0008FA00       DbxOpenOdbc.TSqlCursorOdbc.getColumnCount
 0001:0008FA18       DbxOpenOdbc.TSqlCursorOdbc.getColumnLength
 0001:0008FEF4       DbxOpenOdbc.TSqlCursorOdbc.getColumnName
 0001:0008FF20       DbxOpenOdbc.TSqlCursorOdbc.getColumnNameLength
 0001:0008FF58       DbxOpenOdbc.TSqlCursorOdbc.getColumnPrecision
 0001:00090064       DbxOpenOdbc.TSqlCursorOdbc.getColumnScale
 0001:000900F4       DbxOpenOdbc.TSqlCursorOdbc.getColumnType
 0001:00090148       DbxOpenOdbc.TSqlCursorOdbc.getDate
 0001:00090370       DbxOpenOdbc.TSqlCursorOdbc.getDouble
 0001:00090558       DbxOpenOdbc.TSqlCursorOdbc.getErrorMessage
 0001:000905F4       DbxOpenOdbc.TSqlCursorOdbc.getErrorMessageLen
 0001:00090654       DbxOpenOdbc.TSqlCursorOdbc.getLong
 0001:00090834       DbxOpenOdbc.TSqlCursorOdbc.GetOption
 0001:00090840       DbxOpenOdbc.TSqlCursorOdbc.getShort
 0001:00090A3C       DbxOpenOdbc.TSqlCursorOdbc.getString
 0001:00090E10       DbxOpenOdbc.TSqlCursorOdbc.getTime
 0001:0009100C       DbxOpenOdbc.TSqlCursorOdbc.getTimeStamp
 0001:00091248       DbxOpenOdbc.TSqlCursorOdbc.isAutoIncrement
 0001:00091388       DbxOpenOdbc.TSqlCursorOdbc.isBlobSizeExact
 0001:000913B8       DbxOpenOdbc.TSqlCursorOdbc.isNullable
 0001:000913E8       DbxOpenOdbc.TSqlCursorOdbc.isReadOnly
 0001:0009144C       DbxOpenOdbc.TSqlCursorOdbc.isSearchable
 0001:00091550       DbxOpenOdbc.TSqlCursorOdbc.next
 0001:0008A71C       DbxOpenOdbc.TSqlCursorOdbc.OdbcCheck
 0001:00091E28       DbxOpenOdbc.TSqlCursorOdbc.SetOption
 0001:000712BC       DbxOpenOdbc.TSqlDriverOdbc.AllocHCon
 0001:000713BC       DbxOpenOdbc.TSqlDriverOdbc.AllocHEnv
 0001:0006F664       DbxOpenOdbc.TSqlDriverOdbc.AssignFields
 0001:0006F634       DbxOpenOdbc.TSqlDriverOdbc.ClearFields
 0001:0006F550       DbxOpenOdbc.TSqlDriverOdbc.Create
 0001:0006F5F4       DbxOpenOdbc.TSqlDriverOdbc.Destroy
 0001:00071954       DbxOpenOdbc.TSqlDriverOdbc.Drivers
 0001:0007132C       DbxOpenOdbc.TSqlDriverOdbc.FreeHCon
 0001:0007157C       DbxOpenOdbc.TSqlDriverOdbc.FreeHEnv
 0001:00071B5C       DbxOpenOdbc.TSqlDriverOdbc.GetOdbcDrivers
 0001:00071640       DbxOpenOdbc.TSqlDriverOdbc.GetOption
 0001:000717A0       DbxOpenOdbc.TSqlDriverOdbc.getSQLConnection
 0001:0006F688       DbxOpenOdbc.TSqlDriverOdbc.OdbcCheck
 0001:0006FBF0       DbxOpenOdbc.TSqlDriverOdbc.RetrieveOdbcErrorInfo
 0001:00071820       DbxOpenOdbc.TSqlDriverOdbc.SetOption
 0001:00088F78       DbxOpenOdbc.TSQLMetaDataOdbc.Create
 0001:00088FD4       DbxOpenOdbc.TSQLMetaDataOdbc.Destroy
 0001:0008976C       DbxOpenOdbc.TSQLMetaDataOdbc.DoGetTables
 0001:00089000       DbxOpenOdbc.TSQLMetaDataOdbc.getColumns
 0001:00089144       DbxOpenOdbc.TSQLMetaDataOdbc.getErrorMessage
 0001:000891D4       DbxOpenOdbc.TSQLMetaDataOdbc.getErrorMessageLen
 0001:0008922C       DbxOpenOdbc.TSQLMetaDataOdbc.getIndices
 0001:00089378       DbxOpenOdbc.TSQLMetaDataOdbc.getObjectList
 0001:00089398       DbxOpenOdbc.TSQLMetaDataOdbc.GetOption
 0001:00089508       DbxOpenOdbc.TSQLMetaDataOdbc.getProcedureParams
 0001:00089648       DbxOpenOdbc.TSQLMetaDataOdbc.getProcedures
 0001:00089888       DbxOpenOdbc.TSQLMetaDataOdbc.getTables
 0001:000898B8       DbxOpenOdbc.TSQLMetaDataOdbc.SetOption
 0001:00077F84       DbxOpenOdbc.VersionStringToNumeric
 0001:000878C4       DbxOpenOdbc.WideCharToUtf8
 0004:000000A4       DbxOpenOdbc3..71
 0001:00063688       DbxOpenOdbc3..TDbxCommandParser
 0001:000622C4       DbxOpenOdbc3..TSqlCommandOdbc3
 0001:000620DC       DbxOpenOdbc3..TSqlConnectionOdbc3
 0001:00062CB0       DbxOpenOdbc3..TSqlCursorMetaDataColumns3
 0001:00063D14       DbxOpenOdbc3..TSqlCursorMetaDataColumnsDbx34
 0001:0006399C       DbxOpenOdbc3..TSqlCursorMetaDataEmpty
 0001:00064294       DbxOpenOdbc3..TSqlCursorMetaDataIndexColumnsDbx34
 0001:00062F88       DbxOpenOdbc3..TSqlCursorMetaDataIndexes3
 0001:00063FD4       DbxOpenOdbc3..TSqlCursorMetaDataIndexesDbx34
 0001:0006353C       DbxOpenOdbc3..TSqlCursorMetaDataProcedureParams3
 0001:00063260       DbxOpenOdbc3..TSqlCursorMetaDataProcedures3
 0001:000629DC       DbxOpenOdbc3..TSqlCursorMetaDataTables3
 0001:00063A58       DbxOpenOdbc3..TSqlCursorMetaDataTablesDbx34
 0001:00062580       DbxOpenOdbc3..TSqlCursorOdbc3
 0001:00061EF0       DbxOpenOdbc3..TSqlDriverOdbc3
 0001:00062720       DbxOpenOdbc3..TSQLMetaDataOdbc3
 0001:000645F0       DbxOpenOdbc3.BeginLock
 0004:0000007C       DbxOpenOdbc3.cConnectionOptionsDefault3
 0002:00000304       DbxOpenOdbc3.DbxOpenOdbc3
 0001:00068E00       DbxOpenOdbc3.DoRegisterDbXpressLibW
 0001:00068E04       DbxOpenOdbc3.DoRegisterDbXpressLibWA
 0001:00064F6C       DbxOpenOdbc3.DoSetCustomString
 0001:00064D6C       DbxOpenOdbc3.DoSetVendoLib
 0001:000646C4       DbxOpenOdbc3.EndLock
 0001:00068E08       DbxOpenOdbc3.Finalization
 0003:00000D08       DbxOpenOdbc3.gClientVersionOverload
 0001:00064368       DbxOpenOdbc3.getSQLDriverODBCW
 0001:000644AC       DbxOpenOdbc3.getSQLDriverODBCWA
 0001:000646DC       DbxOpenOdbc3.HostAppPlatformInitialize
 0001:00064D0C       DbxOpenOdbc3.LGetISQLConnection30
 0001:000675D8       DbxOpenOdbc3.TDbxCommandParser.Create
 0001:000679FC       DbxOpenOdbc3.TDbxCommandParser.GetParam
 0001:00067568       DbxOpenOdbc3.TDbxCommandParser.IsDbxCommand
 0001:000674C4       DbxOpenOdbc3.TDbxCommandParser.IsDbxCommand
 0001:0006758C       DbxOpenOdbc3.TDbxCommandParser.IsDbxCommand
 0001:00067540       DbxOpenOdbc3.TDbxCommandParser.IsDbxCommand
 0001:00065AC8       DbxOpenOdbc3.TSqlCommandOdbc3.execute
 0001:00065B68       DbxOpenOdbc3.TSqlCommandOdbc3.executeImmediate
 0001:00065C90       DbxOpenOdbc3.TSqlCommandOdbc3.getErrorMessage
 0001:00065CA8       DbxOpenOdbc3.TSqlCommandOdbc3.getErrorMessageLen
 0001:00065CC0       DbxOpenOdbc3.TSqlCommandOdbc3.getNextCursor
 0001:00065CD4       DbxOpenOdbc3.TSqlCommandOdbc3.GetOption
 0001:00065964       DbxOpenOdbc3.TSqlCommandOdbc3.prepare
 0001:00065E10       DbxOpenOdbc3.TSqlCommandOdbc3.SetOption
 0001:000649DC       DbxOpenOdbc3.TSqlConnectionOdbc3.connect
 0001:00064A80       DbxOpenOdbc3.TSqlConnectionOdbc3.connect
 0001:00064974       DbxOpenOdbc3.TSqlConnectionOdbc3.Create
 0001:000649AC       DbxOpenOdbc3.TSqlConnectionOdbc3.Destroy
 0001:00064B4C       DbxOpenOdbc3.TSqlConnectionOdbc3.getErrorMessage
 0001:00064C5C       DbxOpenOdbc3.TSqlConnectionOdbc3.getErrorMessageLen
 0001:00064CE0       DbxOpenOdbc3.TSqlConnectionOdbc3.GetMetaDataReader
 0001:000650AC       DbxOpenOdbc3.TSqlConnectionOdbc3.GetOption
 0001:000657C4       DbxOpenOdbc3.TSqlConnectionOdbc3.getSQLCommand
 0001:00065894       DbxOpenOdbc3.TSqlConnectionOdbc3.getSQLMetaData
 0001:00065718       DbxOpenOdbc3.TSqlConnectionOdbc3.SetOption
 0001:00066B34       DbxOpenOdbc3.TSqlCursorMetaDataColumns3.getColumnName
 0001:00066C10       DbxOpenOdbc3.TSqlCursorMetaDataColumns3.getErrorMessage
 0001:00066D14       DbxOpenOdbc3.TSqlCursorMetaDataColumns3.getErrorMessageLen
 0001:000684DC       DbxOpenOdbc3.TSqlCursorMetaDataColumnsDbx34.Create
 0001:00068780       DbxOpenOdbc3.TSqlCursorMetaDataColumnsDbx34.getLong
 0001:00068844       DbxOpenOdbc3.TSqlCursorMetaDataColumnsDbx34.getShort
 0001:00067FC4       DbxOpenOdbc3.TSqlCursorMetaDataEmpty.Create
 0001:00067E30       DbxOpenOdbc3.TSqlCursorMetaDataEmpty.Create
 0001:00067DA0       DbxOpenOdbc3.TSqlCursorMetaDataEmpty.Create
 0001:00068120       DbxOpenOdbc3.TSqlCursorMetaDataEmpty.getBcd
 0001:00068134       DbxOpenOdbc3.TSqlCursorMetaDataEmpty.getBlob
 0001:00068148       DbxOpenOdbc3.TSqlCursorMetaDataEmpty.getBlobSize
 0001:0006815C       DbxOpenOdbc3.TSqlCursorMetaDataEmpty.getBytes
 0001:00068170       DbxOpenOdbc3.TSqlCursorMetaDataEmpty.getColumnCount
 0001:000683B4       DbxOpenOdbc3.TSqlCursorMetaDataEmpty.getColumnLength
 0001:00068238       DbxOpenOdbc3.TSqlCursorMetaDataEmpty.getColumnName
 0001:00068194       DbxOpenOdbc3.TSqlCursorMetaDataEmpty.getColumnNameLength
 0001:000683C8       DbxOpenOdbc3.TSqlCursorMetaDataEmpty.getColumnPrecision
 0001:000683DC       DbxOpenOdbc3.TSqlCursorMetaDataEmpty.getColumnScale
 0001:00068330       DbxOpenOdbc3.TSqlCursorMetaDataEmpty.getColumnType
 0001:00068378       DbxOpenOdbc3.TSqlCursorMetaDataEmpty.getDate
 0001:0006838C       DbxOpenOdbc3.TSqlCursorMetaDataEmpty.getDouble
 0001:000683A0       DbxOpenOdbc3.TSqlCursorMetaDataEmpty.getLong
 0001:00068490       DbxOpenOdbc3.TSqlCursorMetaDataEmpty.getShort
 0001:00068468       DbxOpenOdbc3.TSqlCursorMetaDataEmpty.getTime
 0001:0006847C       DbxOpenOdbc3.TSqlCursorMetaDataEmpty.getTimeStamp
 0001:000684B0       DbxOpenOdbc3.TSqlCursorMetaDataEmpty.getWideString
 0001:00068454       DbxOpenOdbc3.TSqlCursorMetaDataEmpty.isNullable
 0001:00068B6C       DbxOpenOdbc3.TSqlCursorMetaDataIndexColumnsDbx34.Create
 0001:00068D1C       DbxOpenOdbc3.TSqlCursorMetaDataIndexColumnsDbx34.getLong
 0001:00068D8C       DbxOpenOdbc3.TSqlCursorMetaDataIndexColumnsDbx34.getShort
 0001:00066D98       DbxOpenOdbc3.TSqlCursorMetaDataIndexes3.getColumnName
 0001:00066E74       DbxOpenOdbc3.TSqlCursorMetaDataIndexes3.getErrorMessage
 0001:00066F78       DbxOpenOdbc3.TSqlCursorMetaDataIndexes3.getErrorMessageLen
 0001:000688C8       DbxOpenOdbc3.TSqlCursorMetaDataIndexesDbx34.Create
 0001:00068AAC       DbxOpenOdbc3.TSqlCursorMetaDataIndexesDbx34.getShort
 0001:00067260       DbxOpenOdbc3.TSqlCursorMetaDataProcedureParams3.getColumnName
 0001:0006733C       DbxOpenOdbc3.TSqlCursorMetaDataProcedureParams3.getErrorMessage
 0001:00067440       DbxOpenOdbc3.TSqlCursorMetaDataProcedureParams3.getErrorMessageLen
 0001:00066FFC       DbxOpenOdbc3.TSqlCursorMetaDataProcedures3.getColumnName
 0001:000670D8       DbxOpenOdbc3.TSqlCursorMetaDataProcedures3.getErrorMessage
 0001:000671DC       DbxOpenOdbc3.TSqlCursorMetaDataProcedures3.getErrorMessageLen
 0001:00066A58       DbxOpenOdbc3.TSqlCursorMetaDataTables3.getColumnName
 0001:000668D0       DbxOpenOdbc3.TSqlCursorMetaDataTables3.getErrorMessage
 0001:000669D4       DbxOpenOdbc3.TSqlCursorMetaDataTables3.getErrorMessageLen
 0001:00067AEC       DbxOpenOdbc3.TSqlCursorMetaDataTablesDbx34.Create
 0001:00067C40       DbxOpenOdbc3.TSqlCursorMetaDataTablesDbx34.GetPhysColumnWideString
 0001:00065F58       DbxOpenOdbc3.TSqlCursorOdbc3.getColumnName
 0001:00065EE4       DbxOpenOdbc3.TSqlCursorOdbc3.getColumnNameLength
 0001:00065EB4       DbxOpenOdbc3.TSqlCursorOdbc3.getErrorMessage
 0001:00065ECC       DbxOpenOdbc3.TSqlCursorOdbc3.getErrorMessageLen
 0001:00065FF0       DbxOpenOdbc3.TSqlCursorOdbc3.getInt64
 0001:0006607C       DbxOpenOdbc3.TSqlCursorOdbc3.getWideString
 0001:000648B8       DbxOpenOdbc3.TSqlDriverOdbc3.Create
 0001:00064930       DbxOpenOdbc3.TSqlDriverOdbc3.getSQLConnection
 0001:000666A8       DbxOpenOdbc3.TSQLMetaDataOdbc3.getColumns
 0001:000661FC       DbxOpenOdbc3.TSQLMetaDataOdbc3.getErrorMessage
 0001:0006630C       DbxOpenOdbc3.TSQLMetaDataOdbc3.getErrorMessageLen
 0001:00066774       DbxOpenOdbc3.TSQLMetaDataOdbc3.getIndices
 0001:00066570       DbxOpenOdbc3.TSQLMetaDataOdbc3.getObjectList
 0001:00066390       DbxOpenOdbc3.TSQLMetaDataOdbc3.GetOption
 0001:00066808       DbxOpenOdbc3.TSQLMetaDataOdbc3.getProcedureParams
 0001:000665C0       DbxOpenOdbc3.TSQLMetaDataOdbc3.getProcedures
 0001:00066590       DbxOpenOdbc3.TSQLMetaDataOdbc3.getTables
 0001:000664CC       DbxOpenOdbc3.TSQLMetaDataOdbc3.SetOption
 0004:00000030       DbxOpenOdbcApiHook..2
 0001:0003E990       DbxOpenOdbcApiHook..TIATPatch
 0002:0000026C       DbxOpenOdbcApiHook.DbxOpenOdbcApiHook
 0001:00040004       DbxOpenOdbcApiHook.Finalization
 0001:0003FF74       DbxOpenOdbcApiHook.FindVirtualMethodIndex
 0001:0003FFEC       DbxOpenOdbcApiHook.FxtGetStubAddress
 0001:0003F004       DbxOpenOdbcApiHook.GetNativeAddr
 0001:0003FEE0       DbxOpenOdbcApiHook.GetVirtualMethodAddress
 0001:0003FFD4       DbxOpenOdbcApiHook.GetVirtualMethodOffset
 0001:0003EDF8       DbxOpenOdbcApiHook.HookCode
 0001:0003EF08       DbxOpenOdbcApiHook.HookProc
 0001:0003F1EC       DbxOpenOdbcApiHook.IsJumpFromCode
 0001:0003F028       DbxOpenOdbcApiHook.JumpFromCode
 0003:00000098       DbxOpenOdbcApiHook.Opcodes1
 0003:00000298       DbxOpenOdbcApiHook.Opcodes2
 0003:00000498       DbxOpenOdbcApiHook.Opcodes3
 0001:0003F100       DbxOpenOdbcApiHook.RestoreSavedCode
 0001:0003EDB0       DbxOpenOdbcApiHook.SaveOldFunction
 0001:0003FEEC       DbxOpenOdbcApiHook.SetVirtualMethodAddress
 0001:0003EAC8       DbxOpenOdbcApiHook.SizeOfCode
 0001:0003ED8C       DbxOpenOdbcApiHook.SizeOfProc
 0001:0003F590       DbxOpenOdbcApiHook.TIATPatch.BuildIATPatchList
 0001:0003FB6C       DbxOpenOdbcApiHook.TIATPatch.Clear
 0001:0003F268       DbxOpenOdbcApiHook.TIATPatch.CompareLibraryNames
 0001:0003FDEC       DbxOpenOdbcApiHook.TIATPatch.Create
 0001:0003FA94       DbxOpenOdbcApiHook.TIATPatch.Delete
 0001:0003FE40       DbxOpenOdbcApiHook.TIATPatch.Destroy
 0001:0003F3B0       DbxOpenOdbcApiHook.TIATPatch.EnumIATList
 0001:0003F960       DbxOpenOdbcApiHook.TIATPatch.Find
 0001:0003FD94       DbxOpenOdbcApiHook.TIATPatch.GetCount
 0001:0003FC8C       DbxOpenOdbcApiHook.TIATPatch.GetPatchRecord
 0001:0003FCEC       DbxOpenOdbcApiHook.TIATPatch.GetUnpatchOnFree
 0001:0003F248       DbxOpenOdbcApiHook.TIATPatch.ListContainsIAT
 0001:0003F210       DbxOpenOdbcApiHook.TIATPatch.NextFunctionName
 0001:0003F740       DbxOpenOdbcApiHook.TIATPatch.Patch
 0001:0003FD44       DbxOpenOdbcApiHook.TIATPatch.SetUnpatchOnFree
 0001:0003F624       DbxOpenOdbcApiHook.TIATPatch.Unpatch
 0001:0003F330       DbxOpenOdbcApiHook.TIATPatch.UpdateEntry
 0001:0003F37C       DbxOpenOdbcApiHook.TIATPatch.UpdatePatch
 0001:0003EF50       DbxOpenOdbcApiHook.UnhookCode
 0004:00000078       DbxOpenOdbcASA..1
 0003:00000D00       DbxOpenOdbcASA.AsaCallbackMessage
 0001:00061DC4       DbxOpenOdbcASA.ASA_MESSAGE_CALLBACK
 0001:00061DAC       DbxOpenOdbcASA.ASA_MESSAGE_INIT
 0003:00000D04       DbxOpenOdbcASA.aWindow
 0002:000002E4       DbxOpenOdbcASA.DbxOpenOdbcASA
 0001:00061E38       DbxOpenOdbcASA.Finalization
 0004:00000074       DbxOpenOdbcASA.WM_ASACALLBACK
 0004:00000076       DbxOpenOdbcASA.WM_ASACALLBACK_SUPPORTED
 0004:00000070       DbxOpenOdbcCallback..1
 0002:000002DC       DbxOpenOdbcCallback.DbxOpenOdbcCallback
 0001:00061D0C       DbxOpenOdbcCallback.DecodeTraceInfo
 0001:00061D88       DbxOpenOdbcCallback.Finalization
 0001:00061950       DbxOpenOdbcCallback.GetTraceFlag
 0001:00061CE0       DbxOpenOdbcCallback.GetTraceFlagName
 0001:00061954       DbxOpenOdbcCallback.GetTraceFlagName
 0001:00061CF8       DbxOpenOdbcCallback.GetTraceMessage
 0004:00000048       DbxOpenOdbcDbx3Types..1
 0003:0000069B       DbxOpenOdbcDbx3Types.BlobTypeMap
 0003:00000680       DbxOpenOdbcDbx3Types.DataTypeMap
 0002:000002AC       DbxOpenOdbcDbx3Types.DbxOpenOdbcDbx3Types
 0001:000534A4       DbxOpenOdbcDbx3Types.Finalization
 0003:00000618       DbxOpenOdbcDbx3Types.FldSubTypeMap
 0003:000005E4       DbxOpenOdbcDbx3Types.FldTypeMap
 0004:0000003C       DbxOpenOdbcFuncs..1
 0001:00040044       DbxOpenOdbcFuncs.AnsiToOEM
 0001:0004293C       DbxOpenOdbcFuncs.ArrScanByte
 0001:00042974       DbxOpenOdbcFuncs.ArrScanDWord
 0001:00042990       DbxOpenOdbcFuncs.ArrScanPointer
 0001:00042958       DbxOpenOdbcFuncs.ArrScanWord
 0003:000005D8       DbxOpenOdbcFuncs.cNullAnsiCharBuf
 0003:000005DA       DbxOpenOdbcFuncs.cNullWideCharBuf
 0001:000406A4       DbxOpenOdbcFuncs.CompareMemory
 0001:00043734       DbxOpenOdbcFuncs.dbg
 0001:00043720       DbxOpenOdbcFuncs.dbg
 0001:0004370C       DbxOpenOdbcFuncs.dbg
 0002:00000284       DbxOpenOdbcFuncs.DbxOpenOdbcFuncs
 0001:00042F84       DbxOpenOdbcFuncs.DupeAnsiChar
 0001:00042EE0       DbxOpenOdbcFuncs.DupeString
 0001:00042E48       DbxOpenOdbcFuncs.DupeStringA
 0001:00042DA8       DbxOpenOdbcFuncs.DupeStringW
 0001:00042EF8       DbxOpenOdbcFuncs.DupeWideChar
 0001:00041D78       DbxOpenOdbcFuncs.ExpandRegPathW
 0001:00040C30       DbxOpenOdbcFuncs.ExtractFilePathW
 0001:00043798       DbxOpenOdbcFuncs.Finalization
 0001:00043748       DbxOpenOdbcFuncs.GetCompilerVersion
 0001:0004033C       DbxOpenOdbcFuncs.GetOptionValue
 0001:000406F0       DbxOpenOdbcFuncs.GetTemporaryFileName
 0001:00040818       DbxOpenOdbcFuncs.GetTemporaryFolder
 0001:00041ED4       DbxOpenOdbcFuncs.GetValueAsRegistry
 0001:00040DA4       DbxOpenOdbcFuncs.GetValueAsShellFolderKey
 0001:00041800       DbxOpenOdbcFuncs.GetValueAsSpecialWinFolder
 0001:00040D40       DbxOpenOdbcFuncs.GetValueAsTempFolder
 0001:00040C8C       DbxOpenOdbcFuncs.GetValueAsWorkFolder
 0001:00041E00       DbxOpenOdbcFuncs.IsLeftKey
 0001:000409DC       DbxOpenOdbcFuncs.is_prepared_alias
 0001:00040AD0       DbxOpenOdbcFuncs.is_prepared_alias_word
 0001:000400D4       DbxOpenOdbcFuncs.LoadStringFromFileA
 0001:00040204       DbxOpenOdbcFuncs.LoadStringFromFileW
 0001:0004003C       DbxOpenOdbcFuncs.max
 0001:00040034       DbxOpenOdbcFuncs.min
 0001:0004008C       DbxOpenOdbcFuncs.OemToAnsi
 0001:0004069C       DbxOpenOdbcFuncs.PointerOffset
 0001:00042AF4       DbxOpenOdbcFuncs.PosChar
 0001:00042A3C       DbxOpenOdbcFuncs.PosChar
 0001:00042A6C       DbxOpenOdbcFuncs.PosChar
 0001:00042B80       DbxOpenOdbcFuncs.PosChar
 0001:00042D58       DbxOpenOdbcFuncs.PosCharEx
 0001:00042C9C       DbxOpenOdbcFuncs.PosCharEx
 0001:00042BA8       DbxOpenOdbcFuncs.PosCharEx
 0001:00042BF8       DbxOpenOdbcFuncs.PosCharEx
 0001:000423D8       DbxOpenOdbcFuncs.PrepareFileNameAliases
 0001:000428AC       DbxOpenOdbcFuncs.PrepareFileNameAliases
 0001:0004336C       DbxOpenOdbcFuncs.StringCharModify
 0001:00043568       DbxOpenOdbcFuncs.StringCharModify
 0001:000435D4       DbxOpenOdbcFuncs.StringCharModify
 0001:00043690       DbxOpenOdbcFuncs.StringCharModify
 0001:00043430       DbxOpenOdbcFuncs.StringCharModify
 0001:000434AC       DbxOpenOdbcFuncs.StringCharModify
 0001:00043004       DbxOpenOdbcFuncs.StringCharReplace
 0001:00043120       DbxOpenOdbcFuncs.StringCharReplace
 0001:000432CC       DbxOpenOdbcFuncs.StringCharReplace
 0001:000431B8       DbxOpenOdbcFuncs.StringCharReplace
 0001:000429F4       DbxOpenOdbcFuncs.ToAnsiChar
 0001:000429AC       DbxOpenOdbcFuncs.ToAnsiChar
 0004:0000004C       DbxOpenOdbcInterface..1
 0003:0000076C       DbxOpenOdbcInterface.cConnectionOptionsDescs
 0003:000006AC       DbxOpenOdbcInterface.cConnectionOptionsNames
 0003:00000744       DbxOpenOdbcInterface.cConnectionOptionsTypes
 0003:00000804       DbxOpenOdbcInterface.cOptionSwitchesNames
 0003:00000817       DbxOpenOdbcInterface.cXSQLCommandOptionStringTypes
 0003:00000811       DbxOpenOdbcInterface.cXSQLConnectionOptionStringTypes
 0003:00000810       DbxOpenOdbcInterface.cXSQLDriverOptionStringTypes
 0003:0000081B       DbxOpenOdbcInterface.cXSQLMetaDataOptionStringTypes
 0002:000002B4       DbxOpenOdbcInterface.DbxOpenOdbcInterface
 0001:000552A0       DbxOpenOdbcInterface.DoCallRegisterDbXpressLibProc
 0001:000552E4       DbxOpenOdbcInterface.Finalization
 0001:000552B8       DbxOpenOdbcInterface.RegisterDbXpressLibA
 0001:000552C0       DbxOpenOdbcInterface.RegisterDbXpressLibAW
 0001:000552D8       DbxOpenOdbcInterface.RegisterDbXpressLibProc
 0001:000552C8       DbxOpenOdbcInterface.RegisterDbXpressLibW
 0001:000552D0       DbxOpenOdbcInterface.RegisterDbXpressLibWA
 0004:00000050       DbxOpenOdbcInterface._RegisterDbXpressLibs
 0004:000000AC       DbxOpenOdbcStatic..1
 0002:00000358       DbxOpenOdbcStatic.DbxOpenOdbcStatic
 0003:00000EA4       DbxOpenOdbcStatic.DllHandle
 0001:000A1480       DbxOpenOdbcStatic.Finalization
 0001:000A11C4       DbxOpenOdbcStatic.HookIAT_LoadLibrary
 0003:00000EA0       DbxOpenOdbcStatic.IATPatch
 0001:000A0CD8       DbxOpenOdbcStatic.IsStatic
 0001:000A0E94       DbxOpenOdbcStatic.LDoGetProcAddress
 0001:000A0E6C       DbxOpenOdbcStatic.NewFreeLibrary
 0001:000A110C       DbxOpenOdbcStatic.NewGetProcAddress
 0001:000A0CE4       DbxOpenOdbcStatic.NewLoadLibraryA
 0001:000A0DA8       DbxOpenOdbcStatic.NewLoadLibraryW
 0001:000A114C       DbxOpenOdbcStatic.UnHookIAT_LoadLibrary
 0004:000000B8       DbxOpenOdbcStatic._FreeLibrary
 0004:000000BC       DbxOpenOdbcStatic._GetProcAddress
 0004:000000B0       DbxOpenOdbcStatic._LoadLibraryA
 0004:000000B4       DbxOpenOdbcStatic._LoadLibraryW
 0004:00000060       DbxOpenOdbcTrace..9
 0001:000571B4       DbxOpenOdbcTrace.ArrayToStr
 0005:00000000       DbxOpenOdbcTrace.bExceptionFlag
 0001:00056B6C       DbxOpenOdbcTrace.BoolToStr
 0003:00000A84       DbxOpenOdbcTrace.cBoolean
 0003:00000A8C       DbxOpenOdbcTrace.cBoolean
 0003:00000A0C       DbxOpenOdbcTrace.cDbmsType
 0003:00000998       DbxOpenOdbcTrace.cOdbcDriverType
 0003:0000092C       DbxOpenOdbcTrace.cSQLCommandOption
 0003:00000838       DbxOpenOdbcTrace.cSQLConnectionOption
 0003:0000098C       DbxOpenOdbcTrace.cSQLCursorOption
 0003:00000820       DbxOpenOdbcTrace.cSQLDriverOption
 0003:000008E4       DbxOpenOdbcTrace.cSQLMetaDataOption
 0003:00000978       DbxOpenOdbcTrace.cSTMTParamType
 0002:000002BC       DbxOpenOdbcTrace.DbxOpenOdbcTrace
 0001:00058818       DbxOpenOdbcTrace.Finalization
 0001:00058194       DbxOpenOdbcTrace.GetExceptionInfoStr
 0001:0005860C       DbxOpenOdbcTrace.GetTransactionDescStr
 0001:000578B8       DbxOpenOdbcTrace.LogEnterProc
 0001:00057B10       DbxOpenOdbcTrace.LogEnterProc
 0001:00058598       DbxOpenOdbcTrace.LogExceptProc
 0001:000582C8       DbxOpenOdbcTrace.LogExceptProc
 0001:00058124       DbxOpenOdbcTrace.LogExitProc
 0001:00057EB8       DbxOpenOdbcTrace.LogExitProc
 0001:00057B80       DbxOpenOdbcTrace.LogInfoProc
 0001:00057CFC       DbxOpenOdbcTrace.LogInfoProc
 0001:000567A8       DbxOpenOdbcTrace.OutputDebugString
 0001:000568C8       DbxOpenOdbcTrace.OutputDebugString
 0001:000569F4       DbxOpenOdbcTrace.OutputDebugString
 0001:00056BB8       DbxOpenOdbcTrace.ValueToStr
 0004:00000038       DbxOpenOdbcTypes..1
 0002:0000027C       DbxOpenOdbcTypes.DbxOpenOdbcTypes
 0001:00040014       DbxOpenOdbcTypes.Finalization
 0004:00000064       DbxOpenOdbcUtils..1
 0001:0005A1E8       DbxOpenOdbcUtils.ArgStrNull
 0001:0005A1AC       DbxOpenOdbcUtils.ArgStrNull
 0001:000589D4       DbxOpenOdbcUtils.BCD2Str
 0001:0005A0D0       DbxOpenOdbcUtils.ChangeFileExtW
 0002:000002C4       DbxOpenOdbcUtils.DbxOpenOdbcUtils
 0001:0005A224       DbxOpenOdbcUtils.Finalization
 0001:00058920       DbxOpenOdbcUtils.FreeMemAndNil
 0001:00058934       DbxOpenOdbcUtils.MaxSet
 0001:00058954       DbxOpenOdbcUtils.MaxSet
 0001:000589AC       DbxOpenOdbcUtils.MaxSet
 0001:0005896C       DbxOpenOdbcUtils.MaxSet
 0001:00058998       DbxOpenOdbcUtils.MaxSet
 0001:0005893C       DbxOpenOdbcUtils.MaxSet
 0001:0005A05C       DbxOpenOdbcUtils.PAnsiCharParam
 0001:0005A050       DbxOpenOdbcUtils.PAnsiCharParam
 0001:0005A148       DbxOpenOdbcUtils.PIntToStr
 0001:00058BE8       DbxOpenOdbcUtils.Str2BCD
 0001:0005A074       DbxOpenOdbcUtils.StrAnsiStringParam
 0001:0005A09C       DbxOpenOdbcUtils.StrAnsiStringParam
 0001:0005921C       DbxOpenOdbcUtils.StrBuffCopy
 0001:00059278       DbxOpenOdbcUtils.StrBuffCopy
 0001:000592D8       DbxOpenOdbcUtils.StrBuffCopy
 0001:0005933C       DbxOpenOdbcUtils.StrBuffCopy
 0001:000593B8       DbxOpenOdbcUtils.StrBuffCopy
 0001:000593A0       DbxOpenOdbcUtils.StrBuffCopy
 0001:0005974C       DbxOpenOdbcUtils.StrClone
 0001:000596B4       DbxOpenOdbcUtils.StrClone
 0001:00059624       DbxOpenOdbcUtils.StrClone
 0001:000595CC       DbxOpenOdbcUtils.StrClone
 0001:00059510       DbxOpenOdbcUtils.StrClone
 0001:000594F0       DbxOpenOdbcUtils.StrClone
 0001:00059494       DbxOpenOdbcUtils.StrClone
 0001:00059428       DbxOpenOdbcUtils.StrClone
 0001:000593D0       DbxOpenOdbcUtils.StrClone
 0001:000597D8       DbxOpenOdbcUtils.StrClone
 0001:00059824       DbxOpenOdbcUtils.StrClone
 0001:00059858       DbxOpenOdbcUtils.StrClone
 0001:00059950       DbxOpenOdbcUtils.StrClone
 0001:000598D8       DbxOpenOdbcUtils.StrClone
 0001:00058FD0       DbxOpenOdbcUtils.StringsToWStr
 0001:00058E88       DbxOpenOdbcUtils.StringToWideChar
 0001:00058ED0       DbxOpenOdbcUtils.StringToWStr
 0001:00058F30       DbxOpenOdbcUtils.StringToWStr
 0001:00059DF4       DbxOpenOdbcUtils.StrISameText
 0001:00059F90       DbxOpenOdbcUtils.StrISameText
 0001:00059F78       DbxOpenOdbcUtils.StrISameText
 0001:00059F60       DbxOpenOdbcUtils.StrISameText
 0001:00059E54       DbxOpenOdbcUtils.StrISameText
 0001:00059EDC       DbxOpenOdbcUtils.StrISameText
 0001:00059FF0       DbxOpenOdbcUtils.StrISameText
 0001:00059E24       DbxOpenOdbcUtils.StrISameText
 0001:000599C8       DbxOpenOdbcUtils.StrIsEmpty
 0001:00059984       DbxOpenOdbcUtils.StrIsEmpty
 0001:000599A4       DbxOpenOdbcUtils.StrIsEmpty
 0001:00059994       DbxOpenOdbcUtils.StrIsEmpty
 0001:000590B4       DbxOpenOdbcUtils.StrLenNil
 0001:00059A04       DbxOpenOdbcUtils.StrNotEmpty
 0001:000599E4       DbxOpenOdbcUtils.StrNotEmpty
 0001:000599F4       DbxOpenOdbcUtils.StrNotEmpty
 0001:00059A28       DbxOpenOdbcUtils.StrNotEmpty
 0001:00059AA8       DbxOpenOdbcUtils.StrPtrToString
 0001:00059A44       DbxOpenOdbcUtils.StrPtrToString
 0001:00059AD0       DbxOpenOdbcUtils.StrPtrToString
 0001:00059DDC       DbxOpenOdbcUtils.StrSameText
 0001:00059DC0       DbxOpenOdbcUtils.StrSameText
 0001:00059DA8       DbxOpenOdbcUtils.StrSameText
 0001:00059D8C       DbxOpenOdbcUtils.StrSameText
 0001:00059CD4       DbxOpenOdbcUtils.StrSameText
 0001:00059CBC       DbxOpenOdbcUtils.StrSameText
 0001:00059CA4       DbxOpenOdbcUtils.StrSameText
 0001:00059C20       DbxOpenOdbcUtils.StrSameText
 0001:00059B98       DbxOpenOdbcUtils.StrSameText
 0001:00059B68       DbxOpenOdbcUtils.StrSameText
 0001:00059B38       DbxOpenOdbcUtils.StrSameText
 0001:00059D30       DbxOpenOdbcUtils.StrSameText
 0001:00058E68       DbxOpenOdbcUtils.WCharFromChar
 0001:00058D90       DbxOpenOdbcUtils.WideStringLengthFromStr
 0001:00058DF4       DbxOpenOdbcUtils.WideStringLengthFromStrings
 0001:000590E4       DbxOpenOdbcUtils.WStrComp
 0001:000591D8       DbxOpenOdbcUtils.WStrCopy
 0001:000591B0       DbxOpenOdbcUtils.WStrCopy
 0001:00059114       DbxOpenOdbcUtils.WStrIComp
 0001:00059164       DbxOpenOdbcUtils.WStrLComp
 0001:000591F4       DbxOpenOdbcUtils.WStrLCopy
 0001:000590C4       DbxOpenOdbcUtils.WStrLen
 0004:0000002C       DbxXXDrv..1
 0002:00000264       DbxXXDrv.DbxXXDrv
 0001:0003E85C       DbxXXDrv.Finalization
 0001:0003E858       DbxXXDrv.IsDbxDrvFixed
 0004:00000040       OdbcApi..5
 0001:000466E8       OdbcApi..EOdbcApi
 0001:00046780       OdbcApi..EOdbcApiNotImplemented
 0001:00046E48       OdbcApi..TOdbcApiIntfImpl
 0001:00046838       OdbcApi..TOdbcApiProxy
 0001:00046F7C       OdbcApi..TStringHash
 0003:000005E0       OdbcApi.cLibsSeparator
 0003:000005E1       OdbcApi.cSqlAttrOdbcVerSeparator
 0001:00047338       OdbcApi.DoGetProcAddressEx
 0001:0004B148       OdbcApi.DoSQLFreeHandle
 0001:00047280       OdbcApi.ExtractNextLibName
 0001:000521A0       OdbcApi.Finalization
 0004:00000044       OdbcApi.fOdbcApiCache
 0001:00047414       OdbcApi.LoadOdbcDriverManager
 0002:0000028C       OdbcApi.OdbcApi
 0001:00046F00       OdbcApi.SQL_SUCCEEDED
 0003:000005DC       OdbcApi.sysodbclib
 0001:0004E6E4       OdbcApi.TOdbcApiIntfImpl.CheckAvailableProxy
 0001:0004E760       OdbcApi.TOdbcApiIntfImpl.FireVSDebugEvent
 0001:0004E7E4       OdbcApi.TOdbcApiIntfImpl.ODBCGetTryWaitValue
 0001:0004E868       OdbcApi.TOdbcApiIntfImpl.ODBCSetTryWaitValue
 0001:0004EDA8       OdbcApi.TOdbcApiIntfImpl.SQLAllocConnect
 0001:0004EE2C       OdbcApi.TOdbcApiIntfImpl.SQLAllocEnv
 0001:0004EEB0       OdbcApi.TOdbcApiIntfImpl.SQLAllocHandle
 0001:0004EF40       OdbcApi.TOdbcApiIntfImpl.SQLAllocHandleStd
 0001:0004EFD0       OdbcApi.TOdbcApiIntfImpl.SQLAllocStmt
 0001:0004F054       OdbcApi.TOdbcApiIntfImpl.SQLBindCol
 0001:0004F0F0       OdbcApi.TOdbcApiIntfImpl.SQLBindParam
 0001:0004F194       OdbcApi.TOdbcApiIntfImpl.SQLBindParameter
 0001:0004F244       OdbcApi.TOdbcApiIntfImpl.SQLBrowseConnect
 0001:0004F2E0       OdbcApi.TOdbcApiIntfImpl.SQLBulkOperations
 0001:0004F364       OdbcApi.TOdbcApiIntfImpl.SQLCancel
 0001:0004F3E8       OdbcApi.TOdbcApiIntfImpl.SQLCloseCursor
 0001:0004F46C       OdbcApi.TOdbcApiIntfImpl.SQLColAttribute
 0001:0004F50C       OdbcApi.TOdbcApiIntfImpl.SQLColAttributeInt
 0001:0004F5AC       OdbcApi.TOdbcApiIntfImpl.SQLColAttributes
 0001:0004F64C       OdbcApi.TOdbcApiIntfImpl.SQLColAttributeString
 0001:0004F6EC       OdbcApi.TOdbcApiIntfImpl.SQLColumnPrivileges
 0001:0004F798       OdbcApi.TOdbcApiIntfImpl.SQLColumns
 0001:0004F844       OdbcApi.TOdbcApiIntfImpl.SQLConnect
 0001:0004F8E4       OdbcApi.TOdbcApiIntfImpl.SQLCopyDesc
 0001:0004F968       OdbcApi.TOdbcApiIntfImpl.SQLDataSources
 0001:0004FA0C       OdbcApi.TOdbcApiIntfImpl.SQLDescribeCol
 0001:0004FAB4       OdbcApi.TOdbcApiIntfImpl.SQLDescribeParam
 0001:0004FB50       OdbcApi.TOdbcApiIntfImpl.SQLDisconnect
 0001:0004FBD4       OdbcApi.TOdbcApiIntfImpl.SQLDriverConnect
 0001:0004FC78       OdbcApi.TOdbcApiIntfImpl.SQLDrivers
 0001:0004FD1C       OdbcApi.TOdbcApiIntfImpl.SQLEndTran
 0001:0004FDAC       OdbcApi.TOdbcApiIntfImpl.SQLError
 0001:0004FE50       OdbcApi.TOdbcApiIntfImpl.SQLExecDirect
 0001:0004FEE0       OdbcApi.TOdbcApiIntfImpl.SQLExecute
 0001:0004FF64       OdbcApi.TOdbcApiIntfImpl.SQLExtendedFetch
 0001:0004FFFC       OdbcApi.TOdbcApiIntfImpl.SQLFetch
 0001:00050080       OdbcApi.TOdbcApiIntfImpl.SQLFetchScroll
 0001:00050110       OdbcApi.TOdbcApiIntfImpl.SQLForeignKeys
 0001:000501CC       OdbcApi.TOdbcApiIntfImpl.SQLFreeConnect
 0001:00050250       OdbcApi.TOdbcApiIntfImpl.SQLFreeEnv
 0001:000502D4       OdbcApi.TOdbcApiIntfImpl.SQLFreeHandle
 0001:00050358       OdbcApi.TOdbcApiIntfImpl.SQLFreeStmt
 0001:000503DC       OdbcApi.TOdbcApiIntfImpl.SQLFunctionSupported
 0001:00050460       OdbcApi.TOdbcApiIntfImpl.SQLGetConnectAttr
 0001:000504F8       OdbcApi.TOdbcApiIntfImpl.SQLGetConnectOption
 0001:00050588       OdbcApi.TOdbcApiIntfImpl.SQLGetCursorName
 0001:0005061C       OdbcApi.TOdbcApiIntfImpl.SQLGetData
 0001:000506B8       OdbcApi.TOdbcApiIntfImpl.SQLGetDescField
 0001:00050754       OdbcApi.TOdbcApiIntfImpl.SQLGetDescRec
 0001:00050804       OdbcApi.TOdbcApiIntfImpl.SQLGetDiagField
 0001:000508A4       OdbcApi.TOdbcApiIntfImpl.SQLGetDiagRec
 0001:00050948       OdbcApi.TOdbcApiIntfImpl.SQLGetEnvAttr
 0001:000509E0       OdbcApi.TOdbcApiIntfImpl.SQLGetFunctions
 0001:00050A70       OdbcApi.TOdbcApiIntfImpl.SQLGetInfo
 0001:00050B08       OdbcApi.TOdbcApiIntfImpl.SQLGetInfoInt
 0001:00050BA0       OdbcApi.TOdbcApiIntfImpl.SQLGetInfoSmallint
 0001:00050C38       OdbcApi.TOdbcApiIntfImpl.SQLGetInfoString
 0001:00050CD0       OdbcApi.TOdbcApiIntfImpl.SQLGetStmtAttr
 0001:00050D68       OdbcApi.TOdbcApiIntfImpl.SQLGetStmtOption
 0001:00050DF8       OdbcApi.TOdbcApiIntfImpl.SQLGetTypeInfo
 0001:00050E7C       OdbcApi.TOdbcApiIntfImpl.SQLMoreResults
 0001:00050F00       OdbcApi.TOdbcApiIntfImpl.SQLNativeSql
 0001:00050F9C       OdbcApi.TOdbcApiIntfImpl.SQLNumParams
 0001:00051020       OdbcApi.TOdbcApiIntfImpl.SQLNumResultCols
 0001:000510A4       OdbcApi.TOdbcApiIntfImpl.SQLParamData
 0001:00051128       OdbcApi.TOdbcApiIntfImpl.SQLParamOptions
 0001:000511B8       OdbcApi.TOdbcApiIntfImpl.SQLPrepare
 0001:00051248       OdbcApi.TOdbcApiIntfImpl.SQLPrimaryKeys
 0001:000512E8       OdbcApi.TOdbcApiIntfImpl.SQLProcedureColumns
 0001:00051394       OdbcApi.TOdbcApiIntfImpl.SQLProcedures
 0001:00051434       OdbcApi.TOdbcApiIntfImpl.SQLPutData
 0001:000514C4       OdbcApi.TOdbcApiIntfImpl.SQLRowCount
 0001:00051548       OdbcApi.TOdbcApiIntfImpl.SQLSetConnectAttr
 0001:000515DC       OdbcApi.TOdbcApiIntfImpl.SQLSetConnectOption
 0001:0005166C       OdbcApi.TOdbcApiIntfImpl.SQLSetCursorName
 0001:000516FC       OdbcApi.TOdbcApiIntfImpl.SQLSetDescField
 0001:00051794       OdbcApi.TOdbcApiIntfImpl.SQLSetDescRec
 0001:00051844       OdbcApi.TOdbcApiIntfImpl.SQLSetEnvAttr
 0001:000518D8       OdbcApi.TOdbcApiIntfImpl.SQLSetParam
 0001:0005197C       OdbcApi.TOdbcApiIntfImpl.SQLSetPos
 0001:00051A10       OdbcApi.TOdbcApiIntfImpl.SQLSetScrollOptions
 0001:00051AA4       OdbcApi.TOdbcApiIntfImpl.SQLSetStmtAttr
 0001:00051B38       OdbcApi.TOdbcApiIntfImpl.SQLSetStmtOption
 0001:00051BC8       OdbcApi.TOdbcApiIntfImpl.SQLSpecialColumns
 0001:00051C78       OdbcApi.TOdbcApiIntfImpl.SQLStatistics
 0001:00051D24       OdbcApi.TOdbcApiIntfImpl.SQLTablePrivileges
 0001:00051DC4       OdbcApi.TOdbcApiIntfImpl.SQLTables
 0001:00051E70       OdbcApi.TOdbcApiIntfImpl.SQLTransact
 0001:0004E8EC       OdbcApi.TOdbcApiIntfImpl.SQL_ADD_RECORD
 0001:0004E970       OdbcApi.TOdbcApiIntfImpl.SQL_DELETE_RECORD
 0001:0004E9F4       OdbcApi.TOdbcApiIntfImpl.SQL_FUNC_EXISTS
 0001:0004EA78       OdbcApi.TOdbcApiIntfImpl.SQL_LEN_BINARY_ATTR
 0001:0004EAFC       OdbcApi.TOdbcApiIntfImpl.SQL_LEN_DATA_AT_EXEC
 0001:0004EB80       OdbcApi.TOdbcApiIntfImpl.SQL_LOCK_RECORD
 0001:0004EC10       OdbcApi.TOdbcApiIntfImpl.SQL_POSITION_TO
 0001:0004EC94       OdbcApi.TOdbcApiIntfImpl.SQL_REFRESH_RECORD
 0001:0004ED24       OdbcApi.TOdbcApiIntfImpl.SQL_UPDATE_RECORD
 0001:00051F00       OdbcApi.TOdbcApiIntfImpl.TraceCloseLogFile
 0001:00051F84       OdbcApi.TOdbcApiIntfImpl.TraceOpenLogFile
 0001:00052014       OdbcApi.TOdbcApiIntfImpl.TraceReturn
 0001:00052098       OdbcApi.TOdbcApiIntfImpl.TraceVersion
 0001:0005211C       OdbcApi.TOdbcApiIntfImpl.TraceVSControl
 0001:000494E4       OdbcApi.TOdbcApiProxy.BeginLock
 0001:00049310       OdbcApi.TOdbcApiProxy.Destroy
 0001:000494F0       OdbcApi.TOdbcApiProxy.EndLock
 0001:0004E46C       OdbcApi.TOdbcApiProxy.FireVSDebugEvent
 0001:0004E6A4       OdbcApi.TOdbcApiProxy.GetOdbcApiIntf
 0001:00049374       OdbcApi.TOdbcApiProxy.NotImplemented
 0001:0004E4B0       OdbcApi.TOdbcApiProxy.ODBCGetTryWaitValue
 0001:0004E4FC       OdbcApi.TOdbcApiProxy.ODBCSetTryWaitValue
 0001:0004E5F4       OdbcApi.TOdbcApiProxy.SetOdbcDriverLevel
 0001:000494FC       OdbcApi.TOdbcApiProxy.SQLAllocConnect
 0001:00049518       OdbcApi.TOdbcApiProxy.SQLAllocEnv
 0001:00049590       OdbcApi.TOdbcApiProxy.SQLAllocHandle
 0001:00049534       OdbcApi.TOdbcApiProxy.SQLAllocHandleStd
 0001:00049630       OdbcApi.TOdbcApiProxy.SQLAllocStmt
 0001:0004964C       OdbcApi.TOdbcApiProxy.SQLBindCol
 0001:000496A8       OdbcApi.TOdbcApiProxy.SQLBindParam
 0001:00049714       OdbcApi.TOdbcApiProxy.SQLBindParameter
 0001:00049794       OdbcApi.TOdbcApiProxy.SQLBrowseConnect
 0001:00049920       OdbcApi.TOdbcApiProxy.SQLBulkOperations
 0001:0004996C       OdbcApi.TOdbcApiProxy.SQLCancel
 0001:000499A8       OdbcApi.TOdbcApiProxy.SQLCloseCursor
 0001:000499FC       OdbcApi.TOdbcApiProxy.SQLColAttribute
 0001:00049BE8       OdbcApi.TOdbcApiProxy.SQLColAttributeInt
 0001:00049C30       OdbcApi.TOdbcApiProxy.SQLColAttributes
 0001:00049C0C       OdbcApi.TOdbcApiProxy.SQLColAttributeString
 0001:00049DC8       OdbcApi.TOdbcApiProxy.SQLColumnPrivileges
 0001:00049F44       OdbcApi.TOdbcApiProxy.SQLColumns
 0001:0004A0FC       OdbcApi.TOdbcApiProxy.SQLConnect
 0001:0004A270       OdbcApi.TOdbcApiProxy.SQLCopyDesc
 0001:0004A2AC       OdbcApi.TOdbcApiProxy.SQLDataSources
 0001:0004A478       OdbcApi.TOdbcApiProxy.SQLDescribeCol
 0001:0004A5FC       OdbcApi.TOdbcApiProxy.SQLDescribeParam
 0001:0004A668       OdbcApi.TOdbcApiProxy.SQLDisconnect
 0001:0004A6A8       OdbcApi.TOdbcApiProxy.SQLDriverConnect
 0001:0004A880       OdbcApi.TOdbcApiProxy.SQLDrivers
 0001:0004AAA4       OdbcApi.TOdbcApiProxy.SQLEndTran
 0001:0004AB3C       OdbcApi.TOdbcApiProxy.SQLError
 0001:0004ACEC       OdbcApi.TOdbcApiProxy.SQLExecDirect
 0001:0004ADB8       OdbcApi.TOdbcApiProxy.SQLExecute
 0001:0004ADF4       OdbcApi.TOdbcApiProxy.SQLExtendedFetch
 0001:0004AE5C       OdbcApi.TOdbcApiProxy.SQLFetch
 0001:0004AE9C       OdbcApi.TOdbcApiProxy.SQLFetchScroll
 0001:0004AEF4       OdbcApi.TOdbcApiProxy.SQLForeignKeys
 0001:0004B0C4       OdbcApi.TOdbcApiProxy.SQLFreeConnect
 0001:0004B108       OdbcApi.TOdbcApiProxy.SQLFreeEnv
 0001:0004B218       OdbcApi.TOdbcApiProxy.SQLFreeHandle
 0001:0004B2A0       OdbcApi.TOdbcApiProxy.SQLFreeStmt
 0001:0004BE40       OdbcApi.TOdbcApiProxy.SQLFunctionSupported
 0001:0004B2E4       OdbcApi.TOdbcApiProxy.SQLGetConnectAttr
 0001:0004B518       OdbcApi.TOdbcApiProxy.SQLGetConnectOption
 0001:0004B5FC       OdbcApi.TOdbcApiProxy.SQLGetCursorName
 0001:0004B758       OdbcApi.TOdbcApiProxy.SQLGetData
 0001:0004B7BC       OdbcApi.TOdbcApiProxy.SQLGetDescField
 0001:0004B93C       OdbcApi.TOdbcApiProxy.SQLGetDescRec
 0001:0004BABC       OdbcApi.TOdbcApiProxy.SQLGetDiagField
 0001:0004BC1C       OdbcApi.TOdbcApiProxy.SQLGetDiagRec
 0001:0004BDE0       OdbcApi.TOdbcApiProxy.SQLGetEnvAttr
 0001:0004BE6C       OdbcApi.TOdbcApiProxy.SQLGetFunctions
 0001:0004C860       OdbcApi.TOdbcApiProxy.SQLGetInfo
 0001:0004C9F4       OdbcApi.TOdbcApiProxy.SQLGetInfoInt
 0001:0004CA0C       OdbcApi.TOdbcApiProxy.SQLGetInfoSmallint
 0001:0004CA24       OdbcApi.TOdbcApiProxy.SQLGetInfoString
 0001:0004CA40       OdbcApi.TOdbcApiProxy.SQLGetStmtAttr
 0001:0004CBC8       OdbcApi.TOdbcApiProxy.SQLGetStmtOption
 0001:0004CC28       OdbcApi.TOdbcApiProxy.SQLGetTypeInfo
 0001:0004CC84       OdbcApi.TOdbcApiProxy.SQLMoreResults
 0001:0004CC9C       OdbcApi.TOdbcApiProxy.SQLNativeSql
 0001:0004CE0C       OdbcApi.TOdbcApiProxy.SQLNumParams
 0001:0004CE54       OdbcApi.TOdbcApiProxy.SQLNumResultCols
 0001:0004CEA0       OdbcApi.TOdbcApiProxy.SQLParamData
 0001:0004CEE8       OdbcApi.TOdbcApiProxy.SQLParamOptions
 0001:0004CF40       OdbcApi.TOdbcApiProxy.SQLPrepare
 0001:0004D010       OdbcApi.TOdbcApiProxy.SQLPrimaryKeys
 0001:0004D178       OdbcApi.TOdbcApiProxy.SQLProcedureColumns
 0001:0004D320       OdbcApi.TOdbcApiProxy.SQLProcedures
 0001:0004D488       OdbcApi.TOdbcApiProxy.SQLPutData
 0001:0004D4DC       OdbcApi.TOdbcApiProxy.SQLRowCount
 0001:0004D520       OdbcApi.TOdbcApiProxy.SQLSetConnectAttr
 0001:0004D64C       OdbcApi.TOdbcApiProxy.SQLSetConnectOption
 0001:0004D6C8       OdbcApi.TOdbcApiProxy.SQLSetCursorName
 0001:0004D7A8       OdbcApi.TOdbcApiProxy.SQLSetDescField
 0001:0004D8A0       OdbcApi.TOdbcApiProxy.SQLSetDescRec
 0001:0004D91C       OdbcApi.TOdbcApiProxy.SQLSetEnvAttr
 0001:0004D978       OdbcApi.TOdbcApiProxy.SQLSetParam
 0001:0004D9E4       OdbcApi.TOdbcApiProxy.SQLSetPos
 0001:0004DA40       OdbcApi.TOdbcApiProxy.SQLSetScrollOptions
 0001:0004DAA4       OdbcApi.TOdbcApiProxy.SQLSetStmtAttr
 0001:0004DBCC       OdbcApi.TOdbcApiProxy.SQLSetStmtOption
 0001:0004DC2C       OdbcApi.TOdbcApiProxy.SQLSpecialColumns
 0001:0004DDBC       OdbcApi.TOdbcApiProxy.SQLStatistics
 0001:0004DF60       OdbcApi.TOdbcApiProxy.SQLTablePrivileges
 0001:0004E0C8       OdbcApi.TOdbcApiProxy.SQLTables
 0001:0004E2A0       OdbcApi.TOdbcApiProxy.SQLTransact
 0001:0004E554       OdbcApi.TOdbcApiProxy.SQL_ADD_RECORD
 0001:0004E560       OdbcApi.TOdbcApiProxy.SQL_DELETE_RECORD
 0001:0004E56C       OdbcApi.TOdbcApiProxy.SQL_FUNC_EXISTS
 0001:0004E59C       OdbcApi.TOdbcApiProxy.SQL_LEN_BINARY_ATTR
 0001:0004E5A4       OdbcApi.TOdbcApiProxy.SQL_LEN_DATA_AT_EXEC
 0001:0004E5AC       OdbcApi.TOdbcApiProxy.SQL_LOCK_RECORD
 0001:0004E5C4       OdbcApi.TOdbcApiProxy.SQL_POSITION_TO
 0001:0004E5D0       OdbcApi.TOdbcApiProxy.SQL_REFRESH_RECORD
 0001:0004E5E8       OdbcApi.TOdbcApiProxy.SQL_UPDATE_RECORD
 0001:0004E2F4       OdbcApi.TOdbcApiProxy.TraceCloseLogFile
 0001:0004E340       OdbcApi.TOdbcApiProxy.TraceOpenLogFile
 0001:0004E3A0       OdbcApi.TOdbcApiProxy.TraceReturn
 0001:0004E3DC       OdbcApi.TOdbcApiProxy.TraceVersion
 0001:0004E424       OdbcApi.TOdbcApiProxy.TraceVSControl
 0001:0004716C       OdbcApi.TStringHash.Add
 0001:0004726C       OdbcApi.TStringHash.BeginLock
 0001:000470C0       OdbcApi.TStringHash.Clear
 0001:00047028       OdbcApi.TStringHash.Create
 0001:00047088       OdbcApi.TStringHash.Destroy
 0001:00047274       OdbcApi.TStringHash.EndLock
 0001:00047224       OdbcApi.TStringHash.Find
 0001:00047130       OdbcApi.TStringHash.HashOf
 0001:000471CC       OdbcApi.TStringHash.Remove
 0001:00047204       OdbcApi.TStringHash.ValueOf
 0001:000492AC       OdbcApi.UnLoadOdbcDriverManager
 0004:00000068       RegExpr..3
 0001:0005A590       RegExpr..ERegExpr
 0001:0005A3DC       RegExpr..TRegExpr
 0001:0005F294       RegExpr.ClearMatchs
 0001:0005C790       RegExpr.EmitComplexBraces
 0001:0005CE14       RegExpr.EmitExactly
 0001:0005CEC8       RegExpr.EmitRange
 0001:0005CFC4       RegExpr.EmitRangeC
 0001:0005CF80       RegExpr.EmitRangeCPrim
 0001:0005D1C8       RegExpr.EmitRangeStr
 0001:0005C888       RegExpr.EmitSimpleBraces
 0001:0005D1AC       RegExpr.EmitSimpleRangeC
 0001:0005A628       RegExpr.ExecRegExpr
 0001:0005FF60       RegExpr.Finalization
 0001:0005CE84       RegExpr.HexDig
 0003:00000AC4       RegExpr.META
 0001:0005C730       RegExpr.parsenum
 0001:0005F6F0       RegExpr.ParseVarName
 0001:0005A788       RegExpr.QuoteRegExprMetaChars
 0002:000002CC       RegExpr.RegExpr
 0003:00000AB0       RegExpr.RegExprInvertCaseFunction
 0003:00000AA8       RegExpr.RegExprLinePairedSeparator
 0003:00000AA4       RegExpr.RegExprLineSeparators
 0003:00000AC0       RegExpr.RegExprMetaSet
 0003:00000A97       RegExpr.RegExprModifierG
 0003:00000A94       RegExpr.RegExprModifierI
 0003:00000A98       RegExpr.RegExprModifierM
 0003:00000A95       RegExpr.RegExprModifierR
 0003:00000A96       RegExpr.RegExprModifierS
 0003:00000A99       RegExpr.RegExprModifierX
 0003:00000A9C       RegExpr.RegExprSpaceChars
 0001:0005A89C       RegExpr.RegExprSubExpressions
 0003:00000AA0       RegExpr.RegExprWordChars
 0001:0005F2BC       RegExpr.RegMatch
 0001:0005A6FC       RegExpr.ReplaceRegExpr
 0001:0005FE24       RegExpr.ReturnAddr
 0001:0005A690       RegExpr.SplitRegExpr
 0001:0005C1FC       RegExpr.strcspn
 0001:0005C008       RegExpr.TRegExpr.Compile
 0001:0005C220       RegExpr.TRegExpr.CompileRegExpr
 0001:0005B7AC       RegExpr.TRegExpr.Create
 0001:0005B8C0       RegExpr.TRegExpr.Destroy
 0001:0005C174       RegExpr.TRegExpr.EmitC
 0001:0005C138       RegExpr.TRegExpr.EmitNode
 0001:0005FE28       RegExpr.TRegExpr.Error
 0001:0005ABB0       RegExpr.TRegExpr.ErrorMsg
 0001:0005F278       RegExpr.TRegExpr.Exec
 0001:0005F260       RegExpr.TRegExpr.Exec
 0001:0005F284       RegExpr.TRegExpr.Exec
 0001:0005F4AC       RegExpr.TRegExpr.ExecNext
 0001:0005F28C       RegExpr.TRegExpr.ExecPos
 0001:0005F310       RegExpr.TRegExpr.ExecPrim
 0001:0005EDE0       RegExpr.TRegExpr.FillFirstCharSet
 0001:0005DE5C       RegExpr.TRegExpr.GetCompilerErrorPos
 0001:0005B924       RegExpr.TRegExpr.GetExpression
 0001:0005F4F4       RegExpr.TRegExpr.GetInputString
 0001:0005F684       RegExpr.TRegExpr.GetLinePairedSeparator
 0001:0005BAB8       RegExpr.TRegExpr.GetMatch
 0001:0005BA80       RegExpr.TRegExpr.GetMatchLen
 0001:0005BA48       RegExpr.TRegExpr.GetMatchPos
 0001:0005BF00       RegExpr.TRegExpr.GetModifier
 0001:0005BB04       RegExpr.TRegExpr.GetModifierStr
 0001:0005BA18       RegExpr.TRegExpr.GetSubExprMatchCount
 0001:0005C198       RegExpr.TRegExpr.InsertOperator
 0001:0005BFEC       RegExpr.TRegExpr.InvalidateProgramm
 0001:0005B908       RegExpr.TRegExpr.InvertCaseFunction
 0001:0005C028       RegExpr.TRegExpr.IsProgrammOk
 0001:0005B788       RegExpr.TRegExpr.LastError
 0001:0005E198       RegExpr.TRegExpr.MatchPrim
 0001:0005C118       RegExpr.TRegExpr.OpTail
 0001:0005D350       RegExpr.TRegExpr.ParseAtom
 0001:0005C690       RegExpr.TRegExpr.ParseBranch
 0001:0005BCB8       RegExpr.TRegExpr.ParseModifiersStr
 0001:0005C8FC       RegExpr.TRegExpr.ParsePiece
 0001:0005C4C8       RegExpr.TRegExpr.ParseReg
 0001:0005E17C       RegExpr.TRegExpr.regnext
 0001:0005DE7C       RegExpr.TRegExpr.regrepeat
 0001:0005FDC0       RegExpr.TRegExpr.Replace
 0001:0005FA90       RegExpr.TRegExpr.Replace
 0001:0005FC20       RegExpr.TRegExpr.ReplaceEx
 0001:0005B950       RegExpr.TRegExpr.SetExpression
 0001:0005F528       RegExpr.TRegExpr.SetInputString
 0001:0005F5DC       RegExpr.TRegExpr.SetLinePairedSeparator
 0001:0005F5B0       RegExpr.TRegExpr.SetLineSeparators
 0001:0005BF74       RegExpr.TRegExpr.SetModifier
 0001:0005BED8       RegExpr.TRegExpr.SetModifierStr
 0001:0005F914       RegExpr.TRegExpr.Split
 0001:0005F770       RegExpr.TRegExpr.Substitute
 0001:0005C0DC       RegExpr.TRegExpr.Tail
 0001:0005B79C       RegExpr.TRegExpr.VersionMajor
 0001:0005B7A4       RegExpr.TRegExpr.VersionMinor
 0003:00000AB8       RegExpr.TRegExprVersionMajor
 0003:00000ABC       RegExpr.TRegExprVersionMinor
 0001:0005D200       RegExpr.UnQuoteChar
 0001:00000B84       SysInit...
 0003:00000034       SysInit...
 0001:00000C8C       SysInit...
 0001:00000C7C       SysInit...
 0001:00000B94       SysInit...
 0001:00000C58       SysInit...
 0001:00000C30       SysInit...
 0001:00000BA4       SysInit...
 0001:00000BB4       SysInit...
 0001:00000BC4       SysInit...
 0001:00000BD4       SysInit...
 0001:00000BE8       SysInit...
 0001:00000C18       SysInit...
 0004:00000014       SysInit..1
 0001:000005E8       SysInit.@GetTls
 0001:00000658       SysInit.@InitPkg
 0001:000006BC       SysInit.@PackageLoad
 0001:000006C8       SysInit.@PackageUnload
 0001:000006D4       SysInit.@_delayLoadHelper2
 0001:000009B4       SysInit.@_FUnloadDelayLoadedDLL2
 0001:00000AC4       SysInit.@_HrLoadAllImportsForDll
 0004:00000010       SysInit.@_pfnDliFailureHook2
 0004:0000000C       SysInit.@_pfnDliNotifyHook2
 0001:00000508       SysInit.AllocTlsBuffer
 0001:000005C4       SysInit.ExitProcessTLS
 0001:0000058C       SysInit.ExitThreadTLS
 0001:00000C9C       SysInit.Finalization
 0001:000004B0       SysInit.FreeLibrary
 0001:000004E8       SysInit.GetLastError
 0001:00000500       SysInit.GetProcAddress
 0001:00000514       SysInit.GetTlsSize
 0004:00000004       SysInit.HInstance
 0001:00000628       SysInit.InitializeModule
 0001:00000560       SysInit.InitProcessTLS
 0001:0000051C       SysInit.InitThreadTLS
 0001:000004A0       SysInit.InterlockedExchange
 0001:000004F0       SysInit.LoadLibraryA
 0001:000004B8       SysInit.LocalAlloc
 0001:000004C0       SysInit.LocalFree
 0003:00000008       SysInit.Module
 0004:00000000       SysInit.ModuleIsLib
 0004:00000001       SysInit.ModuleIsPackage
 0003:00000004       SysInit.PtrToNil
 0001:000004F8       SysInit.RaiseException
 0001:00000B7C       SysInit.ShutdownDelayHelp2
 0002:00000008       SysInit.SysInit
 0001:000004C8       SysInit.TlsAlloc
 0004:00000018       SysInit.tlsBuffer
 0001:000004D0       SysInit.TlsFree
 0001:000004D8       SysInit.TlsGetValue
 0003:00000000       SysInit.TlsIndex
 0005:00000004       SysInit.TlsLast
 0003:00000024       SysInit.TlsProc
 0001:000004E0       SysInit.TlsSetValue
 0001:00000634       SysInit.UninitializeModule
 0004:FFF5B000       SysInit.__ImageBase
 0001:000003D0       System.@AddRefArray
 0001:000003C8       System.@AddRefRecord
 0001:000000F8       System.@AfterConstruction
 0001:00000100       System.@BeforeDestruction
 0001:000000E8       System.@ClassCreate
 0001:000000F0       System.@ClassDestroy
 0001:000003D8       System.@CopyRecord
 0001:000003E8       System.@Dispose
 0001:00000130       System.@DoneExcept
 0001:00000420       System.@DynArrayAddRef
 0001:00000418       System.@DynArrayAsg
 0001:00000410       System.@DynArrayClear
 0001:00000400       System.@DynArrayHigh
 0001:000003F8       System.@DynArrayLength
 0001:00000408       System.@DynArraySetLength
 0001:00000040       System.@FillChar
 0001:000003C0       System.@FinalizeArray
 0001:000003B8       System.@FinalizeRecord
 0001:00000010       System.@FreeMem
 0001:00000008       System.@GetMem
 0001:00000108       System.@HandleAnyException
 0001:00000118       System.@HandleFinally
 0001:00000110       System.@HandleOnException
 0001:000003B0       System.@InitializeArray
 0001:00000448       System.@IntfAddRef
 0001:00000438       System.@IntfClear
 0001:00000440       System.@IntfCopy
 0001:000000A8       System.@IsClass
 0001:00000190       System.@LStrAddRef
 0001:00000178       System.@LStrArrayClr
 0001:000001D8       System.@LStrAsg
 0001:00000260       System.@LStrCat
 0001:00000268       System.@LStrCat3
 0001:00000270       System.@LStrCatN
 0001:00000160       System.@LStrClr
 0001:00000288       System.@LStrCopy
 0001:00000290       System.@LStrDelete
 0001:00000278       System.@LStrEqual
 0001:00000250       System.@LStrFromArray
 0001:00000228       System.@LStrFromChar
 0001:00000238       System.@LStrFromPChar
 0001:000001B0       System.@LStrFromPCharLen
 0001:00000240       System.@LStrFromPWChar
 0001:00000248       System.@LStrFromString
 0001:000002A8       System.@LStrFromUStr
 0001:00000230       System.@LStrFromWChar
 0001:00000258       System.@LStrFromWStr
 0001:00000298       System.@LStrInsert
 0001:000001E0       System.@LStrLAsg
 0001:000001F8       System.@LStrLen
 0001:000002A0       System.@LStrSetLength
 0001:00000280       System.@LStrToPChar
 0001:000003E0       System.@New
 0001:00000140       System.@PackageLoad
 0001:00000148       System.@PackageUnload
 0001:00000200       System.@PCharLen
 0001:00000218       System.@PStrCpy
 0001:00000220       System.@PStrNCat
 0001:00000128       System.@RaiseAgain
 0001:00000120       System.@RaiseExcept
 0001:00000018       System.@ReallocMem
 0001:00000150       System.@RunError
 0001:00000048       System.@SetElem
 0001:00000058       System.@SetSub
 0001:00000050       System.@SetUnion
 0001:00000038       System.@TRUNC
 0001:00000138       System.@TryFinallyExit
 0001:00000210       System.@UniqueStringA
 0001:00000208       System.@UniqueStringU
 0001:00000188       System.@UStrAddRef
 0001:00000170       System.@UStrArrayClr
 0001:000001B8       System.@UStrAsg
 0001:00000368       System.@UStrCat
 0001:00000370       System.@UStrCat3
 0001:00000378       System.@UStrCatN
 0001:00000158       System.@UStrClr
 0001:00000380       System.@UStrCmp
 0001:00000390       System.@UStrCopy
 0001:00000398       System.@UStrDelete
 0001:00000388       System.@UStrEqual
 0001:00000338       System.@UStrFromArray
 0001:00000318       System.@UStrFromChar
 0001:00000348       System.@UStrFromLStr
 0001:00000328       System.@UStrFromPChar
 0001:00000330       System.@UStrFromPWChar
 0001:000001A0       System.@UStrFromPWCharLen
 0001:00000340       System.@UStrFromWArray
 0001:00000320       System.@UStrFromWChar
 0001:00000350       System.@UStrFromWStr
 0001:000001C0       System.@UStrLAsg
 0001:000001E8       System.@UStrLen
 0001:00000360       System.@UStrSetLength
 0001:00000310       System.@UStrToPWChar
 0001:00000198       System.@WStrAddRef
 0001:00000180       System.@WStrArrayClr
 0001:000001C8       System.@WStrAsg
 0001:000002E0       System.@WStrCat
 0001:000002E8       System.@WStrCatN
 0001:00000168       System.@WStrClr
 0001:000002F8       System.@WStrCopy
 0001:00000300       System.@WStrDelete
 0001:000002F0       System.@WStrEqual
 0001:000002B0       System.@WStrFromChar
 0001:000002D0       System.@WStrFromLStr
 0001:000002C0       System.@WStrFromPWChar
 0001:000001A8       System.@WStrFromPWCharLen
 0001:00000358       System.@WStrFromUStr
 0001:000002C8       System.@WStrFromWArray
 0001:000002B8       System.@WStrFromWChar
 0001:000001D0       System.@WStrLAsg
 0001:000001F0       System.@WStrLen
 0001:00000308       System.@WStrSetLength
 0001:000002D8       System.@WStrToPWChar
 0001:000003F0       System.@_lldiv
 0001:00000000       System.AllocMem
 0001:00000488       System.AnsiToUtf8
 0001:00000498       System.Finalization
 0001:00000490       System.LoadResString
 0001:00000020       System.Move
 0001:00000028       System.ParamStr
 0001:000003A8       System.Pos
 0001:000003A0       System.Pos
 0001:00000428       System.RegisterModule
 0002:00000000       System.System
 0001:00000450       System.TInterfacedObject.AfterConstruction
 0001:00000458       System.TInterfacedObject.BeforeDestruction
 0001:00000460       System.TInterfacedObject.NewInstance
 0001:00000468       System.TInterfacedObject.QueryInterface
 0001:00000470       System.TInterfacedObject._AddRef
 0001:00000478       System.TInterfacedObject._Release
 0001:000000D0       System.TObject.AfterConstruction
 0001:000000D8       System.TObject.BeforeDestruction
 0001:00000068       System.TObject.ClassName
 0001:00000060       System.TObject.ClassType
 0001:00000080       System.TObject.Create
 0001:000000C8       System.TObject.DefaultHandler
 0001:00000088       System.TObject.Destroy
 0001:000000E0       System.TObject.Dispatch
 0001:00000098       System.TObject.Equals
 0001:00000090       System.TObject.Free
 0001:00000078       System.TObject.FreeInstance
 0001:000000A0       System.TObject.GetHashCode
 0001:000000B0       System.TObject.InheritsFrom
 0001:00000070       System.TObject.NewInstance
 0001:000000B8       System.TObject.SafeCallException
 0001:000000C0       System.TObject.ToString
 0001:00000480       System.UnicodeToUtf8
 0001:00000430       System.UnregisterModule
 0001:00000030       System.UpCase
 0001:00001254       System.AnsiStrings.AnsiCompareText
 0001:0000124C       System.AnsiStrings.AnsiLowerCase
 0001:00001264       System.AnsiStrings.AnsiPos
 0001:00001244       System.AnsiStrings.AnsiUpperCase
 0001:00001234       System.AnsiStrings.CompareText
 0001:0000127C       System.AnsiStrings.ExtractFileExt
 0001:00001274       System.AnsiStrings.ExtractFileName
 0001:0000126C       System.AnsiStrings.ExtractFilePath
 0001:00001214       System.AnsiStrings.Format
 0001:0000122C       System.AnsiStrings.LowerCase
 0001:0000123C       System.AnsiStrings.SameText
 0001:0000121C       System.AnsiStrings.StringReplace
 0001:0000125C       System.AnsiStrings.Trim
 0001:00001224       System.AnsiStrings.UpperCase
 0001:000011B4       System.Classes.Finalization
 0002:00000090       System.Classes.System.Classes
 0002:00000078       System.Classes.TBinaryWriter.Create@
 0001:0000119C       System.Classes.TBinaryWriter.Destroy@
 0001:0000118C       System.Classes.TFileStream.Create
 0001:00001114       System.Classes.TList.Add
 0001:0000111C       System.Classes.TList.Delete
 0001:00001124       System.Classes.TList.Get
 0001:0000112C       System.Classes.TList.IndexOf
 0001:00001134       System.Classes.TList.Put
 0001:0000113C       System.Classes.TList.Remove
 0001:00001144       System.Classes.TList.SetCount
 0002:00000088       System.Classes.TLoginCredentialService.Create@
 0001:000011A4       System.Classes.TLoginCredentialService.Destroy@
 0002:00000070       System.Classes.TObserverMapping.Create@
 0001:000011AC       System.Classes.TObserverMapping.Destroy@
 0001:0000114C       System.Classes.TPersistent.Assign
 0001:00001154       System.Classes.TPersistent.AssignTo
 0001:0000115C       System.Classes.TPersistent.DefineProperties
 0001:00001184       System.Classes.TStream.SetPosition
 0001:0000117C       System.Classes.TStringList.Create
 0001:00001174       System.Classes.TStringList.SetSorted
 0001:00001164       System.Classes.TStrings.BeginUpdate
 0001:0000116C       System.Classes.TStrings.EndUpdate
 0002:00000080       System.Classes.TThread.Create@
 0001:00001194       System.Classes.TThread.Destroy@
 0001:00001284       System.DateUtils.EncodeDateTime
 0002:000000B8       System.DateUtils.TTimeZone.Create@
 0001:0000128C       System.DateUtils.TTimeZone.Destroy@
 0001:000012EC       System.IniFiles.Finalization
 0002:000000E8       System.IniFiles.System.IniFiles
 0001:00000F0C       System.Internal.ExcUtils.Finalization
 0002:00000028       System.Internal.ExcUtils.System.Internal.ExcUtils
 0001:000012E4       System.IOUtils.Finalization
 0002:000000E0       System.IOUtils.System.IOUtils
 0002:000000D8       System.IOUtils.TPath.Create@
 0001:000012DC       System.IOUtils.TPath.Destroy@
 0001:000011EC       System.Math.Finalization
 0002:000000A0       System.Math.System.Math
 0001:0000120C       System.StrUtils.PosEx
 0001:00001204       System.SyncObjs.Finalization
 0002:000000B0       System.SyncObjs.System.SyncObjs
 0001:000011FC       System.SyncObjs.TCriticalSection.Create
 0001:00001084       System.SysUtils.Abort
 0001:00000F44       System.SysUtils.AnsiLowerCase
 0001:00000F4C       System.SysUtils.AnsiStrComp
 0001:00000F8C       System.SysUtils.BoolToStr
 0001:00000FAC       System.SysUtils.ChangeFileExt
 0001:00000F2C       System.SysUtils.CompareMem
 0001:00000F34       System.SysUtils.CompareText
 0001:00001044       System.SysUtils.DateTimeToTimeStamp
 0001:00001074       System.SysUtils.DecodeDate
 0001:00001064       System.SysUtils.DecodeTime
 0001:00000F9C       System.SysUtils.DirectoryExists
 0001:0000106C       System.SysUtils.EncodeDate
 0001:0000108C       System.SysUtils.Exception.Create
 0002:00000040       System.SysUtils.Exception.Create@
 0001:00001094       System.SysUtils.Exception.Destroy
 0001:000010B4       System.SysUtils.Exception.Destroy@
 0001:0000109C       System.SysUtils.Exception.GetBaseException
 0001:000010A4       System.SysUtils.Exception.RaisingException
 0001:000010AC       System.SysUtils.Exception.ToString
 0001:00000FC4       System.SysUtils.ExtractFileExt
 0001:00000FBC       System.SysUtils.ExtractFileName
 0001:00000FB4       System.SysUtils.ExtractFilePath
 0001:00000F94       System.SysUtils.FileExists
 0001:000010EC       System.SysUtils.Finalization
 0001:0000103C       System.SysUtils.FloatToStr
 0001:00000FA4       System.SysUtils.ForceDirectories
 0001:00001034       System.SysUtils.Format
 0001:000010CC       System.SysUtils.FreeAndNil
 0001:00000F6C       System.SysUtils.IntToStr
 0001:00000F74       System.SysUtils.IntToStr
 0001:00000F24       System.SysUtils.LowerCase
 0001:00001054       System.SysUtils.MSecsToTimeStamp
 0001:000010C4       System.SysUtils.RaiseLastOSError
 0001:000010DC       System.SysUtils.SafeLoadLibrary
 0001:00000F3C       System.SysUtils.SameText
 0001:00000FF4       System.SysUtils.StrComp
 0001:00000FDC       System.SysUtils.StrCopy
 0001:00000FD4       System.SysUtils.StrEnd
 0001:00001004       System.SysUtils.StrIComp
 0001:00000FFC       System.SysUtils.StrIComp
 0001:000010BC       System.SysUtils.StringReplace
 0001:0000100C       System.SysUtils.StrLComp
 0001:00000FE4       System.SysUtils.StrLCopy
 0001:00000FCC       System.SysUtils.StrLen
 0001:00001024       System.SysUtils.StrPas
 0001:0000102C       System.SysUtils.StrPas
 0001:00000FEC       System.SysUtils.StrPLCopy
 0001:0000101C       System.SysUtils.StrPos
 0001:00001014       System.SysUtils.StrScan
 0001:00000F84       System.SysUtils.StrToBoolDef
 0001:00000F7C       System.SysUtils.StrToIntDef
 0001:0000107C       System.SysUtils.SysErrorMessage
 0002:00000050       System.SysUtils.System.SysUtils
 0002:00000038       System.SysUtils.TEncoding.Create@
 0001:000010E4       System.SysUtils.TEncoding.Destroy@
 0001:0000104C       System.SysUtils.TimeStampToDateTime
 0001:0000105C       System.SysUtils.TimeStampToMSecs
 0002:00000030       System.SysUtils.TLanguages.Create@
 0001:000010D4       System.SysUtils.TLanguages.Destroy@
 0002:00000048       System.SysUtils.TOSVersion.Create@
 0001:00000F14       System.SysUtils.TOSVersion.Destroy@
 0001:00000F5C       System.SysUtils.Trim
 0001:00000F64       System.SysUtils.TrimLeft
 0001:00000F1C       System.SysUtils.UpperCase
 0001:00000F54       System.SysUtils.WideCompareText
 0002:000000A8       System.TimeSpan.TTimeSpan.Create@
 0001:000011F4       System.TimeSpan.TTimeSpan.Destroy@
 0001:0000110C       System.TypInfo.Finalization
 0002:00000068       System.TypInfo.System.TypInfo
 0001:000010FC       System.Variants.@VarFromInt
 0001:00001104       System.Variants.Finalization
 0002:00000060       System.Variants.System.Variants
 0001:000010F4       System.VarUtils.Finalization
 0002:00000058       System.VarUtils.System.VarUtils
 0001:000012FC       System.Win.ComObj.Finalization
 0002:000000F8       System.Win.ComObj.System.Win.ComObj
 0002:000000F0       System.Win.ComObj.TComServerObject.Create@
 0001:000012F4       System.Win.ComObj.TComServerObject.Destroy@
 0001:0000135C       System.Win.Registry.Finalization
 0002:00000120       System.Win.Registry.System.Win.Registry
 0001:0000132C       System.Win.Registry.TRegistry.CloseKey
 0001:00001324       System.Win.Registry.TRegistry.Create
 0002:00000118       System.Win.Registry.TRegistry.Create@
 0001:0000131C       System.Win.Registry.TRegistry.Destroy@
 0001:0000133C       System.Win.Registry.TRegistry.OpenKey
 0001:00001344       System.Win.Registry.TRegistry.OpenKeyReadOnly
 0001:0000134C       System.Win.Registry.TRegistry.ReadString
 0001:00001334       System.Win.Registry.TRegistry.SetRootKey
 0001:00001354       System.Win.Registry.TRegistry.ValueExists
 0001:0004001C       Winapi.ShlObj.SHGetMalloc
 0001:00040024       Winapi.ShlObj.SHGetPathFromIDListW
 0001:0004002C       Winapi.ShlObj.SHGetSpecialFolderLocation
 0004:0000001C       Winapi.Windows..2
 0001:00000E70       Winapi.Windows.CharLower
 0001:00000E78       Winapi.Windows.CharToOemA
 0001:00000E80       Winapi.Windows.CharUpper
 0001:00000CC4       Winapi.Windows.CloseHandle
 0001:00000EA8       Winapi.Windows.CopyMemory
 0001:00000CD4       Winapi.Windows.CreateMutex
 0001:00000CF4       Winapi.Windows.DeleteCriticalSection
 0001:00000CFC       Winapi.Windows.EnterCriticalSection
 0001:00000EEC       Winapi.Windows.Finalization
 0001:00000D04       Winapi.Windows.FindClose
 0001:00000D0C       Winapi.Windows.FindFirstFileW
 0001:00000D14       Winapi.Windows.FindNextFileW
 0001:00000D1C       Winapi.Windows.FlushInstructionCache
 0001:00000D24       Winapi.Windows.FreeLibrary
 0001:00000E88       Winapi.Windows.GetActiveWindow
 0001:00000D2C       Winapi.Windows.GetCurrentProcess
 0001:00000D34       Winapi.Windows.GetCurrentProcessId
 0001:00000D3C       Winapi.Windows.GetCurrentThreadId
 0001:00000D44       Winapi.Windows.GetEnvironmentVariableA
 0001:00000D4C       Winapi.Windows.GetEnvironmentVariableW
 0001:00000D54       Winapi.Windows.GetFileAttributesW
 0001:00000D5C       Winapi.Windows.GetLastError
 0001:00000D64       Winapi.Windows.GetModuleHandle
 0001:00000D74       Winapi.Windows.GetProcAddress
 0001:00000D6C       Winapi.Windows.GetProcAddress
 0001:00000DE8       Winapi.Windows.GetTempFileName
 0001:00000DF0       Winapi.Windows.GetTempPath
 0001:00000DF8       Winapi.Windows.GetVersion
 0001:00000E00       Winapi.Windows.GetVersionEx
 0004:00000020       Winapi.Windows.HtmlHelpModule
 0001:00000E08       Winapi.Windows.InitializeCriticalSection
 0001:00000EB0       Winapi.Windows.InitVersionInfo
 0001:00000E10       Winapi.Windows.IsBadReadPtr
 0001:00000E18       Winapi.Windows.LeaveCriticalSection
 0001:00000E20       Winapi.Windows.LoadLibrary
 0001:00000E28       Winapi.Windows.MultiByteToWideChar
 0001:00000E90       Winapi.Windows.OemToCharA
 0001:00000E30       Winapi.Windows.OutputDebugString
 0001:00000E38       Winapi.Windows.OutputDebugStringA
 0001:00000E40       Winapi.Windows.OutputDebugStringW
 0001:00000E98       Winapi.Windows.RegisterWindowMessageA
 0001:00000EA0       Winapi.Windows.SendMessage
 0001:00000E48       Winapi.Windows.SetEnvironmentVariableA
 0001:00000E58       Winapi.Windows.VirtualProtect
 0001:00000E50       Winapi.Windows.VirtualProtect
 0001:00000E60       Winapi.Windows.WaitForSingleObject
 0001:00000E68       Winapi.Windows.WideCharToMultiByte
 0003:00000088       Winapi.Windows.Win32MajorVersion
 0003:0000008C       Winapi.Windows.Win32MinorVersion
 0003:00000090       Winapi.Windows.Win32Platform
 0002:00000010       Winapi.Windows.Winapi.Windows
 0001:00000CCC       Winapi.Windows._CreateMutex


  Address             Publics by Value

 0001:00000000       System.AllocMem
 0001:00000008       System.@GetMem
 0001:00000010       System.@FreeMem
 0001:00000018       System.@ReallocMem
 0001:00000020       System.Move
 0001:00000028       System.ParamStr
 0001:00000030       System.UpCase
 0001:00000038       System.@TRUNC
 0001:00000040       System.@FillChar
 0001:00000048       System.@SetElem
 0001:00000050       System.@SetUnion
 0001:00000058       System.@SetSub
 0001:00000060       System.TObject.ClassType
 0001:00000068       System.TObject.ClassName
 0001:00000070       System.TObject.NewInstance
 0001:00000078       System.TObject.FreeInstance
 0001:00000080       System.TObject.Create
 0001:00000088       System.TObject.Destroy
 0001:00000090       System.TObject.Free
 0001:00000098       System.TObject.Equals
 0001:000000A0       System.TObject.GetHashCode
 0001:000000A8       System.@IsClass
 0001:000000B0       System.TObject.InheritsFrom
 0001:000000B8       System.TObject.SafeCallException
 0001:000000C0       System.TObject.ToString
 0001:000000C8       System.TObject.DefaultHandler
 0001:000000D0       System.TObject.AfterConstruction
 0001:000000D8       System.TObject.BeforeDestruction
 0001:000000E0       System.TObject.Dispatch
 0001:000000E8       System.@ClassCreate
 0001:000000F0       System.@ClassDestroy
 0001:000000F8       System.@AfterConstruction
 0001:00000100       System.@BeforeDestruction
 0001:00000108       System.@HandleAnyException
 0001:00000110       System.@HandleOnException
 0001:00000118       System.@HandleFinally
 0001:00000120       System.@RaiseExcept
 0001:00000128       System.@RaiseAgain
 0001:00000130       System.@DoneExcept
 0001:00000138       System.@TryFinallyExit
 0001:00000140       System.@PackageLoad
 0001:00000148       System.@PackageUnload
 0001:00000150       System.@RunError
 0001:00000158       System.@UStrClr
 0001:00000160       System.@LStrClr
 0001:00000168       System.@WStrClr
 0001:00000170       System.@UStrArrayClr
 0001:00000178       System.@LStrArrayClr
 0001:00000180       System.@WStrArrayClr
 0001:00000188       System.@UStrAddRef
 0001:00000190       System.@LStrAddRef
 0001:00000198       System.@WStrAddRef
 0001:000001A0       System.@UStrFromPWCharLen
 0001:000001A8       System.@WStrFromPWCharLen
 0001:000001B0       System.@LStrFromPCharLen
 0001:000001B8       System.@UStrAsg
 0001:000001C0       System.@UStrLAsg
 0001:000001C8       System.@WStrAsg
 0001:000001D0       System.@WStrLAsg
 0001:000001D8       System.@LStrAsg
 0001:000001E0       System.@LStrLAsg
 0001:000001E8       System.@UStrLen
 0001:000001F0       System.@WStrLen
 0001:000001F8       System.@LStrLen
 0001:00000200       System.@PCharLen
 0001:00000208       System.@UniqueStringU
 0001:00000210       System.@UniqueStringA
 0001:00000218       System.@PStrCpy
 0001:00000220       System.@PStrNCat
 0001:00000228       System.@LStrFromChar
 0001:00000230       System.@LStrFromWChar
 0001:00000238       System.@LStrFromPChar
 0001:00000240       System.@LStrFromPWChar
 0001:00000248       System.@LStrFromString
 0001:00000250       System.@LStrFromArray
 0001:00000258       System.@LStrFromWStr
 0001:00000260       System.@LStrCat
 0001:00000268       System.@LStrCat3
 0001:00000270       System.@LStrCatN
 0001:00000278       System.@LStrEqual
 0001:00000280       System.@LStrToPChar
 0001:00000288       System.@LStrCopy
 0001:00000290       System.@LStrDelete
 0001:00000298       System.@LStrInsert
 0001:000002A0       System.@LStrSetLength
 0001:000002A8       System.@LStrFromUStr
 0001:000002B0       System.@WStrFromChar
 0001:000002B8       System.@WStrFromWChar
 0001:000002C0       System.@WStrFromPWChar
 0001:000002C8       System.@WStrFromWArray
 0001:000002D0       System.@WStrFromLStr
 0001:000002D8       System.@WStrToPWChar
 0001:000002E0       System.@WStrCat
 0001:000002E8       System.@WStrCatN
 0001:000002F0       System.@WStrEqual
 0001:000002F8       System.@WStrCopy
 0001:00000300       System.@WStrDelete
 0001:00000308       System.@WStrSetLength
 0001:00000310       System.@UStrToPWChar
 0001:00000318       System.@UStrFromChar
 0001:00000320       System.@UStrFromWChar
 0001:00000328       System.@UStrFromPChar
 0001:00000330       System.@UStrFromPWChar
 0001:00000338       System.@UStrFromArray
 0001:00000340       System.@UStrFromWArray
 0001:00000348       System.@UStrFromLStr
 0001:00000350       System.@UStrFromWStr
 0001:00000358       System.@WStrFromUStr
 0001:00000360       System.@UStrSetLength
 0001:00000368       System.@UStrCat
 0001:00000370       System.@UStrCat3
 0001:00000378       System.@UStrCatN
 0001:00000380       System.@UStrCmp
 0001:00000388       System.@UStrEqual
 0001:00000390       System.@UStrCopy
 0001:00000398       System.@UStrDelete
 0001:000003A0       System.Pos
 0001:000003A8       System.Pos
 0001:000003B0       System.@InitializeArray
 0001:000003B8       System.@FinalizeRecord
 0001:000003C0       System.@FinalizeArray
 0001:000003C8       System.@AddRefRecord
 0001:000003D0       System.@AddRefArray
 0001:000003D8       System.@CopyRecord
 0001:000003E0       System.@New
 0001:000003E8       System.@Dispose
 0001:000003F0       System.@_lldiv
 0001:000003F8       System.@DynArrayLength
 0001:00000400       System.@DynArrayHigh
 0001:00000408       System.@DynArraySetLength
 0001:00000410       System.@DynArrayClear
 0001:00000418       System.@DynArrayAsg
 0001:00000420       System.@DynArrayAddRef
 0001:00000428       System.RegisterModule
 0001:00000430       System.UnregisterModule
 0001:00000438       System.@IntfClear
 0001:00000440       System.@IntfCopy
 0001:00000448       System.@IntfAddRef
 0001:00000450       System.TInterfacedObject.AfterConstruction
 0001:00000458       System.TInterfacedObject.BeforeDestruction
 0001:00000460       System.TInterfacedObject.NewInstance
 0001:00000468       System.TInterfacedObject.QueryInterface
 0001:00000470       System.TInterfacedObject._AddRef
 0001:00000478       System.TInterfacedObject._Release
 0001:00000480       System.UnicodeToUtf8
 0001:00000488       System.AnsiToUtf8
 0001:00000490       System.LoadResString
 0001:00000498       System.Finalization
 0001:000004A0       SysInit.InterlockedExchange
 0001:000004B0       SysInit.FreeLibrary
 0001:000004B8       SysInit.LocalAlloc
 0001:000004C0       SysInit.LocalFree
 0001:000004C8       SysInit.TlsAlloc
 0001:000004D0       SysInit.TlsFree
 0001:000004D8       SysInit.TlsGetValue
 0001:000004E0       SysInit.TlsSetValue
 0001:000004E8       SysInit.GetLastError
 0001:000004F0       SysInit.LoadLibraryA
 0001:000004F8       SysInit.RaiseException
 0001:00000500       SysInit.GetProcAddress
 0001:00000508       SysInit.AllocTlsBuffer
 0001:00000514       SysInit.GetTlsSize
 0001:0000051C       SysInit.InitThreadTLS
 0001:00000560       SysInit.InitProcessTLS
 0001:0000058C       SysInit.ExitThreadTLS
 0001:000005C4       SysInit.ExitProcessTLS
 0001:000005E8       SysInit.@GetTls
 0001:00000628       SysInit.InitializeModule
 0001:00000634       SysInit.UninitializeModule
 0001:00000658       SysInit.@InitPkg
 0001:000006BC       SysInit.@PackageLoad
 0001:000006C8       SysInit.@PackageUnload
 0001:000006D4       SysInit.@_delayLoadHelper2
 0001:000009B4       SysInit.@_FUnloadDelayLoadedDLL2
 0001:00000AC4       SysInit.@_HrLoadAllImportsForDll
 0001:00000B7C       SysInit.ShutdownDelayHelp2
 0001:00000B84       SysInit...
 0001:00000B94       SysInit...
 0001:00000BA4       SysInit...
 0001:00000BB4       SysInit...
 0001:00000BC4       SysInit...
 0001:00000BD4       SysInit...
 0001:00000BE8       SysInit...
 0001:00000C18       SysInit...
 0001:00000C30       SysInit...
 0001:00000C58       SysInit...
 0001:00000C7C       SysInit...
 0001:00000C8C       SysInit...
 0001:00000C9C       SysInit.Finalization
 0001:00000CC4       Winapi.Windows.CloseHandle
 0001:00000CCC       Winapi.Windows._CreateMutex
 0001:00000CD4       Winapi.Windows.CreateMutex
 0001:00000CF4       Winapi.Windows.DeleteCriticalSection
 0001:00000CFC       Winapi.Windows.EnterCriticalSection
 0001:00000D04       Winapi.Windows.FindClose
 0001:00000D0C       Winapi.Windows.FindFirstFileW
 0001:00000D14       Winapi.Windows.FindNextFileW
 0001:00000D1C       Winapi.Windows.FlushInstructionCache
 0001:00000D24       Winapi.Windows.FreeLibrary
 0001:00000D2C       Winapi.Windows.GetCurrentProcess
 0001:00000D34       Winapi.Windows.GetCurrentProcessId
 0001:00000D3C       Winapi.Windows.GetCurrentThreadId
 0001:00000D44       Winapi.Windows.GetEnvironmentVariableA
 0001:00000D4C       Winapi.Windows.GetEnvironmentVariableW
 0001:00000D54       Winapi.Windows.GetFileAttributesW
 0001:00000D5C       Winapi.Windows.GetLastError
 0001:00000D64       Winapi.Windows.GetModuleHandle
 0001:00000D6C       Winapi.Windows.GetProcAddress
 0001:00000D74       Winapi.Windows.GetProcAddress
 0001:00000DE8       Winapi.Windows.GetTempFileName
 0001:00000DF0       Winapi.Windows.GetTempPath
 0001:00000DF8       Winapi.Windows.GetVersion
 0001:00000E00       Winapi.Windows.GetVersionEx
 0001:00000E08       Winapi.Windows.InitializeCriticalSection
 0001:00000E10       Winapi.Windows.IsBadReadPtr
 0001:00000E18       Winapi.Windows.LeaveCriticalSection
 0001:00000E20       Winapi.Windows.LoadLibrary
 0001:00000E28       Winapi.Windows.MultiByteToWideChar
 0001:00000E30       Winapi.Windows.OutputDebugString
 0001:00000E38       Winapi.Windows.OutputDebugStringA
 0001:00000E40       Winapi.Windows.OutputDebugStringW
 0001:00000E48       Winapi.Windows.SetEnvironmentVariableA
 0001:00000E50       Winapi.Windows.VirtualProtect
 0001:00000E58       Winapi.Windows.VirtualProtect
 0001:00000E60       Winapi.Windows.WaitForSingleObject
 0001:00000E68       Winapi.Windows.WideCharToMultiByte
 0001:00000E70       Winapi.Windows.CharLower
 0001:00000E78       Winapi.Windows.CharToOemA
 0001:00000E80       Winapi.Windows.CharUpper
 0001:00000E88       Winapi.Windows.GetActiveWindow
 0001:00000E90       Winapi.Windows.OemToCharA
 0001:00000E98       Winapi.Windows.RegisterWindowMessageA
 0001:00000EA0       Winapi.Windows.SendMessage
 0001:00000EA8       Winapi.Windows.CopyMemory
 0001:00000EB0       Winapi.Windows.InitVersionInfo
 0001:00000EEC       Winapi.Windows.Finalization
 0001:00000F0C       System.Internal.ExcUtils.Finalization
 0001:00000F14       System.SysUtils.TOSVersion.Destroy@
 0001:00000F1C       System.SysUtils.UpperCase
 0001:00000F24       System.SysUtils.LowerCase
 0001:00000F2C       System.SysUtils.CompareMem
 0001:00000F34       System.SysUtils.CompareText
 0001:00000F3C       System.SysUtils.SameText
 0001:00000F44       System.SysUtils.AnsiLowerCase
 0001:00000F4C       System.SysUtils.AnsiStrComp
 0001:00000F54       System.SysUtils.WideCompareText
 0001:00000F5C       System.SysUtils.Trim
 0001:00000F64       System.SysUtils.TrimLeft
 0001:00000F6C       System.SysUtils.IntToStr
 0001:00000F74       System.SysUtils.IntToStr
 0001:00000F7C       System.SysUtils.StrToIntDef
 0001:00000F84       System.SysUtils.StrToBoolDef
 0001:00000F8C       System.SysUtils.BoolToStr
 0001:00000F94       System.SysUtils.FileExists
 0001:00000F9C       System.SysUtils.DirectoryExists
 0001:00000FA4       System.SysUtils.ForceDirectories
 0001:00000FAC       System.SysUtils.ChangeFileExt
 0001:00000FB4       System.SysUtils.ExtractFilePath
 0001:00000FBC       System.SysUtils.ExtractFileName
 0001:00000FC4       System.SysUtils.ExtractFileExt
 0001:00000FCC       System.SysUtils.StrLen
 0001:00000FD4       System.SysUtils.StrEnd
 0001:00000FDC       System.SysUtils.StrCopy
 0001:00000FE4       System.SysUtils.StrLCopy
 0001:00000FEC       System.SysUtils.StrPLCopy
 0001:00000FF4       System.SysUtils.StrComp
 0001:00000FFC       System.SysUtils.StrIComp
 0001:00001004       System.SysUtils.StrIComp
 0001:0000100C       System.SysUtils.StrLComp
 0001:00001014       System.SysUtils.StrScan
 0001:0000101C       System.SysUtils.StrPos
 0001:00001024       System.SysUtils.StrPas
 0001:0000102C       System.SysUtils.StrPas
 0001:00001034       System.SysUtils.Format
 0001:0000103C       System.SysUtils.FloatToStr
 0001:00001044       System.SysUtils.DateTimeToTimeStamp
 0001:0000104C       System.SysUtils.TimeStampToDateTime
 0001:00001054       System.SysUtils.MSecsToTimeStamp
 0001:0000105C       System.SysUtils.TimeStampToMSecs
 0001:00001064       System.SysUtils.DecodeTime
 0001:0000106C       System.SysUtils.EncodeDate
 0001:00001074       System.SysUtils.DecodeDate
 0001:0000107C       System.SysUtils.SysErrorMessage
 0001:00001084       System.SysUtils.Abort
 0001:0000108C       System.SysUtils.Exception.Create
 0001:00001094       System.SysUtils.Exception.Destroy
 0001:0000109C       System.SysUtils.Exception.GetBaseException
 0001:000010A4       System.SysUtils.Exception.RaisingException
 0001:000010AC       System.SysUtils.Exception.ToString
 0001:000010B4       System.SysUtils.Exception.Destroy@
 0001:000010BC       System.SysUtils.StringReplace
 0001:000010C4       System.SysUtils.RaiseLastOSError
 0001:000010CC       System.SysUtils.FreeAndNil
 0001:000010D4       System.SysUtils.TLanguages.Destroy@
 0001:000010DC       System.SysUtils.SafeLoadLibrary
 0001:000010E4       System.SysUtils.TEncoding.Destroy@
 0001:000010EC       System.SysUtils.Finalization
 0001:000010F4       System.VarUtils.Finalization
 0001:000010FC       System.Variants.@VarFromInt
 0001:00001104       System.Variants.Finalization
 0001:0000110C       System.TypInfo.Finalization
 0001:00001114       System.Classes.TList.Add
 0001:0000111C       System.Classes.TList.Delete
 0001:00001124       System.Classes.TList.Get
 0001:0000112C       System.Classes.TList.IndexOf
 0001:00001134       System.Classes.TList.Put
 0001:0000113C       System.Classes.TList.Remove
 0001:00001144       System.Classes.TList.SetCount
 0001:0000114C       System.Classes.TPersistent.Assign
 0001:00001154       System.Classes.TPersistent.AssignTo
 0001:0000115C       System.Classes.TPersistent.DefineProperties
 0001:00001164       System.Classes.TStrings.BeginUpdate
 0001:0000116C       System.Classes.TStrings.EndUpdate
 0001:00001174       System.Classes.TStringList.SetSorted
 0001:0000117C       System.Classes.TStringList.Create
 0001:00001184       System.Classes.TStream.SetPosition
 0001:0000118C       System.Classes.TFileStream.Create
 0001:00001194       System.Classes.TThread.Destroy@
 0001:0000119C       System.Classes.TBinaryWriter.Destroy@
 0001:000011A4       System.Classes.TLoginCredentialService.Destroy@
 0001:000011AC       System.Classes.TObserverMapping.Destroy@
 0001:000011B4       System.Classes.Finalization
 0001:000011BC       Data.DBXClassRegistry.TClassRegistry.CreateInstance
 0001:000011C4       Data.DBXClassRegistry.TClassRegistry.GetClassRegistry
 0001:000011CC       Data.DBXClassRegistry.TClassRegistry.HasClass
 0001:000011D4       Data.DBXClassRegistry.TClassRegistry.RegisterRegistryClass
 0001:000011DC       Data.DBXClassRegistry.TClassRegistry.UnregisterClass
 0001:000011E4       Data.DBXClassRegistry.Finalization
 0001:000011EC       System.Math.Finalization
 0001:000011F4       System.TimeSpan.TTimeSpan.Destroy@
 0001:000011FC       System.SyncObjs.TCriticalSection.Create
 0001:00001204       System.SyncObjs.Finalization
 0001:0000120C       System.StrUtils.PosEx
 0001:00001214       System.AnsiStrings.Format
 0001:0000121C       System.AnsiStrings.StringReplace
 0001:00001224       System.AnsiStrings.UpperCase
 0001:0000122C       System.AnsiStrings.LowerCase
 0001:00001234       System.AnsiStrings.CompareText
 0001:0000123C       System.AnsiStrings.SameText
 0001:00001244       System.AnsiStrings.AnsiUpperCase
 0001:0000124C       System.AnsiStrings.AnsiLowerCase
 0001:00001254       System.AnsiStrings.AnsiCompareText
 0001:0000125C       System.AnsiStrings.Trim
 0001:00001264       System.AnsiStrings.AnsiPos
 0001:0000126C       System.AnsiStrings.ExtractFilePath
 0001:00001274       System.AnsiStrings.ExtractFileName
 0001:0000127C       System.AnsiStrings.ExtractFileExt
 0001:00001284       System.DateUtils.EncodeDateTime
 0001:0000128C       System.DateUtils.TTimeZone.Destroy@
 0001:00001294       Data.SqlTimSt.Finalization
 0001:0000129C       Data.FmtBcd.Finalization
 0001:000012A4       Data.DB.Finalization
 0001:000012AC       Data.DBXPlatform.IncrAfter
 0001:000012B4       Data.DBXPlatform.FreeObjectArray
 0001:000012BC       Data.DBXPlatform.TDBXObjectStore.SetObjectByName
 0001:000012C4       Data.DBXPlatform.TDBXPlatform.CreateWideStringBuilder
 0001:000012CC       Data.DBXPlatform.TDBXPlatform.CopyWideStringBuilder
 0001:000012D4       Data.DBXPlatform.TDBXPlatform.FreeAndNilWideStringBuilder
 0001:000012DC       System.IOUtils.TPath.Destroy@
 0001:000012E4       System.IOUtils.Finalization
 0001:000012EC       System.IniFiles.Finalization
 0001:000012F4       System.Win.ComObj.TComServerObject.Destroy@
 0001:000012FC       System.Win.ComObj.Finalization
 0001:00001304       Datasnap.DSIntf.Finalization
 0001:0000130C       Datasnap.DBClient.Finalization
 0001:00001314       Datasnap.Provider.Finalization
 0001:0000131C       System.Win.Registry.TRegistry.Destroy@
 0001:00001324       System.Win.Registry.TRegistry.Create
 0001:0000132C       System.Win.Registry.TRegistry.CloseKey
 0001:00001334       System.Win.Registry.TRegistry.SetRootKey
 0001:0000133C       System.Win.Registry.TRegistry.OpenKey
 0001:00001344       System.Win.Registry.TRegistry.OpenKeyReadOnly
 0001:0000134C       System.Win.Registry.TRegistry.ReadString
 0001:00001354       System.Win.Registry.TRegistry.ValueExists
 0001:0000135C       System.Win.Registry.Finalization
 0001:00001364       Data.DBXCommon.TDBXProperties.Create
 0001:0000136C       Data.DBXCommon.TDBXProperties.Create
 0001:00001374       Data.DBXCommon.TDBXProperties.Destroy
 0001:0000137C       Data.DBXCommon.TDBXProperties.DoOnChange
 0001:00001384       Data.DBXCommon.TDBXProperties.GetLists
 0001:0000138C       Data.DBXCommon.TDBXProperties.GetValue
 0001:00001394       Data.DBXCommon.TDBXProperties.SetValue
 0001:0000139C       Data.DBXCommon.TDBXDriver.AddCommandFactory
 0001:000013A4       Data.DBXCommon.TDBXDriver.CreateMorphCommand
 0001:000013AC       Data.DBXCommon.TDBXDriver.GetDriverClass
 0001:000013B4       Data.DBXCommon.TDBXDriver.GetDriverName
 0001:000013BC       Data.DBXCommon.TDBXDriver.GetDriverProperties
 0001:000013C4       Data.DBXCommon.TDBXDriver.GetDriverPropertyNames
 0001:000013CC       Data.DBXCommon.TDBXDriver.SetDriverName
 0001:000013D4       Data.DBXCommon.TDBXDriver.InitDriverProperties
 0001:000013DC       Data.DBXCommon.TDBXDriverRegistry.RegisterDriverClass
 0001:000013E4       Data.DBXCommon.TDBXDriverRegistry.UnregisterDriverClass
 0001:000013EC       Data.DBXCommon.TDBXConnection.Destroy
 0001:000013F4       Data.DBXCommon.TDBXConnection.CreateMorphCommand
 0001:000013FC       Data.DBXCommon.TDBXConnection.CreateCommand
 0001:00001404       Data.DBXCommon.TDBXConnection.Open
 0001:0000140C       Data.DBXCommon.TDBXConnection.GetDatabaseMetaData
 0001:00001414       Data.DBXCommon.TDBXConnection.GetTraceFlags
 0001:0000141C       Data.DBXCommon.TDBXConnection.GetTraceInfoEvent
 0001:00001424       Data.DBXCommon.TDBXConnection.BeginTransaction
 0001:0000142C       Data.DBXCommon.TDBXConnection.BeginTransaction
 0001:00001434       Data.DBXCommon.TDBXConnection.CommitFreeAndNil
 0001:0000143C       Data.DBXCommon.TDBXConnection.RollbackFreeAndNil
 0001:00001444       Data.DBXCommon.TDBXConnection.RollbackIncompleteFreeAndNil
 0001:0000144C       Data.DBXCommon.TDBXConnection.GetConnectionProperties
 0001:00001454       Data.DBXCommon.TDBXConnection.GetErrorEvent
 0001:0000145C       Data.DBXCommon.TDBXConnection.GetIsOpen
 0001:00001464       Data.DBXCommon.TDBXConnection.GetConnectionProperty
 0001:0000146C       Data.DBXCommon.TDBXConnection.SetErrorEvent
 0001:00001474       Data.DBXCommon.TDBXConnection.SetConnectionProperties
 0001:0000147C       Data.DBXCommon.TDBXConnection.GetDBXFormatter
 0001:00001484       Data.DBXCommon.TDBXConnection.SetDBXFormatter
 0001:0000148C       Data.DBXCommon.TDBXConnection.SetTraceFlags
 0001:00001494       Data.DBXCommon.TDBXCommand.CreateParameter
 0001:0000149C       Data.DBXCommon.TDBXCommand.CreateParameterRow
 0001:000014A4       Data.DBXCommon.TDBXCommand.CreateParameters
 0001:000014AC       Data.DBXCommon.TDBXCommand.SetCommandType
 0001:000014B4       Data.DBXCommon.TDBXCommand.ExecuteQuery
 0001:000014BC       Data.DBXCommon.TDBXCommand.ExecuteUpdate
 0001:000014C4       Data.DBXCommon.TDBXCommand.FreeOnExecute
 0001:000014CC       Data.DBXCommon.TDBXCommand.CloseReader
 0001:000014D4       Data.DBXCommon.TDBXCommand.GetCommandType
 0001:000014DC       Data.DBXCommon.TDBXCommand.GetErrorEvent
 0001:000014E4       Data.DBXCommon.TDBXCommand.GetNextReader
 0001:000014EC       Data.DBXCommon.TDBXCommand.GetParameters
 0001:000014F4       Data.DBXCommon.TDBXCommand.GetText
 0001:000014FC       Data.DBXCommon.TDBXCommand.Prepare
 0001:00001504       Data.DBXCommon.TDBXCommand.SetText
 0001:0000150C       Data.DBXCommon.TDBXCommand.Open
 0001:00001514       Data.DBXCommon.TDBXCommand.DerivedClearParameters
 0001:0000151C       Data.DBXCommon.TDBXCommand.Close
 0001:00001524       Data.DBXCommon.TDBXMorphicCommand.Create
 0001:0000152C       Data.DBXCommon.TDBXMorphicCommand.CreateParameters
 0001:00001534       Data.DBXCommon.TDBXMorphicCommand.Destroy
 0001:0000153C       Data.DBXCommon.TDBXMorphicCommand.ExecuteQuery
 0001:00001544       Data.DBXCommon.TDBXMorphicCommand.ExecuteUpdate
 0001:0000154C       Data.DBXCommon.TDBXMorphicCommand.GetParameters
 0001:00001554       Data.DBXCommon.TDBXMorphicCommand.CreateParameterRow
 0001:0000155C       Data.DBXCommon.TDBXMorphicCommand.GetRowsAffected
 0001:00001564       Data.DBXCommon.TDBXMorphicCommand.FreeOnExecute
 0001:0000156C       Data.DBXCommon.TDBXMorphicCommand.Prepare
 0001:00001574       Data.DBXCommon.TDBXMorphicCommand.GetNextReader
 0001:0000157C       Data.DBXCommon.TDBXMorphicCommand.DerivedClose
 0001:00001584       Data.DBXCommon.TDBXMorphicCommand.DerivedExecuteQuery
 0001:0000158C       Data.DBXCommon.TDBXMorphicCommand.DerivedExecuteUpdate
 0001:00001594       Data.DBXCommon.TDBXMorphicCommand.DerivedGetNextReader
 0001:0000159C       Data.DBXCommon.TDBXMorphicCommand.DerivedOpen
 0001:000015A4       Data.DBXCommon.TDBXMorphicCommand.DerivedPrepare
 0001:000015AC       Data.DBXCommon.TDBXMorphicCommand.SetMaxBlobSize
 0001:000015B4       Data.DBXCommon.TDBXMorphicCommand.SetRowSetSize
 0001:000015BC       Data.DBXCommon.TDBXMorphicCommand.SetCommandType
 0001:000015C4       Data.DBXCommon.TDBXMorphicCommand.SetText
 0001:000015CC       Data.DBXCommon.TDBXMorphicCommand.CloseReader
 0001:000015D4       Data.DBXCommon.TDBXContext.Error
 0001:000015DC       Data.DBXCommon.TDBXConnectionBuilder.GetConnectionProperties
 0001:000015E4       Data.DBXCommon.TDBXDriverHelp.GetMetaDataReader
 0001:000015EC       Data.DBXCommon.TDBXDriverHelp.SetMetaDataReader
 0001:000015F4       Data.DBXCommon.TDBXCommand.GetCommandTimeout
 0001:000015FC       Data.DBXCommon.TDBXCommand.SetCommandTimeout
 0001:00001604       Data.DBXCommon.Finalization
 0001:0000160C       Data.DBXDynalinkNative.TDBXDynalinkDriverNative.Create
 0001:00001614       Data.DBXDynalinkNative.TDBXDynalinkDriverLoader.CreateDynalinkDriver
 0001:0000161C       Data.DBXDynalinkNative.TDBXDynalinkDriverLoader.CreateMethodTable
 0001:00001624       Data.DBXDynalink.TDBXDynalinkDriver.CheckResult
 0001:0000162C       Data.DBXDynalink.TDBXDynalinkDriver.Close
 0001:00001634       Data.DBXDynalink.TDBXDynalinkDriver.Destroy
 0001:0000163C       Data.DBXDynalink.TDBXDynalinkDriver.GetDriverVersion
 0001:00001644       Data.DBXDynalink.TDBXDynalinkDriverCommonLoader.Create
 0001:0000164C       Data.DBXDynalink.TDBXDynalinkDriverCommonLoader.Load
 0001:00001654       Data.DBXDynalink.TDBXDynalinkDriverCommonLoader.LoadDriverLibrary
 0001:0000165C       Data.DBXDynalink.TDBXDynalinkConnection.CreateAndBeginTransaction
 0001:00001664       Data.DBXDynalink.TDBXDynalinkConnection.Close
 0001:0000166C       Data.DBXDynalink.TDBXDynalinkConnection.Commit
 0001:00001674       Data.DBXDynalink.TDBXDynalinkConnection.Rollback
 0001:0000167C       Data.DBXDynalink.TDBXDynalinkConnection.SetTraceInfoEvent
 0001:00001684       Data.DBXDynalink.TDBXDynalinkConnection.Create
 0001:0000168C       Data.DBXDynalink.TDBXDynalinkConnection.DerivedOpen
 0001:00001694       Data.DBXDynalink.TDBXDynalinkConnection.GetVendorProperty
 0001:0000169C       Data.DBXDynalink.Finalization
 0001:000016A4       Data.DBXMetaDataReader.TDBXCustomMetaDataTable.Create
 0001:000016AC       Data.DBXMetaDataReader.TDBXDataTypeCursor.Create
 0001:000016B4       Data.DBXMetaDataReader.TDBXDataTypeDescription.Create
 0001:000016BC       Data.DBXMetaDataReader.TDBXDataTypeDescription.Create
 0001:000016C4       Data.DBXMetaDataReader.TDBXDataTypeDescription.SetUnicodeOptionSupported
 0001:000016CC       Data.DBXMetaDataReader.TDBXEmptyTableCursor.Create
 0001:000016D4       Data.DBXMetaDataReader.TDBXMetaDataCollectionColumns.CreateDataTypesColumns
 0001:000016DC       Data.DBXMetaDataReader.TDBXMetaDataCollectionColumns.CreateCatalogsColumns
 0001:000016E4       Data.DBXMetaDataReader.TDBXMetaDataCollectionColumns.CreateSchemasColumns
 0001:000016EC       Data.DBXMetaDataReader.TDBXMetaDataCollectionColumns.CreateTablesColumns
 0001:000016F4       Data.DBXMetaDataReader.TDBXMetaDataCollectionColumns.CreateViewsColumns
 0001:000016FC       Data.DBXMetaDataReader.TDBXMetaDataCollectionColumns.CreateSynonymsColumns
 0001:00001704       Data.DBXMetaDataReader.TDBXMetaDataCollectionColumns.CreateColumnsColumns
 0001:0000170C       Data.DBXMetaDataReader.TDBXMetaDataCollectionColumns.CreateColumnConstraintsColumns
 0001:00001714       Data.DBXMetaDataReader.TDBXMetaDataCollectionColumns.CreateIndexesColumns
 0001:0000171C       Data.DBXMetaDataReader.TDBXMetaDataCollectionColumns.CreateIndexColumnsColumns
 0001:00001724       Data.DBXMetaDataReader.TDBXMetaDataCollectionColumns.CreateForeignKeysColumns
 0001:0000172C       Data.DBXMetaDataReader.TDBXMetaDataCollectionColumns.CreateForeignKeyColumnsColumns
 0001:00001734       Data.DBXMetaDataReader.TDBXMetaDataCollectionColumns.CreateProceduresColumns
 0001:0000173C       Data.DBXMetaDataReader.TDBXMetaDataCollectionColumns.CreateProcedureSourcesColumns
 0001:00001744       Data.DBXMetaDataReader.TDBXMetaDataCollectionColumns.CreateProcedureParametersColumns
 0001:0000174C       Data.DBXMetaDataReader.TDBXMetaDataCollectionColumns.CreatePackagesColumns
 0001:00001754       Data.DBXMetaDataReader.TDBXMetaDataCollectionColumns.CreatePackageProceduresColumns
 0001:0000175C       Data.DBXMetaDataReader.TDBXMetaDataCollectionColumns.CreatePackageProcedureParametersColumns
 0001:00001764       Data.DBXMetaDataReader.TDBXMetaDataCollectionColumns.CreatePackageSourcesColumns
 0001:0000176C       Data.DBXMetaDataReader.TDBXMetaDataCollectionColumns.CreateUsersColumns
 0001:00001774       Data.DBXMetaDataReader.TDBXMetaDataCollectionColumns.CreateRolesColumns
 0001:0000177C       Data.DBXMetaDataReader.TDBXMetaDataCollectionColumns.CreateReservedWordsColumns
 0001:00001784       Data.DBXMetaDataReader.TDBXBaseMetaDataReader.Destroy
 0001:0000178C       Data.DBXMetaDataReader.TDBXBaseMetaDataReader.SetContext
 0001:00001794       Data.DBXMetaDataReader.TDBXBaseMetaDataReader.GetContext
 0001:0000179C       Data.DBXMetaDataReader.TDBXBaseMetaDataReader.GetProductName
 0001:000017A4       Data.DBXMetaDataReader.TDBXBaseMetaDataReader.GetVersion
 0001:000017AC       Data.DBXMetaDataReader.TDBXBaseMetaDataReader.SetVersion
 0001:000017B4       Data.DBXMetaDataReader.TDBXBaseMetaDataReader.GetSqlDefaultParameterMarker
 0001:000017BC       Data.DBXMetaDataReader.TDBXBaseMetaDataReader.CompareVersion
 0001:000017C4       Data.DBXMetaDataReader.TDBXBaseMetaDataReader.IsQuotedIdentifiersSupported
 0001:000017CC       Data.DBXMetaDataReader.TDBXBaseMetaDataReader.IsSPReturnCodeSupported
 0001:000017D4       Data.DBXMetaDataReader.TDBXBaseMetaDataReader.AreCatalogFunctionsSupported
 0001:000017DC       Data.DBXMetaDataReader.TDBXBaseMetaDataReader.GetTableType
 0001:000017E4       Data.DBXMetaDataReader.TDBXBaseMetaDataReader.GetViewType
 0001:000017EC       Data.DBXMetaDataReader.TDBXBaseMetaDataReader.GetSystemTableType
 0001:000017F4       Data.DBXMetaDataReader.TDBXBaseMetaDataReader.GetSystemViewType
 0001:000017FC       Data.DBXMetaDataReader.TDBXBaseMetaDataReader.GetSynonymType
 0001:00001804       Data.DBXMetaDataReader.TDBXBaseMetaDataReader.MakeTableTypeString
 0001:0000180C       Data.DBXMetaDataReader.TDBXBaseMetaDataReader.GetDataTypeHash
 0001:00001814       Data.DBXMetaDataReader.TDBXBaseMetaDataReader.GetDataTypes
 0001:0000181C       Data.DBXMetaDataReader.TDBXBaseMetaDataReader.PopulateDataTypes
 0001:00001824       Data.DBXMetaDataReader.TDBXBaseMetaDataReader.FetchCollection
 0001:0000182C       Data.DBXMetaDataReader.TDBXBaseMetaDataReader.MakeStorage
 0001:00001834       Data.DBXMetaDataReader.TDBXBaseMetaDataReader.FetchCollectionWithStorage
 0001:0000183C       Data.DBXMetaDataReader.TDBXBaseMetaDataReader.FetchDataTypes
 0001:00001844       Data.DBXMetaDataReader.TDBXBaseMetaDataReader.FetchCatalogs
 0001:0000184C       Data.DBXMetaDataReader.TDBXBaseMetaDataReader.FetchSchemas
 0001:00001854       Data.DBXMetaDataReader.TDBXBaseMetaDataReader.FetchTables
 0001:0000185C       Data.DBXMetaDataReader.TDBXBaseMetaDataReader.FetchViews
 0001:00001864       Data.DBXMetaDataReader.TDBXBaseMetaDataReader.FetchColumns
 0001:0000186C       Data.DBXMetaDataReader.TDBXBaseMetaDataReader.FetchColumnConstraints
 0001:00001874       Data.DBXMetaDataReader.TDBXBaseMetaDataReader.FetchIndexes
 0001:0000187C       Data.DBXMetaDataReader.TDBXBaseMetaDataReader.FetchIndexColumns
 0001:00001884       Data.DBXMetaDataReader.TDBXBaseMetaDataReader.FetchForeignKeys
 0001:0000188C       Data.DBXMetaDataReader.TDBXBaseMetaDataReader.FetchForeignKeyColumns
 0001:00001894       Data.DBXMetaDataReader.TDBXBaseMetaDataReader.FetchSynonyms
 0001:0000189C       Data.DBXMetaDataReader.TDBXBaseMetaDataReader.FetchProcedures
 0001:000018A4       Data.DBXMetaDataReader.TDBXBaseMetaDataReader.FetchProcedureSources
 0001:000018AC       Data.DBXMetaDataReader.TDBXBaseMetaDataReader.FetchProcedureParameters
 0001:000018B4       Data.DBXMetaDataReader.TDBXBaseMetaDataReader.FetchPackages
 0001:000018BC       Data.DBXMetaDataReader.TDBXBaseMetaDataReader.FetchPackageProcedures
 0001:000018C4       Data.DBXMetaDataReader.TDBXBaseMetaDataReader.FetchPackageProcedureParameters
 0001:000018CC       Data.DBXMetaDataReader.TDBXBaseMetaDataReader.FetchPackageSources
 0001:000018D4       Data.DBXMetaDataReader.TDBXBaseMetaDataReader.FetchUsers
 0001:000018DC       Data.DBXMetaDataReader.TDBXBaseMetaDataReader.FetchRoles
 0001:000018E4       Data.DBXMetaDataReader.TDBXBaseMetaDataReader.FetchReservedWords
 0001:000018EC       Data.DBXMetaDataReader.TDBXBaseMetaDataReader.GetDataTypeDescriptions
 0001:000018F4       Data.DBXMetaDataReader.TDBXBaseMetaDataReader.GetReservedWords
 0001:000018FC       Data.DBXMetaDataReader.TDBXBaseMetaDataReader.GetSqlForDataTypes
 0001:00001904       Data.DBXMetaDataReader.TDBXBaseMetaDataReader.GetSqlForCatalogs
 0001:0000190C       Data.DBXMetaDataReader.TDBXBaseMetaDataReader.GetSqlForSchemas
 0001:00001914       Data.DBXMetaDataReader.TDBXBaseMetaDataReader.GetSqlForTables
 0001:0000191C       Data.DBXMetaDataReader.TDBXBaseMetaDataReader.GetSqlForViews
 0001:00001924       Data.DBXMetaDataReader.TDBXBaseMetaDataReader.GetSqlForColumns
 0001:0000192C       Data.DBXMetaDataReader.TDBXBaseMetaDataReader.GetSqlForColumnConstraints
 0001:00001934       Data.DBXMetaDataReader.TDBXBaseMetaDataReader.GetSqlForIndexes
 0001:0000193C       Data.DBXMetaDataReader.TDBXBaseMetaDataReader.GetSqlForIndexColumns
 0001:00001944       Data.DBXMetaDataReader.TDBXBaseMetaDataReader.GetSqlForForeignKeys
 0001:0000194C       Data.DBXMetaDataReader.TDBXBaseMetaDataReader.GetSqlForForeignKeyColumns
 0001:00001954       Data.DBXMetaDataReader.TDBXBaseMetaDataReader.GetSqlForSynonyms
 0001:0000195C       Data.DBXMetaDataReader.TDBXBaseMetaDataReader.GetSqlForProcedures
 0001:00001964       Data.DBXMetaDataReader.TDBXBaseMetaDataReader.GetSqlForProcedureSources
 0001:0000196C       Data.DBXMetaDataReader.TDBXBaseMetaDataReader.GetSqlForProcedureParameters
 0001:00001974       Data.DBXMetaDataReader.TDBXBaseMetaDataReader.GetSqlForPackages
 0001:0000197C       Data.DBXMetaDataReader.TDBXBaseMetaDataReader.GetSqlForPackageProcedures
 0001:00001984       Data.DBXMetaDataReader.TDBXBaseMetaDataReader.GetSqlForPackageProcedureParameters
 0001:0000198C       Data.DBXMetaDataReader.TDBXBaseMetaDataReader.GetSqlForPackageSources
 0001:00001994       Data.DBXMetaDataReader.TDBXBaseMetaDataReader.GetSqlForUsers
 0001:0000199C       Data.DBXMetaDataReader.TDBXBaseMetaDataReader.GetSqlForRoles
 0001:000019A4       Data.DBXMetaDataReader.TDBXBaseMetaDataReader.GetSqlForReservedWords
 0001:000019AC       Data.DBXMetaDataReader.TDBXReservedWordsCursor.Create
 0001:000019B4       Data.DBXMetaDataReader.TDBXTableTypeParser.ParseTableTypes
 0001:000019BC       Data.DBXMetaDataCommand.TDBXMetaDataCommand.Create
 0001:000019C4       Data.DBXMetaDataCommand.TDBXMetaDataCommand.Destroy
 0001:000019CC       Data.DBXMetaDataCommand.TDBXMetaDataCommand.SetRowSetSize
 0001:000019D4       Data.DBXMetaDataCommand.TDBXMetaDataCommand.SetMaxBlobSize
 0001:000019DC       Data.DBXMetaDataCommand.TDBXMetaDataCommand.GetRowsAffected
 0001:000019E4       Data.DBXMetaDataCommand.TDBXMetaDataCommand.DerivedGetNextReader
 0001:000019EC       Data.DBXMetaDataCommand.TDBXMetaDataCommand.DerivedOpen
 0001:000019F4       Data.DBXMetaDataCommand.TDBXMetaDataCommand.DerivedClose
 0001:000019FC       Data.DBXMetaDataCommand.TDBXMetaDataCommand.DerivedPrepare
 0001:00001A04       Data.DBXMetaDataCommand.TDBXMetaDataCommand.DerivedExecuteQuery
 0001:00001A0C       Data.DBXMetaDataCommand.TDBXMetaDataCommand.DerivedExecuteUpdate
 0001:00001A14       Data.DBXMetaDataCommandFactory.TDBXMetaDataCommandFactory.RegisterMetaDataCommandFactory
 0001:00001A1C       Data.DBXMetaDataCommandFactory.TDBXMetaDataCommandFactory.UnRegisterMetaDataCommandFactory
 0001:00001A24       Data.DBXMetaDataCommandFactory.TDBXDataExpressProviderContext.Create
 0001:00001A2C       Data.DBXMetaDataCommandFactory.TDBXDataExpressProviderContext.Destroy
 0001:00001A34       Data.DBXMetaDataCommandFactory.TDBXDataExpressProviderContext.GetPlatformTypeName
 0001:00001A3C       Data.DBXMetaDataCommandFactory.TDBXDataExpressProviderContext.ExecuteQuery
 0001:00001A44       Data.DBXMetaDataCommandFactory.TDBXDataExpressProviderContext.CreateTableStorage
 0001:00001A4C       Data.DBXMetaDataCommandFactory.TDBXDataExpressProviderContext.CreateRowStorage
 0001:00001A54       Data.DBXMetaDataCommandFactory.TDBXDataExpressProviderContext.StartTransaction
 0001:00001A5C       Data.DBXMetaDataCommandFactory.TDBXDataExpressProviderContext.StartSerializedTransaction
 0001:00001A64       Data.DBXMetaDataCommandFactory.TDBXDataExpressProviderContext.Commit
 0001:00001A6C       Data.DBXMetaDataCommandFactory.TDBXDataExpressProviderContext.Rollback
 0001:00001A74       Data.DBXMetaDataCommandFactory.TDBXDataExpressProviderContext.GetVendorProperty
 0001:00001A7C       Dbx34DrvDbms..TDBXOpenODBCMetaDataCommandFactoryOracle
 0001:00001B64       Dbx34DrvDbms..TDBXOpenODBCMetaDataReaderOracle
 0001:00001D68       Dbx34DrvDbms..TDBXOpenODBCMetaDataCommandFactoryMSSQL
 0001:00001E4C       Dbx34DrvDbms..TDBXOpenODBCMetaDataReaderMSSQL
 0001:0000204C       Dbx34DrvDbms..TDBXOpenODBCMetaDataCommandFactoryMySQL
 0001:00002130       Dbx34DrvDbms..TDBXOpenODBCMetaDataReaderMySQL
 0001:00002330       Dbx34DrvDbms..TDBXOpenODBCMetaDataCommandFactorySybaseASA
 0001:0000241C       Dbx34DrvDbms..TDBXOpenODBCMetaDataReaderSybaseASA
 0001:00002624       Dbx34DrvDbms..TDBXOpenODBCMetaDataCommandFactorySybaseASE
 0001:00002710       Dbx34DrvDbms..TDBXOpenODBCMetaDataReaderSybaseASE
 0001:00002918       Dbx34DrvDbms..TDBXOpenODBCMetaDataCommandFactoryDB2
 0001:000029F8       Dbx34DrvDbms..TDBXOpenODBCMetaDataReaderDB2
 0001:00002BF4       Dbx34DrvDbms..TDBXOpenODBCMetaDataCommandFactoryInformix
 0001:00002CE0       Dbx34DrvDbms..TDBXOpenODBCMetaDataReaderInformix
 0001:00002EF8       Dbx34DrvDbms..TDBXOpenODBCMetaDataCommandFactoryDataStorage
 0001:00002FE8       Dbx34DrvDbms..TDBXOpenODBCMetaDataReaderDataStorage
 0001:000031F4       Dbx34DrvDbms..TDBXOpenODBCMetaDataCommandFactoryFirebird
 0001:000032E0       Dbx34DrvDbms..TDBXOpenODBCMetaDataReaderFirebird
 0001:000034F8       Dbx34DrvDbms..TDBXOpenODBCMetaDataCommandFactoryInterbase
 0001:000035E4       Dbx34DrvDbms..TDBXOpenODBCMetaDataReaderInterbase
 0001:000037FC       Dbx34DrvDbms..TDBXOpenODBCMetaDataCommandFactorySQLite
 0001:000038E4       Dbx34DrvDbms..TDBXOpenODBCMetaDataReaderSQLite
 0001:00003AE8       Dbx34DrvDbms..TDBXOpenODBCMetaDataCommandFactoryPostgreSQL
 0001:00003BD8       Dbx34DrvDbms..TDBXOpenODBCMetaDataReaderPostgreSQL
 0001:00003DE4       Dbx34DrvDbms.TDBXOpenODBCMetaDataCommandFactoryOracle.GetMetaDataReaderClass
 0001:00003DEC       Dbx34DrvDbms.TDBXOpenODBCMetaDataReaderOracle.GetProductName
 0001:00003E1C       Dbx34DrvDbms.TDBXOpenODBCMetaDataReaderOracle.GetSqlForSchemas
 0001:00003EF8       Dbx34DrvDbms.TDBXOpenODBCMetaDataReaderOracle.GetSqlForTables
 0001:0000444C       Dbx34DrvDbms.TDBXOpenODBCMetaDataReaderOracle.GetSqlForColumns
 0001:0000476C       Dbx34DrvDbms.TDBXOpenODBCMetaDataReaderOracle.GetSqlForIndexes
 0001:00004B68       Dbx34DrvDbms.TDBXOpenODBCMetaDataReaderOracle.GetSqlForIndexColumns
 0001:00005030       Dbx34DrvDbms.TDBXOpenODBCMetaDataReaderOracle.GetReservedWords
 0001:00005DE8       Dbx34DrvDbms.TDBXOpenODBCMetaDataReaderOracle.PopulateDataTypes
 0001:00005F1C       Dbx34DrvDbms.TDBXOpenODBCMetaDataReaderOracle.GetDataTypeDescriptions
 0001:00006C3C       Dbx34DrvDbms.TDBXOpenODBCMetaDataCommandFactoryMSSQL.GetMetaDataReaderClass
 0001:00006C44       Dbx34DrvDbms.TDBXOpenODBCMetaDataReaderMSSQL.GetProductName
 0001:00006C90       Dbx34DrvDbms.TDBXOpenODBCMetaDataReaderMSSQL.GetSqlForTables
 0001:000075A8       Dbx34DrvDbms.TDBXOpenODBCMetaDataReaderMSSQL.GetSqlForColumns
 0001:00008358       Dbx34DrvDbms.TDBXOpenODBCMetaDataReaderMSSQL.GetSqlForIndexes
 0001:00008E80       Dbx34DrvDbms.TDBXOpenODBCMetaDataReaderMSSQL.GetSqlForIndexColumns
 0001:000098FC       Dbx34DrvDbms.TDBXOpenODBCMetaDataReaderMSSQL.GetReservedWords
 0001:0000DFB8       Dbx34DrvDbms.TDBXOpenODBCMetaDataReaderMSSQL.GetSqlIdentifierQuotePrefix
 0001:0000DFDC       Dbx34DrvDbms.TDBXOpenODBCMetaDataReaderMSSQL.GetSqlIdentifierQuoteSuffix
 0001:0000E000       Dbx34DrvDbms.TDBXOpenODBCMetaDataReaderMSSQL.GetTableType
 0001:0000E038       Dbx34DrvDbms.TDBXOpenODBCMetaDataReaderMSSQL.GetViewType
 0001:0000E070       Dbx34DrvDbms.TDBXOpenODBCMetaDataReaderMSSQL.GetSystemTableType
 0001:0000E0A8       Dbx34DrvDbms.TDBXOpenODBCMetaDataReaderMSSQL.GetSystemViewType
 0001:0000E0E0       Dbx34DrvDbms.TDBXOpenODBCMetaDataReaderMSSQL.GetSynonymType
 0001:0000E11C       Dbx34DrvDbms.TDBXOpenODBCMetaDataReaderMSSQL.GetDataTypeDescriptions
 0001:0000F0CC       Dbx34DrvDbms.TDBXOpenODBCMetaDataCommandFactoryMySQL.GetMetaDataReaderClass
 0001:0000F0D4       Dbx34DrvDbms.TDBXOpenODBCMetaDataReaderMySQL.GetProductName
 0001:0000F100       Dbx34DrvDbms.TDBXOpenODBCMetaDataReaderMySQL.GetSqlForTables
 0001:0000F4A8       Dbx34DrvDbms.TDBXOpenODBCMetaDataReaderMySQL.GetSqlForColumns
 0001:0000FB0C       Dbx34DrvDbms.TDBXOpenODBCMetaDataReaderMySQL.GetSqlForIndexes
 0001:0000FEBC       Dbx34DrvDbms.TDBXOpenODBCMetaDataReaderMySQL.GetSqlForIndexColumns
 0001:00010260       Dbx34DrvDbms.TDBXOpenODBCMetaDataReaderMySQL.GetReservedWords
 0001:00012B74       Dbx34DrvDbms.TDBXOpenODBCMetaDataReaderMySQL.GetSqlIdentifierQuotePrefix
 0001:00012B98       Dbx34DrvDbms.TDBXOpenODBCMetaDataReaderMySQL.GetSqlIdentifierQuoteSuffix
 0001:00012BBC       Dbx34DrvDbms.TDBXOpenODBCMetaDataReaderMySQL.GetSqlIdentifierQuoteChar
 0001:00012BE0       Dbx34DrvDbms.TDBXOpenODBCMetaDataReaderMySQL.GetTableType
 0001:00012C2C       Dbx34DrvDbms.TDBXOpenODBCMetaDataReaderMySQL.IsDescendingIndexColumnsSupported
 0001:00012C30       Dbx34DrvDbms.TDBXOpenODBCMetaDataReaderMySQL.IsUpperCaseIdentifiersSupported
 0001:00012C34       Dbx34DrvDbms.TDBXOpenODBCMetaDataReaderMySQL.IsMultipleCommandsSupported
 0001:00012C38       Dbx34DrvDbms.TDBXOpenODBCMetaDataReaderMySQL.SetContext
 0001:00012CE4       Dbx34DrvDbms.TDBXOpenODBCMetaDataReaderMySQL.PopulateDataTypes
 0001:00012D80       Dbx34DrvDbms.TDBXOpenODBCMetaDataReaderMySQL.GetDataTypeDescriptions
 0001:00013ABC       Dbx34DrvDbms.TDBXOpenODBCMetaDataCommandFactorySybaseASA.GetMetaDataReaderClass
 0001:00013AC4       Dbx34DrvDbms.TDBXOpenODBCMetaDataReaderSybaseASA.GetProductName
 0001:00013B18       Dbx34DrvDbms.TDBXOpenODBCMetaDataReaderSybaseASA.SetContext
 0001:00013C78       Dbx34DrvDbms.TDBXOpenODBCMetaDataReaderSybaseASA.GetSqlForTables
 0001:00014244       Dbx34DrvDbms.TDBXOpenODBCMetaDataReaderSybaseASA.GetSqlForColumns
 0001:00014730       Dbx34DrvDbms.TDBXOpenODBCMetaDataReaderSybaseASA.GetSqlForIndexes
 0001:00015394       Dbx34DrvDbms.TDBXOpenODBCMetaDataReaderSybaseASA.GetSqlForIndexColumns
 0001:00016218       Dbx34DrvDbms.TDBXOpenODBCMetaDataReaderSybaseASA.GetReservedWords
 0001:000189D4       Dbx34DrvDbms.TDBXOpenODBCMetaDataReaderSybaseASA.GetTableType
 0001:00018A14       Dbx34DrvDbms.TDBXOpenODBCMetaDataReaderSybaseASA.GetViewType
 0001:00018A54       Dbx34DrvDbms.TDBXOpenODBCMetaDataReaderSybaseASA.GetSystemTableType
 0001:00018A94       Dbx34DrvDbms.TDBXOpenODBCMetaDataReaderSybaseASA.GetSystemViewType
 0001:00018AD4       Dbx34DrvDbms.TDBXOpenODBCMetaDataReaderSybaseASA.GetDataTypeDescriptions
 0001:00019680       Dbx34DrvDbms.TDBXOpenODBCMetaDataCommandFactorySybaseASE.GetMetaDataReaderClass
 0001:00019688       Dbx34DrvDbms.TDBXOpenODBCMetaDataReaderSybaseASE.GetProductName
 0001:000196CC       Dbx34DrvDbms.TDBXOpenODBCMetaDataReaderSybaseASE.GetSqlForTables
 0001:00019A44       Dbx34DrvDbms.TDBXOpenODBCMetaDataReaderSybaseASE.GetSqlForColumns
 0001:00019FF0       Dbx34DrvDbms.TDBXOpenODBCMetaDataReaderSybaseASE.GetSqlForIndexes
 0001:0001A35C       Dbx34DrvDbms.TDBXOpenODBCMetaDataReaderSybaseASE.GetSqlForIndexColumns
 0001:0001A844       Dbx34DrvDbms.TDBXOpenODBCMetaDataReaderSybaseASE.GetReservedWords
 0001:0001E2B8       Dbx34DrvDbms.TDBXOpenODBCMetaDataReaderSybaseASE.GetTableType
 0001:0001E2F0       Dbx34DrvDbms.TDBXOpenODBCMetaDataReaderSybaseASE.GetViewType
 0001:0001E328       Dbx34DrvDbms.TDBXOpenODBCMetaDataReaderSybaseASE.GetSystemTableType
 0001:0001E360       Dbx34DrvDbms.TDBXOpenODBCMetaDataReaderSybaseASE.GetDataTypeDescriptions
 0001:0001EFA8       Dbx34DrvDbms.TDBXOpenODBCMetaDataCommandFactoryDB2.GetMetaDataReaderClass
 0001:0001EFB0       Dbx34DrvDbms.TDBXOpenODBCMetaDataReaderDB2.GetProductName
 0001:0001EFD8       Dbx34DrvDbms.TDBXOpenODBCMetaDataReaderDB2.GetSqlForTables
 0001:0001F580       Dbx34DrvDbms.TDBXOpenODBCMetaDataReaderDB2.GetSqlForColumns
 0001:0001F904       Dbx34DrvDbms.TDBXOpenODBCMetaDataReaderDB2.GetSqlForIndexes
 0001:0001FCA4       Dbx34DrvDbms.TDBXOpenODBCMetaDataReaderDB2.GetSqlForIndexColumns
 0001:00020100       Dbx34DrvDbms.TDBXOpenODBCMetaDataReaderDB2.GetReservedWords
 0001:000238E0       Dbx34DrvDbms.TDBXOpenODBCMetaDataReaderDB2.GetTableType
 0001:00023918       Dbx34DrvDbms.TDBXOpenODBCMetaDataReaderDB2.GetViewType
 0001:00023950       Dbx34DrvDbms.TDBXOpenODBCMetaDataReaderDB2.GetSystemTableType
 0001:00023988       Dbx34DrvDbms.TDBXOpenODBCMetaDataReaderDB2.GetSqlProcedureQuoteChar
 0001:00023994       Dbx34DrvDbms.TDBXOpenODBCMetaDataReaderDB2.GetDataTypeDescriptions
 0001:00023F8C       Dbx34DrvDbms.TDBXOpenODBCMetaDataCommandFactoryInformix.GetMetaDataReaderClass
 0001:00023F94       Dbx34DrvDbms.TDBXOpenODBCMetaDataReaderInformix.GetProductName
 0001:00023FE4       Dbx34DrvDbms.TDBXOpenODBCMetaDataReaderInformix.Destroy
 0001:00024010       Dbx34DrvDbms.TDBXOpenODBCMetaDataReaderInformix.GetSqlForTables
 0001:000245E4       Dbx34DrvDbms.TDBXOpenODBCMetaDataReaderInformix.GetSqlForColumns
 0001:00024A2C       Dbx34DrvDbms.TDBXOpenODBCMetaDataReaderInformix.GetSqlForIndexes
 0001:00024EC0       Dbx34DrvDbms.TDBXOpenODBCMetaDataReaderInformix.GetSqlForIndexColumns
 0001:00026090       Dbx34DrvDbms.TDBXOpenODBCMetaDataReaderInformix.GetReservedWords
 0001:0002BC64       Dbx34DrvDbms.TDBXOpenODBCMetaDataReaderInformix.GetTableType
 0001:0002BC9C       Dbx34DrvDbms.TDBXOpenODBCMetaDataReaderInformix.GetViewType
 0001:0002BCD4       Dbx34DrvDbms.TDBXOpenODBCMetaDataReaderInformix.GetSystemTableType
 0001:0002BD0C       Dbx34DrvDbms.TDBXOpenODBCMetaDataReaderInformix.GetSynonymType
 0001:0002BD44       Dbx34DrvDbms.TDBXOpenODBCMetaDataReaderInformix.IsUpperCaseIdentifiersSupported
 0001:0002BD48       Dbx34DrvDbms.TDBXOpenODBCMetaDataReaderInformix.GetAllDataTypes
 0001:0002C5A8       Dbx34DrvDbms.TDBXOpenODBCMetaDataReaderInformix.GetDataTypeDescriptions
 0001:0002C6AC       Dbx34DrvDbms.TDBXOpenODBCMetaDataCommandFactoryDataStorage.GetMetaDataReaderClass
 0001:0002C6B4       Dbx34DrvDbms.TDBXOpenODBCMetaDataReaderDataStorage.GetSqlForTables
 0001:0002C7CC       Dbx34DrvDbms.TDBXOpenODBCMetaDataReaderDataStorage.GetSqlForColumns
 0001:0002C87C       Dbx34DrvDbms.TDBXOpenODBCMetaDataReaderDataStorage.GetSqlForIndexes
 0001:0002C920       Dbx34DrvDbms.TDBXOpenODBCMetaDataReaderDataStorage.GetSqlForIndexColumns
 0001:0002C9E8       Dbx34DrvDbms.TDBXOpenODBCMetaDataCommandFactoryFirebird.GetMetaDataReaderClass
 0001:0002C9F0       Dbx34DrvDbms.TDBXOpenODBCMetaDataReaderFirebird.GetProductName
 0001:0002CA24       Dbx34DrvDbms.TDBXOpenODBCMetaDataReaderFirebird.Destroy
 0001:0002CA50       Dbx34DrvDbms.TDBXOpenODBCMetaDataReaderFirebird.GetSqlForTables
 0001:0002CE80       Dbx34DrvDbms.TDBXOpenODBCMetaDataReaderFirebird.GetSqlForColumns
 0001:0002D334       Dbx34DrvDbms.TDBXOpenODBCMetaDataReaderFirebird.GetSqlForIndexes
 0001:0002D78C       Dbx34DrvDbms.TDBXOpenODBCMetaDataReaderFirebird.GetSqlForIndexColumns
 0001:0002DCA8       Dbx34DrvDbms.TDBXOpenODBCMetaDataReaderFirebird.GetReservedWords
 0001:0003110C       Dbx34DrvDbms.TDBXOpenODBCMetaDataReaderFirebird.IsDescendingIndexColumnsSupported
 0001:00031110       Dbx34DrvDbms.TDBXOpenODBCMetaDataReaderFirebird.SetContext
 0001:000311BC       Dbx34DrvDbms.TDBXOpenODBCMetaDataReaderFirebird.GetAllDataTypes
 0001:000317D4       Dbx34DrvDbms.TDBXOpenODBCMetaDataReaderFirebird.GetDataTypeDescriptions
 0001:00031894       Dbx34DrvDbms.TDBXOpenODBCMetaDataCommandFactoryInterbase.GetMetaDataReaderClass
 0001:0003189C       Dbx34DrvDbms.TDBXOpenODBCMetaDataReaderInterbase.GetProductName
 0001:000318D0       Dbx34DrvDbms.TDBXOpenODBCMetaDataReaderInterbase.Destroy
 0001:000318FC       Dbx34DrvDbms.TDBXOpenODBCMetaDataReaderInterbase.GetSqlForTables
 0001:00031D2C       Dbx34DrvDbms.TDBXOpenODBCMetaDataReaderInterbase.GetSqlForColumns
 0001:000321E0       Dbx34DrvDbms.TDBXOpenODBCMetaDataReaderInterbase.GetSqlForIndexes
 0001:00032638       Dbx34DrvDbms.TDBXOpenODBCMetaDataReaderInterbase.GetSqlForIndexColumns
 0001:00032B54       Dbx34DrvDbms.TDBXOpenODBCMetaDataReaderInterbase.GetReservedWords
 0001:00035FB8       Dbx34DrvDbms.TDBXOpenODBCMetaDataReaderInterbase.IsDescendingIndexColumnsSupported
 0001:00035FBC       Dbx34DrvDbms.TDBXOpenODBCMetaDataReaderInterbase.SetContext
 0001:00036068       Dbx34DrvDbms.TDBXOpenODBCMetaDataReaderInterbase.GetAllDataTypes
 0001:00036680       Dbx34DrvDbms.TDBXOpenODBCMetaDataReaderInterbase.GetDataTypeDescriptions
 0001:00036740       Dbx34DrvDbms.TDBXOpenODBCMetaDataCommandFactorySQLite.GetMetaDataReaderClass
 0001:00036748       Dbx34DrvDbms.TDBXOpenODBCMetaDataReaderSQLite.GetSqlForTables
 0001:00036754       Dbx34DrvDbms.TDBXOpenODBCMetaDataCommandFactoryPostgreSQL.GetMetaDataReaderClass
 0001:0003675C       Dbx34DrvDbms.TDBXOpenODBCMetaDataReaderPostgreSQL.GetSqlForTables
 0001:00036D00       Dbx34DrvDbms.TDBXOpenODBCMetaDataReaderPostgreSQL.GetSqlForColumns
 0001:000374F4       Dbx34DrvDbms.TDBXOpenODBCMetaDataReaderPostgreSQL.GetSqlForIndexes
 0001:00037AFC       Dbx34DrvDbms.TDBXOpenODBCMetaDataReaderPostgreSQL.GetSqlForIndexColumns
 0001:000389E8       Dbx34DrvDbms.TDBXOpenODBCMetaDataReaderPostgreSQL.GetReservedWords
 0001:00039164       Dbx34DrvDbms.Finalization
 0001:000391E8       Dbx34Drv..EDBXError
 0001:00039284       Dbx34Drv..EDbxOODBCDriverError
 0001:00039338       Dbx34Drv..TDBXOpenOdbcPropertyNames
 0001:000393EC       Dbx34Drv..TDBXPropertyNames
 0001:00039490       Dbx34Drv..TDbxOpenOdbcDriver
 0001:00039564       Dbx34Drv..TDBXOpenOdbcProperties
 0001:00039784       Dbx34Drv..TDBXDynalinkDriverLoaderOpenOdbc
 0001:0003985C       Dbx34Drv..TDBXDynalinkConnectionOpenOdbc
 0001:000399B8       Dbx34Drv..TDBXMorphicCommandOpenOdbc
 0001:00039AE4       Dbx34Drv..TDBXDataExpressProviderContextOpenOdbc
 0001:00039BD8       Dbx34Drv..TDBXCustomOpenODBCMetaDataReader
 0001:00039DE8       Dbx34Drv..TDBXOpenODBCMetaDataCommand
 0001:00039F8C       Dbx34Drv..TDBXOpenODBCMetaDataCommandFactory
 0001:0003A098       Dbx34Drv..TDBXOpenODBCMetaDataCommandFactoryCustom
 0001:0003A17C       Dbx34Drv..TDBXOpenODBCMetaDataReader
 0001:0003A370       Dbx34Drv.DBXStringArrayToNamedQueryParams
 0001:0003A468       Dbx34Drv.DBXStringArrayToErrorInfo
 0001:0003A5B0       Dbx34Drv.ErrorGetVendorPropertyCommand
 0001:0003A6F4       Dbx34Drv.CheckGetVendorPropertyCommand
 0001:0003A790       Dbx34Drv.CheckPathEnvironmet
 0001:0003A950       Dbx34Drv.CheckLibraryPath
 0001:0003A9DC       Dbx34Drv.CheckLibraryName
 0001:0003AA28       Dbx34Drv.CheckVendorLib
 0001:0003AA70       Dbx34Drv.TDbxOpenOdbcDriver.Create
 0001:0003AB28       Dbx34Drv.TDbxOpenOdbcDriver.CreateCommandOpenOdbc
 0001:0003AB40       Dbx34Drv.TDbxOpenOdbcDriver.CreateConnection
 0001:0003AB84       Dbx34Drv.TDbxOpenOdbcDriver.LoadDriverWithConnectionBuilder
 0001:0003AC10       Dbx34Drv.TDbxOpenOdbcDriver.GetDriverPropertyNames
 0001:0003AC18       Dbx34Drv.TDbxOpenOdbcDriver.GetDriverVersion
 0001:0003AC54       Dbx34Drv.TDBXOpenOdbcProperties.Create
 0001:0003ADFC       Dbx34Drv.TDBXOpenOdbcProperties.GetConnectionString
 0001:0003AE44       Dbx34Drv.TDBXOpenOdbcProperties.SetConnectionString
 0001:0003AE84       Dbx34Drv.TDBXOpenOdbcProperties.GetDatabase
 0001:0003AEBC       Dbx34Drv.TDBXOpenOdbcProperties.SetDatabase
 0001:0003AEEC       Dbx34Drv.TDBXOpenOdbcProperties.GetUserName
 0001:0003AF24       Dbx34Drv.TDBXOpenOdbcProperties.SetUserName
 0001:0003AF54       Dbx34Drv.TDBXOpenOdbcProperties.GetPassWord
 0001:0003AF8C       Dbx34Drv.TDBXOpenOdbcProperties.SetPassWord
 0001:0003AFBC       Dbx34Drv.TDBXOpenOdbcProperties.GetBlobSize
 0001:0003B038       Dbx34Drv.TDBXOpenOdbcProperties.SetBlobSize
 0001:0003B0B0       Dbx34Drv.TDBXOpenOdbcProperties.GetOdbcTransIsolation
 0001:0003B10C       Dbx34Drv.TDBXOpenOdbcProperties.SetOdbcTransIsolation
 0001:0003B160       Dbx34Drv.TDBXOpenOdbcProperties.GetDecimalSeparator
 0001:0003B1A8       Dbx34Drv.TDBXOpenOdbcProperties.SetDecimalSeparator
 0001:0003B1E8       Dbx34Drv.TDBXOpenOdbcProperties.GetTrimChar
 0001:0003B25C       Dbx34Drv.TDBXOpenOdbcProperties.SetTrimChar
 0001:0003B2D4       Dbx34Drv.TDBXOpenOdbcProperties.GetCustomString
 0001:0003B314       Dbx34Drv.TDBXOpenOdbcProperties.SetCustomString
 0001:0003B34C       Dbx34Drv.TDBXDynalinkDriverLoaderOpenOdbc.LoadDriverLibraryAndMethodTable
 0001:0003B5E0       Dbx34Drv.TDBXDynalinkDriverLoaderOpenOdbc.FreeOldLibrary
 0001:0003B5F8       Dbx34Drv.TDBXDynalinkConnectionOpenOdbc.GetProductVersion
 0001:0003B60C       Dbx34Drv.TDBXDynalinkConnectionOpenOdbc.GetProductName
 0001:0003B644       Dbx34Drv.TDBXDynalinkConnectionOpenOdbc.DerivedGetCommands
 0001:0003B648       Dbx34Drv.TDBXDynalinkConnectionOpenOdbc.DerivedGetCommandTypes
 0001:0003B64C       Dbx34Drv.RaiseDriverVersionFailed
 0001:0003B6D0       Dbx34Drv.TDBXDynalinkConnectionOpenOdbc.DerivedOpen
 0001:0003B840       Dbx34Drv.TDBXDynalinkConnectionOpenOdbc.DoDerivedOpenBefore
 0001:0003BC04       Dbx34Drv.TDBXDynalinkConnectionOpenOdbc.DoDerivedOpenAfter
 0001:0003BCF0       Dbx34Drv.TDBXDynalinkConnectionOpenOdbc.DerivedClose
 0001:0003BCF4       Dbx34Drv.TDBXDynalinkConnectionOpenOdbc.GetDatabaseMetaData
 0001:0003BCFC       Dbx34Drv.TDBXDynalinkConnectionOpenOdbc.Close
 0001:0003BD04       Dbx34Drv.TDBXDynalinkConnectionOpenOdbc.DerivedCreateCommand
 0001:0003BD18       Dbx34Drv.TDBXDynalinkConnectionOpenOdbc.GetVendorProperty
 0001:0003BD94       Dbx34Drv.TDBXMorphicCommandOpenOdbc.Create
 0001:0003BDD4       Dbx34Drv.TDBXMorphicCommandOpenOdbc.DerivedExecuteQuery
 0001:0003BDDC       Dbx34Drv.TDBXCustomOpenODBCMetaDataReader.InitMetadata
 0001:0003BEB4       Dbx34Drv.TDBXCustomOpenODBCMetaDataReader.CheckMetadata
 0001:0003BF38       Dbx34Drv.TDBXCustomOpenODBCMetaDataReader.SetContext
 0001:0003BF50       Dbx34Drv.TDBXCustomOpenODBCMetaDataReader.GetProductName
 0001:0003BF94       Dbx34Drv.TDBXCustomOpenODBCMetaDataReader.GetSqlIdentifierQuotePrefix
 0001:0003BFA8       Dbx34Drv.TDBXCustomOpenODBCMetaDataReader.GetSqlIdentifierQuoteSuffix
 0001:0003BFBC       Dbx34Drv.TDBXCustomOpenODBCMetaDataReader.IsParameterMetadataSupported
 0001:0003BFC0       Dbx34Drv.TDBXCustomOpenODBCMetaDataReader.IsLowerCaseIdentifiersSupported
 0001:0003BFC4       Dbx34Drv.TDBXCustomOpenODBCMetaDataReader.IsUpperCaseIdentifiersSupported
 0001:0003BFC8       Dbx34Drv.TDBXCustomOpenODBCMetaDataReader.IsDescendingIndexSupported
 0001:0003BFCC       Dbx34Drv.TDBXCustomOpenODBCMetaDataReader.IsDescendingIndexColumnsSupported
 0001:0003BFD0       Dbx34Drv.TDBXCustomOpenODBCMetaDataReader.GetSqlIdentifierQuoteChar
 0001:0003BFE4       Dbx34Drv.TDBXCustomOpenODBCMetaDataReader.GetSqlProcedureQuoteChar
 0001:0003BFF8       Dbx34Drv.TDBXCustomOpenODBCMetaDataReader.IsMultipleCommandsSupported
 0001:0003BFFC       Dbx34Drv.TDBXCustomOpenODBCMetaDataReader.IsTransactionsSupported
 0001:0003C000       Dbx34Drv.TDBXCustomOpenODBCMetaDataReader.IsNestedTransactionsSupported
 0001:0003C004       Dbx34Drv.TDBXCustomOpenODBCMetaDataReader.IsSetRowSizeSupported
 0001:0003C008       Dbx34Drv.TDBXCustomOpenODBCMetaDataReader.GetUseAnsiStrings
 0001:0003C010       Dbx34Drv.TDBXOpenODBCMetaDataCommand.DerivedExecuteQuery
 0001:0003C018       Dbx34Drv.TDBXOpenODBCMetaDataCommandFactoryCustom.CreateMetaDataReader
 0001:0003C02C       Dbx34Drv.TDBXOpenODBCMetaDataCommandFactory.GetMetaDataReaderClass
 0001:0003C034       Dbx34Drv.TDBXOpenODBCMetaDataCommandFactory.InitMetaDataReaderClass
 0001:0003C220       Dbx34Drv.TDBXOpenODBCMetaDataCommandFactory.CreateCommand
 0001:0003C300       Dbx34Drv.TDBXOpenODBCMetaDataCommandFactory.GetProductName
 0001:0003C338       Dbx34Drv.TDBXOpenODBCMetaDataCommandFactory.CreateMetaDataReader
 0001:0003C590       Dbx34Drv.TDBXOpenODBCMetaDataCommandFactory.CreateMetaDataReader
 0001:0003C59C       Dbx34Drv.TDBXOpenODBCMetaDataCommandFactory.RegisterMetaDataCommandFactory
 0001:0003C5A4       Dbx34Drv.TDBXOpenODBCMetaDataCommandFactory.UnRegisterMetaDataCommandFactory
 0001:0003C5AC       Dbx34Drv.TDBXOpenODBCMetaDataReader.Create
 0001:0003C5E8       Dbx34Drv.TDBXOpenODBCMetaDataReader.FetchDataTypes
 0001:0003C650       Dbx34Drv.TDBXOpenODBCMetaDataReader.FetchCatalogs
 0001:0003C6D0       Dbx34Drv.TDBXOpenODBCMetaDataReader.FetchSchemas
 0001:0003C7F0       Dbx34Drv.TDBXOpenODBCMetaDataReader.FetchTables
 0001:0003CCCC       Dbx34Drv.TDBXOpenODBCMetaDataReader.FetchViews
 0001:0003CDF4       Dbx34Drv.TDBXOpenODBCMetaDataReader.FetchColumns
 0001:0003CF2C       Dbx34Drv.TDBXOpenODBCMetaDataReader.FetchColumnConstraints
 0001:0003D064       Dbx34Drv.TDBXOpenODBCMetaDataReader.FetchForeignKeyColumns
 0001:0003D1B4       Dbx34Drv.TDBXOpenODBCMetaDataReader.FetchForeignKeys
 0001:0003D2E0       Dbx34Drv.TDBXOpenODBCMetaDataReader.FetchIndexColumns
 0001:0003D684       Dbx34Drv.TDBXOpenODBCMetaDataReader.FetchIndexes
 0001:0003D9C8       Dbx34Drv.TDBXOpenODBCMetaDataReader.FetchProcedures
 0001:0003DAF8       Dbx34Drv.TDBXOpenODBCMetaDataReader.FetchProcedureSources
 0001:0003DC30       Dbx34Drv.TDBXOpenODBCMetaDataReader.FetchSynonyms
 0001:0003DD58       Dbx34Drv.TDBXOpenODBCMetaDataReader.FetchProcedureParameters
 0001:0003DEAC       Dbx34Drv.TDBXOpenODBCMetaDataReader.FetchPackages
 0001:0003DFD4       Dbx34Drv.TDBXOpenODBCMetaDataReader.FetchPackageProcedures
 0001:0003E114       Dbx34Drv.TDBXOpenODBCMetaDataReader.FetchPackageProcedureParameters
 0001:0003E280       Dbx34Drv.TDBXOpenODBCMetaDataReader.FetchPackageSources
 0001:0003E3B4       Dbx34Drv.TDBXOpenODBCMetaDataReader.FetchUsers
 0001:0003E48C       Dbx34Drv.TDBXOpenODBCMetaDataReader.FetchRoles
 0001:0003E564       Dbx34Drv.TDBXOpenODBCMetaDataReader.FetchReservedWords
 0001:0003E698       Dbx34Drv.TDBXOpenODBCMetaDataReader.GetProductName
 0001:0003E6D0       Dbx34Drv.TDBXOpenODBCMetaDataReader.GetReservedWords
 0001:0003E6E4       Dbx34Drv.TDBXOpenODBCMetaDataReader.GetSqlForColumns
 0001:0003E6F0       Dbx34Drv.TDBXOpenODBCMetaDataReader.GetSqlForForeignKeyColumns
 0001:0003E6FC       Dbx34Drv.TDBXOpenODBCMetaDataReader.GetSqlForForeignKeys
 0001:0003E708       Dbx34Drv.TDBXOpenODBCMetaDataReader.GetSqlForIndexColumns
 0001:0003E714       Dbx34Drv.TDBXOpenODBCMetaDataReader.GetSqlForIndexes
 0001:0003E720       Dbx34Drv.TDBXOpenODBCMetaDataReader.GetSqlForPackageProcedureParameters
 0001:0003E72C       Dbx34Drv.TDBXOpenODBCMetaDataReader.GetSqlForPackageProcedures
 0001:0003E738       Dbx34Drv.TDBXOpenODBCMetaDataReader.GetSqlForPackages
 0001:0003E744       Dbx34Drv.TDBXOpenODBCMetaDataReader.GetSqlForPackageSources
 0001:0003E750       Dbx34Drv.TDBXOpenODBCMetaDataReader.GetSqlForProcedureParameters
 0001:0003E75C       Dbx34Drv.TDBXOpenODBCMetaDataReader.GetSqlForProcedures
 0001:0003E768       Dbx34Drv.TDBXOpenODBCMetaDataReader.GetSqlForProcedureSources
 0001:0003E774       Dbx34Drv.TDBXOpenODBCMetaDataReader.GetSqlForRoles
 0001:0003E780       Dbx34Drv.TDBXOpenODBCMetaDataReader.GetSqlForSchemas
 0001:0003E78C       Dbx34Drv.TDBXOpenODBCMetaDataReader.GetSqlForSynonyms
 0001:0003E798       Dbx34Drv.TDBXOpenODBCMetaDataReader.GetSqlForTables
 0001:0003E7A4       Dbx34Drv.TDBXOpenODBCMetaDataReader.GetSqlForUsers
 0001:0003E7B0       Dbx34Drv.TDBXOpenODBCMetaDataReader.GetSqlForViews
 0001:0003E7BC       Dbx34Drv.TDBXOpenODBCMetaDataReader.IsNestedTransactionsSupported
 0001:0003E7C0       Dbx34Drv.TDBXOpenODBCMetaDataReader.IsSetRowSizeSupported
 0001:0003E7C4       Dbx34Drv.Finalization
 0001:0003E858       DbxXXDrv.IsDbxDrvFixed
 0001:0003E85C       DbxXXDrv.Finalization
 0001:0003E990       DbxOpenOdbcApiHook..TIATPatch
 0001:0003EAC8       DbxOpenOdbcApiHook.SizeOfCode
 0001:0003ED8C       DbxOpenOdbcApiHook.SizeOfProc
 0001:0003EDB0       DbxOpenOdbcApiHook.SaveOldFunction
 0001:0003EDF8       DbxOpenOdbcApiHook.HookCode
 0001:0003EF08       DbxOpenOdbcApiHook.HookProc
 0001:0003EF50       DbxOpenOdbcApiHook.UnhookCode
 0001:0003F004       DbxOpenOdbcApiHook.GetNativeAddr
 0001:0003F028       DbxOpenOdbcApiHook.JumpFromCode
 0001:0003F100       DbxOpenOdbcApiHook.RestoreSavedCode
 0001:0003F1EC       DbxOpenOdbcApiHook.IsJumpFromCode
 0001:0003F210       DbxOpenOdbcApiHook.TIATPatch.NextFunctionName
 0001:0003F248       DbxOpenOdbcApiHook.TIATPatch.ListContainsIAT
 0001:0003F268       DbxOpenOdbcApiHook.TIATPatch.CompareLibraryNames
 0001:0003F330       DbxOpenOdbcApiHook.TIATPatch.UpdateEntry
 0001:0003F37C       DbxOpenOdbcApiHook.TIATPatch.UpdatePatch
 0001:0003F3B0       DbxOpenOdbcApiHook.TIATPatch.EnumIATList
 0001:0003F590       DbxOpenOdbcApiHook.TIATPatch.BuildIATPatchList
 0001:0003F624       DbxOpenOdbcApiHook.TIATPatch.Unpatch
 0001:0003F740       DbxOpenOdbcApiHook.TIATPatch.Patch
 0001:0003F960       DbxOpenOdbcApiHook.TIATPatch.Find
 0001:0003FA94       DbxOpenOdbcApiHook.TIATPatch.Delete
 0001:0003FB6C       DbxOpenOdbcApiHook.TIATPatch.Clear
 0001:0003FC8C       DbxOpenOdbcApiHook.TIATPatch.GetPatchRecord
 0001:0003FCEC       DbxOpenOdbcApiHook.TIATPatch.GetUnpatchOnFree
 0001:0003FD44       DbxOpenOdbcApiHook.TIATPatch.SetUnpatchOnFree
 0001:0003FD94       DbxOpenOdbcApiHook.TIATPatch.GetCount
 0001:0003FDEC       DbxOpenOdbcApiHook.TIATPatch.Create
 0001:0003FE40       DbxOpenOdbcApiHook.TIATPatch.Destroy
 0001:0003FEE0       DbxOpenOdbcApiHook.GetVirtualMethodAddress
 0001:0003FEEC       DbxOpenOdbcApiHook.SetVirtualMethodAddress
 0001:0003FF74       DbxOpenOdbcApiHook.FindVirtualMethodIndex
 0001:0003FFD4       DbxOpenOdbcApiHook.GetVirtualMethodOffset
 0001:0003FFEC       DbxOpenOdbcApiHook.FxtGetStubAddress
 0001:00040004       DbxOpenOdbcApiHook.Finalization
 0001:0004000C       DbxDBFix.Finalization
 0001:00040014       DbxOpenOdbcTypes.Finalization
 0001:0004001C       Winapi.ShlObj.SHGetMalloc
 0001:00040024       Winapi.ShlObj.SHGetPathFromIDListW
 0001:0004002C       Winapi.ShlObj.SHGetSpecialFolderLocation
 0001:00040034       DbxOpenOdbcFuncs.min
 0001:0004003C       DbxOpenOdbcFuncs.max
 0001:00040044       DbxOpenOdbcFuncs.AnsiToOEM
 0001:0004008C       DbxOpenOdbcFuncs.OemToAnsi
 0001:000400D4       DbxOpenOdbcFuncs.LoadStringFromFileA
 0001:00040204       DbxOpenOdbcFuncs.LoadStringFromFileW
 0001:0004033C       DbxOpenOdbcFuncs.GetOptionValue
 0001:0004069C       DbxOpenOdbcFuncs.PointerOffset
 0001:000406A4       DbxOpenOdbcFuncs.CompareMemory
 0001:000406F0       DbxOpenOdbcFuncs.GetTemporaryFileName
 0001:00040818       DbxOpenOdbcFuncs.GetTemporaryFolder
 0001:000409DC       DbxOpenOdbcFuncs.is_prepared_alias
 0001:00040AD0       DbxOpenOdbcFuncs.is_prepared_alias_word
 0001:00040C30       DbxOpenOdbcFuncs.ExtractFilePathW
 0001:00040C8C       DbxOpenOdbcFuncs.GetValueAsWorkFolder
 0001:00040D40       DbxOpenOdbcFuncs.GetValueAsTempFolder
 0001:00040DA4       DbxOpenOdbcFuncs.GetValueAsShellFolderKey
 0001:00041800       DbxOpenOdbcFuncs.GetValueAsSpecialWinFolder
 0001:00041D78       DbxOpenOdbcFuncs.ExpandRegPathW
 0001:00041E00       DbxOpenOdbcFuncs.IsLeftKey
 0001:00041ED4       DbxOpenOdbcFuncs.GetValueAsRegistry
 0001:000423D8       DbxOpenOdbcFuncs.PrepareFileNameAliases
 0001:000428AC       DbxOpenOdbcFuncs.PrepareFileNameAliases
 0001:0004293C       DbxOpenOdbcFuncs.ArrScanByte
 0001:00042958       DbxOpenOdbcFuncs.ArrScanWord
 0001:00042974       DbxOpenOdbcFuncs.ArrScanDWord
 0001:00042990       DbxOpenOdbcFuncs.ArrScanPointer
 0001:000429AC       DbxOpenOdbcFuncs.ToAnsiChar
 0001:000429F4       DbxOpenOdbcFuncs.ToAnsiChar
 0001:00042A3C       DbxOpenOdbcFuncs.PosChar
 0001:00042A6C       DbxOpenOdbcFuncs.PosChar
 0001:00042AF4       DbxOpenOdbcFuncs.PosChar
 0001:00042B80       DbxOpenOdbcFuncs.PosChar
 0001:00042BA8       DbxOpenOdbcFuncs.PosCharEx
 0001:00042BF8       DbxOpenOdbcFuncs.PosCharEx
 0001:00042C9C       DbxOpenOdbcFuncs.PosCharEx
 0001:00042D58       DbxOpenOdbcFuncs.PosCharEx
 0001:00042DA8       DbxOpenOdbcFuncs.DupeStringW
 0001:00042E48       DbxOpenOdbcFuncs.DupeStringA
 0001:00042EE0       DbxOpenOdbcFuncs.DupeString
 0001:00042EF8       DbxOpenOdbcFuncs.DupeWideChar
 0001:00042F84       DbxOpenOdbcFuncs.DupeAnsiChar
 0001:00043004       DbxOpenOdbcFuncs.StringCharReplace
 0001:00043120       DbxOpenOdbcFuncs.StringCharReplace
 0001:000431B8       DbxOpenOdbcFuncs.StringCharReplace
 0001:000432CC       DbxOpenOdbcFuncs.StringCharReplace
 0001:0004336C       DbxOpenOdbcFuncs.StringCharModify
 0001:00043430       DbxOpenOdbcFuncs.StringCharModify
 0001:000434AC       DbxOpenOdbcFuncs.StringCharModify
 0001:00043568       DbxOpenOdbcFuncs.StringCharModify
 0001:000435D4       DbxOpenOdbcFuncs.StringCharModify
 0001:00043690       DbxOpenOdbcFuncs.StringCharModify
 0001:0004370C       DbxOpenOdbcFuncs.dbg
 0001:00043720       DbxOpenOdbcFuncs.dbg
 0001:00043734       DbxOpenOdbcFuncs.dbg
 0001:00043748       DbxOpenOdbcFuncs.GetCompilerVersion
 0001:00043798       DbxOpenOdbcFuncs.Finalization
 0001:000466E8       OdbcApi..EOdbcApi
 0001:00046780       OdbcApi..EOdbcApiNotImplemented
 0001:00046838       OdbcApi..TOdbcApiProxy
 0001:00046E48       OdbcApi..TOdbcApiIntfImpl
 0001:00046F00       OdbcApi.SQL_SUCCEEDED
 0001:00046F7C       OdbcApi..TStringHash
 0001:00047028       OdbcApi.TStringHash.Create
 0001:00047088       OdbcApi.TStringHash.Destroy
 0001:000470C0       OdbcApi.TStringHash.Clear
 0001:00047130       OdbcApi.TStringHash.HashOf
 0001:0004716C       OdbcApi.TStringHash.Add
 0001:000471CC       OdbcApi.TStringHash.Remove
 0001:00047204       OdbcApi.TStringHash.ValueOf
 0001:00047224       OdbcApi.TStringHash.Find
 0001:0004726C       OdbcApi.TStringHash.BeginLock
 0001:00047274       OdbcApi.TStringHash.EndLock
 0001:00047280       OdbcApi.ExtractNextLibName
 0001:00047338       OdbcApi.DoGetProcAddressEx
 0001:00047414       OdbcApi.LoadOdbcDriverManager
 0001:000492AC       OdbcApi.UnLoadOdbcDriverManager
 0001:00049310       OdbcApi.TOdbcApiProxy.Destroy
 0001:00049374       OdbcApi.TOdbcApiProxy.NotImplemented
 0001:000494E4       OdbcApi.TOdbcApiProxy.BeginLock
 0001:000494F0       OdbcApi.TOdbcApiProxy.EndLock
 0001:000494FC       OdbcApi.TOdbcApiProxy.SQLAllocConnect
 0001:00049518       OdbcApi.TOdbcApiProxy.SQLAllocEnv
 0001:00049534       OdbcApi.TOdbcApiProxy.SQLAllocHandleStd
 0001:00049590       OdbcApi.TOdbcApiProxy.SQLAllocHandle
 0001:00049630       OdbcApi.TOdbcApiProxy.SQLAllocStmt
 0001:0004964C       OdbcApi.TOdbcApiProxy.SQLBindCol
 0001:000496A8       OdbcApi.TOdbcApiProxy.SQLBindParam
 0001:00049714       OdbcApi.TOdbcApiProxy.SQLBindParameter
 0001:00049794       OdbcApi.TOdbcApiProxy.SQLBrowseConnect
 0001:00049920       OdbcApi.TOdbcApiProxy.SQLBulkOperations
 0001:0004996C       OdbcApi.TOdbcApiProxy.SQLCancel
 0001:000499A8       OdbcApi.TOdbcApiProxy.SQLCloseCursor
 0001:000499FC       OdbcApi.TOdbcApiProxy.SQLColAttribute
 0001:00049BE8       OdbcApi.TOdbcApiProxy.SQLColAttributeInt
 0001:00049C0C       OdbcApi.TOdbcApiProxy.SQLColAttributeString
 0001:00049C30       OdbcApi.TOdbcApiProxy.SQLColAttributes
 0001:00049DC8       OdbcApi.TOdbcApiProxy.SQLColumnPrivileges
 0001:00049F44       OdbcApi.TOdbcApiProxy.SQLColumns
 0001:0004A0FC       OdbcApi.TOdbcApiProxy.SQLConnect
 0001:0004A270       OdbcApi.TOdbcApiProxy.SQLCopyDesc
 0001:0004A2AC       OdbcApi.TOdbcApiProxy.SQLDataSources
 0001:0004A478       OdbcApi.TOdbcApiProxy.SQLDescribeCol
 0001:0004A5FC       OdbcApi.TOdbcApiProxy.SQLDescribeParam
 0001:0004A668       OdbcApi.TOdbcApiProxy.SQLDisconnect
 0001:0004A6A8       OdbcApi.TOdbcApiProxy.SQLDriverConnect
 0001:0004A880       OdbcApi.TOdbcApiProxy.SQLDrivers
 0001:0004AAA4       OdbcApi.TOdbcApiProxy.SQLEndTran
 0001:0004AB3C       OdbcApi.TOdbcApiProxy.SQLError
 0001:0004ACEC       OdbcApi.TOdbcApiProxy.SQLExecDirect
 0001:0004ADB8       OdbcApi.TOdbcApiProxy.SQLExecute
 0001:0004ADF4       OdbcApi.TOdbcApiProxy.SQLExtendedFetch
 0001:0004AE5C       OdbcApi.TOdbcApiProxy.SQLFetch
 0001:0004AE9C       OdbcApi.TOdbcApiProxy.SQLFetchScroll
 0001:0004AEF4       OdbcApi.TOdbcApiProxy.SQLForeignKeys
 0001:0004B0C4       OdbcApi.TOdbcApiProxy.SQLFreeConnect
 0001:0004B108       OdbcApi.TOdbcApiProxy.SQLFreeEnv
 0001:0004B148       OdbcApi.DoSQLFreeHandle
 0001:0004B218       OdbcApi.TOdbcApiProxy.SQLFreeHandle
 0001:0004B2A0       OdbcApi.TOdbcApiProxy.SQLFreeStmt
 0001:0004B2E4       OdbcApi.TOdbcApiProxy.SQLGetConnectAttr
 0001:0004B518       OdbcApi.TOdbcApiProxy.SQLGetConnectOption
 0001:0004B5FC       OdbcApi.TOdbcApiProxy.SQLGetCursorName
 0001:0004B758       OdbcApi.TOdbcApiProxy.SQLGetData
 0001:0004B7BC       OdbcApi.TOdbcApiProxy.SQLGetDescField
 0001:0004B93C       OdbcApi.TOdbcApiProxy.SQLGetDescRec
 0001:0004BABC       OdbcApi.TOdbcApiProxy.SQLGetDiagField
 0001:0004BC1C       OdbcApi.TOdbcApiProxy.SQLGetDiagRec
 0001:0004BDE0       OdbcApi.TOdbcApiProxy.SQLGetEnvAttr
 0001:0004BE40       OdbcApi.TOdbcApiProxy.SQLFunctionSupported
 0001:0004BE6C       OdbcApi.TOdbcApiProxy.SQLGetFunctions
 0001:0004C860       OdbcApi.TOdbcApiProxy.SQLGetInfo
 0001:0004C9F4       OdbcApi.TOdbcApiProxy.SQLGetInfoInt
 0001:0004CA0C       OdbcApi.TOdbcApiProxy.SQLGetInfoSmallint
 0001:0004CA24       OdbcApi.TOdbcApiProxy.SQLGetInfoString
 0001:0004CA40       OdbcApi.TOdbcApiProxy.SQLGetStmtAttr
 0001:0004CBC8       OdbcApi.TOdbcApiProxy.SQLGetStmtOption
 0001:0004CC28       OdbcApi.TOdbcApiProxy.SQLGetTypeInfo
 0001:0004CC84       OdbcApi.TOdbcApiProxy.SQLMoreResults
 0001:0004CC9C       OdbcApi.TOdbcApiProxy.SQLNativeSql
 0001:0004CE0C       OdbcApi.TOdbcApiProxy.SQLNumParams
 0001:0004CE54       OdbcApi.TOdbcApiProxy.SQLNumResultCols
 0001:0004CEA0       OdbcApi.TOdbcApiProxy.SQLParamData
 0001:0004CEE8       OdbcApi.TOdbcApiProxy.SQLParamOptions
 0001:0004CF40       OdbcApi.TOdbcApiProxy.SQLPrepare
 0001:0004D010       OdbcApi.TOdbcApiProxy.SQLPrimaryKeys
 0001:0004D178       OdbcApi.TOdbcApiProxy.SQLProcedureColumns
 0001:0004D320       OdbcApi.TOdbcApiProxy.SQLProcedures
 0001:0004D488       OdbcApi.TOdbcApiProxy.SQLPutData
 0001:0004D4DC       OdbcApi.TOdbcApiProxy.SQLRowCount
 0001:0004D520       OdbcApi.TOdbcApiProxy.SQLSetConnectAttr
 0001:0004D64C       OdbcApi.TOdbcApiProxy.SQLSetConnectOption
 0001:0004D6C8       OdbcApi.TOdbcApiProxy.SQLSetCursorName
 0001:0004D7A8       OdbcApi.TOdbcApiProxy.SQLSetDescField
 0001:0004D8A0       OdbcApi.TOdbcApiProxy.SQLSetDescRec
 0001:0004D91C       OdbcApi.TOdbcApiProxy.SQLSetEnvAttr
 0001:0004D978       OdbcApi.TOdbcApiProxy.SQLSetParam
 0001:0004D9E4       OdbcApi.TOdbcApiProxy.SQLSetPos
 0001:0004DA40       OdbcApi.TOdbcApiProxy.SQLSetScrollOptions
 0001:0004DAA4       OdbcApi.TOdbcApiProxy.SQLSetStmtAttr
 0001:0004DBCC       OdbcApi.TOdbcApiProxy.SQLSetStmtOption
 0001:0004DC2C       OdbcApi.TOdbcApiProxy.SQLSpecialColumns
 0001:0004DDBC       OdbcApi.TOdbcApiProxy.SQLStatistics
 0001:0004DF60       OdbcApi.TOdbcApiProxy.SQLTablePrivileges
 0001:0004E0C8       OdbcApi.TOdbcApiProxy.SQLTables
 0001:0004E2A0       OdbcApi.TOdbcApiProxy.SQLTransact
 0001:0004E2F4       OdbcApi.TOdbcApiProxy.TraceCloseLogFile
 0001:0004E340       OdbcApi.TOdbcApiProxy.TraceOpenLogFile
 0001:0004E3A0       OdbcApi.TOdbcApiProxy.TraceReturn
 0001:0004E3DC       OdbcApi.TOdbcApiProxy.TraceVersion
 0001:0004E424       OdbcApi.TOdbcApiProxy.TraceVSControl
 0001:0004E46C       OdbcApi.TOdbcApiProxy.FireVSDebugEvent
 0001:0004E4B0       OdbcApi.TOdbcApiProxy.ODBCGetTryWaitValue
 0001:0004E4FC       OdbcApi.TOdbcApiProxy.ODBCSetTryWaitValue
 0001:0004E554       OdbcApi.TOdbcApiProxy.SQL_ADD_RECORD
 0001:0004E560       OdbcApi.TOdbcApiProxy.SQL_DELETE_RECORD
 0001:0004E56C       OdbcApi.TOdbcApiProxy.SQL_FUNC_EXISTS
 0001:0004E59C       OdbcApi.TOdbcApiProxy.SQL_LEN_BINARY_ATTR
 0001:0004E5A4       OdbcApi.TOdbcApiProxy.SQL_LEN_DATA_AT_EXEC
 0001:0004E5AC       OdbcApi.TOdbcApiProxy.SQL_LOCK_RECORD
 0001:0004E5C4       OdbcApi.TOdbcApiProxy.SQL_POSITION_TO
 0001:0004E5D0       OdbcApi.TOdbcApiProxy.SQL_REFRESH_RECORD
 0001:0004E5E8       OdbcApi.TOdbcApiProxy.SQL_UPDATE_RECORD
 0001:0004E5F4       OdbcApi.TOdbcApiProxy.SetOdbcDriverLevel
 0001:0004E6A4       OdbcApi.TOdbcApiProxy.GetOdbcApiIntf
 0001:0004E6E4       OdbcApi.TOdbcApiIntfImpl.CheckAvailableProxy
 0001:0004E760       OdbcApi.TOdbcApiIntfImpl.FireVSDebugEvent
 0001:0004E7E4       OdbcApi.TOdbcApiIntfImpl.ODBCGetTryWaitValue
 0001:0004E868       OdbcApi.TOdbcApiIntfImpl.ODBCSetTryWaitValue
 0001:0004E8EC       OdbcApi.TOdbcApiIntfImpl.SQL_ADD_RECORD
 0001:0004E970       OdbcApi.TOdbcApiIntfImpl.SQL_DELETE_RECORD
 0001:0004E9F4       OdbcApi.TOdbcApiIntfImpl.SQL_FUNC_EXISTS
 0001:0004EA78       OdbcApi.TOdbcApiIntfImpl.SQL_LEN_BINARY_ATTR
 0001:0004EAFC       OdbcApi.TOdbcApiIntfImpl.SQL_LEN_DATA_AT_EXEC
 0001:0004EB80       OdbcApi.TOdbcApiIntfImpl.SQL_LOCK_RECORD
 0001:0004EC10       OdbcApi.TOdbcApiIntfImpl.SQL_POSITION_TO
 0001:0004EC94       OdbcApi.TOdbcApiIntfImpl.SQL_REFRESH_RECORD
 0001:0004ED24       OdbcApi.TOdbcApiIntfImpl.SQL_UPDATE_RECORD
 0001:0004EDA8       OdbcApi.TOdbcApiIntfImpl.SQLAllocConnect
 0001:0004EE2C       OdbcApi.TOdbcApiIntfImpl.SQLAllocEnv
 0001:0004EEB0       OdbcApi.TOdbcApiIntfImpl.SQLAllocHandle
 0001:0004EF40       OdbcApi.TOdbcApiIntfImpl.SQLAllocHandleStd
 0001:0004EFD0       OdbcApi.TOdbcApiIntfImpl.SQLAllocStmt
 0001:0004F054       OdbcApi.TOdbcApiIntfImpl.SQLBindCol
 0001:0004F0F0       OdbcApi.TOdbcApiIntfImpl.SQLBindParam
 0001:0004F194       OdbcApi.TOdbcApiIntfImpl.SQLBindParameter
 0001:0004F244       OdbcApi.TOdbcApiIntfImpl.SQLBrowseConnect
 0001:0004F2E0       OdbcApi.TOdbcApiIntfImpl.SQLBulkOperations
 0001:0004F364       OdbcApi.TOdbcApiIntfImpl.SQLCancel
 0001:0004F3E8       OdbcApi.TOdbcApiIntfImpl.SQLCloseCursor
 0001:0004F46C       OdbcApi.TOdbcApiIntfImpl.SQLColAttribute
 0001:0004F50C       OdbcApi.TOdbcApiIntfImpl.SQLColAttributeInt
 0001:0004F5AC       OdbcApi.TOdbcApiIntfImpl.SQLColAttributes
 0001:0004F64C       OdbcApi.TOdbcApiIntfImpl.SQLColAttributeString
 0001:0004F6EC       OdbcApi.TOdbcApiIntfImpl.SQLColumnPrivileges
 0001:0004F798       OdbcApi.TOdbcApiIntfImpl.SQLColumns
 0001:0004F844       OdbcApi.TOdbcApiIntfImpl.SQLConnect
 0001:0004F8E4       OdbcApi.TOdbcApiIntfImpl.SQLCopyDesc
 0001:0004F968       OdbcApi.TOdbcApiIntfImpl.SQLDataSources
 0001:0004FA0C       OdbcApi.TOdbcApiIntfImpl.SQLDescribeCol
 0001:0004FAB4       OdbcApi.TOdbcApiIntfImpl.SQLDescribeParam
 0001:0004FB50       OdbcApi.TOdbcApiIntfImpl.SQLDisconnect
 0001:0004FBD4       OdbcApi.TOdbcApiIntfImpl.SQLDriverConnect
 0001:0004FC78       OdbcApi.TOdbcApiIntfImpl.SQLDrivers
 0001:0004FD1C       OdbcApi.TOdbcApiIntfImpl.SQLEndTran
 0001:0004FDAC       OdbcApi.TOdbcApiIntfImpl.SQLError
 0001:0004FE50       OdbcApi.TOdbcApiIntfImpl.SQLExecDirect
 0001:0004FEE0       OdbcApi.TOdbcApiIntfImpl.SQLExecute
 0001:0004FF64       OdbcApi.TOdbcApiIntfImpl.SQLExtendedFetch
 0001:0004FFFC       OdbcApi.TOdbcApiIntfImpl.SQLFetch
 0001:00050080       OdbcApi.TOdbcApiIntfImpl.SQLFetchScroll
 0001:00050110       OdbcApi.TOdbcApiIntfImpl.SQLForeignKeys
 0001:000501CC       OdbcApi.TOdbcApiIntfImpl.SQLFreeConnect
 0001:00050250       OdbcApi.TOdbcApiIntfImpl.SQLFreeEnv
 0001:000502D4       OdbcApi.TOdbcApiIntfImpl.SQLFreeHandle
 0001:00050358       OdbcApi.TOdbcApiIntfImpl.SQLFreeStmt
 0001:000503DC       OdbcApi.TOdbcApiIntfImpl.SQLFunctionSupported
 0001:00050460       OdbcApi.TOdbcApiIntfImpl.SQLGetConnectAttr
 0001:000504F8       OdbcApi.TOdbcApiIntfImpl.SQLGetConnectOption
 0001:00050588       OdbcApi.TOdbcApiIntfImpl.SQLGetCursorName
 0001:0005061C       OdbcApi.TOdbcApiIntfImpl.SQLGetData
 0001:000506B8       OdbcApi.TOdbcApiIntfImpl.SQLGetDescField
 0001:00050754       OdbcApi.TOdbcApiIntfImpl.SQLGetDescRec
 0001:00050804       OdbcApi.TOdbcApiIntfImpl.SQLGetDiagField
 0001:000508A4       OdbcApi.TOdbcApiIntfImpl.SQLGetDiagRec
 0001:00050948       OdbcApi.TOdbcApiIntfImpl.SQLGetEnvAttr
 0001:000509E0       OdbcApi.TOdbcApiIntfImpl.SQLGetFunctions
 0001:00050A70       OdbcApi.TOdbcApiIntfImpl.SQLGetInfo
 0001:00050B08       OdbcApi.TOdbcApiIntfImpl.SQLGetInfoInt
 0001:00050BA0       OdbcApi.TOdbcApiIntfImpl.SQLGetInfoSmallint
 0001:00050C38       OdbcApi.TOdbcApiIntfImpl.SQLGetInfoString
 0001:00050CD0       OdbcApi.TOdbcApiIntfImpl.SQLGetStmtAttr
 0001:00050D68       OdbcApi.TOdbcApiIntfImpl.SQLGetStmtOption
 0001:00050DF8       OdbcApi.TOdbcApiIntfImpl.SQLGetTypeInfo
 0001:00050E7C       OdbcApi.TOdbcApiIntfImpl.SQLMoreResults
 0001:00050F00       OdbcApi.TOdbcApiIntfImpl.SQLNativeSql
 0001:00050F9C       OdbcApi.TOdbcApiIntfImpl.SQLNumParams
 0001:00051020       OdbcApi.TOdbcApiIntfImpl.SQLNumResultCols
 0001:000510A4       OdbcApi.TOdbcApiIntfImpl.SQLParamData
 0001:00051128       OdbcApi.TOdbcApiIntfImpl.SQLParamOptions
 0001:000511B8       OdbcApi.TOdbcApiIntfImpl.SQLPrepare
 0001:00051248       OdbcApi.TOdbcApiIntfImpl.SQLPrimaryKeys
 0001:000512E8       OdbcApi.TOdbcApiIntfImpl.SQLProcedureColumns
 0001:00051394       OdbcApi.TOdbcApiIntfImpl.SQLProcedures
 0001:00051434       OdbcApi.TOdbcApiIntfImpl.SQLPutData
 0001:000514C4       OdbcApi.TOdbcApiIntfImpl.SQLRowCount
 0001:00051548       OdbcApi.TOdbcApiIntfImpl.SQLSetConnectAttr
 0001:000515DC       OdbcApi.TOdbcApiIntfImpl.SQLSetConnectOption
 0001:0005166C       OdbcApi.TOdbcApiIntfImpl.SQLSetCursorName
 0001:000516FC       OdbcApi.TOdbcApiIntfImpl.SQLSetDescField
 0001:00051794       OdbcApi.TOdbcApiIntfImpl.SQLSetDescRec
 0001:00051844       OdbcApi.TOdbcApiIntfImpl.SQLSetEnvAttr
 0001:000518D8       OdbcApi.TOdbcApiIntfImpl.SQLSetParam
 0001:0005197C       OdbcApi.TOdbcApiIntfImpl.SQLSetPos
 0001:00051A10       OdbcApi.TOdbcApiIntfImpl.SQLSetScrollOptions
 0001:00051AA4       OdbcApi.TOdbcApiIntfImpl.SQLSetStmtAttr
 0001:00051B38       OdbcApi.TOdbcApiIntfImpl.SQLSetStmtOption
 0001:00051BC8       OdbcApi.TOdbcApiIntfImpl.SQLSpecialColumns
 0001:00051C78       OdbcApi.TOdbcApiIntfImpl.SQLStatistics
 0001:00051D24       OdbcApi.TOdbcApiIntfImpl.SQLTablePrivileges
 0001:00051DC4       OdbcApi.TOdbcApiIntfImpl.SQLTables
 0001:00051E70       OdbcApi.TOdbcApiIntfImpl.SQLTransact
 0001:00051F00       OdbcApi.TOdbcApiIntfImpl.TraceCloseLogFile
 0001:00051F84       OdbcApi.TOdbcApiIntfImpl.TraceOpenLogFile
 0001:00052014       OdbcApi.TOdbcApiIntfImpl.TraceReturn
 0001:00052098       OdbcApi.TOdbcApiIntfImpl.TraceVersion
 0001:0005211C       OdbcApi.TOdbcApiIntfImpl.TraceVSControl
 0001:000521A0       OdbcApi.Finalization
 0001:000534A4       DbxOpenOdbcDbx3Types.Finalization
 0001:000552A0       DbxOpenOdbcInterface.DoCallRegisterDbXpressLibProc
 0001:000552B8       DbxOpenOdbcInterface.RegisterDbXpressLibA
 0001:000552C0       DbxOpenOdbcInterface.RegisterDbXpressLibAW
 0001:000552C8       DbxOpenOdbcInterface.RegisterDbXpressLibW
 0001:000552D0       DbxOpenOdbcInterface.RegisterDbXpressLibWA
 0001:000552D8       DbxOpenOdbcInterface.RegisterDbXpressLibProc
 0001:000552E4       DbxOpenOdbcInterface.Finalization
 0001:000567A8       DbxOpenOdbcTrace.OutputDebugString
 0001:000568C8       DbxOpenOdbcTrace.OutputDebugString
 0001:000569F4       DbxOpenOdbcTrace.OutputDebugString
 0001:00056B6C       DbxOpenOdbcTrace.BoolToStr
 0001:00056BB8       DbxOpenOdbcTrace.ValueToStr
 0001:000571B4       DbxOpenOdbcTrace.ArrayToStr
 0001:000578B8       DbxOpenOdbcTrace.LogEnterProc
 0001:00057B10       DbxOpenOdbcTrace.LogEnterProc
 0001:00057B80       DbxOpenOdbcTrace.LogInfoProc
 0001:00057CFC       DbxOpenOdbcTrace.LogInfoProc
 0001:00057EB8       DbxOpenOdbcTrace.LogExitProc
 0001:00058124       DbxOpenOdbcTrace.LogExitProc
 0001:00058194       DbxOpenOdbcTrace.GetExceptionInfoStr
 0001:000582C8       DbxOpenOdbcTrace.LogExceptProc
 0001:00058598       DbxOpenOdbcTrace.LogExceptProc
 0001:0005860C       DbxOpenOdbcTrace.GetTransactionDescStr
 0001:00058818       DbxOpenOdbcTrace.Finalization
 0001:00058920       DbxOpenOdbcUtils.FreeMemAndNil
 0001:00058934       DbxOpenOdbcUtils.MaxSet
 0001:0005893C       DbxOpenOdbcUtils.MaxSet
 0001:00058954       DbxOpenOdbcUtils.MaxSet
 0001:0005896C       DbxOpenOdbcUtils.MaxSet
 0001:00058998       DbxOpenOdbcUtils.MaxSet
 0001:000589AC       DbxOpenOdbcUtils.MaxSet
 0001:000589D4       DbxOpenOdbcUtils.BCD2Str
 0001:00058BE8       DbxOpenOdbcUtils.Str2BCD
 0001:00058D90       DbxOpenOdbcUtils.WideStringLengthFromStr
 0001:00058DF4       DbxOpenOdbcUtils.WideStringLengthFromStrings
 0001:00058E68       DbxOpenOdbcUtils.WCharFromChar
 0001:00058E88       DbxOpenOdbcUtils.StringToWideChar
 0001:00058ED0       DbxOpenOdbcUtils.StringToWStr
 0001:00058F30       DbxOpenOdbcUtils.StringToWStr
 0001:00058FD0       DbxOpenOdbcUtils.StringsToWStr
 0001:000590B4       DbxOpenOdbcUtils.StrLenNil
 0001:000590C4       DbxOpenOdbcUtils.WStrLen
 0001:000590E4       DbxOpenOdbcUtils.WStrComp
 0001:00059114       DbxOpenOdbcUtils.WStrIComp
 0001:00059164       DbxOpenOdbcUtils.WStrLComp
 0001:000591B0       DbxOpenOdbcUtils.WStrCopy
 0001:000591D8       DbxOpenOdbcUtils.WStrCopy
 0001:000591F4       DbxOpenOdbcUtils.WStrLCopy
 0001:0005921C       DbxOpenOdbcUtils.StrBuffCopy
 0001:00059278       DbxOpenOdbcUtils.StrBuffCopy
 0001:000592D8       DbxOpenOdbcUtils.StrBuffCopy
 0001:0005933C       DbxOpenOdbcUtils.StrBuffCopy
 0001:000593A0       DbxOpenOdbcUtils.StrBuffCopy
 0001:000593B8       DbxOpenOdbcUtils.StrBuffCopy
 0001:000593D0       DbxOpenOdbcUtils.StrClone
 0001:00059428       DbxOpenOdbcUtils.StrClone
 0001:00059494       DbxOpenOdbcUtils.StrClone
 0001:000594F0       DbxOpenOdbcUtils.StrClone
 0001:00059510       DbxOpenOdbcUtils.StrClone
 0001:000595CC       DbxOpenOdbcUtils.StrClone
 0001:00059624       DbxOpenOdbcUtils.StrClone
 0001:000596B4       DbxOpenOdbcUtils.StrClone
 0001:0005974C       DbxOpenOdbcUtils.StrClone
 0001:000597D8       DbxOpenOdbcUtils.StrClone
 0001:00059824       DbxOpenOdbcUtils.StrClone
 0001:00059858       DbxOpenOdbcUtils.StrClone
 0001:000598D8       DbxOpenOdbcUtils.StrClone
 0001:00059950       DbxOpenOdbcUtils.StrClone
 0001:00059984       DbxOpenOdbcUtils.StrIsEmpty
 0001:00059994       DbxOpenOdbcUtils.StrIsEmpty
 0001:000599A4       DbxOpenOdbcUtils.StrIsEmpty
 0001:000599C8       DbxOpenOdbcUtils.StrIsEmpty
 0001:000599E4       DbxOpenOdbcUtils.StrNotEmpty
 0001:000599F4       DbxOpenOdbcUtils.StrNotEmpty
 0001:00059A04       DbxOpenOdbcUtils.StrNotEmpty
 0001:00059A28       DbxOpenOdbcUtils.StrNotEmpty
 0001:00059A44       DbxOpenOdbcUtils.StrPtrToString
 0001:00059AA8       DbxOpenOdbcUtils.StrPtrToString
 0001:00059AD0       DbxOpenOdbcUtils.StrPtrToString
 0001:00059B38       DbxOpenOdbcUtils.StrSameText
 0001:00059B68       DbxOpenOdbcUtils.StrSameText
 0001:00059B98       DbxOpenOdbcUtils.StrSameText
 0001:00059C20       DbxOpenOdbcUtils.StrSameText
 0001:00059CA4       DbxOpenOdbcUtils.StrSameText
 0001:00059CBC       DbxOpenOdbcUtils.StrSameText
 0001:00059CD4       DbxOpenOdbcUtils.StrSameText
 0001:00059D30       DbxOpenOdbcUtils.StrSameText
 0001:00059D8C       DbxOpenOdbcUtils.StrSameText
 0001:00059DA8       DbxOpenOdbcUtils.StrSameText
 0001:00059DC0       DbxOpenOdbcUtils.StrSameText
 0001:00059DDC       DbxOpenOdbcUtils.StrSameText
 0001:00059DF4       DbxOpenOdbcUtils.StrISameText
 0001:00059E24       DbxOpenOdbcUtils.StrISameText
 0001:00059E54       DbxOpenOdbcUtils.StrISameText
 0001:00059EDC       DbxOpenOdbcUtils.StrISameText
 0001:00059F60       DbxOpenOdbcUtils.StrISameText
 0001:00059F78       DbxOpenOdbcUtils.StrISameText
 0001:00059F90       DbxOpenOdbcUtils.StrISameText
 0001:00059FF0       DbxOpenOdbcUtils.StrISameText
 0001:0005A050       DbxOpenOdbcUtils.PAnsiCharParam
 0001:0005A05C       DbxOpenOdbcUtils.PAnsiCharParam
 0001:0005A074       DbxOpenOdbcUtils.StrAnsiStringParam
 0001:0005A09C       DbxOpenOdbcUtils.StrAnsiStringParam
 0001:0005A0D0       DbxOpenOdbcUtils.ChangeFileExtW
 0001:0005A148       DbxOpenOdbcUtils.PIntToStr
 0001:0005A1AC       DbxOpenOdbcUtils.ArgStrNull
 0001:0005A1E8       DbxOpenOdbcUtils.ArgStrNull
 0001:0005A224       DbxOpenOdbcUtils.Finalization
 0001:0005A3DC       RegExpr..TRegExpr
 0001:0005A590       RegExpr..ERegExpr
 0001:0005A628       RegExpr.ExecRegExpr
 0001:0005A690       RegExpr.SplitRegExpr
 0001:0005A6FC       RegExpr.ReplaceRegExpr
 0001:0005A788       RegExpr.QuoteRegExprMetaChars
 0001:0005A89C       RegExpr.RegExprSubExpressions
 0001:0005ABB0       RegExpr.TRegExpr.ErrorMsg
 0001:0005B788       RegExpr.TRegExpr.LastError
 0001:0005B79C       RegExpr.TRegExpr.VersionMajor
 0001:0005B7A4       RegExpr.TRegExpr.VersionMinor
 0001:0005B7AC       RegExpr.TRegExpr.Create
 0001:0005B8C0       RegExpr.TRegExpr.Destroy
 0001:0005B908       RegExpr.TRegExpr.InvertCaseFunction
 0001:0005B924       RegExpr.TRegExpr.GetExpression
 0001:0005B950       RegExpr.TRegExpr.SetExpression
 0001:0005BA18       RegExpr.TRegExpr.GetSubExprMatchCount
 0001:0005BA48       RegExpr.TRegExpr.GetMatchPos
 0001:0005BA80       RegExpr.TRegExpr.GetMatchLen
 0001:0005BAB8       RegExpr.TRegExpr.GetMatch
 0001:0005BB04       RegExpr.TRegExpr.GetModifierStr
 0001:0005BCB8       RegExpr.TRegExpr.ParseModifiersStr
 0001:0005BED8       RegExpr.TRegExpr.SetModifierStr
 0001:0005BF00       RegExpr.TRegExpr.GetModifier
 0001:0005BF74       RegExpr.TRegExpr.SetModifier
 0001:0005BFEC       RegExpr.TRegExpr.InvalidateProgramm
 0001:0005C008       RegExpr.TRegExpr.Compile
 0001:0005C028       RegExpr.TRegExpr.IsProgrammOk
 0001:0005C0DC       RegExpr.TRegExpr.Tail
 0001:0005C118       RegExpr.TRegExpr.OpTail
 0001:0005C138       RegExpr.TRegExpr.EmitNode
 0001:0005C174       RegExpr.TRegExpr.EmitC
 0001:0005C198       RegExpr.TRegExpr.InsertOperator
 0001:0005C1FC       RegExpr.strcspn
 0001:0005C220       RegExpr.TRegExpr.CompileRegExpr
 0001:0005C4C8       RegExpr.TRegExpr.ParseReg
 0001:0005C690       RegExpr.TRegExpr.ParseBranch
 0001:0005C730       RegExpr.parsenum
 0001:0005C790       RegExpr.EmitComplexBraces
 0001:0005C888       RegExpr.EmitSimpleBraces
 0001:0005C8FC       RegExpr.TRegExpr.ParsePiece
 0001:0005CE14       RegExpr.EmitExactly
 0001:0005CE84       RegExpr.HexDig
 0001:0005CEC8       RegExpr.EmitRange
 0001:0005CF80       RegExpr.EmitRangeCPrim
 0001:0005CFC4       RegExpr.EmitRangeC
 0001:0005D1AC       RegExpr.EmitSimpleRangeC
 0001:0005D1C8       RegExpr.EmitRangeStr
 0001:0005D200       RegExpr.UnQuoteChar
 0001:0005D350       RegExpr.TRegExpr.ParseAtom
 0001:0005DE5C       RegExpr.TRegExpr.GetCompilerErrorPos
 0001:0005DE7C       RegExpr.TRegExpr.regrepeat
 0001:0005E17C       RegExpr.TRegExpr.regnext
 0001:0005E198       RegExpr.TRegExpr.MatchPrim
 0001:0005EDE0       RegExpr.TRegExpr.FillFirstCharSet
 0001:0005F260       RegExpr.TRegExpr.Exec
 0001:0005F278       RegExpr.TRegExpr.Exec
 0001:0005F284       RegExpr.TRegExpr.Exec
 0001:0005F28C       RegExpr.TRegExpr.ExecPos
 0001:0005F294       RegExpr.ClearMatchs
 0001:0005F2BC       RegExpr.RegMatch
 0001:0005F310       RegExpr.TRegExpr.ExecPrim
 0001:0005F4AC       RegExpr.TRegExpr.ExecNext
 0001:0005F4F4       RegExpr.TRegExpr.GetInputString
 0001:0005F528       RegExpr.TRegExpr.SetInputString
 0001:0005F5B0       RegExpr.TRegExpr.SetLineSeparators
 0001:0005F5DC       RegExpr.TRegExpr.SetLinePairedSeparator
 0001:0005F684       RegExpr.TRegExpr.GetLinePairedSeparator
 0001:0005F6F0       RegExpr.ParseVarName
 0001:0005F770       RegExpr.TRegExpr.Substitute
 0001:0005F914       RegExpr.TRegExpr.Split
 0001:0005FA90       RegExpr.TRegExpr.Replace
 0001:0005FC20       RegExpr.TRegExpr.ReplaceEx
 0001:0005FDC0       RegExpr.TRegExpr.Replace
 0001:0005FE24       RegExpr.ReturnAddr
 0001:0005FE28       RegExpr.TRegExpr.Error
 0001:0005FF60       RegExpr.Finalization
 0001:00060174       DbxObjectParser..TObjectNameParser
 0001:00060684       DbxObjectParser.GetDbmsObjectNameTemplateInfo
 0001:000606D4       DbxObjectParser.TObjectNameParser.Create
 0001:00060D54       DbxObjectParser.TObjectNameParser.Destroy
 0001:00060DC8       DbxObjectParser.TObjectNameParser.DecodeObjectFullName
 0001:000614F4       DbxObjectParser.LDoCalculateTemplate
 0001:00061508       DbxObjectParser.TObjectNameParser.EncodeObjectFullName
 0001:00061830       DbxObjectParser.TObjectNameParser.GetQuotedObjectName
 0001:000618C4       DbxObjectParser.Finalization
 0001:00061950       DbxOpenOdbcCallback.GetTraceFlag
 0001:00061954       DbxOpenOdbcCallback.GetTraceFlagName
 0001:00061CE0       DbxOpenOdbcCallback.GetTraceFlagName
 0001:00061CF8       DbxOpenOdbcCallback.GetTraceMessage
 0001:00061D0C       DbxOpenOdbcCallback.DecodeTraceInfo
 0001:00061D88       DbxOpenOdbcCallback.Finalization
 0001:00061DAC       DbxOpenOdbcASA.ASA_MESSAGE_INIT
 0001:00061DC4       DbxOpenOdbcASA.ASA_MESSAGE_CALLBACK
 0001:00061E38       DbxOpenOdbcASA.Finalization
 0001:00061EF0       DbxOpenOdbc3..TSqlDriverOdbc3
 0001:000620DC       DbxOpenOdbc3..TSqlConnectionOdbc3
 0001:000622C4       DbxOpenOdbc3..TSqlCommandOdbc3
 0001:00062580       DbxOpenOdbc3..TSqlCursorOdbc3
 0001:00062720       DbxOpenOdbc3..TSQLMetaDataOdbc3
 0001:000629DC       DbxOpenOdbc3..TSqlCursorMetaDataTables3
 0001:00062CB0       DbxOpenOdbc3..TSqlCursorMetaDataColumns3
 0001:00062F88       DbxOpenOdbc3..TSqlCursorMetaDataIndexes3
 0001:00063260       DbxOpenOdbc3..TSqlCursorMetaDataProcedures3
 0001:0006353C       DbxOpenOdbc3..TSqlCursorMetaDataProcedureParams3
 0001:00063688       DbxOpenOdbc3..TDbxCommandParser
 0001:0006399C       DbxOpenOdbc3..TSqlCursorMetaDataEmpty
 0001:00063A58       DbxOpenOdbc3..TSqlCursorMetaDataTablesDbx34
 0001:00063D14       DbxOpenOdbc3..TSqlCursorMetaDataColumnsDbx34
 0001:00063FD4       DbxOpenOdbc3..TSqlCursorMetaDataIndexesDbx34
 0001:00064294       DbxOpenOdbc3..TSqlCursorMetaDataIndexColumnsDbx34
 0001:00064368       DbxOpenOdbc3.getSQLDriverODBCW
 0001:000644AC       DbxOpenOdbc3.getSQLDriverODBCWA
 0001:000645F0       DbxOpenOdbc3.BeginLock
 0001:000646C4       DbxOpenOdbc3.EndLock
 0001:000646DC       DbxOpenOdbc3.HostAppPlatformInitialize
 0001:000648B8       DbxOpenOdbc3.TSqlDriverOdbc3.Create
 0001:00064930       DbxOpenOdbc3.TSqlDriverOdbc3.getSQLConnection
 0001:00064974       DbxOpenOdbc3.TSqlConnectionOdbc3.Create
 0001:000649AC       DbxOpenOdbc3.TSqlConnectionOdbc3.Destroy
 0001:000649DC       DbxOpenOdbc3.TSqlConnectionOdbc3.connect
 0001:00064A80       DbxOpenOdbc3.TSqlConnectionOdbc3.connect
 0001:00064B4C       DbxOpenOdbc3.TSqlConnectionOdbc3.getErrorMessage
 0001:00064C5C       DbxOpenOdbc3.TSqlConnectionOdbc3.getErrorMessageLen
 0001:00064CE0       DbxOpenOdbc3.TSqlConnectionOdbc3.GetMetaDataReader
 0001:00064D0C       DbxOpenOdbc3.LGetISQLConnection30
 0001:00064D6C       DbxOpenOdbc3.DoSetVendoLib
 0001:00064F6C       DbxOpenOdbc3.DoSetCustomString
 0001:000650AC       DbxOpenOdbc3.TSqlConnectionOdbc3.GetOption
 0001:00065718       DbxOpenOdbc3.TSqlConnectionOdbc3.SetOption
 0001:000657C4       DbxOpenOdbc3.TSqlConnectionOdbc3.getSQLCommand
 0001:00065894       DbxOpenOdbc3.TSqlConnectionOdbc3.getSQLMetaData
 0001:00065964       DbxOpenOdbc3.TSqlCommandOdbc3.prepare
 0001:00065AC8       DbxOpenOdbc3.TSqlCommandOdbc3.execute
 0001:00065B68       DbxOpenOdbc3.TSqlCommandOdbc3.executeImmediate
 0001:00065C90       DbxOpenOdbc3.TSqlCommandOdbc3.getErrorMessage
 0001:00065CA8       DbxOpenOdbc3.TSqlCommandOdbc3.getErrorMessageLen
 0001:00065CC0       DbxOpenOdbc3.TSqlCommandOdbc3.getNextCursor
 0001:00065CD4       DbxOpenOdbc3.TSqlCommandOdbc3.GetOption
 0001:00065E10       DbxOpenOdbc3.TSqlCommandOdbc3.SetOption
 0001:00065EB4       DbxOpenOdbc3.TSqlCursorOdbc3.getErrorMessage
 0001:00065ECC       DbxOpenOdbc3.TSqlCursorOdbc3.getErrorMessageLen
 0001:00065EE4       DbxOpenOdbc3.TSqlCursorOdbc3.getColumnNameLength
 0001:00065F58       DbxOpenOdbc3.TSqlCursorOdbc3.getColumnName
 0001:00065FF0       DbxOpenOdbc3.TSqlCursorOdbc3.getInt64
 0001:0006607C       DbxOpenOdbc3.TSqlCursorOdbc3.getWideString
 0001:000661FC       DbxOpenOdbc3.TSQLMetaDataOdbc3.getErrorMessage
 0001:0006630C       DbxOpenOdbc3.TSQLMetaDataOdbc3.getErrorMessageLen
 0001:00066390       DbxOpenOdbc3.TSQLMetaDataOdbc3.GetOption
 0001:000664CC       DbxOpenOdbc3.TSQLMetaDataOdbc3.SetOption
 0001:00066570       DbxOpenOdbc3.TSQLMetaDataOdbc3.getObjectList
 0001:00066590       DbxOpenOdbc3.TSQLMetaDataOdbc3.getTables
 0001:000665C0       DbxOpenOdbc3.TSQLMetaDataOdbc3.getProcedures
 0001:000666A8       DbxOpenOdbc3.TSQLMetaDataOdbc3.getColumns
 0001:00066774       DbxOpenOdbc3.TSQLMetaDataOdbc3.getIndices
 0001:00066808       DbxOpenOdbc3.TSQLMetaDataOdbc3.getProcedureParams
 0001:000668D0       DbxOpenOdbc3.TSqlCursorMetaDataTables3.getErrorMessage
 0001:000669D4       DbxOpenOdbc3.TSqlCursorMetaDataTables3.getErrorMessageLen
 0001:00066A58       DbxOpenOdbc3.TSqlCursorMetaDataTables3.getColumnName
 0001:00066B34       DbxOpenOdbc3.TSqlCursorMetaDataColumns3.getColumnName
 0001:00066C10       DbxOpenOdbc3.TSqlCursorMetaDataColumns3.getErrorMessage
 0001:00066D14       DbxOpenOdbc3.TSqlCursorMetaDataColumns3.getErrorMessageLen
 0001:00066D98       DbxOpenOdbc3.TSqlCursorMetaDataIndexes3.getColumnName
 0001:00066E74       DbxOpenOdbc3.TSqlCursorMetaDataIndexes3.getErrorMessage
 0001:00066F78       DbxOpenOdbc3.TSqlCursorMetaDataIndexes3.getErrorMessageLen
 0001:00066FFC       DbxOpenOdbc3.TSqlCursorMetaDataProcedures3.getColumnName
 0001:000670D8       DbxOpenOdbc3.TSqlCursorMetaDataProcedures3.getErrorMessage
 0001:000671DC       DbxOpenOdbc3.TSqlCursorMetaDataProcedures3.getErrorMessageLen
 0001:00067260       DbxOpenOdbc3.TSqlCursorMetaDataProcedureParams3.getColumnName
 0001:0006733C       DbxOpenOdbc3.TSqlCursorMetaDataProcedureParams3.getErrorMessage
 0001:00067440       DbxOpenOdbc3.TSqlCursorMetaDataProcedureParams3.getErrorMessageLen
 0001:000674C4       DbxOpenOdbc3.TDbxCommandParser.IsDbxCommand
 0001:00067540       DbxOpenOdbc3.TDbxCommandParser.IsDbxCommand
 0001:00067568       DbxOpenOdbc3.TDbxCommandParser.IsDbxCommand
 0001:0006758C       DbxOpenOdbc3.TDbxCommandParser.IsDbxCommand
 0001:000675D8       DbxOpenOdbc3.TDbxCommandParser.Create
 0001:000679FC       DbxOpenOdbc3.TDbxCommandParser.GetParam
 0001:00067AEC       DbxOpenOdbc3.TSqlCursorMetaDataTablesDbx34.Create
 0001:00067C40       DbxOpenOdbc3.TSqlCursorMetaDataTablesDbx34.GetPhysColumnWideString
 0001:00067DA0       DbxOpenOdbc3.TSqlCursorMetaDataEmpty.Create
 0001:00067E30       DbxOpenOdbc3.TSqlCursorMetaDataEmpty.Create
 0001:00067FC4       DbxOpenOdbc3.TSqlCursorMetaDataEmpty.Create
 0001:00068120       DbxOpenOdbc3.TSqlCursorMetaDataEmpty.getBcd
 0001:00068134       DbxOpenOdbc3.TSqlCursorMetaDataEmpty.getBlob
 0001:00068148       DbxOpenOdbc3.TSqlCursorMetaDataEmpty.getBlobSize
 0001:0006815C       DbxOpenOdbc3.TSqlCursorMetaDataEmpty.getBytes
 0001:00068170       DbxOpenOdbc3.TSqlCursorMetaDataEmpty.getColumnCount
 0001:00068194       DbxOpenOdbc3.TSqlCursorMetaDataEmpty.getColumnNameLength
 0001:00068238       DbxOpenOdbc3.TSqlCursorMetaDataEmpty.getColumnName
 0001:00068330       DbxOpenOdbc3.TSqlCursorMetaDataEmpty.getColumnType
 0001:00068378       DbxOpenOdbc3.TSqlCursorMetaDataEmpty.getDate
 0001:0006838C       DbxOpenOdbc3.TSqlCursorMetaDataEmpty.getDouble
 0001:000683A0       DbxOpenOdbc3.TSqlCursorMetaDataEmpty.getLong
 0001:000683B4       DbxOpenOdbc3.TSqlCursorMetaDataEmpty.getColumnLength
 0001:000683C8       DbxOpenOdbc3.TSqlCursorMetaDataEmpty.getColumnPrecision
 0001:000683DC       DbxOpenOdbc3.TSqlCursorMetaDataEmpty.getColumnScale
 0001:00068454       DbxOpenOdbc3.TSqlCursorMetaDataEmpty.isNullable
 0001:00068468       DbxOpenOdbc3.TSqlCursorMetaDataEmpty.getTime
 0001:0006847C       DbxOpenOdbc3.TSqlCursorMetaDataEmpty.getTimeStamp
 0001:00068490       DbxOpenOdbc3.TSqlCursorMetaDataEmpty.getShort
 0001:000684B0       DbxOpenOdbc3.TSqlCursorMetaDataEmpty.getWideString
 0001:000684DC       DbxOpenOdbc3.TSqlCursorMetaDataColumnsDbx34.Create
 0001:00068780       DbxOpenOdbc3.TSqlCursorMetaDataColumnsDbx34.getLong
 0001:00068844       DbxOpenOdbc3.TSqlCursorMetaDataColumnsDbx34.getShort
 0001:000688C8       DbxOpenOdbc3.TSqlCursorMetaDataIndexesDbx34.Create
 0001:00068AAC       DbxOpenOdbc3.TSqlCursorMetaDataIndexesDbx34.getShort
 0001:00068B6C       DbxOpenOdbc3.TSqlCursorMetaDataIndexColumnsDbx34.Create
 0001:00068D1C       DbxOpenOdbc3.TSqlCursorMetaDataIndexColumnsDbx34.getLong
 0001:00068D8C       DbxOpenOdbc3.TSqlCursorMetaDataIndexColumnsDbx34.getShort
 0001:00068E00       DbxOpenOdbc3.DoRegisterDbXpressLibW
 0001:00068E04       DbxOpenOdbc3.DoRegisterDbXpressLibWA
 0001:00068E08       DbxOpenOdbc3.Finalization
 0001:00068E10       DbxOpenOdbc..EDbxErrorCustom
 0001:00068EBC       DbxOpenOdbc..EDbxOdbcWarning
 0001:00068F68       DbxOpenOdbc..EDbxError
 0001:00069008       DbxOpenOdbc..EDbxOdbcError
 0001:000690B0       DbxOpenOdbc..EDbxNotSupported
 0001:0006915C       DbxOpenOdbc..EDbxInvalidCall
 0001:00069208       DbxOpenOdbc..EDbxInternalError
 0001:000692B8       DbxOpenOdbc..EDbxInvalidParam
 0001:000697E4       DbxOpenOdbc..TDOSQLObject
 0001:00069954       DbxOpenOdbc..TSqlDriverOdbc
 0001:00069D2C       DbxOpenOdbc..TSqlConnectionOdbc
 0001:0006A038       DbxOpenOdbc..TSqlCommandOdbc
 0001:0006A1F8       DbxOpenOdbc..TSQLMetaDataOdbc
 0001:0006A4D4       DbxOpenOdbc..TSqlCursorOdbc
 0001:0006A588       DbxOpenOdbc..TMetaTable
 0001:0006A67C       DbxOpenOdbc..TMetaColumn
 0001:0006A760       DbxOpenOdbc..TMetaIndexColumn
 0001:0006A870       DbxOpenOdbc..TMetaProcedure
 0001:0006A94C       DbxOpenOdbc..TMetaProcedureParam
 0001:0006AC94       DbxOpenOdbc..TSqlCursorMetaData
 0001:0006AF60       DbxOpenOdbc..TSqlCursorMetaDataTables
 0001:0006B1F4       DbxOpenOdbc..TSqlCursorMetaDataColumns
 0001:0006B48C       DbxOpenOdbc..TSqlCursorMetaDataIndexes
 0001:0006B724       DbxOpenOdbc..TSqlCursorMetaDataProcedures
 0001:0006B9C0       DbxOpenOdbc..TSqlCursorMetaDataProcedureParams
 0001:0006BC74       DbxOpenOdbc..TBlobChunkCollection
 0001:0006BD20       DbxOpenOdbc..TOdbcBindCol
 0001:0006BDF8       DbxOpenOdbc..TOdbcBindParam
 0001:0006BE9C       DbxOpenOdbc.EmbeddedErrorTrack
 0001:0006BEE4       DbxOpenOdbc.getSQLDriverODBC
 0001:0006C054       DbxOpenOdbc.getSQLDriverODBCAW
 0001:0006C190       DbxOpenOdbc.IsRestrictedConnectionOptionValue
 0001:0006C21C       DbxOpenOdbc.SetConnectionOption
 0001:0006C640       DbxOpenOdbc.ExtractCatalog
 0001:0006C734       DbxOpenOdbc.OdbcDataTypeToDbxType
 0001:0006C9F8       DbxOpenOdbc.FormatDbxType
 0001:0006D02C       DbxOpenOdbc.FormatDbxSubType
 0001:0006D4D4       DbxOpenOdbc.DoFormatParameter
 0001:0006E4FC       DbxOpenOdbc.FormatParameter
 0001:0006E514       DbxOpenOdbc.FormatParameters
 0001:0006E5FC       DbxOpenOdbc.CheckMaxLines
 0001:0006E624       DbxOpenOdbc.AllocateDbxHStmtNodes
 0001:0006F0B0       DbxOpenOdbc.MakeStringExceptionFromInfo
 0001:0006F3D4       DbxOpenOdbc.GetStringOptions
 0001:0006F544       DbxOpenOdbc.TDOSQLObject.SelfObj
 0001:0006F550       DbxOpenOdbc.TSqlDriverOdbc.Create
 0001:0006F5F4       DbxOpenOdbc.TSqlDriverOdbc.Destroy
 0001:0006F634       DbxOpenOdbc.TSqlDriverOdbc.ClearFields
 0001:0006F664       DbxOpenOdbc.TSqlDriverOdbc.AssignFields
 0001:0006F688       DbxOpenOdbc.TSqlDriverOdbc.OdbcCheck
 0001:0006F984       DbxOpenOdbc.GetConnection
 0001:0006F9E4       DbxOpenOdbc.IsConnection
 0001:0006F9F8       DbxOpenOdbc.ClearNewErrors
 0001:0006FAC0       DbxOpenOdbc.LDoMakeResult
 0001:0006FB50       DbxOpenOdbc.SQLGetDiagRecLevel2
 0001:0006FBF0       DbxOpenOdbc.TSqlDriverOdbc.RetrieveOdbcErrorInfo
 0001:000712BC       DbxOpenOdbc.TSqlDriverOdbc.AllocHCon
 0001:0007132C       DbxOpenOdbc.TSqlDriverOdbc.FreeHCon
 0001:000713BC       DbxOpenOdbc.TSqlDriverOdbc.AllocHEnv
 0001:0007157C       DbxOpenOdbc.TSqlDriverOdbc.FreeHEnv
 0001:00071640       DbxOpenOdbc.TSqlDriverOdbc.GetOption
 0001:000717A0       DbxOpenOdbc.TSqlDriverOdbc.getSQLConnection
 0001:00071820       DbxOpenOdbc.TSqlDriverOdbc.SetOption
 0001:00071954       DbxOpenOdbc.TSqlDriverOdbc.Drivers
 0001:00071B5C       DbxOpenOdbc.TSqlDriverOdbc.GetOdbcDrivers
 0001:00071C20       DbxOpenOdbc.TSqlConnectionOdbc.Create
 0001:00071CB0       DbxOpenOdbc.TSqlConnectionOdbc.Destroy
 0001:00071CE4       DbxOpenOdbc.TSqlConnectionOdbc.DoDestroy
 0001:00071DD0       DbxOpenOdbc.TSqlConnectionOdbc.SetVendorLib
 0001:00072074       DbxOpenOdbc.TSqlConnectionOdbc.SynchronizeInTransaction
 0001:000722FC       DbxOpenOdbc.TSqlConnectionOdbc.CloneOdbcConnection
 0001:000727C4       DbxOpenOdbc.TSqlConnectionOdbc.SetCurrentDbxConStmt
 0001:000727E8       DbxOpenOdbc.TSqlConnectionOdbc.SetLoginTimeout
 0001:00072888       DbxOpenOdbc.TSqlConnectionOdbc.SetNetworkTimeout
 0001:00072928       DbxOpenOdbc.TSqlConnectionOdbc.GetDefaultConnectionOptions
 0001:00072940       DbxOpenOdbc.TSqlConnectionOdbc.GetUnquotedNameLen
 0001:000729E0       DbxOpenOdbc.TSqlConnectionOdbc.GetUnquotedName
 0001:00072AEC       DbxOpenOdbc.TSqlConnectionOdbc.GetUnquotedName
 0001:00072BF8       DbxOpenOdbc.TSqlConnectionOdbc.ObjectIsStoredProc
 0001:00072D20       DbxOpenOdbc.TSqlConnectionOdbc.CreateRegExpObjectNameParser
 0001:00072D80       DbxOpenOdbc.TSqlConnectionOdbc.ReleaseRegExpObjectNameParser
 0001:00072DAC       DbxOpenOdbc.LDoClearResult
 0001:00072DD4       DbxOpenOdbc.TSqlConnectionOdbc.DecodeObjectFullName
 0001:00072FB0       DbxOpenOdbc.TSqlConnectionOdbc.EncodeObjectFullName
 0001:00073164       DbxOpenOdbc.TSqlConnectionOdbc.GetQuotedObjectName
 0001:000731FC       DbxOpenOdbc.TSqlConnectionOdbc.DbxCallBackSendMsg
 0001:00073424       DbxOpenOdbc.TSqlConnectionOdbc.DbxCallBackSendMsgFmt
 0001:000734A4       DbxOpenOdbc.IsFreeDbxConStmt
 0001:000735E4       DbxOpenOdbc.TSqlConnectionOdbc.FindFreeConnection
 0001:000736B8       DbxOpenOdbc.TSqlConnectionOdbc.AllocHStmt
 0001:00073928       DbxOpenOdbc.DoRelaseDbxConStmt
 0001:00073C70       DbxOpenOdbc.TSqlConnectionOdbc.FreeHStmt
 0001:00073E58       DbxOpenOdbc.TSqlConnectionOdbc.GetCurrentDbxConStmt
 0001:00073F18       DbxOpenOdbc.TSqlConnectionOdbc.GetCurrentDbxConStmt
 0001:00073F38       DbxOpenOdbc.TSqlConnectionOdbc.GetCurrentConnectionHandle
 0001:00073F50       DbxOpenOdbc.TSqlConnectionOdbc.OdbcCheck
 0001:00073F9C       DbxOpenOdbc.TSqlConnectionOdbc.GetCatalog
 0001:000740B4       DbxOpenOdbc.TSqlConnectionOdbc.GetCurrentCatalog
 0001:00074124       DbxOpenOdbc.TSqlConnectionOdbc.beginTransaction
 0001:000747EC       DbxOpenOdbc.CompactNullConn
 0001:00074858       DbxOpenOdbc.TSqlConnectionOdbc.commit
 0001:00074B28       DbxOpenOdbc.CompactNullConn
 0001:00074B94       DbxOpenOdbc.TSqlConnectionOdbc.rollback
 0001:00074E6C       DbxOpenOdbc.TSqlConnectionOdbc.ClearConnectionOptions
 0001:00074F9C       DbxOpenOdbc.TSqlConnectionOdbc.CheckHCon
 0001:00074FB0       DbxOpenOdbc.HidePassword
 0001:000750BC       DbxOpenOdbc.MergeAndSetConnOptions
 0001:00075198       DbxOpenOdbc.ParseConnectionOptions
 0001:0007527C       DbxOpenOdbc.TSqlConnectionOdbc.connect
 0001:00077CA8       DbxOpenOdbc.TSqlConnectionOdbc.RetrieveDbmsOptions
 0001:00077F84       DbxOpenOdbc.VersionStringToNumeric
 0001:00078120       DbxOpenOdbc.TSqlConnectionOdbc.RetrieveDriverName
 0001:0007A5B0       DbxOpenOdbc.TSqlConnectionOdbc.disconnect
 0001:0007AD18       DbxOpenOdbc.TSqlConnectionOdbc.getErrorMessage
 0001:0007ADA0       DbxOpenOdbc.TSqlConnectionOdbc.getErrorMessageLen
 0001:0007ADF8       DbxOpenOdbc.TSqlConnectionOdbc.CheckTransactionSupport
 0001:0007AF60       DbxOpenOdbc.TSqlConnectionOdbc.CheckDbmsTransactionSupport
 0001:0007AF78       DbxOpenOdbc.TSqlConnectionOdbc.GetMetaDataOption
 0001:0007C520       DbxOpenOdbc.GetConnectionCustomOptions
 0001:0007C7E8       DbxOpenOdbc.GetDatabaseNameOption
 0001:0007C9D8       DbxOpenOdbc.LGetISQLConnection2x
 0001:0007CA3C       DbxOpenOdbc.GetVendorProperty
 0001:0007D118       DbxOpenOdbc.GetTransactionTypeName
 0001:0007D208       DbxOpenOdbc.TSqlConnectionOdbc.GetOption
 0001:0007F100       DbxOpenOdbc.TSqlConnectionOdbc.getSQLCommand
 0001:0007F22C       DbxOpenOdbc.TSqlConnectionOdbc.getSQLMetaData
 0001:0007F35C       DbxOpenOdbc.GetValueAsAnsiStr
 0001:0007F3D4       DbxOpenOdbc.SetConnectionCustomOptions
 0001:0007FA38       DbxOpenOdbc.TSqlConnectionOdbc.SetOption
 0001:00081EB8       DbxOpenOdbc.TSqlConnectionOdbc.TransactionCheck
 0001:00082064       DbxOpenOdbc.TSqlConnectionOdbc.GetDbmsType
 0001:00082074       DbxOpenOdbc.TSqlConnectionOdbc.GetOdbcDriverType
 0001:00082088       DbxOpenOdbc.TSqlConnectionOdbc.GetOdbcConnectStrings
 0001:00082188       DbxOpenOdbc.TSqlConnectionOdbc.GetLastOdbcSqlState
 0001:00082198       DbxOpenOdbc.TSqlConnectionOdbc.GetDbmsName
 0001:000821B0       DbxOpenOdbc.TSqlConnectionOdbc.GetDbmsVersionMajor
 0001:000821C0       DbxOpenOdbc.TSqlConnectionOdbc.GetDbmsVersionMinor
 0001:000821D0       DbxOpenOdbc.TSqlConnectionOdbc.GetDbmsVersionRelease
 0001:000821E0       DbxOpenOdbc.TSqlConnectionOdbc.GetDbmsVersionBuild
 0001:000821F0       DbxOpenOdbc.TSqlConnectionOdbc.GetDbmsVersionString
 0001:00082208       DbxOpenOdbc.TSqlConnectionOdbc.GetOdbcDriverName
 0001:00082224       DbxOpenOdbc.TSqlConnectionOdbc.GetOdbcDriverVersionMajor
 0001:00082234       DbxOpenOdbc.TSqlConnectionOdbc.GetOdbcDriverVersionMinor
 0001:00082244       DbxOpenOdbc.TSqlConnectionOdbc.GetOdbcDriverVersionRelease
 0001:00082254       DbxOpenOdbc.TSqlConnectionOdbc.GetOdbcDriverVersionBuild
 0001:00082264       DbxOpenOdbc.TSqlConnectionOdbc.GetOdbcDriverVersionString
 0001:00082280       DbxOpenOdbc.TSqlConnectionOdbc.GetOdbcConnectString
 0001:00082298       DbxOpenOdbc.TSqlConnectionOdbc.GetCursorPreserved
 0001:000822AC       DbxOpenOdbc.TSqlConnectionOdbc.GetIsSystemODBCManager
 0001:000822C0       DbxOpenOdbc.TSqlConnectionOdbc.GetOdbcDriverLevel
 0001:000822D0       DbxOpenOdbc.TSqlConnectionOdbc.GetSupportsSqlPrimaryKeys
 0001:000822E4       DbxOpenOdbc.TSqlConnectionOdbc.GetStatementsPerConnection
 0001:000822F4       DbxOpenOdbc.TSqlConnectionOdbc.GetEnvironmentHandle
 0001:00082304       DbxOpenOdbc.TSqlConnectionOdbc.GetConnectionHandle
 0001:00082314       DbxOpenOdbc.TSqlConnectionOdbc.GetOdbcApiIntf
 0001:00082330       DbxOpenOdbc.TSqlConnectionOdbc.GetDecimalSeparator
 0001:00082344       DbxOpenOdbc.TSqlCommandOdbc.Create
 0001:000823D8       DbxOpenOdbc.TSqlCommandOdbc.DoAllocateStmt
 0001:0008254C       DbxOpenOdbc.TSqlCommandOdbc.CloseStmt
 0001:000826F4       DbxOpenOdbc.TSqlCommandOdbc.ClearParams
 0001:0008273C       DbxOpenOdbc.TSqlCommandOdbc.Destroy
 0001:00082768       DbxOpenOdbc.TSqlCommandOdbc.AddError
 0001:0008278C       DbxOpenOdbc.TSqlCommandOdbc.OdbcCheck
 0001:000827B4       DbxOpenOdbc.TSqlCommandOdbc.close
 0001:000827EC       DbxOpenOdbc.TSqlCommandOdbc.BuildStoredProcSQL
 0001:00082A44       DbxOpenOdbc.TSqlCommandOdbc.DoSQLMoreResults
 0001:00082B48       DbxOpenOdbc.DoReBindParams
 0001:00082CB0       DbxOpenOdbc.DoPrepareNow
 0001:00082D64       DbxOpenOdbc.TSqlCommandOdbc.DoExecute
 0001:000834C4       DbxOpenOdbc.TSqlCommandOdbc.execute
 0001:0008355C       DbxOpenOdbc.TSqlCommandOdbc.DoUnprepareStmt
 0001:0008358C       DbxOpenOdbc.DoFetchTables
 0001:000839B0       DbxOpenOdbc.DoFetchColumns
 0001:00083B50       DbxOpenOdbc.DoFetchIndexes
 0001:00083CFC       DbxOpenOdbc.DoFetchIndexColumns
 0001:00083EF0       DbxOpenOdbc.DoMetadataQueryExecute
 0001:00084038       DbxOpenOdbc.DoMetadataQuery
 0001:00084118       DbxOpenOdbc.TSqlCommandOdbc.DoExecuteImmediate
 0001:00084990       DbxOpenOdbc.TSqlCommandOdbc.ExecuteImmediate
 0001:00084A54       DbxOpenOdbc.TSqlCommandOdbc.Cancel
 0001:00084AB0       DbxOpenOdbc.TSqlCommandOdbc.GetConnectionHandle
 0001:00084AC4       DbxOpenOdbc.TSqlCommandOdbc.SetLockTimeout
 0001:00084B60       DbxOpenOdbc.TSqlCommandOdbc.GetLockTimeout
 0001:00084BCC       DbxOpenOdbc.TSqlCommandOdbc.getErrorMessage
 0001:00084C58       DbxOpenOdbc.TSqlCommandOdbc.getErrorMessageLen
 0001:00084CB4       DbxOpenOdbc.TSqlCommandOdbc.getNextCursor
 0001:00084EF4       DbxOpenOdbc.TSqlCommandOdbc.GetOption
 0001:00085C80       DbxOpenOdbc.TSqlCommandOdbc.getParameter
 0001:000862F0       DbxOpenOdbc.TSqlCommandOdbc.getRowsAffected
 0001:00086308       DbxOpenOdbc.TSqlCommandOdbc.DoAllocateParams
 0001:00086394       DbxOpenOdbc.TSqlCommandOdbc.DoExpandParams
 0001:000863F4       DbxOpenOdbc.TSqlCommandOdbc.DoPrepare
 0001:00086828       DbxOpenOdbc.TSqlCommandOdbc.prepare
 0001:00086914       DbxOpenOdbc.MakeStoredProcParams
 0001:00086988       DbxOpenOdbc.TSqlCommandOdbc.SetOption
 0001:0008777C       DbxOpenOdbc.ProcessVarDataLength
 0001:0008780C       DbxOpenOdbc.SetVarData
 0001:000878C4       DbxOpenOdbc.WideCharToUtf8
 0001:00087928       DbxOpenOdbc.LDo_PostgreSQL_Make_Buffer
 0001:000879E0       DbxOpenOdbc.TSqlCommandOdbc.setParameter
 0001:00088F78       DbxOpenOdbc.TSQLMetaDataOdbc.Create
 0001:00088FD4       DbxOpenOdbc.TSQLMetaDataOdbc.Destroy
 0001:00089000       DbxOpenOdbc.TSQLMetaDataOdbc.getColumns
 0001:00089144       DbxOpenOdbc.TSQLMetaDataOdbc.getErrorMessage
 0001:000891D4       DbxOpenOdbc.TSQLMetaDataOdbc.getErrorMessageLen
 0001:0008922C       DbxOpenOdbc.TSQLMetaDataOdbc.getIndices
 0001:00089378       DbxOpenOdbc.TSQLMetaDataOdbc.getObjectList
 0001:00089398       DbxOpenOdbc.TSQLMetaDataOdbc.GetOption
 0001:00089508       DbxOpenOdbc.TSQLMetaDataOdbc.getProcedureParams
 0001:00089648       DbxOpenOdbc.TSQLMetaDataOdbc.getProcedures
 0001:0008976C       DbxOpenOdbc.TSQLMetaDataOdbc.DoGetTables
 0001:00089888       DbxOpenOdbc.TSQLMetaDataOdbc.getTables
 0001:000898B8       DbxOpenOdbc.TSQLMetaDataOdbc.SetOption
 0001:0008A4A4       DbxOpenOdbc.TSqlCursorOdbc.Create
 0001:0008A550       DbxOpenOdbc.TSqlCursorOdbc.ClearCursor
 0001:0008A5BC       DbxOpenOdbc.TSqlCursorOdbc.Destroy
 0001:0008A71C       DbxOpenOdbc.TSqlCursorOdbc.OdbcCheck
 0001:0008A748       DbxOpenOdbc.OdbcSqlTypeToStr
 0001:0008B1E8       DbxOpenOdbc.OdbcSqlCTypeToStr
 0001:0008BAB8       DbxOpenOdbc.CheckAutoIncSubType
 0001:0008BB84       DbxOpenOdbc.TSqlCursorOdbc.BindResultSet
 0001:0008E2F0       DbxOpenOdbc.TSqlCursorOdbc.DoFetchLateBoundData
 0001:0008E408       DbxOpenOdbc.TSqlCursorOdbc.FetchLateBoundData
 0001:0008E56C       DbxOpenOdbc.TSqlCursorOdbc.CheckFetchCacheColumns
 0001:0008E76C       DbxOpenOdbc.TSqlCursorOdbc.AddError
 0001:0008E778       DbxOpenOdbc.OptimizeNextChunkSize
 0001:0008E844       DbxOpenOdbc.CalculateBlobFixSize
 0001:0008E8A8       DbxOpenOdbc.TSqlCursorOdbc.DoFetchLongData
 0001:0008F0A4       DbxOpenOdbc.TSqlCursorOdbc.FetchLongData
 0001:0008F108       DbxOpenOdbc.TSqlCursorOdbc.getBcd
 0001:0008F2FC       DbxOpenOdbc.TSqlCursorOdbc.getBlob
 0001:0008F5B8       DbxOpenOdbc.TSqlCursorOdbc.getBlobSize
 0001:0008F7F0       DbxOpenOdbc.TSqlCursorOdbc.getBytes
 0001:0008FA00       DbxOpenOdbc.TSqlCursorOdbc.getColumnCount
 0001:0008FA18       DbxOpenOdbc.TSqlCursorOdbc.getColumnLength
 0001:0008FEF4       DbxOpenOdbc.TSqlCursorOdbc.getColumnName
 0001:0008FF20       DbxOpenOdbc.TSqlCursorOdbc.getColumnNameLength
 0001:0008FF58       DbxOpenOdbc.TSqlCursorOdbc.getColumnPrecision
 0001:00090064       DbxOpenOdbc.TSqlCursorOdbc.getColumnScale
 0001:000900F4       DbxOpenOdbc.TSqlCursorOdbc.getColumnType
 0001:00090148       DbxOpenOdbc.TSqlCursorOdbc.getDate
 0001:00090370       DbxOpenOdbc.TSqlCursorOdbc.getDouble
 0001:00090558       DbxOpenOdbc.TSqlCursorOdbc.getErrorMessage
 0001:000905F4       DbxOpenOdbc.TSqlCursorOdbc.getErrorMessageLen
 0001:00090654       DbxOpenOdbc.TSqlCursorOdbc.getLong
 0001:00090834       DbxOpenOdbc.TSqlCursorOdbc.GetOption
 0001:00090840       DbxOpenOdbc.TSqlCursorOdbc.getShort
 0001:00090A3C       DbxOpenOdbc.TSqlCursorOdbc.getString
 0001:00090E10       DbxOpenOdbc.TSqlCursorOdbc.getTime
 0001:0009100C       DbxOpenOdbc.TSqlCursorOdbc.getTimeStamp
 0001:00091248       DbxOpenOdbc.TSqlCursorOdbc.isAutoIncrement
 0001:00091388       DbxOpenOdbc.TSqlCursorOdbc.isBlobSizeExact
 0001:000913B8       DbxOpenOdbc.TSqlCursorOdbc.isNullable
 0001:000913E8       DbxOpenOdbc.TSqlCursorOdbc.isReadOnly
 0001:0009144C       DbxOpenOdbc.TSqlCursorOdbc.isSearchable
 0001:00091550       DbxOpenOdbc.TSqlCursorOdbc.next
 0001:00091E28       DbxOpenOdbc.TSqlCursorOdbc.SetOption
 0001:00091EF4       DbxOpenOdbc.TSqlCursorMetaData.Create
 0001:00091F6C       DbxOpenOdbc.TSqlCursorMetaData.Destroy
 0001:00091F98       DbxOpenOdbc.TSqlCursorMetaData.ClearMetaData
 0001:00091FC4       DbxOpenOdbc.TSqlCursorMetaData.GetPhysColumnNumber
 0001:0009202C       DbxOpenOdbc.TSqlCursorMetaData.IsPhysColumnStringType
 0001:00092050       DbxOpenOdbc.TSqlCursorMetaData.IsPhysColumnWideStringType
 0001:0009206C       DbxOpenOdbc.TSqlCursorMetaData.GetPhysColumnAnsiString
 0001:00092070       DbxOpenOdbc.TSqlCursorMetaData.GetPhysColumnWideString
 0001:00092078       DbxOpenOdbc.TSqlCursorMetaData.DbgColumnName
 0001:0009210C       DbxOpenOdbc.TSqlCursorMetaData.DbgPhysColumnName
 0001:0009212C       DbxOpenOdbc.TSqlCursorMetaData.remap
 0001:000921A8       DbxOpenOdbc.TSqlCursorMetaData.ParseTableNameBase
 0001:00092318       DbxOpenOdbc.TSqlCursorMetaData.ParseTableName
 0001:000924C4       DbxOpenOdbc.TSqlCursorMetaData.DescribeAllocBindString
 0001:0009264C       DbxOpenOdbc.TSqlCursorMetaData.DescribeAllocBindWString
 0001:000927EC       DbxOpenOdbc.TSqlCursorMetaData.BindSmallint
 0001:00092B7C       DbxOpenOdbc.TSqlCursorMetaData.BindInteger
 0001:00092EF0       DbxOpenOdbc.TSqlCursorMetaData.getBcd
 0001:00092F1C       DbxOpenOdbc.TSqlCursorMetaData.getBlob
 0001:00092F30       DbxOpenOdbc.TSqlCursorMetaData.getBlobSize
 0001:00092F4C       DbxOpenOdbc.TSqlCursorMetaData.getBytes
 0001:00092F74       DbxOpenOdbc.TSqlCursorMetaData.getColumnCount
 0001:00092F9C       DbxOpenOdbc.TSqlCursorMetaData.getColumnLength
 0001:00093080       DbxOpenOdbc.TSqlCursorMetaData.getColumnName
 0001:00093138       DbxOpenOdbc.TSqlCursorMetaData.getColumnNameLength
 0001:000931E0       DbxOpenOdbc.TSqlCursorMetaData.getColumnPrecision
 0001:000932D8       DbxOpenOdbc.TSqlCursorMetaData.getColumnScale
 0001:000933B8       DbxOpenOdbc.TSqlCursorMetaData.getColumnType
 0001:0009346C       DbxOpenOdbc.TSqlCursorMetaData.getDate
 0001:00093494       DbxOpenOdbc.TSqlCursorMetaData.getDouble
 0001:000934C0       DbxOpenOdbc.TSqlCursorMetaData.getErrorMessage
 0001:00093550       DbxOpenOdbc.TSqlCursorMetaData.getErrorMessageLen
 0001:000935A8       DbxOpenOdbc.TSqlCursorMetaData.getLong
 0001:000935D0       DbxOpenOdbc.TSqlCursorMetaData.GetOption
 0001:000935DC       DbxOpenOdbc.TSqlCursorMetaData.getShort
 0001:00093604       DbxOpenOdbc.TSqlCursorMetaData.getString
 0001:000936DC       DbxOpenOdbc.TSqlCursorMetaData.getWideString
 0001:000937C4       DbxOpenOdbc.TSqlCursorMetaData.getInt64
 0001:000937F4       DbxOpenOdbc.TSqlCursorMetaData.getTime
 0001:0009381C       DbxOpenOdbc.TSqlCursorMetaData.getTimeStamp
 0001:00093850       DbxOpenOdbc.TSqlCursorMetaData.isAutoIncrement
 0001:00093860       DbxOpenOdbc.TSqlCursorMetaData.isBlobSizeExact
 0001:00093870       DbxOpenOdbc.TSqlCursorMetaData.isNullable
 0001:00093880       DbxOpenOdbc.TSqlCursorMetaData.isReadOnly
 0001:00093894       DbxOpenOdbc.TSqlCursorMetaData.isSearchable
 0001:000938A4       DbxOpenOdbc.TSqlCursorMetaData.next
 0001:000938C8       DbxOpenOdbc.TSqlCursorMetaData.SetOption
 0001:000939B4       DbxOpenOdbc.TSqlCursorMetaData.OdbcCheck
 0001:00093B44       DbxOpenOdbc.TOdbcBindCol.Create
 0001:00093B80       DbxOpenOdbc.TOdbcBindCol.Destroy
 0001:00093BD4       DbxOpenOdbc.TOdbcBindParam.Create
 0001:00093C10       DbxOpenOdbc.TOdbcBindParam.Destroy
 0001:00093C48       DbxOpenOdbc.TMetaTable.Create
 0001:00093FD8       DbxOpenOdbc.TMetaTable.CreateW
 0001:00094398       DbxOpenOdbc.TMetaTable.Destroy
 0001:000943C4       DbxOpenOdbc.TMetaColumn.Create
 0001:000945E4       DbxOpenOdbc.TMetaColumn.CreateW
 0001:0009478C       DbxOpenOdbc.TMetaColumn.Destroy
 0001:000947B0       DbxOpenOdbc.TMetaIndexColumn.Create
 0001:00094B70       DbxOpenOdbc.TMetaIndexColumn.CreateW
 0001:00094F18       DbxOpenOdbc.TMetaIndexColumn.Destroy
 0001:00094F3C       DbxOpenOdbc.TMetaProcedure.Create
 0001:000951A8       DbxOpenOdbc.TMetaProcedure.CreateW
 0001:000953FC       DbxOpenOdbc.TMetaProcedure.Destroy
 0001:00095420       DbxOpenOdbc.TMetaProcedureParam.Create
 0001:00095540       DbxOpenOdbc.TMetaProcedureParam.CreateW
 0001:00095654       DbxOpenOdbc.TMetaProcedureParam.Destroy
 0001:00095678       DbxOpenOdbc.TSqlCursorMetaDataTables.Create
 0001:00095884       DbxOpenOdbc.TSqlCursorMetaDataTables.Destroy
 0001:000958B0       DbxOpenOdbc.TSqlCursorMetaDataTables.Clear
 0001:000958F0       DbxOpenOdbc.DirectoryExistsW
 0001:00095920       DbxOpenOdbc.RemoveFileExt
 0001:00095984       DbxOpenOdbc.GetFileExt
 0001:000959E8       DbxOpenOdbc.fix_odbc_read_table_list_w_from_folder
 0001:00095D74       DbxOpenOdbc.MakeTableTypeString
 0001:00095F30       DbxOpenOdbc.TSqlCursorMetaDataTables.FetchTables
 0001:000970A4       DbxOpenOdbc.TSqlCursorMetaDataTables.getLong
 0001:00097294       DbxOpenOdbc.TSqlCursorMetaDataTables.GetPhysColumnAnsiString
 0001:000973A4       DbxOpenOdbc.TSqlCursorMetaDataTables.GetPhysColumnWideString
 0001:000974C8       DbxOpenOdbc.TSqlCursorMetaDataTables.getColumnLength
 0001:000975E8       DbxOpenOdbc.TSqlCursorMetaDataTables.next
 0001:00097620       DbxOpenOdbc.TSqlCursorMetaDataColumns.Create
 0001:00097A90       DbxOpenOdbc.TSqlCursorMetaDataColumns.Destroy
 0001:00097ABC       DbxOpenOdbc.TSqlCursorMetaDataColumns.Clear
 0001:00097B38       DbxOpenOdbc.TSqlCursorMetaDataColumns.FetchColumns
 0001:00098E20       DbxOpenOdbc.TSqlCursorMetaDataColumns.getLong
 0001:00098FE0       DbxOpenOdbc.TSqlCursorMetaDataColumns.getShort
 0001:000991C0       DbxOpenOdbc.TSqlCursorMetaDataColumns.GetPhysColumnAnsiString
 0001:000992F4       DbxOpenOdbc.TSqlCursorMetaDataColumns.GetPhysColumnWideString
 0001:00099428       DbxOpenOdbc.TSqlCursorMetaDataColumns.next
 0001:0009946C       DbxOpenOdbc.TSqlCursorMetaDataIndexes.Create
 0001:000997A8       DbxOpenOdbc.TSqlCursorMetaDataIndexes.Destroy
 0001:000997D4       DbxOpenOdbc.TSqlCursorMetaDataIndexes.Clear
 0001:00099850       DbxOpenOdbc.SyncPKSortOrder
 0001:00099918       DbxOpenOdbc.IsFilteredIndex
 0001:00099948       DbxOpenOdbc.CacheTableIndex
 0001:00099A64       DbxOpenOdbc.CheckTableIndexColumn
 0001:00099A78       DbxOpenOdbc.TSqlCursorMetaDataIndexes.FetchIndexes
 0001:0009C604       DbxOpenOdbc.TSqlCursorMetaDataIndexes.GetPhysColumnAnsiString
 0001:0009C918       DbxOpenOdbc.TSqlCursorMetaDataIndexes.GetPhysColumnWideString
 0001:0009CC2C       DbxOpenOdbc.TSqlCursorMetaDataIndexes.getLong
 0001:0009CDC8       DbxOpenOdbc.TSqlCursorMetaDataIndexes.getShort
 0001:0009CF90       DbxOpenOdbc.TSqlCursorMetaDataIndexes.next
 0001:0009CFC8       DbxOpenOdbc.TSqlCursorMetaDataProcedures.Create
 0001:0009D204       DbxOpenOdbc.TSqlCursorMetaDataProcedures.Destroy
 0001:0009D264       DbxOpenOdbc.TSqlCursorMetaDataProcedures.FetchProcedures
 0001:0009D920       DbxOpenOdbc.TSqlCursorMetaDataProcedures.getLong
 0001:0009DA48       DbxOpenOdbc.TSqlCursorMetaDataProcedures.getShort
 0001:0009DB6C       DbxOpenOdbc.TSqlCursorMetaDataProcedures.GetPhysColumnAnsiString
 0001:0009DC14       DbxOpenOdbc.TSqlCursorMetaDataProcedures.GetPhysColumnWideString
 0001:0009DCB8       DbxOpenOdbc.TSqlCursorMetaDataProcedures.next
 0001:0009DCF0       DbxOpenOdbc.TSqlCursorMetaDataProcedureParams.Create
 0001:0009E0C4       DbxOpenOdbc.TSqlCursorMetaDataProcedureParams.Destroy
 0001:0009E15C       DbxOpenOdbc.RetrieveProcedureSchemaForSysNaming
 0001:0009E294       DbxOpenOdbc.TSqlCursorMetaDataProcedureParams.FetchProcedureParams
 0001:0009FD68       DbxOpenOdbc.TSqlCursorMetaDataProcedureParams.getLong
 0001:0009FEBC       DbxOpenOdbc.TSqlCursorMetaDataProcedureParams.getShort
 0001:000A0098       DbxOpenOdbc.TSqlCursorMetaDataProcedureParams.GetPhysColumnAnsiString
 0001:000A0190       DbxOpenOdbc.TSqlCursorMetaDataProcedureParams.GetPhysColumnWideString
 0001:000A0284       DbxOpenOdbc.TSqlCursorMetaDataProcedureParams.next
 0001:000A02BC       DbxOpenOdbc.TBlobChunkCollection.AddFragment
 0001:000A02FC       DbxOpenOdbc.TBlobChunkCollection.Clear
 0001:000A0338       DbxOpenOdbc.TBlobChunkCollection.Destroy
 0001:000A0364       DbxOpenOdbc.TBlobChunkCollection.GetSize
 0001:000A0388       DbxOpenOdbc.TBlobChunkCollection.Read
 0001:000A03C0       DbxOpenOdbc.TBlobChunkCollection.ReadBlobToVariant
 0001:000A0408       DbxOpenOdbc.TBlobChunkCollection.ReadBlobToStream
 0001:000A04C8       DbxOpenOdbc.DoRegisterDbXpressLibA
 0001:000A04CC       DbxOpenOdbc.DoRegisterDbXpressLibAW
 0001:000A04D0       DbxOpenOdbc.DoInitialzeUnit
 0001:000A0C24       DbxOpenOdbc.Finalization
 0001:000A0CD8       DbxOpenOdbcStatic.IsStatic
 0001:000A0CE4       DbxOpenOdbcStatic.NewLoadLibraryA
 0001:000A0DA8       DbxOpenOdbcStatic.NewLoadLibraryW
 0001:000A0E6C       DbxOpenOdbcStatic.NewFreeLibrary
 0001:000A0E94       DbxOpenOdbcStatic.LDoGetProcAddress
 0001:000A110C       DbxOpenOdbcStatic.NewGetProcAddress
 0001:000A114C       DbxOpenOdbcStatic.UnHookIAT_LoadLibrary
 0001:000A11C4       DbxOpenOdbcStatic.HookIAT_LoadLibrary
 0001:000A1480       DbxOpenOdbcStatic.Finalization
 0001:000A1FAC       .dbxoodbc_emb.@GetPackageInfoTable
 0001:000A1FB4       .dbxoodbc_emb.@PackageLoad
 0001:000A1FC0       .dbxoodbc_emb.@PackageUnload
 0002:00000000       System.System
 0002:00000008       SysInit.SysInit
 0002:00000010       Winapi.Windows.Winapi.Windows
 0002:00000028       System.Internal.ExcUtils.System.Internal.ExcUtils
 0002:00000030       System.SysUtils.TLanguages.Create@
 0002:00000038       System.SysUtils.TEncoding.Create@
 0002:00000040       System.SysUtils.Exception.Create@
 0002:00000048       System.SysUtils.TOSVersion.Create@
 0002:00000050       System.SysUtils.System.SysUtils
 0002:00000058       System.VarUtils.System.VarUtils
 0002:00000060       System.Variants.System.Variants
 0002:00000068       System.TypInfo.System.TypInfo
 0002:00000070       System.Classes.TObserverMapping.Create@
 0002:00000078       System.Classes.TBinaryWriter.Create@
 0002:00000080       System.Classes.TThread.Create@
 0002:00000088       System.Classes.TLoginCredentialService.Create@
 0002:00000090       System.Classes.System.Classes
 0002:00000098       Data.DBXClassRegistry.Data.DBXClassRegistry
 0002:000000A0       System.Math.System.Math
 0002:000000A8       System.TimeSpan.TTimeSpan.Create@
 0002:000000B0       System.SyncObjs.System.SyncObjs
 0002:000000B8       System.DateUtils.TTimeZone.Create@
 0002:000000C0       Data.SqlTimSt.Data.SqlTimSt
 0002:000000C8       Data.FmtBcd.Data.FmtBcd
 0002:000000D0       Data.DB.Data.DB
 0002:000000D8       System.IOUtils.TPath.Create@
 0002:000000E0       System.IOUtils.System.IOUtils
 0002:000000E8       System.IniFiles.System.IniFiles
 0002:000000F0       System.Win.ComObj.TComServerObject.Create@
 0002:000000F8       System.Win.ComObj.System.Win.ComObj
 0002:00000100       Datasnap.DSIntf.Datasnap.DSIntf
 0002:00000108       Datasnap.DBClient.Datasnap.DBClient
 0002:00000110       Datasnap.Provider.Datasnap.Provider
 0002:00000118       System.Win.Registry.TRegistry.Create@
 0002:00000120       System.Win.Registry.System.Win.Registry
 0002:00000128       Data.DBXCommon.Data.DBXCommon
 0002:00000130       Data.DBXDynalink.Data.DBXDynalink
 0002:00000138       Dbx34DrvDbms.Dbx34DrvDbms
 0002:000001BC       Dbx34Drv.Dbx34Drv
 0002:00000264       DbxXXDrv.DbxXXDrv
 0002:0000026C       DbxOpenOdbcApiHook.DbxOpenOdbcApiHook
 0002:00000274       DbxDBFix.DbxDBFix
 0002:0000027C       DbxOpenOdbcTypes.DbxOpenOdbcTypes
 0002:00000284       DbxOpenOdbcFuncs.DbxOpenOdbcFuncs
 0002:0000028C       OdbcApi.OdbcApi
 0002:000002AC       DbxOpenOdbcDbx3Types.DbxOpenOdbcDbx3Types
 0002:000002B4       DbxOpenOdbcInterface.DbxOpenOdbcInterface
 0002:000002BC       DbxOpenOdbcTrace.DbxOpenOdbcTrace
 0002:000002C4       DbxOpenOdbcUtils.DbxOpenOdbcUtils
 0002:000002CC       RegExpr.RegExpr
 0002:000002D4       DbxObjectParser.DbxObjectParser
 0002:000002DC       DbxOpenOdbcCallback.DbxOpenOdbcCallback
 0002:000002E4       DbxOpenOdbcASA.DbxOpenOdbcASA
 0002:00000304       DbxOpenOdbc3.DbxOpenOdbc3
 0002:00000348       DbxOpenOdbc.DbxOpenOdbc
 0002:00000358       DbxOpenOdbcStatic.DbxOpenOdbcStatic
 0002:0000043C       .dbxoodbc_emb..dbxoodbc_emb
 0003:00000000       SysInit.TlsIndex
 0003:00000004       SysInit.PtrToNil
 0003:00000008       SysInit.Module
 0003:00000024       SysInit.TlsProc
 0003:00000034       SysInit...
 0003:00000088       Winapi.Windows.Win32MajorVersion
 0003:0000008C       Winapi.Windows.Win32MinorVersion
 0003:00000090       Winapi.Windows.Win32Platform
 0003:00000094       Dbx34Drv.bIsDbx34Drv
 0003:00000098       DbxOpenOdbcApiHook.Opcodes1
 0003:00000298       DbxOpenOdbcApiHook.Opcodes2
 0003:00000498       DbxOpenOdbcApiHook.Opcodes3
 0003:000005D8       DbxOpenOdbcFuncs.cNullAnsiCharBuf
 0003:000005DA       DbxOpenOdbcFuncs.cNullWideCharBuf
 0003:000005DC       OdbcApi.sysodbclib
 0003:000005E0       OdbcApi.cLibsSeparator
 0003:000005E1       OdbcApi.cSqlAttrOdbcVerSeparator
 0003:000005E4       DbxOpenOdbcDbx3Types.FldTypeMap
 0003:00000618       DbxOpenOdbcDbx3Types.FldSubTypeMap
 0003:00000680       DbxOpenOdbcDbx3Types.DataTypeMap
 0003:0000069B       DbxOpenOdbcDbx3Types.BlobTypeMap
 0003:000006AC       DbxOpenOdbcInterface.cConnectionOptionsNames
 0003:00000744       DbxOpenOdbcInterface.cConnectionOptionsTypes
 0003:0000076C       DbxOpenOdbcInterface.cConnectionOptionsDescs
 0003:00000804       DbxOpenOdbcInterface.cOptionSwitchesNames
 0003:00000810       DbxOpenOdbcInterface.cXSQLDriverOptionStringTypes
 0003:00000811       DbxOpenOdbcInterface.cXSQLConnectionOptionStringTypes
 0003:00000817       DbxOpenOdbcInterface.cXSQLCommandOptionStringTypes
 0003:0000081B       DbxOpenOdbcInterface.cXSQLMetaDataOptionStringTypes
 0003:00000820       DbxOpenOdbcTrace.cSQLDriverOption
 0003:00000838       DbxOpenOdbcTrace.cSQLConnectionOption
 0003:000008E4       DbxOpenOdbcTrace.cSQLMetaDataOption
 0003:0000092C       DbxOpenOdbcTrace.cSQLCommandOption
 0003:00000978       DbxOpenOdbcTrace.cSTMTParamType
 0003:0000098C       DbxOpenOdbcTrace.cSQLCursorOption
 0003:00000998       DbxOpenOdbcTrace.cOdbcDriverType
 0003:00000A0C       DbxOpenOdbcTrace.cDbmsType
 0003:00000A84       DbxOpenOdbcTrace.cBoolean
 0003:00000A8C       DbxOpenOdbcTrace.cBoolean
 0003:00000A94       RegExpr.RegExprModifierI
 0003:00000A95       RegExpr.RegExprModifierR
 0003:00000A96       RegExpr.RegExprModifierS
 0003:00000A97       RegExpr.RegExprModifierG
 0003:00000A98       RegExpr.RegExprModifierM
 0003:00000A99       RegExpr.RegExprModifierX
 0003:00000A9C       RegExpr.RegExprSpaceChars
 0003:00000AA0       RegExpr.RegExprWordChars
 0003:00000AA4       RegExpr.RegExprLineSeparators
 0003:00000AA8       RegExpr.RegExprLinePairedSeparator
 0003:00000AB0       RegExpr.RegExprInvertCaseFunction
 0003:00000AB8       RegExpr.TRegExprVersionMajor
 0003:00000ABC       RegExpr.TRegExprVersionMinor
 0003:00000AC0       RegExpr.RegExprMetaSet
 0003:00000AC4       RegExpr.META
 0003:00000AD4       DbxObjectParser.DefaultMathesIndexes
 0003:00000AFC       DbxObjectParser.DefaultObjectNameTemplateInfo
 0003:00000B30       DbxObjectParser.SQLServerMathesIndexes
 0003:00000B64       DbxObjectParser.SQLServerObjectNameTemplateInfo
 0003:00000B98       DbxObjectParser.OracleMathesIndexes
 0003:00000BB4       DbxObjectParser.OracleObjectNameTemplateInfo
 0003:00000BE8       DbxObjectParser.InformixMathesIndexes
 0003:00000C04       DbxObjectParser.InformixObjectNameTemplateInfo
 0003:00000C38       DbxObjectParser.TextMathesIndexes
 0003:00000C50       DbxObjectParser.TextObjectNameTemplateInfo
 0003:00000C84       DbxObjectParser.DbmsObjectNameTemplateInfo
 0003:00000CFC       DbxObjectParser.cRegExprSpesialSymbols
 0003:00000D00       DbxOpenOdbcASA.AsaCallbackMessage
 0003:00000D04       DbxOpenOdbcASA.aWindow
 0003:00000D08       DbxOpenOdbc3.gClientVersionOverload
 0003:00000D0C       DbxOpenOdbc.cConnectionOptionsDefault
 0003:00000D32       DbxOpenOdbc.cConnectionOptionsRestrictions
 0003:00000D58       DbxOpenOdbc.gHostPlatform
 0003:00000D5C       DbxOpenOdbc.cBindMapDateTimeOdbc2
 0003:00000D68       DbxOpenOdbc.cBindMapDateTimeOdbc3
 0003:00000D74       DbxOpenOdbc.cDecimalSeparatorDefault
 0003:00000D75       DbxOpenOdbc.IsDriverEmbedded
 0003:00000D78       DbxOpenOdbc.MaxCount
 0003:00000D7C       DbxOpenOdbc.cGetOptionExceptionInfos
 0003:00000E94       DbxOpenOdbc.cDbxDriverVersionString
 0003:00000E98       DbxOpenOdbc.cDbxProductVersionString
 0003:00000E9C       DbxOpenOdbc.cBoolOptionSwitches
 0003:00000EA0       DbxOpenOdbcStatic.IATPatch
 0003:00000EA4       DbxOpenOdbcStatic.DllHandle
 0004:FFF5B000       SysInit.__ImageBase
 0004:00000000       SysInit.ModuleIsLib
 0004:00000001       SysInit.ModuleIsPackage
 0004:00000004       SysInit.HInstance
 0004:0000000C       SysInit.@_pfnDliNotifyHook2
 0004:00000010       SysInit.@_pfnDliFailureHook2
 0004:00000014       SysInit..1
 0004:00000018       SysInit.tlsBuffer
 0004:0000001C       Winapi.Windows..2
 0004:00000020       Winapi.Windows.HtmlHelpModule
 0004:00000024       Dbx34DrvDbms..52
 0004:00000028       Dbx34Drv..71
 0004:0000002C       DbxXXDrv..1
 0004:00000030       DbxOpenOdbcApiHook..2
 0004:00000034       DbxDBFix..1
 0004:00000038       DbxOpenOdbcTypes..1
 0004:0000003C       DbxOpenOdbcFuncs..1
 0004:00000040       OdbcApi..5
 0004:00000044       OdbcApi.fOdbcApiCache
 0004:00000048       DbxOpenOdbcDbx3Types..1
 0004:0000004C       DbxOpenOdbcInterface..1
 0004:00000050       DbxOpenOdbcInterface._RegisterDbXpressLibs
 0004:00000060       DbxOpenOdbcTrace..9
 0004:00000064       DbxOpenOdbcUtils..1
 0004:00000068       RegExpr..3
 0004:0000006C       DbxObjectParser..2
 0004:00000070       DbxOpenOdbcCallback..1
 0004:00000074       DbxOpenOdbcASA.WM_ASACALLBACK
 0004:00000076       DbxOpenOdbcASA.WM_ASACALLBACK_SUPPORTED
 0004:00000078       DbxOpenOdbcASA..1
 0004:0000007C       DbxOpenOdbc3.cConnectionOptionsDefault3
 0004:000000A4       DbxOpenOdbc3..71
 0004:000000A8       DbxOpenOdbc..13
 0004:000000AC       DbxOpenOdbcStatic..1
 0004:000000B0       DbxOpenOdbcStatic._LoadLibraryA
 0004:000000B4       DbxOpenOdbcStatic._LoadLibraryW
 0004:000000B8       DbxOpenOdbcStatic._FreeLibrary
 0004:000000BC       DbxOpenOdbcStatic._GetProcAddress
 0005:00000000       DbxOpenOdbcTrace.bExceptionFlag
 0005:00000004       SysInit.TlsLast


Line numbers for SysInit(SysInit.pas) segment .text

   313 0001:000004A0   314 0001:000004A3   315 0001:000004A6   316 0001:000004A9
   317 0001:000004AC   332 0001:000004B0   359 0001:000004B8   362 0001:000004C0
   365 0001:000004C8   368 0001:000004D0   371 0001:000004D8   374 0001:000004E0
   389 0001:000004E8   404 0001:000004F0   406 0001:000004F8   407 0001:00000500
   485 0001:00000508   486 0001:00000510   597 0001:00000514   598 0001:00000519
   605 0001:0000051C   610 0001:0000051D   611 0001:00000524   615 0001:00000528
   616 0001:0000053B   617 0001:00000542   618 0001:00000546   620 0001:00000552
   621 0001:0000055E   626 0001:00000560   628 0001:00000569   629 0001:00000573
   630 0001:00000578   631 0001:00000588   637 0001:0000058C   639 0001:00000595
   640 0001:0000059E   641 0001:000005A9   642 0001:000005AD   643 0001:000005B3
   646 0001:000005C0   650 0001:000005C4   652 0001:000005CD   653 0001:000005D2
   654 0001:000005DB   655 0001:000005E6   702 0001:000005E8   703 0001:000005EE
   704 0001:000005F3   705 0001:000005F5   706 0001:000005F7   707 0001:000005FE
   708 0001:00000601   711 0001:00000602   712 0001:00000607   713 0001:0000060C
   714 0001:0000060D   715 0001:00000612   716 0001:00000614   717 0001:00000616
   720 0001:00000617   721 0001:0000061C   724 0001:0000061D   725 0001:0000061E
   726 0001:00000623   727 0001:00000625   728 0001:00000627   767 0001:00000628
   768 0001:00000632   779 0001:00000634   780 0001:0000063E   781 0001:0000064F
   782 0001:00000655   857 0001:00000658   858 0001:00000663   859 0001:0000066A
   860 0001:00000671   861 0001:00000676   862 0001:0000067E   863 0001:00000686
   864 0001:0000068B   865 0001:00000694   866 0001:0000069D   867 0001:000006A2
   868 0001:000006A9   869 0001:000006AD   870 0001:000006B2   871 0001:000006B5
   903 0001:000006BC   904 0001:000006C6   908 0001:000006C8   909 0001:000006D2

Line numbers for SysInit(C:\Builds\TP\runtime\rtl\sys\delayhlp.cpp) segment .text

   223 0001:000006D4   231 0001:000006DA   223 0001:000006DF   231 0001:000006E2
   223 0001:000006E5   231 0001:000006E8   242 0001:00000747   231 0001:0000074A
   242 0001:0000074D   253 0001:0000076A   254 0001:00000770   256 0001:0000077F
   262 0001:00000791   265 0001:00000798   271 0001:0000079B   265 0001:000007A3
   271 0001:000007A5   272 0001:000007B0   274 0001:000007B3   276 0001:000007BB
   278 0001:000007C8   279 0001:000007CC   280 0001:000007DB   282 0001:000007DD
   288 0001:000007E8   290 0001:000007EA   291 0001:000007F3   293 0001:00000801
   294 0001:00000805   300 0001:0000080A   301 0001:00000812   302 0001:0000081B
   304 0001:00000829   305 0001:0000082D   307 0001:00000838   308 0001:0000083C
   309 0001:00000844   314 0001:0000084D   317 0001:0000085B   318 0001:0000085F
   320 0001:0000086D   331 0001:0000087F   339 0001:00000887   340 0001:00000891
   342 0001:00000895   345 0001:0000089B   347 0001:000008C6   349 0001:000008C8
   356 0001:000008CE   357 0001:000008D1   358 0001:000008DA   360 0001:000008E8
   361 0001:000008EC   364 0001:000008F8   366 0001:000008FD   373 0001:0000091C
   374 0001:00000925   375 0001:00000929   380 0001:0000092B   383 0001:00000937
   384 0001:0000093B   385 0001:00000943   389 0001:0000094C   391 0001:0000095A
   392 0001:0000095E   394 0001:0000096C   405 0001:0000097E   410 0001:00000981
   413 0001:00000986   414 0001:0000098F   415 0001:00000994   416 0001:00000997
   417 0001:0000099A   419 0001:000009A6   420 0001:000009A8   424 0001:000009B4
   426 0001:000009BA   424 0001:000009BC   426 0001:000009C2   429 0001:000009C5
   431 0001:000009D7   432 0001:000009E5   433 0001:000009F4   439 0001:000009FE
   440 0001:00000A00   439 0001:00000A02   440 0001:00000A05   443 0001:00000A29
   444 0001:00000A36   445 0001:00000A39   446 0001:00000A46   448 0001:00000A4E
   452 0001:00000A7F   453 0001:00000A88   455 0001:00000A8F   457 0001:00000AA2
   460 0001:00000AA9   461 0001:00000AAD   464 0001:00000AB8   465 0001:00000ABB
   469 0001:00000AC4   471 0001:00000AC9   469 0001:00000ACE   471 0001:00000ACF
   469 0001:00000AD5   470 0001:00000AD6   475 0001:00000ADD   478 0001:00000AEA
   490 0001:00000AFB   491 0001:00000B04   492 0001:00000B0D   495 0001:00000B2D
   500 0001:00000B2F   484 0001:00000B32   503 0001:00000B39   508 0001:00000B3F
   509 0001:00000B4B   510 0001:00000B52   512 0001:00000B59   513 0001:00000B5D
   512 0001:00000B64   518 0001:00000B6B   521 0001:00000B70   522 0001:00000B73
   536 0001:00000B7C   537 0001:00000B83    96 0001:00000B84    97 0001:00000B87
    98 0001:00000B8F    96 0001:00000B94    97 0001:00000B97    98 0001:00000B9F
    96 0001:00000BA4    97 0001:00000BA7    98 0001:00000BAF    96 0001:00000BB4
    97 0001:00000BB7    98 0001:00000BBF    96 0001:00000BC4    97 0001:00000BC7
    98 0001:00000BCF    34 0001:00000BD4    35 0001:00000BDA    37 0001:00000BDC
    41 0001:00000BE3    42 0001:00000BE6    45 0001:00000BE8    46 0001:00000BF5
    47 0001:00000BF9    51 0001:00000C00    52 0001:00000C01    50 0001:00000C02
    55 0001:00000C0B    56 0001:00000C13   110 0001:00000C18   111 0001:00000C1B
   112 0001:00000C1D   114 0001:00000C22   115 0001:00000C25   113 0001:00000C26
   117 0001:00000C2B   118 0001:00000C2D    59 0001:00000C30    61 0001:00000C3E
    67 0001:00000C42    68 0001:00000C46    69 0001:00000C47    66 0001:00000C48
    72 0001:00000C51    73 0001:00000C53   144 0001:00000C58   145 0001:00000C5E
   148 0001:00000C65   147 0001:00000C67   150 0001:00000C71   151 0001:00000C75
   153 0001:00000C79    96 0001:00000C7C    97 0001:00000C7F    98 0001:00000C87

Line numbers for SysInit(SysInit.pas) segment .text

  1333 0001:00000C9C  1335 0001:00000CA9

Line numbers for SysInit(SysInit.pas) segment .itext

  1331 0002:00000008  1332 0002:0000000F

Line numbers for Winapi.Windows(Winapi.Windows.pas) segment .text

 33962 0001:00000CC4 34027 0001:00000CCC 34030 0001:00000CD4 34031 0001:00000CD7
 34032 0001:00000CEF 34075 0001:00000CF4 34096 0001:00000CFC 34155 0001:00000D04
 34168 0001:00000D0C 34172 0001:00000D14 34183 0001:00000D1C 34195 0001:00000D24
 34268 0001:00000D2C 34269 0001:00000D34 34271 0001:00000D3C 34296 0001:00000D44
 34298 0001:00000D4C 34303 0001:00000D54 34322 0001:00000D5C 34335 0001:00000D64
 34362 0001:00000D6C 34364 0001:00000D74 34365 0001:00000D8F 34366 0001:00000D96
 34368 0001:00000DA1 34369 0001:00000DC1 34424 0001:00000DE8 34427 0001:00000DF0
 34451 0001:00000DF8 34452 0001:00000E00 34511 0001:00000E08 34517 0001:00000E10
 34537 0001:00000E18 34540 0001:00000E20 34587 0001:00000E28 34608 0001:00000E30
 34609 0001:00000E38 34610 0001:00000E40 34746 0001:00000E48 34841 0001:00000E50
 34843 0001:00000E58 34857 0001:00000E60 34866 0001:00000E68 35558 0001:00000E70
 35575 0001:00000E78 35580 0001:00000E80 35760 0001:00000E88 36074 0001:00000E90
 36125 0001:00000E98 36150 0001:00000EA0 36498 0001:00000EA8 36499 0001:00000EAE
 37208 0001:00000EB0 37209 0001:00000EB6 37210 0001:00000EBD 37213 0001:00000EC7
 37214 0001:00000ED0 37215 0001:00000ED9 37217 0001:00000EE2 37374 0001:00000EEC
 37375 0001:00000F08

Line numbers for Winapi.Windows(Winapi.Windows.pas) segment .itext

 37370 0002:00000010 37371 0002:00000019 37372 0002:0000001E 37373 0002:00000025

Line numbers for Winapi.PsAPI(Winapi.PsAPI.pas) segment .text

   437 0001:00000000

Line numbers for Winapi.Messages(Winapi.Messages.pas) segment .text

  2161 0001:00000000

Line numbers for Dbx34DrvDbms(Dbx34DrvDbms.pas) segment .text

   563 0001:00003DE4   564 0001:00003DE9   569 0001:00003DEC   570 0001:00003DEF
   571 0001:00003DFB   574 0001:00003E1C   575 0001:00003E1F   579 0001:00003E2B
   582 0001:00003EF8   583 0001:00003EFB   590 0001:00003F07   593 0001:0000444C
   594 0001:0000444F   599 0001:0000445B   602 0001:0000476C   603 0001:0000476F
   609 0001:0000477B   612 0001:00004B68   613 0001:00004B6B   619 0001:00004B77
   624 0001:00005030   625 0001:00005046   626 0001:0000505E   627 0001:0000506B
   628 0001:0000507B   629 0001:0000508B   630 0001:0000509B   631 0001:000050AB
   632 0001:000050BB   633 0001:000050CB   634 0001:000050DB   635 0001:000050EB
   636 0001:000050FB   637 0001:0000510B   638 0001:0000511B   639 0001:0000512B
   640 0001:0000513B   641 0001:0000514B   642 0001:0000515B   643 0001:0000516B
   644 0001:0000517B   645 0001:0000518B   646 0001:0000519B   647 0001:000051AB
   648 0001:000051BB   649 0001:000051CB   650 0001:000051DB   651 0001:000051EB
   652 0001:000051FB   653 0001:0000520B   654 0001:0000521B   655 0001:0000522B
   656 0001:0000523B   657 0001:0000524B   658 0001:0000525B   659 0001:0000526D
   660 0001:0000527F   661 0001:00005291   662 0001:000052A3   663 0001:000052B5
   664 0001:000052C7   665 0001:000052D9   666 0001:000052EB   667 0001:000052FD
   668 0001:0000530F   669 0001:00005321   670 0001:00005333   671 0001:00005345
   672 0001:00005357   673 0001:00005369   674 0001:0000537B   675 0001:0000538D
   676 0001:0000539F   677 0001:000053B1   678 0001:000053C3   679 0001:000053D5
   680 0001:000053E7   681 0001:000053F9   682 0001:0000540B   683 0001:0000541D
   684 0001:0000542F   685 0001:00005441   686 0001:00005453   687 0001:00005465
   688 0001:00005477   689 0001:00005489   690 0001:0000549B   691 0001:000054AD
   692 0001:000054BF   693 0001:000054D1   694 0001:000054E3   695 0001:000054F5
   696 0001:00005507   697 0001:00005519   698 0001:0000552B   699 0001:0000553D
   700 0001:0000554F   701 0001:00005561   702 0001:00005573   703 0001:00005585
   704 0001:00005597   705 0001:000055A9   706 0001:000055BB   707 0001:000055CB
   717 0001:00005DE8   718 0001:00005DEE   719 0001:00005DF9   720 0001:00005E22
   721 0001:00005E2E   722 0001:00005E57   723 0001:00005E63   724 0001:00005E8C
   725 0001:00005E98   730 0001:00005F1C   731 0001:00005F32   732 0001:00005F4A
   733 0001:00005F7B   734 0001:00005FAD   735 0001:00005FEE   736 0001:00006020
   737 0001:0000605B   738 0001:00006093   739 0001:000060C8   740 0001:000060FD
   741 0001:0000613B   742 0001:00006179   743 0001:000061AE   744 0001:000061E3
   745 0001:00006224   746 0001:00006259   747 0001:00006291   748 0001:000062D2
   749 0001:00006313   750 0001:00006351   751 0001:0000638F   752 0001:000063CD
   753 0001:0000640E   754 0001:00006446   755 0001:00006456   765 0001:00006C3C
   766 0001:00006C41   771 0001:00006C44   772 0001:00006C47   773 0001:00006C53
   778 0001:00006C90   779 0001:00006CA9   780 0001:00006CB3   781 0001:00006CC2
   787 0001:00006CD0   792 0001:00006CDC   797 0001:000075A8   798 0001:000075C1
   799 0001:000075CB   800 0001:000075DA   805 0001:000075E8   809 0001:000075F4
   814 0001:00008358   815 0001:00008371   816 0001:0000837B   817 0001:0000838A
   823 0001:00008398   828 0001:000083A4   833 0001:00008E80   834 0001:00008E99
   835 0001:00008EA3   836 0001:00008EB2   842 0001:00008EC0   847 0001:00008ECC
   852 0001:000098FC   853 0001:00009912   854 0001:0000992D   855 0001:0000993A
   856 0001:0000994A   857 0001:0000995A   858 0001:0000996A   859 0001:0000997A
   860 0001:0000998A   861 0001:0000999A   862 0001:000099AA   863 0001:000099BA
   864 0001:000099CA   865 0001:000099DA   866 0001:000099EA   867 0001:000099FA
   868 0001:00009A0A   869 0001:00009A1A   870 0001:00009A2A   871 0001:00009A3A
   872 0001:00009A4A   873 0001:00009A5A   874 0001:00009A6A   875 0001:00009A7A
   876 0001:00009A8A   877 0001:00009A9A   878 0001:00009AAA   879 0001:00009ABA
   880 0001:00009ACA   881 0001:00009ADA   882 0001:00009AEA   883 0001:00009AFA
   884 0001:00009B0A   885 0001:00009B1A   886 0001:00009B2A   887 0001:00009B3C
   888 0001:00009B4E   889 0001:00009B60   890 0001:00009B72   891 0001:00009B84
   892 0001:00009B96   893 0001:00009BA8   894 0001:00009BBA   895 0001:00009BCC
   896 0001:00009BDE   897 0001:00009BF0   898 0001:00009C02   899 0001:00009C14
   900 0001:00009C26   901 0001:00009C38   902 0001:00009C4A   903 0001:00009C5C
   904 0001:00009C6E   905 0001:00009C80   906 0001:00009C92   907 0001:00009CA4
   908 0001:00009CB6   909 0001:00009CC8   910 0001:00009CDA   911 0001:00009CEC
   912 0001:00009CFE   913 0001:00009D10   914 0001:00009D22   915 0001:00009D34
   916 0001:00009D46   917 0001:00009D58   918 0001:00009D6A   919 0001:00009D7C
   920 0001:00009D8E   921 0001:00009DA0   922 0001:00009DB2   923 0001:00009DC4
   924 0001:00009DD6   925 0001:00009DE8   926 0001:00009DFA   927 0001:00009E0C
   928 0001:00009E1E   929 0001:00009E30   930 0001:00009E42   931 0001:00009E54
   932 0001:00009E66   933 0001:00009E78   934 0001:00009E8A   935 0001:00009E9C
   936 0001:00009EAE   937 0001:00009EC0   938 0001:00009ED2   939 0001:00009EE4
   940 0001:00009EF6   941 0001:00009F08   942 0001:00009F1A   943 0001:00009F2C
   944 0001:00009F3E   945 0001:00009F50   946 0001:00009F62   947 0001:00009F74
   948 0001:00009F86   949 0001:00009F98   950 0001:00009FAA   951 0001:00009FBC
   952 0001:00009FCE   953 0001:00009FE0   954 0001:00009FF2   955 0001:0000A004
   956 0001:0000A016   957 0001:0000A028   958 0001:0000A03A   959 0001:0000A04C
   960 0001:0000A05E   961 0001:0000A070   962 0001:0000A082   963 0001:0000A094
   964 0001:0000A0A6   965 0001:0000A0B8   966 0001:0000A0CA   967 0001:0000A0DC
   968 0001:0000A0EE   969 0001:0000A100   970 0001:0000A112   971 0001:0000A124
   972 0001:0000A136   973 0001:0000A148   974 0001:0000A15A   975 0001:0000A16C
   976 0001:0000A17E   977 0001:0000A190   978 0001:0000A1A2   979 0001:0000A1B4
   980 0001:0000A1C6   981 0001:0000A1D8   982 0001:0000A1EA   983 0001:0000A1FC
   984 0001:0000A20E   985 0001:0000A220   986 0001:0000A232   987 0001:0000A244
   988 0001:0000A256   989 0001:0000A268   990 0001:0000A27A   991 0001:0000A28C
   992 0001:0000A29E   993 0001:0000A2B0   994 0001:0000A2C2   995 0001:0000A2D4
   996 0001:0000A2E6   997 0001:0000A2F8   998 0001:0000A30A   999 0001:0000A31C
  1000 0001:0000A32E  1001 0001:0000A340  1002 0001:0000A352  1003 0001:0000A364
  1004 0001:0000A376  1005 0001:0000A388  1006 0001:0000A39A  1007 0001:0000A3AC
  1008 0001:0000A3BE  1009 0001:0000A3D0  1010 0001:0000A3E2  1011 0001:0000A3F4
  1012 0001:0000A406  1013 0001:0000A418  1014 0001:0000A42A  1015 0001:0000A43C
  1016 0001:0000A44E  1017 0001:0000A460  1018 0001:0000A472  1019 0001:0000A484
  1020 0001:0000A496  1021 0001:0000A4A8  1022 0001:0000A4BA  1023 0001:0000A4CC
  1024 0001:0000A4DE  1025 0001:0000A4F0  1026 0001:0000A502  1027 0001:0000A514
  1028 0001:0000A526  1029 0001:0000A538  1030 0001:0000A54A  1031 0001:0000A55C
  1032 0001:0000A56E  1033 0001:0000A580  1034 0001:0000A592  1035 0001:0000A5A4
  1036 0001:0000A5B6  1037 0001:0000A5C8  1038 0001:0000A5DA  1039 0001:0000A5EC
  1040 0001:0000A5FE  1041 0001:0000A610  1042 0001:0000A622  1043 0001:0000A634
  1044 0001:0000A646  1045 0001:0000A658  1046 0001:0000A66A  1047 0001:0000A67C
  1048 0001:0000A68E  1049 0001:0000A6A0  1050 0001:0000A6B2  1051 0001:0000A6C4
  1052 0001:0000A6D6  1053 0001:0000A6E8  1054 0001:0000A6FA  1055 0001:0000A70C
  1056 0001:0000A71E  1057 0001:0000A730  1058 0001:0000A742  1059 0001:0000A754
  1060 0001:0000A766  1061 0001:0000A778  1062 0001:0000A78A  1063 0001:0000A79C
  1064 0001:0000A7AE  1065 0001:0000A7C0  1066 0001:0000A7D2  1067 0001:0000A7E4
  1068 0001:0000A7F6  1069 0001:0000A808  1070 0001:0000A81A  1071 0001:0000A82C
  1072 0001:0000A83E  1073 0001:0000A850  1074 0001:0000A862  1075 0001:0000A874
  1076 0001:0000A886  1077 0001:0000A898  1078 0001:0000A8AA  1079 0001:0000A8BC
  1080 0001:0000A8CE  1081 0001:0000A8E0  1082 0001:0000A8F2  1083 0001:0000A904
  1084 0001:0000A916  1085 0001:0000A928  1086 0001:0000A93A  1087 0001:0000A94C
  1088 0001:0000A95E  1089 0001:0000A970  1090 0001:0000A982  1091 0001:0000A994
  1092 0001:0000A9A6  1093 0001:0000A9B8  1094 0001:0000A9CA  1095 0001:0000A9DC
  1096 0001:0000A9EE  1097 0001:0000AA00  1098 0001:0000AA12  1099 0001:0000AA24
  1100 0001:0000AA36  1101 0001:0000AA48  1102 0001:0000AA5A  1103 0001:0000AA6C
  1104 0001:0000AA7E  1105 0001:0000AA90  1106 0001:0000AAA2  1107 0001:0000AAB4
  1108 0001:0000AAC6  1109 0001:0000AAD8  1110 0001:0000AAEA  1111 0001:0000AAFC
  1112 0001:0000AB0E  1113 0001:0000AB20  1114 0001:0000AB32  1115 0001:0000AB44
  1116 0001:0000AB56  1117 0001:0000AB68  1118 0001:0000AB7A  1119 0001:0000AB8C
  1120 0001:0000AB9E  1121 0001:0000ABB0  1122 0001:0000ABC2  1123 0001:0000ABD4
  1124 0001:0000ABE6  1125 0001:0000ABF8  1126 0001:0000AC0A  1127 0001:0000AC1C
  1128 0001:0000AC2E  1129 0001:0000AC40  1130 0001:0000AC52  1131 0001:0000AC64
  1132 0001:0000AC76  1133 0001:0000AC88  1134 0001:0000AC9A  1135 0001:0000ACAC
  1136 0001:0000ACBE  1137 0001:0000ACD0  1138 0001:0000ACE2  1139 0001:0000ACF4
  1140 0001:0000AD06  1141 0001:0000AD18  1142 0001:0000AD2A  1143 0001:0000AD3C
  1144 0001:0000AD4E  1145 0001:0000AD60  1146 0001:0000AD72  1147 0001:0000AD84
  1148 0001:0000AD96  1149 0001:0000ADA8  1150 0001:0000ADBA  1151 0001:0000ADCC
  1152 0001:0000ADDE  1153 0001:0000ADF0  1154 0001:0000AE02  1155 0001:0000AE14
  1156 0001:0000AE26  1157 0001:0000AE38  1158 0001:0000AE4A  1159 0001:0000AE5C
  1160 0001:0000AE6E  1161 0001:0000AE80  1162 0001:0000AE92  1163 0001:0000AEA4
  1164 0001:0000AEB6  1165 0001:0000AEC8  1166 0001:0000AEDA  1167 0001:0000AEEC
  1168 0001:0000AEFE  1169 0001:0000AF10  1170 0001:0000AF22  1171 0001:0000AF34
  1172 0001:0000AF46  1173 0001:0000AF58  1174 0001:0000AF6A  1175 0001:0000AF7C
  1176 0001:0000AF8E  1177 0001:0000AFA0  1178 0001:0000AFB2  1179 0001:0000AFC4
  1180 0001:0000AFD6  1181 0001:0000AFE8  1182 0001:0000AFFA  1183 0001:0000B00C
  1184 0001:0000B01E  1185 0001:0000B030  1186 0001:0000B042  1187 0001:0000B054
  1188 0001:0000B066  1189 0001:0000B078  1190 0001:0000B08A  1191 0001:0000B09C
  1192 0001:0000B0AE  1193 0001:0000B0C0  1194 0001:0000B0D2  1195 0001:0000B0E4
  1196 0001:0000B0F6  1197 0001:0000B108  1198 0001:0000B11A  1199 0001:0000B12C
  1200 0001:0000B13E  1201 0001:0000B150  1202 0001:0000B162  1203 0001:0000B174
  1204 0001:0000B186  1205 0001:0000B198  1206 0001:0000B1AA  1207 0001:0000B1BC
  1208 0001:0000B1CE  1209 0001:0000B1E0  1210 0001:0000B1F2  1211 0001:0000B204
  1212 0001:0000B216  1213 0001:0000B228  1214 0001:0000B23A  1215 0001:0000B24C
  1216 0001:0000B25E  1217 0001:0000B270  1218 0001:0000B282  1219 0001:0000B294
  1220 0001:0000B2A6  1221 0001:0000B2B8  1222 0001:0000B2CA  1223 0001:0000B2DC
  1224 0001:0000B2EE  1225 0001:0000B300  1226 0001:0000B312  1227 0001:0000B324
  1228 0001:0000B336  1229 0001:0000B348  1230 0001:0000B35A  1231 0001:0000B36C
  1232 0001:0000B37E  1233 0001:0000B390  1234 0001:0000B3A2  1235 0001:0000B3B4
  1236 0001:0000B3C6  1237 0001:0000B3D8  1238 0001:0000B3EA  1239 0001:0000B3FC
  1240 0001:0000B40E  1241 0001:0000B420  1242 0001:0000B432  1243 0001:0000B444
  1244 0001:0000B456  1245 0001:0000B468  1246 0001:0000B47A  1247 0001:0000B48C
  1248 0001:0000B49C  1256 0001:0000DFB8  1257 0001:0000DFBB  1258 0001:0000DFC7
  1261 0001:0000DFDC  1262 0001:0000DFDF  1263 0001:0000DFEB  1266 0001:0000E000
  1267 0001:0000E006  1268 0001:0000E00C  1270 0001:0000E01B  1271 0001:0000E024
  1274 0001:0000E038  1275 0001:0000E03E  1276 0001:0000E044  1278 0001:0000E053
  1279 0001:0000E05C  1282 0001:0000E070  1283 0001:0000E076  1284 0001:0000E07C
  1286 0001:0000E08B  1287 0001:0000E094  1290 0001:0000E0A8  1291 0001:0000E0AE
  1292 0001:0000E0B4  1294 0001:0000E0C3  1295 0001:0000E0CC  1298 0001:0000E0E0
  1299 0001:0000E0E6  1300 0001:0000E0EC  1302 0001:0000E0FB  1303 0001:0000E104
  1308 0001:0000E11C  1309 0001:0000E132  1310 0001:0000E14A  1311 0001:0000E17E
  1312 0001:0000E1B3  1313 0001:0000E1E8  1314 0001:0000E220  1315 0001:0000E255
  1316 0001:0000E28A  1317 0001:0000E2BF  1318 0001:0000E2F4  1319 0001:0000E329
  1320 0001:0000E361  1321 0001:0000E39F  1322 0001:0000E3D7  1323 0001:0000E415
  1324 0001:0000E453  1325 0001:0000E48B  1326 0001:0000E4C3  1327 0001:0000E4FE
  1328 0001:0000E539  1329 0001:0000E56E  1330 0001:0000E5A6  1331 0001:0000E5EA
  1332 0001:0000E62E  1333 0001:0000E672  1334 0001:0000E6B6  1335 0001:0000E6FA
  1336 0001:0000E73E  1337 0001:0000E782  1338 0001:0000E7C6  1339 0001:0000E807
  1340 0001:0000E848  1341 0001:0000E883  1342 0001:0000E8C1  1343 0001:0000E902
  1344 0001:0000E943  1345 0001:0000E984  1346 0001:0000E9C5  1347 0001:0000EA06
  1348 0001:0000EA47  1349 0001:0000EA57  1359 0001:0000F0CC  1360 0001:0000F0D1
  1365 0001:0000F0D4  1366 0001:0000F0D7  1367 0001:0000F0E3  1372 0001:0000F100
  1373 0001:0000F119  1374 0001:0000F123  1375 0001:0000F132  1381 0001:0000F140
  1382 0001:0000F147  1387 0001:0000F4A8  1388 0001:0000F4C1  1389 0001:0000F4CB
  1390 0001:0000F4DA  1396 0001:0000F4E8  1397 0001:0000F4EF  1402 0001:0000FB0C
  1403 0001:0000FB25  1404 0001:0000FB2F  1405 0001:0000FB3E  1412 0001:0000FB4C
  1413 0001:0000FB53  1418 0001:0000FEBC  1419 0001:0000FED5  1420 0001:0000FEDF
  1421 0001:0000FEEE  1427 0001:0000FEFC  1428 0001:0000FF03  1433 0001:00010260
  1434 0001:00010276  1435 0001:00010291  1436 0001:0001029E  1437 0001:000102AE
  1438 0001:000102BE  1439 0001:000102CE  1440 0001:000102DE  1441 0001:000102EE
  1442 0001:000102FE  1443 0001:0001030E  1444 0001:0001031E  1445 0001:0001032E
  1446 0001:0001033E  1447 0001:0001034E  1448 0001:0001035E  1449 0001:0001036E
  1450 0001:0001037E  1451 0001:0001038E  1452 0001:0001039E  1453 0001:000103AE
  1454 0001:000103BE  1455 0001:000103CE  1456 0001:000103DE  1457 0001:000103EE
  1458 0001:000103FE  1459 0001:0001040E  1460 0001:0001041E  1461 0001:0001042E
  1462 0001:0001043E  1463 0001:0001044E  1464 0001:0001045E  1465 0001:0001046E
  1466 0001:0001047E  1467 0001:0001048E  1468 0001:000104A0  1469 0001:000104B2
  1470 0001:000104C4  1471 0001:000104D6  1472 0001:000104E8  1473 0001:000104FA
  1474 0001:0001050C  1475 0001:0001051E  1476 0001:00010530  1477 0001:00010542
  1478 0001:00010554  1479 0001:00010566  1480 0001:00010578  1481 0001:0001058A
  1482 0001:0001059C  1483 0001:000105AE  1484 0001:000105C0  1485 0001:000105D2
  1486 0001:000105E4  1487 0001:000105F6  1488 0001:00010608  1489 0001:0001061A
  1490 0001:0001062C  1491 0001:0001063E  1492 0001:00010650  1493 0001:00010662
  1494 0001:00010674  1495 0001:00010686  1496 0001:00010698  1497 0001:000106AA
  1498 0001:000106BC  1499 0001:000106CE  1500 0001:000106E0  1501 0001:000106F2
  1502 0001:00010704  1503 0001:00010716  1504 0001:00010728  1505 0001:0001073A
  1506 0001:0001074C  1507 0001:0001075E  1508 0001:00010770  1509 0001:00010782
  1510 0001:00010794  1511 0001:000107A6  1512 0001:000107B8  1513 0001:000107CA
  1514 0001:000107DC  1515 0001:000107EE  1516 0001:00010800  1517 0001:00010812
  1518 0001:00010824  1519 0001:00010836  1520 0001:00010848  1521 0001:0001085A
  1522 0001:0001086C  1523 0001:0001087E  1524 0001:00010890  1525 0001:000108A2
  1526 0001:000108B4  1527 0001:000108C6  1528 0001:000108D8  1529 0001:000108EA
  1530 0001:000108FC  1531 0001:0001090E  1532 0001:00010920  1533 0001:00010932
  1534 0001:00010944  1535 0001:00010956  1536 0001:00010968  1537 0001:0001097A
  1538 0001:0001098C  1539 0001:0001099E  1540 0001:000109B0  1541 0001:000109C2
  1542 0001:000109D4  1543 0001:000109E6  1544 0001:000109F8  1545 0001:00010A0A
  1546 0001:00010A1C  1547 0001:00010A2E  1548 0001:00010A40  1549 0001:00010A52
  1550 0001:00010A64  1551 0001:00010A76  1552 0001:00010A88  1553 0001:00010A9A
  1554 0001:00010AAC  1555 0001:00010ABE  1556 0001:00010AD0  1557 0001:00010AE2
  1558 0001:00010AF4  1559 0001:00010B06  1560 0001:00010B18  1561 0001:00010B2A
  1562 0001:00010B3C  1563 0001:00010B4E  1564 0001:00010B60  1565 0001:00010B72
  1566 0001:00010B84  1567 0001:00010B96  1568 0001:00010BA8  1569 0001:00010BBA
  1570 0001:00010BCC  1571 0001:00010BDE  1572 0001:00010BF0  1573 0001:00010C02
  1574 0001:00010C14  1575 0001:00010C26  1576 0001:00010C38  1577 0001:00010C4A
  1578 0001:00010C5C  1579 0001:00010C6E  1580 0001:00010C80  1581 0001:00010C92
  1582 0001:00010CA4  1583 0001:00010CB6  1584 0001:00010CC8  1585 0001:00010CDA
  1586 0001:00010CEC  1587 0001:00010CFE  1588 0001:00010D10  1589 0001:00010D22
  1590 0001:00010D34  1591 0001:00010D46  1592 0001:00010D58  1593 0001:00010D6A
  1594 0001:00010D7C  1595 0001:00010D8E  1596 0001:00010DA0  1597 0001:00010DB2
  1598 0001:00010DC4  1599 0001:00010DD6  1600 0001:00010DE8  1601 0001:00010DFA
  1602 0001:00010E0C  1603 0001:00010E1E  1604 0001:00010E30  1605 0001:00010E42
  1606 0001:00010E54  1607 0001:00010E66  1608 0001:00010E78  1609 0001:00010E8A
  1610 0001:00010E9C  1611 0001:00010EAE  1612 0001:00010EC0  1613 0001:00010ED2
  1614 0001:00010EE4  1615 0001:00010EF6  1616 0001:00010F08  1617 0001:00010F1A
  1618 0001:00010F2C  1619 0001:00010F3E  1620 0001:00010F50  1621 0001:00010F62
  1622 0001:00010F74  1623 0001:00010F86  1624 0001:00010F98  1625 0001:00010FAA
  1626 0001:00010FBC  1627 0001:00010FCE  1628 0001:00010FE0  1629 0001:00010FF2
  1630 0001:00011004  1631 0001:00011016  1632 0001:00011028  1633 0001:0001103A
  1634 0001:0001104C  1635 0001:0001105E  1636 0001:00011070  1637 0001:00011082
  1638 0001:00011094  1639 0001:000110A6  1640 0001:000110B8  1641 0001:000110CA
  1642 0001:000110DC  1643 0001:000110EE  1644 0001:00011100  1645 0001:00011112
  1646 0001:00011124  1647 0001:00011136  1648 0001:00011148  1649 0001:0001115A
  1650 0001:0001116C  1651 0001:0001117E  1652 0001:00011190  1653 0001:000111A2
  1654 0001:000111B4  1655 0001:000111C6  1656 0001:000111D8  1657 0001:000111EA
  1658 0001:000111FC  1659 0001:0001120E  1660 0001:00011220  1661 0001:00011230
  1664 0001:00012B74  1665 0001:00012B77  1666 0001:00012B83  1669 0001:00012B98
  1670 0001:00012B9B  1671 0001:00012BA7  1674 0001:00012BBC  1675 0001:00012BBF
  1676 0001:00012BCB  1679 0001:00012BE0  1680 0001:00012BE6  1681 0001:00012BEC
  1683 0001:00012BFB  1684 0001:00012C04  1688 0001:00012C2C  1689 0001:00012C2E
  1693 0001:00012C30  1694 0001:00012C32  1698 0001:00012C34  1699 0001:00012C36
  1702 0001:00012C38  1703 0001:00012C51  1704 0001:00012C5A  1705 0001:00012C7C
  1711 0001:00012CE4  1712 0001:00012CF5  1713 0001:00012D0F  1715 0001:00012D21
  1716 0001:00012D27  1717 0001:00012D34  1718 0001:00012D3B  1713 0001:00012D3C
  1719 0001:00012D3F  1720 0001:00012D51  1726 0001:00012D80  1727 0001:00012D97
  1728 0001:00012D9C  1729 0001:00012DA2  1730 0001:00012DA7  1731 0001:00012DBF
  1732 0001:00012DF3  1733 0001:00012E28  1734 0001:00012E5D  1735 0001:00012E92
  1736 0001:00012EC7  1737 0001:00012EFC  1738 0001:00012F31  1739 0001:00012F69
  1740 0001:00012FA1  1741 0001:00012FDC  1742 0001:00013017  1743 0001:00013052
  1744 0001:0001308D  1745 0001:000130C8  1746 0001:00013109  1747 0001:0001314A
  1748 0001:0001318B  1749 0001:000131CE  1750 0001:00013211  1751 0001:00013254
  1752 0001:00013291  1753 0001:000132CE  1754 0001:0001330B  1755 0001:00013345
  1756 0001:00013380  1757 0001:000133BB  1758 0001:000133F6  1759 0001:0001342E
  1760 0001:00013466  1761 0001:000134A6  1762 0001:000134E3  1763 0001:0001351E
  1764 0001:0001352E  1774 0001:00013ABC  1775 0001:00013AC1  1780 0001:00013AC4
  1781 0001:00013AC7  1782 0001:00013AD3  1785 0001:00013B18  1786 0001:00013B36
  1787 0001:00013B3F  1788 0001:00013B61  1789 0001:00013B83  1790 0001:00013BA5
  1793 0001:00013C78  1794 0001:00013C7B  1800 0001:00013C87  1803 0001:00014244
  1804 0001:00014247  1809 0001:00014253  1814 0001:00014730  1815 0001:00014749
  1816 0001:00014753  1817 0001:00014762  1823 0001:00014770  1833 0001:0001477C
  1838 0001:00015394  1839 0001:000153AD  1840 0001:000153B7  1841 0001:000153C6
  1847 0001:000153D4  1857 0001:000153E0  1862 0001:00016218  1863 0001:0001622E
  1864 0001:00016249  1865 0001:00016256  1866 0001:00016266  1867 0001:00016276
  1868 0001:00016286  1869 0001:00016296  1870 0001:000162A6  1871 0001:000162B6
  1872 0001:000162C6  1873 0001:000162D6  1874 0001:000162E6  1875 0001:000162F6
  1876 0001:00016306  1877 0001:00016316  1878 0001:00016326  1879 0001:00016336
  1880 0001:00016346  1881 0001:00016356  1882 0001:00016366  1883 0001:00016376
  1884 0001:00016386  1885 0001:00016396  1886 0001:000163A6  1887 0001:000163B6
  1888 0001:000163C6  1889 0001:000163D6  1890 0001:000163E6  1891 0001:000163F6
  1892 0001:00016406  1893 0001:00016416  1894 0001:00016426  1895 0001:00016436
  1896 0001:00016446  1897 0001:00016458  1898 0001:0001646A  1899 0001:0001647C
  1900 0001:0001648E  1901 0001:000164A0  1902 0001:000164B2  1903 0001:000164C4
  1904 0001:000164D6  1905 0001:000164E8  1906 0001:000164FA  1907 0001:0001650C
  1908 0001:0001651E  1909 0001:00016530  1910 0001:00016542  1911 0001:00016554
  1912 0001:00016566  1913 0001:00016578  1914 0001:0001658A  1915 0001:0001659C
  1916 0001:000165AE  1917 0001:000165C0  1918 0001:000165D2  1919 0001:000165E4
  1920 0001:000165F6  1921 0001:00016608  1922 0001:0001661A  1923 0001:0001662C
  1924 0001:0001663E  1925 0001:00016650  1926 0001:00016662  1927 0001:00016674
  1928 0001:00016686  1929 0001:00016698  1930 0001:000166AA  1931 0001:000166BC
  1932 0001:000166CE  1933 0001:000166E0  1934 0001:000166F2  1935 0001:00016704
  1936 0001:00016716  1937 0001:00016728  1938 0001:0001673A  1939 0001:0001674C
  1940 0001:0001675E  1941 0001:00016770  1942 0001:00016782  1943 0001:00016794
  1944 0001:000167A6  1945 0001:000167B8  1946 0001:000167CA  1947 0001:000167DC
  1948 0001:000167EE  1949 0001:00016800  1950 0001:00016812  1951 0001:00016824
  1952 0001:00016836  1953 0001:00016848  1954 0001:0001685A  1955 0001:0001686C
  1956 0001:0001687E  1957 0001:00016890  1958 0001:000168A2  1959 0001:000168B4
  1960 0001:000168C6  1961 0001:000168D8  1962 0001:000168EA  1963 0001:000168FC
  1964 0001:0001690E  1965 0001:00016920  1966 0001:00016932  1967 0001:00016944
  1968 0001:00016956  1969 0001:00016968  1970 0001:0001697A  1971 0001:0001698C
  1972 0001:0001699E  1973 0001:000169B0  1974 0001:000169C2  1975 0001:000169D4
  1976 0001:000169E6  1977 0001:000169F8  1978 0001:00016A0A  1979 0001:00016A1C
  1980 0001:00016A2E  1981 0001:00016A40  1982 0001:00016A52  1983 0001:00016A64
  1984 0001:00016A76  1985 0001:00016A88  1986 0001:00016A9A  1987 0001:00016AAC
  1988 0001:00016ABE  1989 0001:00016AD0  1990 0001:00016AE2  1991 0001:00016AF4
  1992 0001:00016B06  1993 0001:00016B18  1994 0001:00016B2A  1995 0001:00016B3C
  1996 0001:00016B4E  1997 0001:00016B60  1998 0001:00016B72  1999 0001:00016B84
  2000 0001:00016B96  2001 0001:00016BA8  2002 0001:00016BBA  2003 0001:00016BCC
  2004 0001:00016BDE  2005 0001:00016BF0  2006 0001:00016C02  2007 0001:00016C14
  2008 0001:00016C26  2009 0001:00016C38  2010 0001:00016C4A  2011 0001:00016C5C
  2012 0001:00016C6E  2013 0001:00016C80  2014 0001:00016C92  2015 0001:00016CA4
  2016 0001:00016CB6  2017 0001:00016CC8  2018 0001:00016CDA  2019 0001:00016CEC
  2020 0001:00016CFE  2021 0001:00016D10  2022 0001:00016D22  2023 0001:00016D34
  2024 0001:00016D46  2025 0001:00016D58  2026 0001:00016D6A  2027 0001:00016D7C
  2028 0001:00016D8E  2029 0001:00016DA0  2030 0001:00016DB2  2031 0001:00016DC4
  2032 0001:00016DD6  2033 0001:00016DE8  2034 0001:00016DFA  2035 0001:00016E0C
  2036 0001:00016E1E  2037 0001:00016E30  2038 0001:00016E42  2039 0001:00016E54
  2040 0001:00016E66  2041 0001:00016E78  2042 0001:00016E8A  2043 0001:00016E9C
  2044 0001:00016EAE  2045 0001:00016EC0  2046 0001:00016ED2  2047 0001:00016EE4
  2048 0001:00016EF6  2049 0001:00016F08  2050 0001:00016F1A  2051 0001:00016F2C
  2052 0001:00016F3E  2053 0001:00016F50  2054 0001:00016F62  2055 0001:00016F74
  2056 0001:00016F86  2057 0001:00016F98  2058 0001:00016FAA  2059 0001:00016FBC
  2060 0001:00016FCE  2061 0001:00016FE0  2062 0001:00016FF2  2063 0001:00017004
  2064 0001:00017016  2065 0001:00017028  2066 0001:0001703A  2067 0001:0001704C
  2068 0001:0001705E  2069 0001:00017070  2070 0001:00017082  2071 0001:00017094
  2072 0001:000170A6  2073 0001:000170B8  2074 0001:000170CA  2075 0001:000170DC
  2076 0001:000170EE  2077 0001:00017100  2078 0001:00017112  2079 0001:00017124
  2080 0001:00017136  2081 0001:00017148  2082 0001:0001715A  2083 0001:0001716C
  2084 0001:0001717E  2085 0001:00017190  2086 0001:000171A2  2087 0001:000171B4
  2088 0001:000171C4  2091 0001:000189D4  2092 0001:000189DA  2093 0001:000189E0
  2095 0001:000189EF  2096 0001:000189F8  2099 0001:00018A14  2100 0001:00018A1A
  2101 0001:00018A20  2103 0001:00018A2F  2104 0001:00018A38  2107 0001:00018A54
  2108 0001:00018A5A  2109 0001:00018A60  2111 0001:00018A6F  2112 0001:00018A78
  2115 0001:00018A94  2116 0001:00018A9A  2117 0001:00018AA0  2119 0001:00018AAF
  2120 0001:00018AB8  2125 0001:00018AD4  2126 0001:00018AED  2127 0001:00018B05
  2128 0001:00018B39  2129 0001:00018B77  2130 0001:00018BAC  2131 0001:00018BB2
  2133 0001:00018BF5  2134 0001:00018C36  2135 0001:00018C7A  2136 0001:00018CB5
  2137 0001:00018CED  2138 0001:00018D22  2139 0001:00018D5A  2140 0001:00018D8F
  2141 0001:00018DCA  2142 0001:00018DD0  2144 0001:00018E0D  2145 0001:00018E48
  2146 0001:00018E86  2147 0001:00018EBE  2148 0001:00018EF3  2149 0001:00018F2E
  2150 0001:00018F69  2151 0001:00018F9E  2152 0001:00018FDC  2153 0001:00018FE2
  2155 0001:00019025  2156 0001:00019066  2157 0001:000190AA  2158 0001:000190E5
  2159 0001:00019123  2160 0001:00019133  2170 0001:00019680  2171 0001:00019685
  2176 0001:00019688  2177 0001:0001968B  2178 0001:00019697  2181 0001:000196CC
  2182 0001:000196CF  2188 0001:000196DB  2191 0001:00019A44  2192 0001:00019A47
  2197 0001:00019A53  2200 0001:00019FF0  2201 0001:00019FF3  2206 0001:00019FFF
  2209 0001:0001A35C  2210 0001:0001A35F  2215 0001:0001A36B  2220 0001:0001A844
  2221 0001:0001A85A  2222 0001:0001A875  2223 0001:0001A882  2224 0001:0001A892
  2225 0001:0001A8A2  2226 0001:0001A8B2  2227 0001:0001A8C2  2228 0001:0001A8D2
  2229 0001:0001A8E2  2230 0001:0001A8F2  2231 0001:0001A902  2232 0001:0001A912
  2233 0001:0001A922  2234 0001:0001A932  2235 0001:0001A942  2236 0001:0001A952
  2237 0001:0001A962  2238 0001:0001A972  2239 0001:0001A982  2240 0001:0001A992
  2241 0001:0001A9A2  2242 0001:0001A9B2  2243 0001:0001A9C2  2244 0001:0001A9D2
  2245 0001:0001A9E2  2246 0001:0001A9F2  2247 0001:0001AA02  2248 0001:0001AA12
  2249 0001:0001AA22  2250 0001:0001AA32  2251 0001:0001AA42  2252 0001:0001AA52
  2253 0001:0001AA62  2254 0001:0001AA72  2255 0001:0001AA84  2256 0001:0001AA96
  2257 0001:0001AAA8  2258 0001:0001AABA  2259 0001:0001AACC  2260 0001:0001AADE
  2261 0001:0001AAF0  2262 0001:0001AB02  2263 0001:0001AB14  2264 0001:0001AB26
  2265 0001:0001AB38  2266 0001:0001AB4A  2267 0001:0001AB5C  2268 0001:0001AB6E
  2269 0001:0001AB80  2270 0001:0001AB92  2271 0001:0001ABA4  2272 0001:0001ABB6
  2273 0001:0001ABC8  2274 0001:0001ABDA  2275 0001:0001ABEC  2276 0001:0001ABFE
  2277 0001:0001AC10  2278 0001:0001AC22  2279 0001:0001AC34  2280 0001:0001AC46
  2281 0001:0001AC58  2282 0001:0001AC6A  2283 0001:0001AC7C  2284 0001:0001AC8E
  2285 0001:0001ACA0  2286 0001:0001ACB2  2287 0001:0001ACC4  2288 0001:0001ACD6
  2289 0001:0001ACE8  2290 0001:0001ACFA  2291 0001:0001AD0C  2292 0001:0001AD1E
  2293 0001:0001AD30  2294 0001:0001AD42  2295 0001:0001AD54  2296 0001:0001AD66
  2297 0001:0001AD78  2298 0001:0001AD8A  2299 0001:0001AD9C  2300 0001:0001ADAE
  2301 0001:0001ADC0  2302 0001:0001ADD2  2303 0001:0001ADE4  2304 0001:0001ADF6
  2305 0001:0001AE08  2306 0001:0001AE1A  2307 0001:0001AE2C  2308 0001:0001AE3E
  2309 0001:0001AE50  2310 0001:0001AE62  2311 0001:0001AE74  2312 0001:0001AE86
  2313 0001:0001AE98  2314 0001:0001AEAA  2315 0001:0001AEBC  2316 0001:0001AECE
  2317 0001:0001AEE0  2318 0001:0001AEF2  2319 0001:0001AF04  2320 0001:0001AF16
  2321 0001:0001AF28  2322 0001:0001AF3A  2323 0001:0001AF4C  2324 0001:0001AF5E
  2325 0001:0001AF70  2326 0001:0001AF82  2327 0001:0001AF94  2328 0001:0001AFA6
  2329 0001:0001AFB8  2330 0001:0001AFCA  2331 0001:0001AFDC  2332 0001:0001AFEE
  2333 0001:0001B000  2334 0001:0001B012  2335 0001:0001B024  2336 0001:0001B036
  2337 0001:0001B048  2338 0001:0001B05A  2339 0001:0001B06C  2340 0001:0001B07E
  2341 0001:0001B090  2342 0001:0001B0A2  2343 0001:0001B0B4  2344 0001:0001B0C6
  2345 0001:0001B0D8  2346 0001:0001B0EA  2347 0001:0001B0FC  2348 0001:0001B10E
  2349 0001:0001B120  2350 0001:0001B132  2351 0001:0001B144  2352 0001:0001B156
  2353 0001:0001B168  2354 0001:0001B17A  2355 0001:0001B18C  2356 0001:0001B19E
  2357 0001:0001B1B0  2358 0001:0001B1C2  2359 0001:0001B1D4  2360 0001:0001B1E6
  2361 0001:0001B1F8  2362 0001:0001B20A  2363 0001:0001B21C  2364 0001:0001B22E
  2365 0001:0001B240  2366 0001:0001B252  2367 0001:0001B264  2368 0001:0001B276
  2369 0001:0001B288  2370 0001:0001B29A  2371 0001:0001B2AC  2372 0001:0001B2BE
  2373 0001:0001B2D0  2374 0001:0001B2E2  2375 0001:0001B2F4  2376 0001:0001B306
  2377 0001:0001B318  2378 0001:0001B32A  2379 0001:0001B33C  2380 0001:0001B34E
  2381 0001:0001B360  2382 0001:0001B372  2383 0001:0001B384  2384 0001:0001B396
  2385 0001:0001B3A8  2386 0001:0001B3BA  2387 0001:0001B3CC  2388 0001:0001B3DE
  2389 0001:0001B3F0  2390 0001:0001B402  2391 0001:0001B414  2392 0001:0001B426
  2393 0001:0001B438  2394 0001:0001B44A  2395 0001:0001B45C  2396 0001:0001B46E
  2397 0001:0001B480  2398 0001:0001B492  2399 0001:0001B4A4  2400 0001:0001B4B6
  2401 0001:0001B4C8  2402 0001:0001B4DA  2403 0001:0001B4EC  2404 0001:0001B4FE
  2405 0001:0001B510  2406 0001:0001B522  2407 0001:0001B534  2408 0001:0001B546
  2409 0001:0001B558  2410 0001:0001B56A  2411 0001:0001B57C  2412 0001:0001B58E
  2413 0001:0001B5A0  2414 0001:0001B5B2  2415 0001:0001B5C4  2416 0001:0001B5D6
  2417 0001:0001B5E8  2418 0001:0001B5FA  2419 0001:0001B60C  2420 0001:0001B61E
  2421 0001:0001B630  2422 0001:0001B642  2423 0001:0001B654  2424 0001:0001B666
  2425 0001:0001B678  2426 0001:0001B68A  2427 0001:0001B69C  2428 0001:0001B6AE
  2429 0001:0001B6C0  2430 0001:0001B6D2  2431 0001:0001B6E4  2432 0001:0001B6F6
  2433 0001:0001B708  2434 0001:0001B71A  2435 0001:0001B72C  2436 0001:0001B73E
  2437 0001:0001B750  2438 0001:0001B762  2439 0001:0001B774  2440 0001:0001B786
  2441 0001:0001B798  2442 0001:0001B7AA  2443 0001:0001B7BC  2444 0001:0001B7CE
  2445 0001:0001B7E0  2446 0001:0001B7F2  2447 0001:0001B804  2448 0001:0001B816
  2449 0001:0001B828  2450 0001:0001B83A  2451 0001:0001B84C  2452 0001:0001B85E
  2453 0001:0001B870  2454 0001:0001B882  2455 0001:0001B894  2456 0001:0001B8A6
  2457 0001:0001B8B8  2458 0001:0001B8CA  2459 0001:0001B8DC  2460 0001:0001B8EE
  2461 0001:0001B900  2462 0001:0001B912  2463 0001:0001B924  2464 0001:0001B936
  2465 0001:0001B948  2466 0001:0001B95A  2467 0001:0001B96C  2468 0001:0001B97E
  2469 0001:0001B990  2470 0001:0001B9A2  2471 0001:0001B9B4  2472 0001:0001B9C6
  2473 0001:0001B9D8  2474 0001:0001B9EA  2475 0001:0001B9FC  2476 0001:0001BA0E
  2477 0001:0001BA20  2478 0001:0001BA32  2479 0001:0001BA44  2480 0001:0001BA56
  2481 0001:0001BA68  2482 0001:0001BA7A  2483 0001:0001BA8C  2484 0001:0001BA9E
  2485 0001:0001BAB0  2486 0001:0001BAC2  2487 0001:0001BAD4  2488 0001:0001BAE6
  2489 0001:0001BAF8  2490 0001:0001BB0A  2491 0001:0001BB1C  2492 0001:0001BB2E
  2493 0001:0001BB40  2494 0001:0001BB52  2495 0001:0001BB64  2496 0001:0001BB76
  2497 0001:0001BB88  2498 0001:0001BB9A  2499 0001:0001BBAC  2500 0001:0001BBBE
  2501 0001:0001BBD0  2502 0001:0001BBE2  2503 0001:0001BBF4  2504 0001:0001BC06
  2505 0001:0001BC18  2506 0001:0001BC2A  2507 0001:0001BC3C  2508 0001:0001BC4E
  2509 0001:0001BC60  2510 0001:0001BC72  2511 0001:0001BC84  2512 0001:0001BC96
  2513 0001:0001BCA8  2514 0001:0001BCBA  2515 0001:0001BCCC  2516 0001:0001BCDE
  2517 0001:0001BCF0  2518 0001:0001BD02  2519 0001:0001BD14  2520 0001:0001BD26
  2521 0001:0001BD38  2522 0001:0001BD4A  2523 0001:0001BD5C  2524 0001:0001BD6E
  2525 0001:0001BD80  2526 0001:0001BD92  2527 0001:0001BDA4  2528 0001:0001BDB6
  2529 0001:0001BDC8  2530 0001:0001BDDA  2531 0001:0001BDEC  2532 0001:0001BDFE
  2533 0001:0001BE10  2534 0001:0001BE22  2535 0001:0001BE34  2536 0001:0001BE46
  2537 0001:0001BE58  2538 0001:0001BE6A  2539 0001:0001BE7C  2540 0001:0001BE8E
  2541 0001:0001BEA0  2542 0001:0001BEB2  2543 0001:0001BEC4  2544 0001:0001BED6
  2545 0001:0001BEE6  2548 0001:0001E2B8  2549 0001:0001E2BE  2550 0001:0001E2C4
  2552 0001:0001E2D3  2553 0001:0001E2DC  2556 0001:0001E2F0  2557 0001:0001E2F6
  2558 0001:0001E2FC  2560 0001:0001E30B  2561 0001:0001E314  2564 0001:0001E328
  2565 0001:0001E32E  2566 0001:0001E334  2568 0001:0001E343  2569 0001:0001E34C
  2579 0001:0001E360  2580 0001:0001E376  2581 0001:0001E38E  2582 0001:0001E3CE
  2583 0001:0001E40F  2584 0001:0001E444  2585 0001:0001E488  2586 0001:0001E4CC
  2587 0001:0001E507  2588 0001:0001E53F  2589 0001:0001E574  2590 0001:0001E5AC
  2591 0001:0001E5E1  2592 0001:0001E616  2593 0001:0001E64E  2594 0001:0001E692
  2595 0001:0001E6D6  2596 0001:0001E71A  2597 0001:0001E75E  2598 0001:0001E793
  2599 0001:0001E7CE  2600 0001:0001E803  2601 0001:0001E838  2602 0001:0001E873
  2603 0001:0001E8AE  2604 0001:0001E8EF  2605 0001:0001E927  2606 0001:0001E95C
  2607 0001:0001E99D  2608 0001:0001E9DE  2609 0001:0001EA22  2610 0001:0001EA66
  2611 0001:0001EA76  2621 0001:0001EFA8  2622 0001:0001EFAD  2627 0001:0001EFB0
  2628 0001:0001EFB3  2629 0001:0001EFBF  2632 0001:0001EFD8  2633 0001:0001EFDB
  2639 0001:0001EFE7  2642 0001:0001F580  2643 0001:0001F583  2647 0001:0001F58F
  2650 0001:0001F904  2651 0001:0001F907  2655 0001:0001F913  2658 0001:0001FCA4
  2659 0001:0001FCA7  2664 0001:0001FCB3  2669 0001:00020100  2670 0001:00020116
  2671 0001:00020131  2672 0001:0002013E  2673 0001:0002014E  2674 0001:0002015E
  2675 0001:0002016E  2676 0001:0002017E  2677 0001:0002018E  2678 0001:0002019E
  2679 0001:000201AE  2680 0001:000201BE  2681 0001:000201CE  2682 0001:000201DE
  2683 0001:000201EE  2684 0001:000201FE  2685 0001:0002020E  2686 0001:0002021E
  2687 0001:0002022E  2688 0001:0002023E  2689 0001:0002024E  2690 0001:0002025E
  2691 0001:0002026E  2692 0001:0002027E  2693 0001:0002028E  2694 0001:0002029E
  2695 0001:000202AE  2696 0001:000202BE  2697 0001:000202CE  2698 0001:000202DE
  2699 0001:000202EE  2700 0001:000202FE  2701 0001:0002030E  2702 0001:0002031E
  2703 0001:0002032E  2704 0001:00020340  2705 0001:00020352  2706 0001:00020364
  2707 0001:00020376  2708 0001:00020388  2709 0001:0002039A  2710 0001:000203AC
  2711 0001:000203BE  2712 0001:000203D0  2713 0001:000203E2  2714 0001:000203F4
  2715 0001:00020406  2716 0001:00020418  2717 0001:0002042A  2718 0001:0002043C
  2719 0001:0002044E  2720 0001:00020460  2721 0001:00020472  2722 0001:00020484
  2723 0001:00020496  2724 0001:000204A8  2725 0001:000204BA  2726 0001:000204CC
  2727 0001:000204DE  2728 0001:000204F0  2729 0001:00020502  2730 0001:00020514
  2731 0001:00020526  2732 0001:00020538  2733 0001:0002054A  2734 0001:0002055C
  2735 0001:0002056E  2736 0001:00020580  2737 0001:00020592  2738 0001:000205A4
  2739 0001:000205B6  2740 0001:000205C8  2741 0001:000205DA  2742 0001:000205EC
  2743 0001:000205FE  2744 0001:00020610  2745 0001:00020622  2746 0001:00020634
  2747 0001:00020646  2748 0001:00020658  2749 0001:0002066A  2750 0001:0002067C
  2751 0001:0002068E  2752 0001:000206A0  2753 0001:000206B2  2754 0001:000206C4
  2755 0001:000206D6  2756 0001:000206E8  2757 0001:000206FA  2758 0001:0002070C
  2759 0001:0002071E  2760 0001:00020730  2761 0001:00020742  2762 0001:00020754
  2763 0001:00020766  2764 0001:00020778  2765 0001:0002078A  2766 0001:0002079C
  2767 0001:000207AE  2768 0001:000207C0  2769 0001:000207D2  2770 0001:000207E4
  2771 0001:000207F6  2772 0001:00020808  2773 0001:0002081A  2774 0001:0002082C
  2775 0001:0002083E  2776 0001:00020850  2777 0001:00020862  2778 0001:00020874
  2779 0001:00020886  2780 0001:00020898  2781 0001:000208AA  2782 0001:000208BC
  2783 0001:000208CE  2784 0001:000208E0  2785 0001:000208F2  2786 0001:00020904
  2787 0001:00020916  2788 0001:00020928  2789 0001:0002093A  2790 0001:0002094C
  2791 0001:0002095E  2792 0001:00020970  2793 0001:00020982  2794 0001:00020994
  2795 0001:000209A6  2796 0001:000209B8  2797 0001:000209CA  2798 0001:000209DC
  2799 0001:000209EE  2800 0001:00020A00  2801 0001:00020A12  2802 0001:00020A24
  2803 0001:00020A36  2804 0001:00020A48  2805 0001:00020A5A  2806 0001:00020A6C
  2807 0001:00020A7E  2808 0001:00020A90  2809 0001:00020AA2  2810 0001:00020AB4
  2811 0001:00020AC6  2812 0001:00020AD8  2813 0001:00020AEA  2814 0001:00020AFC
  2815 0001:00020B0E  2816 0001:00020B20  2817 0001:00020B32  2818 0001:00020B44
  2819 0001:00020B56  2820 0001:00020B68  2821 0001:00020B7A  2822 0001:00020B8C
  2823 0001:00020B9E  2824 0001:00020BB0  2825 0001:00020BC2  2826 0001:00020BD4
  2827 0001:00020BE6  2828 0001:00020BF8  2829 0001:00020C0A  2830 0001:00020C1C
  2831 0001:00020C2E  2832 0001:00020C40  2833 0001:00020C52  2834 0001:00020C64
  2835 0001:00020C76  2836 0001:00020C88  2837 0001:00020C9A  2838 0001:00020CAC
  2839 0001:00020CBE  2840 0001:00020CD0  2841 0001:00020CE2  2842 0001:00020CF4
  2843 0001:00020D06  2844 0001:00020D18  2845 0001:00020D2A  2846 0001:00020D3C
  2847 0001:00020D4E  2848 0001:00020D60  2849 0001:00020D72  2850 0001:00020D84
  2851 0001:00020D96  2852 0001:00020DA8  2853 0001:00020DBA  2854 0001:00020DCC
  2855 0001:00020DDE  2856 0001:00020DF0  2857 0001:00020E02  2858 0001:00020E14
  2859 0001:00020E26  2860 0001:00020E38  2861 0001:00020E4A  2862 0001:00020E5C
  2863 0001:00020E6E  2864 0001:00020E80  2865 0001:00020E92  2866 0001:00020EA4
  2867 0001:00020EB6  2868 0001:00020EC8  2869 0001:00020EDA  2870 0001:00020EEC
  2871 0001:00020EFE  2872 0001:00020F10  2873 0001:00020F22  2874 0001:00020F34
  2875 0001:00020F46  2876 0001:00020F58  2877 0001:00020F6A  2878 0001:00020F7C
  2879 0001:00020F8E  2880 0001:00020FA0  2881 0001:00020FB2  2882 0001:00020FC4
  2883 0001:00020FD6  2884 0001:00020FE8  2885 0001:00020FFA  2886 0001:0002100C
  2887 0001:0002101E  2888 0001:00021030  2889 0001:00021042  2890 0001:00021054
  2891 0001:00021066  2892 0001:00021078  2893 0001:0002108A  2894 0001:0002109C
  2895 0001:000210AE  2896 0001:000210C0  2897 0001:000210D2  2898 0001:000210E4
  2899 0001:000210F6  2900 0001:00021108  2901 0001:0002111A  2902 0001:0002112C
  2903 0001:0002113E  2904 0001:00021150  2905 0001:00021162  2906 0001:00021174
  2907 0001:00021186  2908 0001:00021198  2909 0001:000211AA  2910 0001:000211BC
  2911 0001:000211CE  2912 0001:000211E0  2913 0001:000211F2  2914 0001:00021204
  2915 0001:00021216  2916 0001:00021228  2917 0001:0002123A  2918 0001:0002124C
  2919 0001:0002125E  2920 0001:00021270  2921 0001:00021282  2922 0001:00021294
  2923 0001:000212A6  2924 0001:000212B8  2925 0001:000212CA  2926 0001:000212DC
  2927 0001:000212EE  2928 0001:00021300  2929 0001:00021312  2930 0001:00021324
  2931 0001:00021336  2932 0001:00021348  2933 0001:0002135A  2934 0001:0002136C
  2935 0001:0002137E  2936 0001:00021390  2937 0001:000213A2  2938 0001:000213B4
  2939 0001:000213C6  2940 0001:000213D8  2941 0001:000213EA  2942 0001:000213FC
  2943 0001:0002140E  2944 0001:00021420  2945 0001:00021432  2946 0001:00021444
  2947 0001:00021456  2948 0001:00021468  2949 0001:0002147A  2950 0001:0002148C
  2951 0001:0002149E  2952 0001:000214B0  2953 0001:000214C2  2954 0001:000214D4
  2955 0001:000214E6  2956 0001:000214F8  2957 0001:0002150A  2958 0001:0002151C
  2959 0001:0002152E  2960 0001:00021540  2961 0001:00021552  2962 0001:00021564
  2963 0001:00021576  2964 0001:00021588  2965 0001:0002159A  2966 0001:000215AC
  2967 0001:000215BE  2968 0001:000215D0  2969 0001:000215E2  2970 0001:000215F4
  2971 0001:00021606  2972 0001:00021618  2973 0001:0002162A  2974 0001:0002163C
  2975 0001:0002164E  2976 0001:00021660  2977 0001:00021672  2978 0001:00021684
  2979 0001:00021696  2980 0001:000216A8  2981 0001:000216BA  2982 0001:000216CA
  2985 0001:000238E0  2986 0001:000238E6  2987 0001:000238EC  2989 0001:000238FB
  2990 0001:00023904  2993 0001:00023918  2994 0001:0002391E  2995 0001:00023924
  2997 0001:00023933  2998 0001:0002393C  3001 0001:00023950  3002 0001:00023956
  3003 0001:0002395C  3005 0001:0002396B  3006 0001:00023974  3009 0001:00023988
  3010 0001:0002398B  3011 0001:00023992  3016 0001:00023994  3017 0001:000239AA
  3018 0001:000239C2  3019 0001:000239F6  3020 0001:00023A2B  3021 0001:00023A60
  3022 0001:00023A95  3023 0001:00023ACA  3024 0001:00023B02  3025 0001:00023B43
  3026 0001:00023B84  3027 0001:00023BC2  3028 0001:00023BFA  3029 0001:00023C32
  3030 0001:00023C6D  3031 0001:00023CA8  3032 0001:00023CE3  3033 0001:00023CF3
  3043 0001:00023F8C  3044 0001:00023F91  3049 0001:00023F94  3050 0001:00023F97
  3051 0001:00023FA3  3054 0001:00023FE4  3055 0001:00023FEF  3056 0001:00023FF7
  3057 0001:00024002  3060 0001:00024010  3061 0001:00024013  3067 0001:0002401F
  3070 0001:000245E4  3071 0001:000245E7  3076 0001:000245F3  3079 0001:00024A2C
  3080 0001:00024A2F  3085 0001:00024A3B  3088 0001:00024EC0  3089 0001:00024EC3
  3126 0001:00024ECF  3131 0001:00026090  3132 0001:000260A6  3133 0001:000260C1
  3134 0001:000260CE  3135 0001:000260DE  3136 0001:000260EE  3137 0001:000260FE
  3138 0001:0002610E  3139 0001:0002611E  3140 0001:0002612E  3141 0001:0002613E
  3142 0001:0002614E  3143 0001:0002615E  3144 0001:0002616E  3145 0001:0002617E
  3146 0001:0002618E  3147 0001:0002619E  3148 0001:000261AE  3149 0001:000261BE
  3150 0001:000261CE  3151 0001:000261DE  3152 0001:000261EE  3153 0001:000261FE
  3154 0001:0002620E  3155 0001:0002621E  3156 0001:0002622E  3157 0001:0002623E
  3158 0001:0002624E  3159 0001:0002625E  3160 0001:0002626E  3161 0001:0002627E
  3162 0001:0002628E  3163 0001:0002629E  3164 0001:000262AE  3165 0001:000262BE
  3166 0001:000262D0  3167 0001:000262E2  3168 0001:000262F4  3169 0001:00026306
  3170 0001:00026318  3171 0001:0002632A  3172 0001:0002633C  3173 0001:0002634E
  3174 0001:00026360  3175 0001:00026372  3176 0001:00026384  3177 0001:00026396
  3178 0001:000263A8  3179 0001:000263BA  3180 0001:000263CC  3181 0001:000263DE
  3182 0001:000263F0  3183 0001:00026402  3184 0001:00026414  3185 0001:00026426
  3186 0001:00026438  3187 0001:0002644A  3188 0001:0002645C  3189 0001:0002646E
  3190 0001:00026480  3191 0001:00026492  3192 0001:000264A4  3193 0001:000264B6
  3194 0001:000264C8  3195 0001:000264DA  3196 0001:000264EC  3197 0001:000264FE
  3198 0001:00026510  3199 0001:00026522  3200 0001:00026534  3201 0001:00026546
  3202 0001:00026558  3203 0001:0002656A  3204 0001:0002657C  3205 0001:0002658E
  3206 0001:000265A0  3207 0001:000265B2  3208 0001:000265C4  3209 0001:000265D6
  3210 0001:000265E8  3211 0001:000265FA  3212 0001:0002660C  3213 0001:0002661E
  3214 0001:00026630  3215 0001:00026642  3216 0001:00026654  3217 0001:00026666
  3218 0001:00026678  3219 0001:0002668A  3220 0001:0002669C  3221 0001:000266AE
  3222 0001:000266C0  3223 0001:000266D2  3224 0001:000266E4  3225 0001:000266F6
  3226 0001:00026708  3227 0001:0002671A  3228 0001:0002672C  3229 0001:0002673E
  3230 0001:00026750  3231 0001:00026762  3232 0001:00026774  3233 0001:00026786
  3234 0001:00026798  3235 0001:000267AA  3236 0001:000267BC  3237 0001:000267CE
  3238 0001:000267E0  3239 0001:000267F2  3240 0001:00026804  3241 0001:00026816
  3242 0001:00026828  3243 0001:0002683A  3244 0001:0002684C  3245 0001:0002685E
  3246 0001:00026870  3247 0001:00026882  3248 0001:00026894  3249 0001:000268A6
  3250 0001:000268B8  3251 0001:000268CA  3252 0001:000268DC  3253 0001:000268EE
  3254 0001:00026900  3255 0001:00026912  3256 0001:00026924  3257 0001:00026936
  3258 0001:00026948  3259 0001:0002695A  3260 0001:0002696C  3261 0001:0002697E
  3262 0001:00026990  3263 0001:000269A2  3264 0001:000269B4  3265 0001:000269C6
  3266 0001:000269D8  3267 0001:000269EA  3268 0001:000269FC  3269 0001:00026A0E
  3270 0001:00026A20  3271 0001:00026A32  3272 0001:00026A44  3273 0001:00026A56
  3274 0001:00026A68  3275 0001:00026A7A  3276 0001:00026A8C  3277 0001:00026A9E
  3278 0001:00026AB0  3279 0001:00026AC2  3280 0001:00026AD4  3281 0001:00026AE6
  3282 0001:00026AF8  3283 0001:00026B0A  3284 0001:00026B1C  3285 0001:00026B2E
  3286 0001:00026B40  3287 0001:00026B52  3288 0001:00026B64  3289 0001:00026B76
  3290 0001:00026B88  3291 0001:00026B9A  3292 0001:00026BAC  3293 0001:00026BBE
  3294 0001:00026BD0  3295 0001:00026BE2  3296 0001:00026BF4  3297 0001:00026C06
  3298 0001:00026C18  3299 0001:00026C2A  3300 0001:00026C3C  3301 0001:00026C4E
  3302 0001:00026C60  3303 0001:00026C72  3304 0001:00026C84  3305 0001:00026C96
  3306 0001:00026CA8  3307 0001:00026CBA  3308 0001:00026CCC  3309 0001:00026CDE
  3310 0001:00026CF0  3311 0001:00026D02  3312 0001:00026D14  3313 0001:00026D26
  3314 0001:00026D38  3315 0001:00026D4A  3316 0001:00026D5C  3317 0001:00026D6E
  3318 0001:00026D80  3319 0001:00026D92  3320 0001:00026DA4  3321 0001:00026DB6
  3322 0001:00026DC8  3323 0001:00026DDA  3324 0001:00026DEC  3325 0001:00026DFE
  3326 0001:00026E10  3327 0001:00026E22  3328 0001:00026E34  3329 0001:00026E46
  3330 0001:00026E58  3331 0001:00026E6A  3332 0001:00026E7C  3333 0001:00026E8E
  3334 0001:00026EA0  3335 0001:00026EB2  3336 0001:00026EC4  3337 0001:00026ED6
  3338 0001:00026EE8  3339 0001:00026EFA  3340 0001:00026F0C  3341 0001:00026F1E
  3342 0001:00026F30  3343 0001:00026F42  3344 0001:00026F54  3345 0001:00026F66
  3346 0001:00026F78  3347 0001:00026F8A  3348 0001:00026F9C  3349 0001:00026FAE
  3350 0001:00026FC0  3351 0001:00026FD2  3352 0001:00026FE4  3353 0001:00026FF6
  3354 0001:00027008  3355 0001:0002701A  3356 0001:0002702C  3357 0001:0002703E
  3358 0001:00027050  3359 0001:00027062  3360 0001:00027074  3361 0001:00027086
  3362 0001:00027098  3363 0001:000270AA  3364 0001:000270BC  3365 0001:000270CE
  3366 0001:000270E0  3367 0001:000270F2  3368 0001:00027104  3369 0001:00027116
  3370 0001:00027128  3371 0001:0002713A  3372 0001:0002714C  3373 0001:0002715E
  3374 0001:00027170  3375 0001:00027182  3376 0001:00027194  3377 0001:000271A6
  3378 0001:000271B8  3379 0001:000271CA  3380 0001:000271DC  3381 0001:000271EE
  3382 0001:00027200  3383 0001:00027212  3384 0001:00027224  3385 0001:00027236
  3386 0001:00027248  3387 0001:0002725A  3388 0001:0002726C  3389 0001:0002727E
  3390 0001:00027290  3391 0001:000272A2  3392 0001:000272B4  3393 0001:000272C6
  3394 0001:000272D8  3395 0001:000272EA  3396 0001:000272FC  3397 0001:0002730E
  3398 0001:00027320  3399 0001:00027332  3400 0001:00027344  3401 0001:00027356
  3402 0001:00027368  3403 0001:0002737A  3404 0001:0002738C  3405 0001:0002739E
  3406 0001:000273B0  3407 0001:000273C2  3408 0001:000273D4  3409 0001:000273E6
  3410 0001:000273F8  3411 0001:0002740A  3412 0001:0002741C  3413 0001:0002742E
  3414 0001:00027440  3415 0001:00027452  3416 0001:00027464  3417 0001:00027476
  3418 0001:00027488  3419 0001:0002749A  3420 0001:000274AC  3421 0001:000274BE
  3422 0001:000274D0  3423 0001:000274E2  3424 0001:000274F4  3425 0001:00027506
  3426 0001:00027518  3427 0001:0002752A  3428 0001:0002753C  3429 0001:0002754E
  3430 0001:00027560  3431 0001:00027572  3432 0001:00027584  3433 0001:00027596
  3434 0001:000275A8  3435 0001:000275BA  3436 0001:000275CC  3437 0001:000275DE
  3438 0001:000275F0  3439 0001:00027602  3440 0001:00027614  3441 0001:00027626
  3442 0001:00027638  3443 0001:0002764A  3444 0001:0002765C  3445 0001:0002766E
  3446 0001:00027680  3447 0001:00027692  3448 0001:000276A4  3449 0001:000276B6
  3450 0001:000276C8  3451 0001:000276DA  3452 0001:000276EC  3453 0001:000276FE
  3454 0001:00027710  3455 0001:00027722  3456 0001:00027734  3457 0001:00027746
  3458 0001:00027758  3459 0001:0002776A  3460 0001:0002777C  3461 0001:0002778E
  3462 0001:000277A0  3463 0001:000277B2  3464 0001:000277C4  3465 0001:000277D6
  3466 0001:000277E8  3467 0001:000277FA  3468 0001:0002780C  3469 0001:0002781E
  3470 0001:00027830  3471 0001:00027842  3472 0001:00027854  3473 0001:00027866
  3474 0001:00027878  3475 0001:0002788A  3476 0001:0002789C  3477 0001:000278AE
  3478 0001:000278C0  3479 0001:000278D2  3480 0001:000278E4  3481 0001:000278F6
  3482 0001:00027908  3483 0001:0002791A  3484 0001:0002792C  3485 0001:0002793E
  3486 0001:00027950  3487 0001:00027962  3488 0001:00027974  3489 0001:00027986
  3490 0001:00027998  3491 0001:000279AA  3492 0001:000279BC  3493 0001:000279CE
  3494 0001:000279E0  3495 0001:000279F2  3496 0001:00027A04  3497 0001:00027A16
  3498 0001:00027A28  3499 0001:00027A3A  3500 0001:00027A4C  3501 0001:00027A5E
  3502 0001:00027A70  3503 0001:00027A82  3504 0001:00027A94  3505 0001:00027AA6
  3506 0001:00027AB8  3507 0001:00027ACA  3508 0001:00027ADC  3509 0001:00027AEE
  3510 0001:00027B00  3511 0001:00027B12  3512 0001:00027B24  3513 0001:00027B36
  3514 0001:00027B48  3515 0001:00027B5A  3516 0001:00027B6C  3517 0001:00027B7E
  3518 0001:00027B90  3519 0001:00027BA2  3520 0001:00027BB4  3521 0001:00027BC6
  3522 0001:00027BD8  3523 0001:00027BEA  3524 0001:00027BFC  3525 0001:00027C0E
  3526 0001:00027C20  3527 0001:00027C32  3528 0001:00027C44  3529 0001:00027C56
  3530 0001:00027C68  3531 0001:00027C7A  3532 0001:00027C8C  3533 0001:00027C9E
  3534 0001:00027CB0  3535 0001:00027CC2  3536 0001:00027CD4  3537 0001:00027CE6
  3538 0001:00027CF8  3539 0001:00027D0A  3540 0001:00027D1C  3541 0001:00027D2E
  3542 0001:00027D40  3543 0001:00027D52  3544 0001:00027D64  3545 0001:00027D76
  3546 0001:00027D88  3547 0001:00027D9A  3548 0001:00027DAC  3549 0001:00027DBE
  3550 0001:00027DD0  3551 0001:00027DE2  3552 0001:00027DF4  3553 0001:00027E06
  3554 0001:00027E18  3555 0001:00027E2A  3556 0001:00027E3C  3557 0001:00027E4E
  3558 0001:00027E60  3559 0001:00027E72  3560 0001:00027E84  3561 0001:00027E96
  3562 0001:00027EA8  3563 0001:00027EBA  3564 0001:00027ECC  3565 0001:00027EDE
  3566 0001:00027EF0  3567 0001:00027F02  3568 0001:00027F14  3569 0001:00027F26
  3570 0001:00027F38  3571 0001:00027F4A  3572 0001:00027F5C  3573 0001:00027F6E
  3574 0001:00027F80  3575 0001:00027F92  3576 0001:00027FA4  3577 0001:00027FB6
  3578 0001:00027FC8  3579 0001:00027FDA  3580 0001:00027FEC  3581 0001:00027FFE
  3582 0001:00028010  3583 0001:00028022  3584 0001:00028034  3585 0001:00028046
  3586 0001:00028058  3587 0001:0002806A  3588 0001:0002807C  3589 0001:0002808E
  3590 0001:000280A0  3591 0001:000280B2  3592 0001:000280C4  3593 0001:000280D6
  3594 0001:000280E8  3595 0001:000280FA  3596 0001:0002810C  3597 0001:0002811E
  3598 0001:00028130  3599 0001:00028142  3600 0001:00028154  3601 0001:00028166
  3602 0001:00028178  3603 0001:0002818A  3604 0001:0002819C  3605 0001:000281AE
  3606 0001:000281C0  3607 0001:000281D2  3608 0001:000281E4  3609 0001:000281F6
  3610 0001:00028208  3611 0001:0002821A  3612 0001:0002822C  3613 0001:0002823E
  3614 0001:00028250  3615 0001:00028262  3616 0001:00028274  3617 0001:00028286
  3618 0001:00028298  3619 0001:000282AA  3620 0001:000282BC  3621 0001:000282CE
  3622 0001:000282E0  3623 0001:000282F2  3624 0001:00028304  3625 0001:00028316
  3626 0001:00028328  3627 0001:0002833A  3628 0001:0002834C  3629 0001:0002835E
  3630 0001:00028370  3631 0001:00028382  3632 0001:00028394  3633 0001:000283A6
  3634 0001:000283B8  3635 0001:000283CA  3636 0001:000283DC  3637 0001:000283EE
  3638 0001:00028400  3639 0001:00028412  3640 0001:00028422  3643 0001:0002BC64
  3644 0001:0002BC6A  3645 0001:0002BC70  3647 0001:0002BC7F  3648 0001:0002BC88
  3651 0001:0002BC9C  3652 0001:0002BCA2  3653 0001:0002BCA8  3655 0001:0002BCB7
  3656 0001:0002BCC0  3659 0001:0002BCD4  3660 0001:0002BCDA  3661 0001:0002BCE0
  3663 0001:0002BCEF  3664 0001:0002BCF8  3667 0001:0002BD0C  3668 0001:0002BD12
  3669 0001:0002BD18  3671 0001:0002BD27  3672 0001:0002BD30  3676 0001:0002BD44
  3677 0001:0002BD46  3682 0001:0002BD48  3683 0001:0002BD61  3685 0001:0002BD6B
  3686 0001:0002BD83  3687 0001:0002BDBD  3688 0001:0002BDF8  3689 0001:0002BE33
  3690 0001:0002BE6E  3691 0001:0002BEA3  3692 0001:0002BED8  3693 0001:0002BF0D
  3694 0001:0002BF42  3695 0001:0002BF77  3696 0001:0002BFAF  3697 0001:0002BFE4
  3698 0001:0002C019  3699 0001:0002C054  3701 0001:0002C089  3702 0001:0002C0C1
  3703 0001:0002C0F6  3704 0001:0002C12B  3705 0001:0002C166  3706 0001:0002C19B
  3708 0001:0002C1AC  3709 0001:0002C1BC  3716 0001:0002C5A8  3717 0001:0002C5CC
  3718 0001:0002C5D6  3719 0001:0002C5DB  3721 0001:0002C5ED  3722 0001:0002C5F6
  3723 0001:0002C5FE  3719 0001:0002C5FF  3724 0001:0002C602  3725 0001:0002C61C
  3726 0001:0002C621  3728 0001:0002C633  3730 0001:0002C63C  3731 0001:0002C657
  3733 0001:0002C65F  3726 0001:0002C660  3734 0001:0002C663  3735 0001:0002C674
  3745 0001:0002C6AC  3746 0001:0002C6B1  3751 0001:0002C6B4  3752 0001:0002C6B7
  3753 0001:0002C6C3  3756 0001:0002C7CC  3757 0001:0002C7CF  3758 0001:0002C7DB
  3761 0001:0002C87C  3762 0001:0002C87F  3763 0001:0002C88B  3766 0001:0002C920
  3767 0001:0002C923  3768 0001:0002C92F  3778 0001:0002C9E8  3779 0001:0002C9ED
  3784 0001:0002C9F0  3785 0001:0002C9F3  3786 0001:0002C9FF  3789 0001:0002CA24
  3790 0001:0002CA2F  3791 0001:0002CA37  3792 0001:0002CA42  3795 0001:0002CA50
  3796 0001:0002CA53  3801 0001:0002CA5F  3804 0001:0002CE80  3805 0001:0002CE83
  3810 0001:0002CE8F  3813 0001:0002D334  3814 0001:0002D337  3818 0001:0002D343
  3821 0001:0002D78C  3822 0001:0002D78F  3827 0001:0002D79B  3832 0001:0002DCA8
  3833 0001:0002DCBE  3834 0001:0002DCD9  3835 0001:0002DCE6  3836 0001:0002DCF6
  3837 0001:0002DD06  3838 0001:0002DD16  3839 0001:0002DD26  3840 0001:0002DD36
  3841 0001:0002DD46  3842 0001:0002DD56  3843 0001:0002DD66  3844 0001:0002DD76
  3845 0001:0002DD86  3846 0001:0002DD96  3847 0001:0002DDA6  3848 0001:0002DDB6
  3849 0001:0002DDC6  3850 0001:0002DDD6  3851 0001:0002DDE6  3852 0001:0002DDF6
  3853 0001:0002DE06  3854 0001:0002DE16  3855 0001:0002DE26  3856 0001:0002DE36
  3857 0001:0002DE46  3858 0001:0002DE56  3859 0001:0002DE66  3860 0001:0002DE76
  3861 0001:0002DE86  3862 0001:0002DE96  3863 0001:0002DEA6  3864 0001:0002DEB6
  3865 0001:0002DEC6  3866 0001:0002DED6  3867 0001:0002DEE8  3868 0001:0002DEFA
  3869 0001:0002DF0C  3870 0001:0002DF1E  3871 0001:0002DF30  3872 0001:0002DF42
  3873 0001:0002DF54  3874 0001:0002DF66  3875 0001:0002DF78  3876 0001:0002DF8A
  3877 0001:0002DF9C  3878 0001:0002DFAE  3879 0001:0002DFC0  3880 0001:0002DFD2
  3881 0001:0002DFE4  3882 0001:0002DFF6  3883 0001:0002E008  3884 0001:0002E01A
  3885 0001:0002E02C  3886 0001:0002E03E  3887 0001:0002E050  3888 0001:0002E062
  3889 0001:0002E074  3890 0001:0002E086  3891 0001:0002E098  3892 0001:0002E0AA
  3893 0001:0002E0BC  3894 0001:0002E0CE  3895 0001:0002E0E0  3896 0001:0002E0F2
  3897 0001:0002E104  3898 0001:0002E116  3899 0001:0002E128  3900 0001:0002E13A
  3901 0001:0002E14C  3902 0001:0002E15E  3903 0001:0002E170  3904 0001:0002E182
  3905 0001:0002E194  3906 0001:0002E1A6  3907 0001:0002E1B8  3908 0001:0002E1CA
  3909 0001:0002E1DC  3910 0001:0002E1EE  3911 0001:0002E200  3912 0001:0002E212
  3913 0001:0002E224  3914 0001:0002E236  3915 0001:0002E248  3916 0001:0002E25A
  3917 0001:0002E26C  3918 0001:0002E27E  3919 0001:0002E290  3920 0001:0002E2A2
  3921 0001:0002E2B4  3922 0001:0002E2C6  3923 0001:0002E2D8  3924 0001:0002E2EA
  3925 0001:0002E2FC  3926 0001:0002E30E  3927 0001:0002E320  3928 0001:0002E332
  3929 0001:0002E344  3930 0001:0002E356  3931 0001:0002E368  3932 0001:0002E37A
  3933 0001:0002E38C  3934 0001:0002E39E  3935 0001:0002E3B0  3936 0001:0002E3C2
  3937 0001:0002E3D4  3938 0001:0002E3E6  3939 0001:0002E3F8  3940 0001:0002E40A
  3941 0001:0002E41C  3942 0001:0002E42E  3943 0001:0002E440  3944 0001:0002E452
  3945 0001:0002E464  3946 0001:0002E476  3947 0001:0002E488  3948 0001:0002E49A
  3949 0001:0002E4AC  3950 0001:0002E4BE  3951 0001:0002E4D0  3952 0001:0002E4E2
  3953 0001:0002E4F4  3954 0001:0002E506  3955 0001:0002E518  3956 0001:0002E52A
  3957 0001:0002E53C  3958 0001:0002E54E  3959 0001:0002E560  3960 0001:0002E572
  3961 0001:0002E584  3962 0001:0002E596  3963 0001:0002E5A8  3964 0001:0002E5BA
  3965 0001:0002E5CC  3966 0001:0002E5DE  3967 0001:0002E5F0  3968 0001:0002E602
  3969 0001:0002E614  3970 0001:0002E626  3971 0001:0002E638  3972 0001:0002E64A
  3973 0001:0002E65C  3974 0001:0002E66E  3975 0001:0002E680  3976 0001:0002E692
  3977 0001:0002E6A4  3978 0001:0002E6B6  3979 0001:0002E6C8  3980 0001:0002E6DA
  3981 0001:0002E6EC  3982 0001:0002E6FE  3983 0001:0002E710  3984 0001:0002E722
  3985 0001:0002E734  3986 0001:0002E746  3987 0001:0002E758  3988 0001:0002E76A
  3989 0001:0002E77C  3990 0001:0002E78E  3991 0001:0002E7A0  3992 0001:0002E7B2
  3993 0001:0002E7C4  3994 0001:0002E7D6  3995 0001:0002E7E8  3996 0001:0002E7FA
  3997 0001:0002E80C  3998 0001:0002E81E  3999 0001:0002E830  4000 0001:0002E842
  4001 0001:0002E854  4002 0001:0002E866  4003 0001:0002E878  4004 0001:0002E88A
  4005 0001:0002E89C  4006 0001:0002E8AE  4007 0001:0002E8C0  4008 0001:0002E8D2
  4009 0001:0002E8E4  4010 0001:0002E8F6  4011 0001:0002E908  4012 0001:0002E91A
  4013 0001:0002E92C  4014 0001:0002E93E  4015 0001:0002E950  4016 0001:0002E962
  4017 0001:0002E974  4018 0001:0002E986  4019 0001:0002E998  4020 0001:0002E9AA
  4021 0001:0002E9BC  4022 0001:0002E9CE  4023 0001:0002E9E0  4024 0001:0002E9F2
  4025 0001:0002EA04  4026 0001:0002EA16  4027 0001:0002EA28  4028 0001:0002EA3A
  4029 0001:0002EA4C  4030 0001:0002EA5E  4031 0001:0002EA70  4032 0001:0002EA82
  4033 0001:0002EA94  4034 0001:0002EAA6  4035 0001:0002EAB8  4036 0001:0002EACA
  4037 0001:0002EADC  4038 0001:0002EAEE  4039 0001:0002EB00  4040 0001:0002EB12
  4041 0001:0002EB24  4042 0001:0002EB36  4043 0001:0002EB48  4044 0001:0002EB5A
  4045 0001:0002EB6C  4046 0001:0002EB7E  4047 0001:0002EB90  4048 0001:0002EBA2
  4049 0001:0002EBB4  4050 0001:0002EBC6  4051 0001:0002EBD8  4052 0001:0002EBEA
  4053 0001:0002EBFC  4054 0001:0002EC0E  4055 0001:0002EC20  4056 0001:0002EC32
  4057 0001:0002EC44  4058 0001:0002EC56  4059 0001:0002EC68  4060 0001:0002EC7A
  4061 0001:0002EC8C  4062 0001:0002EC9E  4063 0001:0002ECB0  4064 0001:0002ECC2
  4065 0001:0002ECD4  4066 0001:0002ECE6  4067 0001:0002ECF8  4068 0001:0002ED0A
  4069 0001:0002ED1C  4070 0001:0002ED2E  4071 0001:0002ED40  4072 0001:0002ED52
  4073 0001:0002ED64  4074 0001:0002ED76  4075 0001:0002ED88  4076 0001:0002ED9A
  4077 0001:0002EDAC  4078 0001:0002EDBE  4079 0001:0002EDD0  4080 0001:0002EDE2
  4081 0001:0002EDF4  4082 0001:0002EE06  4083 0001:0002EE18  4084 0001:0002EE2A
  4085 0001:0002EE3C  4086 0001:0002EE4E  4087 0001:0002EE60  4088 0001:0002EE72
  4089 0001:0002EE84  4090 0001:0002EE96  4091 0001:0002EEA8  4092 0001:0002EEBA
  4093 0001:0002EECC  4094 0001:0002EEDE  4095 0001:0002EEF0  4096 0001:0002EF02
  4097 0001:0002EF14  4098 0001:0002EF26  4099 0001:0002EF38  4100 0001:0002EF4A
  4101 0001:0002EF5C  4102 0001:0002EF6E  4103 0001:0002EF80  4104 0001:0002EF92
  4105 0001:0002EFA4  4106 0001:0002EFB6  4107 0001:0002EFC8  4108 0001:0002EFDA
  4109 0001:0002EFEC  4110 0001:0002EFFE  4111 0001:0002F010  4112 0001:0002F022
  4113 0001:0002F034  4114 0001:0002F046  4115 0001:0002F058  4116 0001:0002F06A
  4117 0001:0002F07C  4118 0001:0002F08E  4119 0001:0002F0A0  4120 0001:0002F0B2
  4121 0001:0002F0C4  4122 0001:0002F0D6  4123 0001:0002F0E8  4124 0001:0002F0F8
  4128 0001:0003110C  4129 0001:0003110E  4132 0001:00031110  4133 0001:00031129
  4134 0001:00031132  4135 0001:00031154  4141 0001:000311BC  4142 0001:000311D6
  4144 0001:000311E0  4145 0001:000311F8  4146 0001:000311FD  4147 0001:00031203
  4148 0001:00031208  4149 0001:00031241  4150 0001:0003127B  4151 0001:000312B0
  4152 0001:000312E5  4153 0001:0003131D  4154 0001:00031352  4155 0001:0003138A
  4156 0001:000313C2  4157 0001:000313FD  4158 0001:00031438  4159 0001:00031473
  4160 0001:000314B4  4161 0001:000314E9  4163 0001:000314FA  4164 0001:0003150A
  4170 0001:000317D4  4171 0001:000317F3  4172 0001:000317FD  4173 0001:0003181C
  4174 0001:0003182E  4173 0001:00031847  4175 0001:0003184A  4176 0001:0003185B
  4186 0001:00031894  4187 0001:00031899  4192 0001:0003189C  4193 0001:0003189F
  4194 0001:000318AB  4197 0001:000318D0  4198 0001:000318DB  4199 0001:000318E3
  4200 0001:000318EE  4203 0001:000318FC  4204 0001:000318FF  4209 0001:0003190B
  4212 0001:00031D2C  4213 0001:00031D2F  4218 0001:00031D3B  4221 0001:000321E0
  4222 0001:000321E3  4226 0001:000321EF  4229 0001:00032638  4230 0001:0003263B
  4235 0001:00032647  4240 0001:00032B54  4241 0001:00032B6A  4242 0001:00032B85
  4243 0001:00032B92  4244 0001:00032BA2  4245 0001:00032BB2  4246 0001:00032BC2
  4247 0001:00032BD2  4248 0001:00032BE2  4249 0001:00032BF2  4250 0001:00032C02
  4251 0001:00032C12  4252 0001:00032C22  4253 0001:00032C32  4254 0001:00032C42
  4255 0001:00032C52  4256 0001:00032C62  4257 0001:00032C72  4258 0001:00032C82
  4259 0001:00032C92  4260 0001:00032CA2  4261 0001:00032CB2  4262 0001:00032CC2
  4263 0001:00032CD2  4264 0001:00032CE2  4265 0001:00032CF2  4266 0001:00032D02
  4267 0001:00032D12  4268 0001:00032D22  4269 0001:00032D32  4270 0001:00032D42
  4271 0001:00032D52  4272 0001:00032D62  4273 0001:00032D72  4274 0001:00032D82
  4275 0001:00032D94  4276 0001:00032DA6  4277 0001:00032DB8  4278 0001:00032DCA
  4279 0001:00032DDC  4280 0001:00032DEE  4281 0001:00032E00  4282 0001:00032E12
  4283 0001:00032E24  4284 0001:00032E36  4285 0001:00032E48  4286 0001:00032E5A
  4287 0001:00032E6C  4288 0001:00032E7E  4289 0001:00032E90  4290 0001:00032EA2
  4291 0001:00032EB4  4292 0001:00032EC6  4293 0001:00032ED8  4294 0001:00032EEA
  4295 0001:00032EFC  4296 0001:00032F0E  4297 0001:00032F20  4298 0001:00032F32
  4299 0001:00032F44  4300 0001:00032F56  4301 0001:00032F68  4302 0001:00032F7A
  4303 0001:00032F8C  4304 0001:00032F9E  4305 0001:00032FB0  4306 0001:00032FC2
  4307 0001:00032FD4  4308 0001:00032FE6  4309 0001:00032FF8  4310 0001:0003300A
  4311 0001:0003301C  4312 0001:0003302E  4313 0001:00033040  4314 0001:00033052
  4315 0001:00033064  4316 0001:00033076  4317 0001:00033088  4318 0001:0003309A
  4319 0001:000330AC  4320 0001:000330BE  4321 0001:000330D0  4322 0001:000330E2
  4323 0001:000330F4  4324 0001:00033106  4325 0001:00033118  4326 0001:0003312A
  4327 0001:0003313C  4328 0001:0003314E  4329 0001:00033160  4330 0001:00033172
  4331 0001:00033184  4332 0001:00033196  4333 0001:000331A8  4334 0001:000331BA
  4335 0001:000331CC  4336 0001:000331DE  4337 0001:000331F0  4338 0001:00033202
  4339 0001:00033214  4340 0001:00033226  4341 0001:00033238  4342 0001:0003324A
  4343 0001:0003325C  4344 0001:0003326E  4345 0001:00033280  4346 0001:00033292
  4347 0001:000332A4  4348 0001:000332B6  4349 0001:000332C8  4350 0001:000332DA
  4351 0001:000332EC  4352 0001:000332FE  4353 0001:00033310  4354 0001:00033322
  4355 0001:00033334  4356 0001:00033346  4357 0001:00033358  4358 0001:0003336A
  4359 0001:0003337C  4360 0001:0003338E  4361 0001:000333A0  4362 0001:000333B2
  4363 0001:000333C4  4364 0001:000333D6  4365 0001:000333E8  4366 0001:000333FA
  4367 0001:0003340C  4368 0001:0003341E  4369 0001:00033430  4370 0001:00033442
  4371 0001:00033454  4372 0001:00033466  4373 0001:00033478  4374 0001:0003348A
  4375 0001:0003349C  4376 0001:000334AE  4377 0001:000334C0  4378 0001:000334D2
  4379 0001:000334E4  4380 0001:000334F6  4381 0001:00033508  4382 0001:0003351A
  4383 0001:0003352C  4384 0001:0003353E  4385 0001:00033550  4386 0001:00033562
  4387 0001:00033574  4388 0001:00033586  4389 0001:00033598  4390 0001:000335AA
  4391 0001:000335BC  4392 0001:000335CE  4393 0001:000335E0  4394 0001:000335F2
  4395 0001:00033604  4396 0001:00033616  4397 0001:00033628  4398 0001:0003363A
  4399 0001:0003364C  4400 0001:0003365E  4401 0001:00033670  4402 0001:00033682
  4403 0001:00033694  4404 0001:000336A6  4405 0001:000336B8  4406 0001:000336CA
  4407 0001:000336DC  4408 0001:000336EE  4409 0001:00033700  4410 0001:00033712
  4411 0001:00033724  4412 0001:00033736  4413 0001:00033748  4414 0001:0003375A
  4415 0001:0003376C  4416 0001:0003377E  4417 0001:00033790  4418 0001:000337A2
  4419 0001:000337B4  4420 0001:000337C6  4421 0001:000337D8  4422 0001:000337EA
  4423 0001:000337FC  4424 0001:0003380E  4425 0001:00033820  4426 0001:00033832
  4427 0001:00033844  4428 0001:00033856  4429 0001:00033868  4430 0001:0003387A
  4431 0001:0003388C  4432 0001:0003389E  4433 0001:000338B0  4434 0001:000338C2
  4435 0001:000338D4  4436 0001:000338E6  4437 0001:000338F8  4438 0001:0003390A
  4439 0001:0003391C  4440 0001:0003392E  4441 0001:00033940  4442 0001:00033952
  4443 0001:00033964  4444 0001:00033976  4445 0001:00033988  4446 0001:0003399A
  4447 0001:000339AC  4448 0001:000339BE  4449 0001:000339D0  4450 0001:000339E2
  4451 0001:000339F4  4452 0001:00033A06  4453 0001:00033A18  4454 0001:00033A2A
  4455 0001:00033A3C  4456 0001:00033A4E  4457 0001:00033A60  4458 0001:00033A72
  4459 0001:00033A84  4460 0001:00033A96  4461 0001:00033AA8  4462 0001:00033ABA
  4463 0001:00033ACC  4464 0001:00033ADE  4465 0001:00033AF0  4466 0001:00033B02
  4467 0001:00033B14  4468 0001:00033B26  4469 0001:00033B38  4470 0001:00033B4A
  4471 0001:00033B5C  4472 0001:00033B6E  4473 0001:00033B80  4474 0001:00033B92
  4475 0001:00033BA4  4476 0001:00033BB6  4477 0001:00033BC8  4478 0001:00033BDA
  4479 0001:00033BEC  4480 0001:00033BFE  4481 0001:00033C10  4482 0001:00033C22
  4483 0001:00033C34  4484 0001:00033C46  4485 0001:00033C58  4486 0001:00033C6A
  4487 0001:00033C7C  4488 0001:00033C8E  4489 0001:00033CA0  4490 0001:00033CB2
  4491 0001:00033CC4  4492 0001:00033CD6  4493 0001:00033CE8  4494 0001:00033CFA
  4495 0001:00033D0C  4496 0001:00033D1E  4497 0001:00033D30  4498 0001:00033D42
  4499 0001:00033D54  4500 0001:00033D66  4501 0001:00033D78  4502 0001:00033D8A
  4503 0001:00033D9C  4504 0001:00033DAE  4505 0001:00033DC0  4506 0001:00033DD2
  4507 0001:00033DE4  4508 0001:00033DF6  4509 0001:00033E08  4510 0001:00033E1A
  4511 0001:00033E2C  4512 0001:00033E3E  4513 0001:00033E50  4514 0001:00033E62
  4515 0001:00033E74  4516 0001:00033E86  4517 0001:00033E98  4518 0001:00033EAA
  4519 0001:00033EBC  4520 0001:00033ECE  4521 0001:00033EE0  4522 0001:00033EF2
  4523 0001:00033F04  4524 0001:00033F16  4525 0001:00033F28  4526 0001:00033F3A
  4527 0001:00033F4C  4528 0001:00033F5E  4529 0001:00033F70  4530 0001:00033F82
  4531 0001:00033F94  4532 0001:00033FA4  4536 0001:00035FB8  4537 0001:00035FBA
  4540 0001:00035FBC  4541 0001:00035FD5  4542 0001:00035FDE  4543 0001:00036000
  4549 0001:00036068  4550 0001:00036082  4552 0001:0003608C  4553 0001:000360A4
  4554 0001:000360A9  4555 0001:000360AF  4556 0001:000360B4  4557 0001:000360ED
  4558 0001:00036127  4559 0001:0003615C  4560 0001:00036191  4561 0001:000361C9
  4562 0001:000361FE  4563 0001:00036236  4564 0001:0003626E  4565 0001:000362A9
  4566 0001:000362E4  4567 0001:0003631F  4568 0001:00036360  4569 0001:00036395
  4571 0001:000363A6  4572 0001:000363B6  4578 0001:00036680  4579 0001:0003669F
  4580 0001:000366A9  4581 0001:000366C8  4582 0001:000366DA  4581 0001:000366F3
  4583 0001:000366F6  4584 0001:00036707  4594 0001:00036740  4595 0001:00036745
  4600 0001:00036748  4612 0001:0003674B  4613 0001:00036752  4648 0001:00036754
  4649 0001:00036759  4654 0001:0003675C  4655 0001:0003675F  4684 0001:0003676B
  4687 0001:00036D00  4688 0001:00036D03  4723 0001:00036D0F  4726 0001:000374F4
  4727 0001:000374F7  4752 0001:00037503  4757 0001:00037AFC  4758 0001:00037B15
  4759 0001:00037B1F  4760 0001:00037B2E  4788 0001:00037B3C  4813 0001:00037B48
  4818 0001:000389E8  4819 0001:000389FE  4820 0001:00038A16  4821 0001:00038A23
  4822 0001:00038A33  4823 0001:00038A43  4824 0001:00038A53  4825 0001:00038A63
  4826 0001:00038A73  4827 0001:00038A83  4828 0001:00038A93  4829 0001:00038AA3
  4830 0001:00038AB3  4831 0001:00038AC3  4832 0001:00038AD3  4833 0001:00038AE3
  4834 0001:00038AF3  4835 0001:00038B03  4836 0001:00038B13  4837 0001:00038B23
  4838 0001:00038B33  4839 0001:00038B43  4840 0001:00038B53  4841 0001:00038B63
  4842 0001:00038B73  4843 0001:00038B83  4844 0001:00038B93  4845 0001:00038BA3
  4846 0001:00038BB3  4847 0001:00038BC3  4848 0001:00038BD3  4849 0001:00038BE3
  4850 0001:00038BF3  4851 0001:00038C03  4852 0001:00038C13  4853 0001:00038C25
  4854 0001:00038C37  4855 0001:00038C49  4856 0001:00038C5B  4857 0001:00038C6D
  4858 0001:00038C7F  4859 0001:00038C91  4860 0001:00038CA3  4861 0001:00038CB5
  4862 0001:00038CC7  4863 0001:00038CD9  4864 0001:00038CEB  4865 0001:00038CFB
  4920 0001:00039164  4924 0001:00039176  4928 0001:00039180  4932 0001:0003918A
  4936 0001:00039194  4940 0001:0003919E  4944 0001:000391A8  4948 0001:000391B2
  4952 0001:000391BC  4956 0001:000391C6  4960 0001:000391D0  4964 0001:000391DA
  4968 0001:000391E4

Line numbers for Dbx34DrvDbms(Dbx34DrvDbms.pas) segment .itext

  4867 0002:00000138  4871 0002:00000141  4875 0002:0000014B  4879 0002:00000155
  4883 0002:0000015F  4887 0002:00000169  4891 0002:00000173  4895 0002:0000017D
  4899 0002:00000187  4903 0002:00000191  4907 0002:0000019B  4911 0002:000001A5
  4915 0002:000001AF  4916 0002:000001B9

Line numbers for Dbx34Drv(Dbx34Drv.pas) segment .text

   516 0001:0003A370   517 0001:0003A3A4   518 0001:0003A3AB   519 0001:0003A3B5
   520 0001:0003A3C1   521 0001:0003A3CB   523 0001:0003A3D4   524 0001:0003A3E2
   525 0001:0003A3F3   526 0001:0003A3FB   529 0001:0003A41C   521 0001:0003A41D
   530 0001:0003A420   536 0001:0003A468   537 0001:0003A49F   538 0001:0003A4A7
   539 0001:0003A4B1   540 0001:0003A4BD   541 0001:0003A4C7   543 0001:0003A4D0
   544 0001:0003A4DE   545 0001:0003A4EF   546 0001:0003A4F7   549 0001:0003A51F
   541 0001:0003A520   550 0001:0003A523   551 0001:0003A52D   611 0001:0003A5B0
   612 0001:0003A5E2   614 0001:0003A618   615 0001:0003A62C   618 0001:0003A6F4
   619 0001:0003A71F   620 0001:0003A72F   621 0001:0003A73F   634 0001:0003A790
   635 0001:0003A7B6   636 0001:0003A7BA   637 0001:0003A7C4   639 0001:0003A7DA
   640 0001:0003A7ED   642 0001:0003A7F6   644 0001:0003A80B   646 0001:0003A815
   647 0001:0003A822   648 0001:0003A844   649 0001:0003A848   653 0001:0003A854
   654 0001:0003A864   655 0001:0003A873   656 0001:0003A895   658 0001:0003A899
   659 0001:0003A8A5   670 0001:0003A8B0   672 0001:0003A8BA   673 0001:0003A8D8
   674 0001:0003A8F2   676 0001:0003A8F6   681 0001:0003A950   682 0001:0003A969
   683 0001:0003A96B   685 0001:0003A970   686 0001:0003A97A   688 0001:0003A980
   689 0001:0003A98C   691 0001:0003A999   692 0001:0003A9AD   696 0001:0003A9AF
   699 0001:0003A9DC   700 0001:0003A9DF   702 0001:0003A9E4   703 0001:0003A9F0
   706 0001:0003A9F4   707 0001:0003A9FB   710 0001:0003AA28   711 0001:0003AA2B
   713 0001:0003AA30   714 0001:0003AA3C   717 0001:0003AA40   718 0001:0003AA47
   725 0001:0003AA70   727 0001:0003AAAD   728 0001:0003AABF   730 0001:0003AAD7
   735 0001:0003AAE6   743 0001:0003AB28   744 0001:0003AB2B   745 0001:0003AB3A
   751 0001:0003AB40   752 0001:0003AB47   753 0001:0003AB50   754 0001:0003AB5E
   755 0001:0003AB67   756 0001:0003AB7D   761 0001:0003AB84   762 0001:0003AB8E
   764 0001:0003AB94   766 0001:0003AB9E   767 0001:0003ABAC   769 0001:0003ABC0
   770 0001:0003ABC9   771 0001:0003ABD1   777 0001:0003ABDA   780 0001:0003ABEF
   788 0001:0003ABFA   791 0001:0003AC0A   795 0001:0003AC10   797 0001:0003AC15
   800 0001:0003AC18   801 0001:0003AC2B   803 0001:0003AC33   812 0001:0003AC54
   813 0001:0003AC79   817 0001:0003AC82   818 0001:0003AC93   832 0001:0003ACA4
   861 0001:0003ACC0   864 0001:0003ADFC   865 0001:0003AE02   866 0001:0003AE10
   870 0001:0003AE44   871 0001:0003AE50   874 0001:0003AE84   875 0001:0003AE8A
   876 0001:0003AE98   880 0001:0003AEBC   881 0001:0003AEC8   884 0001:0003AEEC
   885 0001:0003AEF2   886 0001:0003AF00   890 0001:0003AF24   891 0001:0003AF30
   894 0001:0003AF54   895 0001:0003AF5A   896 0001:0003AF68   900 0001:0003AF8C
   901 0001:0003AF98   904 0001:0003AFBC   905 0001:0003AFD2   906 0001:0003AFEE
   909 0001:0003B038   910 0001:0003B051   911 0001:0003B06A   914 0001:0003B0B0
   915 0001:0003B0B6   916 0001:0003B0C4   920 0001:0003B10C   921 0001:0003B118
   924 0001:0003B160   925 0001:0003B166   926 0001:0003B174   930 0001:0003B1A8
   931 0001:0003B1B4   934 0001:0003B1E8   935 0001:0003B1FE   936 0001:0003B219
   939 0001:0003B25C   940 0001:0003B275   941 0001:0003B290   944 0001:0003B2D4
   945 0001:0003B2DA   946 0001:0003B2E8   950 0001:0003B314   951 0001:0003B320
   970 0001:0003B34C   971 0001:0003B377   972 0001:0003B386   973 0001:0003B392
   979 0001:0003B3A1   982 0001:0003B3BA   983 0001:0003B3C9   986 0001:0003B3EB
   987 0001:0003B3F8   990 0001:0003B407   991 0001:0003B413   992 0001:0003B41F
   993 0001:0003B42D   997 0001:0003B44F   998 0001:0003B45A  1001 0001:0003B464
  1002 0001:0003B46E  1004 0001:0003B47B  1005 0001:0003B488  1006 0001:0003B496
  1009 0001:0003B4AF  1011 0001:0003B4B3  1013 0001:0003B4BE  1016 0001:0003B4D8
  1019 0001:0003B4E8  1022 0001:0003B5E0  1023 0001:0003B5E3  1025 0001:0003B5EA
  1026 0001:0003B5F0  1028 0001:0003B5F5  1089 0001:0003B5F8  1090 0001:0003B5FE
  1091 0001:0003B608  1094 0001:0003B60C  1095 0001:0003B60F  1096 0001:0003B61B
  1101 0001:0003B644  1106 0001:0003B648  1115 0001:0003B64C  1116 0001:0003B662
  1118 0001:0003B6D0  1119 0001:0003B6E7  1120 0001:0003B6F9  1121 0001:0003B70A
  1123 0001:0003B70F  1124 0001:0003B721  1125 0001:0003B730  1126 0001:0003B734
  1127 0001:0003B748  1128 0001:0003B757  1130 0001:0003B75C  1131 0001:0003B763
  1132 0001:0003B76A  1133 0001:0003B771  1139 0001:0003B840  1143 0001:0003B862
  1144 0001:0003B871  1145 0001:0003B87D  1147 0001:0003B891  1148 0001:0003B8A0
  1151 0001:0003B8C2  1152 0001:0003B8CF  1155 0001:0003B8E3  1156 0001:0003B8FB
  1157 0001:0003B913  1158 0001:0003B920  1159 0001:0003B92B  1160 0001:0003B93B
  1162 0001:0003B949  1163 0001:0003B967  1167 0001:0003B98B  1168 0001:0003B99A
  1170 0001:0003B9A4  1171 0001:0003B9BC  1172 0001:0003B9D4  1173 0001:0003B9E1
  1174 0001:0003B9EC  1175 0001:0003BA0A  1181 0001:0003BA2E  1184 0001:0003BC04
  1186 0001:0003BC1D  1187 0001:0003BC3A  1188 0001:0003BC57  1194 0001:0003BCF0
  1199 0001:0003BCF4  1208 0001:0003BCF9  1212 0001:0003BCFC  1214 0001:0003BD01
  1219 0001:0003BD04  1223 0001:0003BD14  1226 0001:0003BD18  1227 0001:0003BD21
  1228 0001:0003BD2F  1230 0001:0003BD3C  1231 0001:0003BD48  1236 0001:0003BD94
  1237 0001:0003BDA9  1238 0001:0003BDB6  1242 0001:0003BDD4  1243 0001:0003BDD9
  1314 0001:0003BDDC  1315 0001:0003BDF5  1316 0001:0003BDF9  1320 0001:0003BDFD
  1340 0001:0003BE29  1342 0001:0003BE36  1347 0001:0003BEB4  1348 0001:0003BEBA
  1350 0001:0003BEC0  1351 0001:0003BEC2  1354 0001:0003BEF7  1356 0001:0003BF00
  1358 0001:0003BF16  1359 0001:0003BF26  1363 0001:0003BF29  1364 0001:0003BF32
  1367 0001:0003BF38  1368 0001:0003BF3B  1369 0001:0003BF42  1370 0001:0003BF46
  1371 0001:0003BF4D  1381 0001:0003BF50  1382 0001:0003BF56  1383 0001:0003BF5F
  1384 0001:0003BF6B  1392 0001:0003BF94  1393 0001:0003BF9A  1394 0001:0003BFA4
  1397 0001:0003BFA8  1398 0001:0003BFAE  1399 0001:0003BFB8  1408 0001:0003BFBC
  1409 0001:0003BFBE  1413 0001:0003BFC0  1414 0001:0003BFC2  1418 0001:0003BFC4
  1419 0001:0003BFC6  1423 0001:0003BFC8  1424 0001:0003BFCA  1428 0001:0003BFCC
  1429 0001:0003BFCE  1432 0001:0003BFD0  1433 0001:0003BFD6  1434 0001:0003BFE0
  1437 0001:0003BFE4  1438 0001:0003BFEA  1439 0001:0003BFF4  1443 0001:0003BFF8
  1444 0001:0003BFFA  1448 0001:0003BFFC  1449 0001:0003BFFE  1453 0001:0003C000
  1454 0001:0003C002  1458 0001:0003C004  1459 0001:0003C006  1463 0001:0003C008
  1464 0001:0003C00F  1479 0001:0003C010  1480 0001:0003C015  1485 0001:0003C018
  1486 0001:0003C01B  1487 0001:0003C028  1493 0001:0003C02C  1494 0001:0003C031
  1503 0001:0003C034  1504 0001:0003C055  1506 0001:0003C06A  1507 0001:0003C089
  1509 0001:0003C0B3  1510 0001:0003C0C2  1511 0001:0003C0C6  1512 0001:0003C0F0
  1519 0001:0003C116  1520 0001:0003C122  1522 0001:0003C130  1523 0001:0003C13D
  1524 0001:0003C14B  1525 0001:0003C155  1527 0001:0003C16A  1530 0001:0003C182
  1536 0001:0003C192  1537 0001:0003C19B  1539 0001:0003C1A7  1557 0001:0003C220
  1558 0001:0003C243  1559 0001:0003C24D  1560 0001:0003C256  1561 0001:0003C25C
  1564 0001:0003C25F  1569 0001:0003C268  1571 0001:0003C26C  1572 0001:0003C278
  1573 0001:0003C27B  1574 0001:0003C289  1575 0001:0003C28C  1576 0001:0003C297
  1577 0001:0003C29B  1579 0001:0003C2A4  1580 0001:0003C2B8  1586 0001:0003C2C1
  1587 0001:0003C2D7  1590 0001:0003C300  1592 0001:0003C303  1593 0001:0003C30F
  1598 0001:0003C338  1599 0001:0003C356  1600 0001:0003C35D  1602 0001:0003C36B
  1604 0001:0003C37A  1606 0001:0003C38C  1607 0001:0003C3B1  1609 0001:0003C3BA
  1611 0001:0003C3C1  1612 0001:0003C3CB  1613 0001:0003C3F0  1614 0001:0003C3F4
  1615 0001:0003C419  1617 0001:0003C41D  1618 0001:0003C431  1620 0001:0003C437
  1621 0001:0003C448  1622 0001:0003C451  1623 0001:0003C462  1626 0001:0003C469
  1628 0001:0003C46E  1629 0001:0003C474  1630 0001:0003C478  1631 0001:0003C481
  1632 0001:0003C488  1633 0001:0003C48B  1637 0001:0003C590  1638 0001:0003C598
  1642 0001:0003C59C  1643 0001:0003C5A1  1648 0001:0003C5A4  1652 0001:0003C5A9
  1657 0001:0003C5AC  1658 0001:0003C5BE  1659 0001:0003C5C2  1660 0001:0003C5CB
  1682 0001:0003C5E8  1683 0001:0003C5FE  1684 0001:0003C602  1685 0001:0003C60A
  1686 0001:0003C626  1695 0001:0003C650  1696 0001:0003C664  1708 0001:0003C668
  1709 0001:0003C670  1711 0001:0003C687  1723 0001:0003C6D0  1724 0001:0003C6EE
  1726 0001:0003C6FA  1727 0001:0003C704  1728 0001:0003C713  1729 0001:0003C71B
  1730 0001:0003C71F  1731 0001:0003C732  1732 0001:0003C740  1733 0001:0003C74C
  1735 0001:0003C763  1756 0001:0003C768  1759 0001:0003C770  1762 0001:0003C787
  1780 0001:0003C7F0  1781 0001:0003C81D  1783 0001:0003C837  1784 0001:0003C83E
  1785 0001:0003C848  1786 0001:0003C857  1787 0001:0003C85F  1788 0001:0003C873
  1789 0001:0003C881  1790 0001:0003C899  1792 0001:0003C8B3  1796 0001:0003C8B8
  1797 0001:0003C8D2  1798 0001:0003C8E0  1799 0001:0003C8E7  1800 0001:0003C8F1
  1801 0001:0003C904  1802 0001:0003C917  1803 0001:0003C92A  1804 0001:0003C93D
  1805 0001:0003C950  1806 0001:0003C968  1807 0001:0003C975  1808 0001:0003C985
  1809 0001:0003C995  1810 0001:0003C9A5  1811 0001:0003C9B5  1812 0001:0003C9C5
  1813 0001:0003C9D5  1814 0001:0003C9E5  1815 0001:0003C9FD  1816 0001:0003CA08
  1817 0001:0003CA16  1818 0001:0003CA24  1819 0001:0003CA32  1820 0001:0003CA40
  1821 0001:0003CA4E  1822 0001:0003CA5C  1824 0001:0003CA6A  1826 0001:0003CA88
  1827 0001:0003CA9E  1828 0001:0003CAA6  1830 0001:0003CAC8  1832 0001:0003CADF
  1837 0001:0003CAE4  1840 0001:0003CAEC  1843 0001:0003CB03  1856 0001:0003CCCC
  1857 0001:0003CCEC  1859 0001:0003CCF8  1860 0001:0003CCFC  1861 0001:0003CD06
  1862 0001:0003CD15  1863 0001:0003CD1D  1864 0001:0003CD30  1865 0001:0003CD3E
  1866 0001:0003CD50  1868 0001:0003CD67  1893 0001:0003CD6C  1901 0001:0003CD74
  1904 0001:0003CD8B  1917 0001:0003CDF4  1918 0001:0003CE17  1920 0001:0003CE20
  1921 0001:0003CE27  1922 0001:0003CE31  1923 0001:0003CE40  1924 0001:0003CE48
  1925 0001:0003CE5C  1926 0001:0003CE6A  1927 0001:0003CE7D  1929 0001:0003CE94
  1931 0001:0003CE99  1955 0001:0003CEA1  1959 0001:0003CEA9  1962 0001:0003CEC0
  1974 0001:0003CF2C  1975 0001:0003CF4C  1977 0001:0003CF52  1978 0001:0003CF56
  1979 0001:0003CF60  1980 0001:0003CF6F  1981 0001:0003CF77  1982 0001:0003CF8A
  1983 0001:0003CF98  1984 0001:0003CFAA  1986 0001:0003CFC1  2011 0001:0003CFC6
  2014 0001:0003CFCE  2017 0001:0003CFE5  2030 0001:0003D064  2031 0001:0003D084
  2033 0001:0003D08E  2034 0001:0003D092  2035 0001:0003D09C  2036 0001:0003D0AB
  2037 0001:0003D0B3  2038 0001:0003D0C6  2039 0001:0003D0D4  2041 0001:0003D0FA
  2043 0001:0003D111  2078 0001:0003D116  2081 0001:0003D11E  2084 0001:0003D135
  2096 0001:0003D1B4  2097 0001:0003D1D4  2099 0001:0003D1DA  2100 0001:0003D1DE
  2101 0001:0003D1E8  2102 0001:0003D1F7  2103 0001:0003D1FF  2104 0001:0003D212
  2105 0001:0003D220  2106 0001:0003D232  2108 0001:0003D249  2133 0001:0003D24E
  2136 0001:0003D256  2139 0001:0003D26D  2151 0001:0003D2E0  2153 0001:0003D30C
  2155 0001:0003D319  2156 0001:0003D320  2157 0001:0003D32A  2158 0001:0003D339
  2159 0001:0003D341  2160 0001:0003D355  2161 0001:0003D363  2162 0001:0003D37B
  2164 0001:0003D395  2168 0001:0003D39A  2169 0001:0003D3A7  2170 0001:0003D3B5
  2171 0001:0003D3BC  2172 0001:0003D3D4  2173 0001:0003D3E1  2174 0001:0003D3F1
  2175 0001:0003D401  2176 0001:0003D411  2177 0001:0003D429  2178 0001:0003D434
  2179 0001:0003D442  2180 0001:0003D450  2182 0001:0003D45E  2184 0001:0003D47C
  2185 0001:0003D492  2186 0001:0003D49A  2187 0001:0003D4B1  2189 0001:0003D4D3
  2191 0001:0003D4EA  2196 0001:0003D4EF  2197 0001:0003D4F7  2200 0001:0003D50E
  2203 0001:0003D525  2215 0001:0003D684  2216 0001:0003D6B0  2218 0001:0003D6B9
  2219 0001:0003D6C0  2220 0001:0003D6CA  2221 0001:0003D6D9  2222 0001:0003D6E1
  2223 0001:0003D6F5  2224 0001:0003D703  2225 0001:0003D717  2227 0001:0003D731
  2231 0001:0003D736  2232 0001:0003D743  2233 0001:0003D751  2234 0001:0003D758
  2235 0001:0003D770  2236 0001:0003D77D  2237 0001:0003D78D  2238 0001:0003D79D
  2239 0001:0003D7B5  2240 0001:0003D7C0  2241 0001:0003D7CE  2243 0001:0003D7DC
  2245 0001:0003D7FA  2246 0001:0003D810  2247 0001:0003D818  2248 0001:0003D82F
  2250 0001:0003D851  2252 0001:0003D868  2257 0001:0003D86D  2258 0001:0003D875
  2261 0001:0003D88C  2264 0001:0003D8A3  2277 0001:0003D9C8  2278 0001:0003D9E8
  2280 0001:0003D9EE  2281 0001:0003D9F2  2282 0001:0003D9FC  2283 0001:0003DA0B
  2284 0001:0003DA13  2285 0001:0003DA26  2286 0001:0003DA34  2287 0001:0003DA4A
  2289 0001:0003DA61  2316 0001:0003DA66  2319 0001:0003DA6E  2322 0001:0003DA85
  2336 0001:0003DAF8  2337 0001:0003DB18  2339 0001:0003DB1E  2340 0001:0003DB22
  2341 0001:0003DB2C  2342 0001:0003DB3B  2343 0001:0003DB43  2344 0001:0003DB56
  2345 0001:0003DB64  2346 0001:0003DB76  2348 0001:0003DB8D  2373 0001:0003DB92
  2381 0001:0003DB9A  2384 0001:0003DBB1  2396 0001:0003DC30  2397 0001:0003DC50
  2399 0001:0003DC56  2400 0001:0003DC5A  2401 0001:0003DC64  2402 0001:0003DC73
  2403 0001:0003DC7B  2404 0001:0003DC8E  2405 0001:0003DC9C  2406 0001:0003DCAE
  2408 0001:0003DCC5  2432 0001:0003DCCA  2435 0001:0003DCD2  2438 0001:0003DCE9
  2451 0001:0003DD58  2452 0001:0003DD7B  2454 0001:0003DD84  2455 0001:0003DD8B
  2456 0001:0003DD95  2457 0001:0003DDA4  2458 0001:0003DDAC  2459 0001:0003DDC0
  2460 0001:0003DDCE  2461 0001:0003DDE5  2463 0001:0003DDFC  2465 0001:0003DE01
  2490 0001:0003DE09  2494 0001:0003DE11  2497 0001:0003DE28  2510 0001:0003DEAC
  2511 0001:0003DECC  2513 0001:0003DED2  2514 0001:0003DED6  2515 0001:0003DEE0
  2516 0001:0003DEEF  2517 0001:0003DEF7  2518 0001:0003DF0A  2519 0001:0003DF18
  2520 0001:0003DF2A  2522 0001:0003DF41  2547 0001:0003DF46  2550 0001:0003DF4E
  2553 0001:0003DF65  2566 0001:0003DFD4  2567 0001:0003DFF4  2569 0001:0003DFFA
  2570 0001:0003DFFE  2571 0001:0003E008  2572 0001:0003E017  2573 0001:0003E01F
  2574 0001:0003E032  2575 0001:0003E040  2576 0001:0003E05A  2578 0001:0003E071
  2607 0001:0003E076  2610 0001:0003E07E  2613 0001:0003E095  2626 0001:0003E114
  2627 0001:0003E137  2629 0001:0003E144  2630 0001:0003E14B  2631 0001:0003E155
  2632 0001:0003E164  2633 0001:0003E16C  2634 0001:0003E180  2635 0001:0003E18E
  2636 0001:0003E1A9  2638 0001:0003E1C0  2640 0001:0003E1C5  2668 0001:0003E1CD
  2672 0001:0003E1D5  2675 0001:0003E1EC  2687 0001:0003E280  2688 0001:0003E2A0
  2690 0001:0003E2A6  2691 0001:0003E2AA  2692 0001:0003E2B4  2693 0001:0003E2C3
  2694 0001:0003E2CB  2695 0001:0003E2DE  2696 0001:0003E2EC  2697 0001:0003E2FE
  2699 0001:0003E315  2724 0001:0003E31A  2727 0001:0003E322  2730 0001:0003E339
  2739 0001:0003E3B4  2740 0001:0003E3CE  2742 0001:0003E3D4  2743 0001:0003E3D8
  2744 0001:0003E3EB  2745 0001:0003E3F9  2746 0001:0003E402  2748 0001:0003E419
  2765 0001:0003E41E  2768 0001:0003E426  2771 0001:0003E43D  2780 0001:0003E48C
  2781 0001:0003E4A6  2783 0001:0003E4AC  2784 0001:0003E4B0  2785 0001:0003E4C3
  2786 0001:0003E4D1  2787 0001:0003E4DA  2789 0001:0003E4F1  2806 0001:0003E4F6
  2809 0001:0003E4FE  2812 0001:0003E515  2822 0001:0003E564  2823 0001:0003E581
  2825 0001:0003E58A  2826 0001:0003E591  2827 0001:0003E5A5  2828 0001:0003E5B3
  2829 0001:0003E5BD  2831 0001:0003E5D4  2846 0001:0003E5D9  2847 0001:0003E5E7
  2849 0001:0003E5EF  2854 0001:0003E5F5  2858 0001:0003E60E  2860 0001:0003E62E
  2863 0001:0003E698  2864 0001:0003E69B  2865 0001:0003E6A7  2868 0001:0003E6D0
  2869 0001:0003E6D3  2872 0001:0003E6E0  2875 0001:0003E6E4  2876 0001:0003E6E7
  2877 0001:0003E6EE  2880 0001:0003E6F0  2881 0001:0003E6F3  2882 0001:0003E6FA
  2885 0001:0003E6FC  2886 0001:0003E6FF  2887 0001:0003E706  2890 0001:0003E708
  2891 0001:0003E70B  2892 0001:0003E712  2895 0001:0003E714  2896 0001:0003E717
  2897 0001:0003E71E  2900 0001:0003E720  2901 0001:0003E723  2902 0001:0003E72A
  2905 0001:0003E72C  2906 0001:0003E72F  2907 0001:0003E736  2910 0001:0003E738
  2911 0001:0003E73B  2912 0001:0003E742  2915 0001:0003E744  2916 0001:0003E747
  2917 0001:0003E74E  2920 0001:0003E750  2921 0001:0003E753  2922 0001:0003E75A
  2925 0001:0003E75C  2926 0001:0003E75F  2927 0001:0003E766  2930 0001:0003E768
  2931 0001:0003E76B  2932 0001:0003E772  2935 0001:0003E774  2936 0001:0003E777
  2937 0001:0003E77E  2940 0001:0003E780  2941 0001:0003E783  2942 0001:0003E78A
  2945 0001:0003E78C  2946 0001:0003E78F  2947 0001:0003E796  2950 0001:0003E798
  2951 0001:0003E79B  2952 0001:0003E7A2  2955 0001:0003E7A4  2956 0001:0003E7A7
  2957 0001:0003E7AE  2960 0001:0003E7B0  2961 0001:0003E7B3  2962 0001:0003E7BA
  2966 0001:0003E7BC  2967 0001:0003E7BE  2971 0001:0003E7C0  2972 0001:0003E7C2
  2995 0001:0003E7C4  2997 0001:0003E7E9  2999 0001:0003E7F3  3003 0001:0003E814

Line numbers for Dbx34Drv(Dbx34Drv.pas) segment .itext

  2983 0002:000001BC  2985 0002:000001D8  2987 0002:000001E8  2988 0002:000001EF
  2990 0002:000001F9  2993 0002:00000220

Line numbers for DbxXXDrv(DbxXXDrv.pas) segment .text

   132 0001:0003E858   140 0001:0003E85A

Line numbers for DbxXXDrv(DbxXXDrv.pas) segment .itext

   143 0002:00000264

Line numbers for DbxOpenOdbcApiHook(DbxOpenOdbcApiHook.pas) segment .text

   328 0001:0003EAC8   329 0001:0003EAD1   330 0001:0003EAE5   331 0001:0003EAE7
   333 0001:0003EAEF   334 0001:0003EAF3   335 0001:0003EAF5   336 0001:0003EAFC
   338 0001:0003EB01   339 0001:0003EB04   340 0001:0003EB05   341 0001:0003EB0B
   342 0001:0003EB14   343 0001:0003EB1A   344 0001:0003EB20   345 0001:0003EB2D
   346 0001:0003EB38   347 0001:0003EB3A   348 0001:0003EB3E   350 0001:0003EB44
   351 0001:0003EB47   352 0001:0003EB52   353 0001:0003EB57   356 0001:0003EB5A
   358 0001:0003EB65   360 0001:0003EB6E   361 0001:0003EB71   362 0001:0003EB7B
   364 0001:0003EB7C   365 0001:0003EB8C   366 0001:0003EB95   367 0001:0003EB9B
   369 0001:0003EBA4   371 0001:0003EBAD   374 0001:0003EBB2   376 0001:0003EBC1
   377 0001:0003EBD0   378 0001:0003EBDC   379 0001:0003EBE7   380 0001:0003EBEE
   383 0001:0003EBF1   385 0001:0003EC01   386 0001:0003EC6D   387 0001:0003EC74
   388 0001:0003EC7D   389 0001:0003EC86   390 0001:0003EC8F   391 0001:0003EC98
   392 0001:0003ECA1   393 0001:0003ECAA   394 0001:0003ECB3   395 0001:0003ECBC
   397 0001:0003ECC3   398 0001:0003ECCC   400 0001:0003ECE9   404 0001:0003ED05
   405 0001:0003ED25   406 0001:0003ED28   407 0001:0003ED2D   410 0001:0003ED32
   411 0001:0003ED4E   412 0001:0003ED56   415 0001:0003ED5B   416 0001:0003ED61
   418 0001:0003ED66   424 0001:0003ED69   426 0001:0003ED7C   428 0001:0003ED83
   433 0001:0003ED8C   434 0001:0003ED90   436 0001:0003ED92   437 0001:0003ED99
   438 0001:0003ED9B   440 0001:0003EDA5   441 0001:0003EDA7   442 0001:0003EDAB
   448 0001:0003EDB0   449 0001:0003EDBA   450 0001:0003EDBC   453 0001:0003EDBF
   454 0001:0003EDC8   455 0001:0003EDCA   451 0001:0003EDCC   458 0001:0003EDD1
   462 0001:0003EDDD   463 0001:0003EDE6   464 0001:0003EDF0   465 0001:0003EDF2
   475 0001:0003EDF8   476 0001:0003EE04   477 0001:0003EE08   478 0001:0003EE0D
   479 0001:0003EE1B   480 0001:0003EE1D   481 0001:0003EE26   484 0001:0003EE33
   485 0001:0003EE4B   486 0001:0003EE50   487 0001:0003EE65   497 0001:0003EE6A
   500 0001:0003EE6F   501 0001:0003EE84   502 0001:0003EE87   508 0001:0003EE8A
   510 0001:0003EE9D   511 0001:0003EEAE   518 0001:0003EEC2   520 0001:0003EEDC
   521 0001:0003EEE2   522 0001:0003EEEA   524 0001:0003EEF6   525 0001:0003EEFA
   531 0001:0003EF08   532 0001:0003EF16   533 0001:0003EF18   534 0001:0003EF1E
   535 0001:0003EF22   536 0001:0003EF28   538 0001:0003EF2C   539 0001:0003EF33
   541 0001:0003EF37   542 0001:0003EF44   551 0001:0003EF50   552 0001:0003EF5B
   553 0001:0003EF5F   554 0001:0003EF67   555 0001:0003EF75   556 0001:0003EF7E
   558 0001:0003EF85   559 0001:0003EF88   560 0001:0003EF8D   561 0001:0003EF94
   562 0001:0003EF9C   565 0001:0003EFA1   573 0001:0003EFAE   579 0001:0003EFBA
   581 0001:0003EFC9   588 0001:0003EFD6   590 0001:0003EFEF   592 0001:0003EFF8
   611 0001:0003F004   614 0001:0003F01D   618 0001:0003F024   625 0001:0003F028
   626 0001:0003F037   627 0001:0003F03B   628 0001:0003F03F   629 0001:0003F04D
   631 0001:0003F057   633 0001:0003F060   634 0001:0003F06B   637 0001:0003F074
   643 0001:0003F089   644 0001:0003F097   645 0001:0003F09B   646 0001:0003F0A8
   649 0001:0003F0AB   650 0001:0003F0AE   655 0001:0003F0B7   658 0001:0003F0C8
   659 0001:0003F0DB   666 0001:0003F0F4   673 0001:0003F100   674 0001:0003F10F
   675 0001:0003F113   677 0001:0003F133   678 0001:0003F13E   680 0001:0003F14C
   686 0001:0003F161   687 0001:0003F16F   689 0001:0003F17F   692 0001:0003F19B
   693 0001:0003F1AE   700 0001:0003F1C7   702 0001:0003F1DA   703 0001:0003F1DF
   707 0001:0003F1EC   708 0001:0003F1F4   710 0001:0003F1F7   713 0001:0003F1F9
   718 0001:0003F20E   730 0001:0003F210   732 0001:0003F213   735 0001:0003F21A
   737 0001:0003F23E   739 0001:0003F243   741 0001:0003F246   745 0001:0003F248
   747 0001:0003F249   750 0001:0003F24B   753 0001:0003F24F   755 0001:0003F251
   758 0001:0003F255   761 0001:0003F259   763 0001:0003F25B   766 0001:0003F25D
   755 0001:0003F260   769 0001:0003F264   772 0001:0003F268   774 0001:0003F29C
   776 0001:0003F2B4   779 0001:0003F304   780 0001:0003F306   784 0001:0003F330
   786 0001:0003F337   789 0001:0003F33B   792 0001:0003F34C   794 0001:0003F350
   796 0001:0003F35E   798 0001:0003F36D   802 0001:0003F371   806 0001:0003F375
   807 0001:0003F377   811 0001:0003F37C   813 0001:0003F383   816 0001:0003F387
   818 0001:0003F38D   821 0001:0003F391   823 0001:0003F39C   818 0001:0003F39F
   826 0001:0003F3A3   830 0001:0003F3A7   831 0001:0003F3A9   843 0001:0003F3B0
   846 0001:0003F3E4   849 0001:0003F404   851 0001:0003F407   853 0001:0003F412
   855 0001:0003F41A   858 0001:0003F41F   860 0001:0003F423   866 0001:0003F431
   868 0001:0003F437   871 0001:0003F457   873 0001:0003F45D   875 0001:0003F462
   878 0001:0003F46F   883 0001:0003F479   886 0001:0003F47F   889 0001:0003F49F
   892 0001:0003F4AC   894 0001:0003F4AE   898 0001:0003F4B4   900 0001:0003F4C0
   903 0001:0003F4C4   906 0001:0003F4D7   909 0001:0003F4EA   911 0001:0003F4F7
   913 0001:0003F4FC   915 0001:0003F507   920 0001:0003F50F   880 0001:0003F512
   925 0001:0003F521   927 0001:0003F53C   863 0001:0003F53F   931 0001:0003F557
   934 0001:0003F590   937 0001:0003F5C1   940 0001:0003F5D9   942 0001:0003F5F8
   947 0001:0003F624   950 0001:0003F653   953 0001:0003F65F   955 0001:0003F66D
   957 0001:0003F67E   960 0001:0003F684   962 0001:0003F692   967 0001:0003F6A2
   969 0001:0003F6A4   971 0001:0003F6B0   973 0001:0003F6C3   964 0001:0003F6CA
   977 0001:0003F6E4   982 0001:0003F701   985 0001:0003F715   991 0001:0003F740
   994 0001:0003F781   997 0001:0003F78D   999 0001:0003F79B  1001 0001:0003F79F
  1004 0001:0003F7C7  1006 0001:0003F7D8  1009 0001:0003F7DE  1011 0001:0003F7E9
  1016 0001:0003F7FE  1018 0001:0003F80E  1020 0001:0003F812  1025 0001:0003F81B
  1027 0001:0003F82C  1030 0001:0003F834  1032 0001:0003F841  1034 0001:0003F84F
  1036 0001:0003F87D  1038 0001:0003F892  1040 0001:0003F89D  1042 0001:0003F89F
  1044 0001:0003F8C6  1047 0001:0003F8E3  1052 0001:0003F8F9  1058 0001:0003F8FF
  1061 0001:0003F910  1064 0001:0003F924  1068 0001:0003F960  1071 0001:0003F997
  1074 0001:0003F9A3  1076 0001:0003F9B1  1078 0001:0003F9B6  1081 0001:0003F9C7
  1084 0001:0003F9F5  1087 0001:0003FA24  1089 0001:0003FA34  1092 0001:0003FA36
  1078 0001:0003FA37  1095 0001:0003FA47  1098 0001:0003FA5B  1103 0001:0003FA94
  1106 0001:0003FAA4  1109 0001:0003FAB0  1111 0001:0003FABE  1113 0001:0003FACE
  1115 0001:0003FADC  1120 0001:0003FAEB  1122 0001:0003FAED  1124 0001:0003FAF9
  1126 0001:0003FB10  1117 0001:0003FB17  1130 0001:0003FB31  1134 0001:0003FB4E
  1137 0001:0003FB62  1143 0001:0003FB6C  1146 0001:0003FB7A  1149 0001:0003FB86
  1151 0001:0003FB94  1153 0001:0003FBA2  1156 0001:0003FBBF  1158 0001:0003FBD0
  1163 0001:0003FBE0  1165 0001:0003FBE2  1167 0001:0003FBEE  1169 0001:0003FC07
  1160 0001:0003FC0E  1173 0001:0003FC28  1175 0001:0003FC38  1153 0001:0003FC3B
  1178 0001:0003FC51  1182 0001:0003FC71  1185 0001:0003FC85  1188 0001:0003FC8C
  1191 0001:0003FC98  1194 0001:0003FCA4  1196 0001:0003FCB2  1199 0001:0003FCCF
  1202 0001:0003FCE3  1205 0001:0003FCEC  1208 0001:0003FCF5  1211 0001:0003FD01
  1213 0001:0003FD0F  1216 0001:0003FD26  1219 0001:0003FD3A  1222 0001:0003FD44
  1225 0001:0003FD4E  1228 0001:0003FD5A  1230 0001:0003FD68  1233 0001:0003FD7B
  1236 0001:0003FD8F  1239 0001:0003FD94  1242 0001:0003FD9D  1245 0001:0003FDA9
  1247 0001:0003FDB7  1250 0001:0003FDD0  1253 0001:0003FDE4  1256 0001:0003FDEC
  1259 0001:0003FDFE  1262 0001:0003FE07  1265 0001:0003FE10  1268 0001:0003FE1F
  1270 0001:0003FE23  1273 0001:0003FE40  1276 0001:0003FE51  1278 0001:0003FE5F
  1280 0001:0003FE6D  1283 0001:0003FE89  1286 0001:0003FE9C  1289 0001:0003FEB5
  1292 0001:0003FECC  1311 0001:0003FEE0  1312 0001:0003FEE7  1313 0001:0003FEE9
  1324 0001:0003FEEC  1325 0001:0003FEF5  1326 0001:0003FEF8  1327 0001:0003FF02
  1329 0001:0003FF0A  1335 0001:0003FF1F  1336 0001:0003FF2D  1339 0001:0003FF3F
  1340 0001:0003FF52  1347 0001:0003FF6B  1350 0001:0003FF74  1351 0001:0003FF7E
  1352 0001:0003FF8C  1354 0001:0003FF91  1355 0001:0003FF9E  1356 0001:0003FFA8
  1352 0001:0003FFA9  1357 0001:0003FFB1  1359 0001:0003FFC3  1367 0001:0003FFCB
  1370 0001:0003FFD4  1371 0001:0003FFDA  1372 0001:0003FFE8  1376 0001:0003FFEC
  1377 0001:0003FFEE  1379 0001:0003FFF3  1380 0001:0003FFF4  1383 0001:0003FFFE
  1384 0001:00040000

Line numbers for DbxOpenOdbcApiHook(DbxOpenOdbcApiHook.pas) segment .itext

  1386 0002:0000026C

Line numbers for DbxDBFix(DbxDBFix.pas) segment .itext

   982 0002:00000274

Line numbers for DbxOpenOdbcTypes(DbxOpenOdbcTypes.pas) segment .itext

   124 0002:0000027C

Line numbers for Winapi.CommCtrl(Winapi.CommCtrl.pas) segment .text

 13014 0001:00000000

Line numbers for Winapi.Qos(Winapi.Qos.pas) segment .text

   293 0001:00000000

Line numbers for Winapi.Winsock2(Winapi.WinSock2.pas) segment .text

  3405 0001:00000000

Line numbers for Winapi.IpExport(Winapi.IpExport.pas) segment .text

   445 0001:00000000

Line numbers for Winapi.ShellAPI(Winapi.ShellAPI.pas) segment .text

  1934 0001:00000000

Line numbers for Winapi.RegStr(Winapi.RegStr.pas) segment .text

  1877 0001:00000000

Line numbers for Winapi.WinInet(Winapi.WinInet.pas) segment .text

  3440 0001:00000000

Line numbers for Winapi.UrlMon(Winapi.UrlMon.pas) segment .text

  2139 0001:00000000

Line numbers for Winapi.ObjectArray(Winapi.ObjectArray.pas) segment .text

    61 0001:00000000

Line numbers for Winapi.StructuredQueryCondition(Winapi.StructuredQueryCondition.pas) segment .text

   136 0001:00000000

Line numbers for Winapi.PropSys(Winapi.PropSys.pas) segment .text

  1232 0001:00000000

Line numbers for Winapi.ShlObj(Winapi.ShlObj.pas) segment .text

 14386 0001:0004001C 14389 0001:00040024 14391 0001:0004002C 14938 0001:00040032

Line numbers for DbxOpenOdbcFuncs(DbxOpenOdbcFuncs.pas) segment .text

   235 0001:00040034   238 0001:00040038   239 0001:0004003A   243 0001:0004003C
   246 0001:00040040   247 0001:00040042   537 0001:00040044   539 0001:0004004B
   540 0001:00040061   541 0001:00040070   551 0001:00040085   554 0001:0004008C
   556 0001:00040093   557 0001:000400A9   558 0001:000400B8   568 0001:000400CD
   573 0001:000400D4   574 0001:000400F7   575 0001:000400FB   577 0001:0004012A
   578 0001:0004012F   579 0001:0004013D   580 0001:0004014B   581 0001:00040169
   582 0001:0004017B   583 0001:00040186   584 0001:000401A0   586 0001:000401B1
   589 0001:000401D0   590 0001:000401D5   595 0001:00040204   596 0001:00040211
   597 0001:00040215   599 0001:0004022E   600 0001:00040233   601 0001:00040241
   602 0001:0004024F   603 0001:00040262   604 0001:0004027B   606 0001:00040286
   607 0001:0004029C   609 0001:000402A5   610 0001:000402B6   614 0001:000402D4
   616 0001:000402E0   618 0001:000402FC   620 0001:0004030D   623 0001:0004032C
   624 0001:00040331   638 0001:0004033C   639 0001:00040371   640 0001:0004037E
   642 0001:000403A4   643 0001:000403BA   645 0001:000403C7   646 0001:000403E0
   648 0001:000403E8   649 0001:00040401   650 0001:00040406   654 0001:0004040A
   655 0001:0004040C   656 0001:00040416   657 0001:0004041B   661 0001:0004041D
   663 0001:00040421   664 0001:00040424   665 0001:00040428   668 0001:0004042A
   669 0001:00040438   659 0001:00040439   673 0001:00040440   676 0001:00040446
   679 0001:0004044B   682 0001:00040450   683 0001:00040461   686 0001:00040464
   687 0001:00040468   677 0001:0004046A   690 0001:00040476   694 0001:0004047C
   696 0001:0004048F   697 0001:00040497   699 0001:000404A1   700 0001:000404AB
   701 0001:000404C1   702 0001:000404CD   703 0001:000404DB   705 0001:000404DF
   706 0001:000404EA   710 0001:000404EF   712 0001:000404F2   711 0001:000404F3
   713 0001:000404FC   714 0001:000404FE   716 0001:00040509   717 0001:0004051D
   719 0001:00040527   722 0001:00040536   723 0001:0004053B   724 0001:0004053C
   725 0001:0004054B   726 0001:00040567   727 0001:00040574   732 0001:00040596
   738 0001:000405E1   739 0001:000405E7   741 0001:000405F4   742 0001:000405FF
   743 0001:00040605   745 0001:0004062A   752 0001:0004069C   754 0001:000406A0
   817 0001:000406A4   818 0001:000406A5   819 0001:000406A7   821 0001:000406A9
   822 0001:000406AA   823 0001:000406AC   824 0001:000406AE   825 0001:000406B0
   826 0001:000406B2   827 0001:000406B4   828 0001:000406B5   829 0001:000406B7
   830 0001:000406BA   831 0001:000406BD   832 0001:000406BF   833 0001:000406C1
   834 0001:000406C2   835 0001:000406C4   836 0001:000406C7   837 0001:000406CA
   838 0001:000406CC   839 0001:000406CE   840 0001:000406CF   841 0001:000406D1
   842 0001:000406D4   843 0001:000406D7   844 0001:000406DA   845 0001:000406DD
   846 0001:000406DF   848 0001:000406E1   849 0001:000406E4   850 0001:000406E7
   851 0001:000406E9   852 0001:000406EA   854 0001:000406EB   855 0001:000406ED
   856 0001:000406EE   869 0001:000406F0   870 0001:0004070E   871 0001:00040715
   872 0001:0004071D   873 0001:0004072A   874 0001:00040731   875 0001:00040736
   876 0001:0004073F   877 0001:0004075A   879 0001:0004077E   881 0001:00040782
   883 0001:00040795   885 0001:00040799   886 0001:000407A6   887 0001:000407C1
   891 0001:000407D4   892 0001:000407D8   895 0001:000407E9   899 0001:000407EE
   936 0001:00040818   937 0001:00040833   938 0001:0004083A   939 0001:00040845
   941 0001:0004084E   942 0001:00040858   943 0001:00040869   944 0001:00040873
   945 0001:00040878   946 0001:00040885   948 0001:00040897   950 0001:000408A7
   951 0001:000408CE   953 0001:000408D3   954 0001:000408DE   955 0001:000408F7
   956 0001:00040904   957 0001:0004091E   960 0001:00040928   965 0001:00040932
   966 0001:0004093A   967 0001:00040940   968 0001:00040955   969 0001:0004096E
   970 0001:0004097B   971 0001:00040985  1199 0001:000409DC  1200 0001:00040A02
  1201 0001:00040A06  1202 0001:00040A0F  1205 0001:00040A3D  1206 0001:00040A45
  1208 0001:00040A4B  1209 0001:00040A5A  1210 0001:00040A62  1211 0001:00040A74
  1212 0001:00040A8A  1215 0001:00040A8E  1221 0001:00040AD0  1222 0001:00040AF2
  1223 0001:00040AF6  1224 0001:00040AFF  1227 0001:00040B39  1228 0001:00040B49
  1229 0001:00040B58  1230 0001:00040B67  1232 0001:00040B6B  1233 0001:00040B7F
  1234 0001:00040B92  1236 0001:00040B98  1237 0001:00040BA7  1238 0001:00040BAF
  1239 0001:00040BBE  1240 0001:00040BCF  1244 0001:00040BD3  1254 0001:00040C30
  1255 0001:00040C40  1256 0001:00040C49  1259 0001:00040C50  1258 0001:00040C52
  1260 0001:00040C6B  1263 0001:00040C7F  1264 0001:00040C86  1266 0001:00040C8C
  1267 0001:00040CA9  1268 0001:00040CAD  1270 0001:00040CB9  1271 0001:00040CBE
  1272 0001:00040CC4  1275 0001:00040CCF  1276 0001:00040CF0  1278 0001:00040CFA
  1279 0001:00040D0D  1280 0001:00040D18  1285 0001:00040D40  1286 0001:00040D47
  1287 0001:00040D4B  1289 0001:00040D56  1290 0001:00040D58  1292 0001:00040D5C
  1293 0001:00040D65  1294 0001:00040D70  1296 0001:00040D72  1297 0001:00040D76
  1298 0001:00040D7D  1299 0001:00040D86  1300 0001:00040D94  1301 0001:00040D9E
  1312 0001:00040DA4  1313 0001:00040DC7  1314 0001:00040DCE  1316 0001:00040DD9
  1318 0001:00040DED  1320 0001:00040E01  1321 0001:00040E13  1322 0001:00040E1A
  1324 0001:00040E1E  1325 0001:00040E28  1328 0001:00040E34  1330 0001:00040E40
  1331 0001:00040E6B  1332 0001:00040E78  1335 0001:00040E7D  1337 0001:00040EEB
  1339 0001:00040EF9  1341 0001:00040F07  1343 0001:00040F15  1345 0001:00040F23
  1347 0001:00040F31  1349 0001:00040F3F  1351 0001:00040F4D  1353 0001:00040F5B
  1355 0001:00040F69  1358 0001:00040F75  1361 0001:00040F7A  1362 0001:00040F89
  1404 0001:00040F90  1413 0001:00041800  1414 0001:00041823  1415 0001:0004182A
  1417 0001:00041840  1418 0001:00041843  1419 0001:00041856  1420 0001:0004185D
  1421 0001:00041870  1422 0001:0004187A  1423 0001:0004188D  1424 0001:00041897
  1425 0001:000418AA  1426 0001:000418B4  1427 0001:000418C7  1428 0001:000418D1
  1429 0001:000418E4  1430 0001:000418EE  1431 0001:00041901  1432 0001:0004190B
  1433 0001:0004191E  1434 0001:00041928  1435 0001:0004193B  1436 0001:00041945
  1437 0001:00041958  1438 0001:00041962  1439 0001:00041975  1440 0001:0004197F
  1441 0001:00041992  1442 0001:0004199C  1443 0001:000419AF  1444 0001:000419B9
  1445 0001:000419CC  1446 0001:000419D3  1447 0001:000419E6  1448 0001:000419ED
  1449 0001:00041A00  1450 0001:00041A07  1451 0001:00041A1A  1452 0001:00041A21
  1453 0001:00041A34  1455 0001:00041A39  1457 0001:00041A55  1459 0001:00041A69
  1460 0001:00041A7B  1461 0001:00041A84  1463 0001:00041A88  1464 0001:00041A92
  1467 0001:00041A9E  1469 0001:00041AAA  1470 0001:00041ACD  1473 0001:00041ADA
  1485 0001:00041D78  1486 0001:00041D9F  1487 0001:00041DA7  1488 0001:00041DAF
  1489 0001:00041DB8  1490 0001:00041DBD  1492 0001:00041DC1  1494 0001:00041DC5
  1493 0001:00041DC6  1495 0001:00041DD2  1496 0001:00041DE5  1497 0001:00041DF7
  1499 0001:00041DF9  1504 0001:00041E00  1505 0001:00041E1F  1506 0001:00041E28
  1507 0001:00041E78  1509 0001:00041E7C  1510 0001:00041E85  1512 0001:00041E98
  1514 0001:00041ED4  1515 0001:00041EF3  1516 0001:00041EFA  1518 0001:00041F02
  1519 0001:00041F0C  1520 0001:00041F35  1522 0001:00041F3D  1524 0001:00041F4D
  1525 0001:00041F52  1541 0001:000420D4  1542 0001:000420E8  1543 0001:000420F6
  1544 0001:00042101  1546 0001:0004211F  1547 0001:0004212C  1548 0001:00042133
  1550 0001:00042137  1551 0001:00042141  1554 0001:0004214D  1557 0001:00042166
  1561 0001:00042176  1563 0001:000423D8  1564 0001:000423E7  1566 0001:00042427
  1568 0001:0004242F  1592 0001:00042612  1597 0001:000428AC  1598 0001:000428CC
  1599 0001:000428D6  1600 0001:000428FC  1601 0001:00042900  1602 0001:0004290F
  1610 0001:0004293C  1611 0001:0004293E  1612 0001:00042940  1613 0001:00042941
  1614 0001:00042943  1615 0001:00042945  1616 0001:00042947  1617 0001:00042949
  1618 0001:0004294B  1619 0001:0004294C  1620 0001:0004294D  1621 0001:0004294E
  1622 0001:0004294F  1623 0001:00042954  1640 0001:00042958  1641 0001:0004295A
  1642 0001:0004295C  1643 0001:0004295D  1644 0001:0004295F  1645 0001:00042962
  1646 0001:00042964  1647 0001:00042966  1648 0001:00042968  1649 0001:00042969
  1650 0001:0004296B  1651 0001:0004296C  1652 0001:0004296D  1653 0001:0004296E
  1654 0001:00042973  1671 0001:00042974  1672 0001:00042976  1673 0001:00042978
  1674 0001:00042979  1675 0001:0004297B  1676 0001:0004297D  1677 0001:0004297F
  1678 0001:00042981  1679 0001:00042983  1680 0001:00042984  1681 0001:00042987
  1682 0001:00042988  1683 0001:00042989  1684 0001:0004298A  1685 0001:0004298F
  1706 0001:00042990  1707 0001:00042992  1708 0001:00042994  1709 0001:00042995
  1710 0001:00042997  1711 0001:00042999  1712 0001:0004299B  1713 0001:0004299D
  1714 0001:0004299F  1715 0001:000429A0  1716 0001:000429A3  1717 0001:000429A4
  1718 0001:000429A5  1719 0001:000429A6  1720 0001:000429AB  1737 0001:000429AC
  1739 0001:000429B1  1740 0001:000429B9  1744 0001:000429C3  1745 0001:000429E7
  1756 0001:000429EC  1759 0001:000429F4  1761 0001:000429FC  1763 0001:00042A04
  1764 0001:00042A0A  1769 0001:00042A0F  1770 0001:00042A2F  1780 0001:00042A32
  1782 0001:00042A38  1785 0001:00042A3C  1786 0001:00042A43  1787 0001:00042A61
  1788 0001:00042A65  1789 0001:00042A66  1792 0001:00042A6C  1793 0001:00042A87
  1794 0001:00042AC0  1795 0001:00042AC4  1796 0001:00042AC5  1799 0001:00042AF4
  1800 0001:00042B11  1801 0001:00042B4E  1802 0001:00042B52  1803 0001:00042B53
  1806 0001:00042B80  1807 0001:00042B86  1808 0001:00042BA0  1809 0001:00042BA4
  1810 0001:00042BA5  1813 0001:00042BA8  1814 0001:00042BB2  1815 0001:00042BB6
  1816 0001:00042BBD  1818 0001:00042BCC  1819 0001:00042BCE  1821 0001:00042BD0
  1822 0001:00042BEC  1823 0001:00042BF0  1824 0001:00042BF2  1827 0001:00042BF8
  1828 0001:00042C16  1829 0001:00042C1A  1830 0001:00042C21  1832 0001:00042C2C
  1833 0001:00042C2E  1835 0001:00042C30  1836 0001:00042C67  1837 0001:00042C6B
  1838 0001:00042C6D  1841 0001:00042C9C  1842 0001:00042CBC  1843 0001:00042CC0
  1844 0001:00042CC7  1845 0001:00042CD6  1847 0001:00042CE5  1848 0001:00042CE7
  1850 0001:00042CE9  1851 0001:00042D24  1852 0001:00042D28  1853 0001:00042D2A
  1856 0001:00042D58  1857 0001:00042D61  1858 0001:00042D65  1859 0001:00042D6C
  1860 0001:00042D77  1862 0001:00042D82  1863 0001:00042D84  1865 0001:00042D86
  1866 0001:00042D9E  1867 0001:00042DA2  1868 0001:00042DA4  1880 0001:00042DA8
  1881 0001:00042DB6  1882 0001:00042DBA  1883 0001:00042DBC  1884 0001:00042DC6
  1885 0001:00042DD2  1890 0001:00042DD6  1891 0001:00042DDF  1892 0001:00042DF2
  1893 0001:00042DF3  1895 0001:00042DF7  1896 0001:00042DFB  1897 0001:00042E01
  1901 0001:00042E06  1915 0001:00042E0A  1916 0001:00042E19  1917 0001:00042E1F
  1918 0001:00042E21  1919 0001:00042E23  1920 0001:00042E27  1921 0001:00042E2B
  1922 0001:00042E2F  1901 0001:00042E3C  1927 0001:00042E40  1939 0001:00042E48
  1940 0001:00042E56  1941 0001:00042E5A  1942 0001:00042E5C  1943 0001:00042E66
  1944 0001:00042E74  1949 0001:00042E78  1950 0001:00042E81  1951 0001:00042E92
  1952 0001:00042E93  1954 0001:00042E97  1955 0001:00042E9B  1956 0001:00042E9D
  1960 0001:00042EA2  1974 0001:00042EA6  1975 0001:00042EB3  1976 0001:00042EB5
  1977 0001:00042EB7  1978 0001:00042EB9  1979 0001:00042EBD  1980 0001:00042EC1
  1981 0001:00042EC5  1960 0001:00042ED2  1986 0001:00042ED6  1989 0001:00042EE0
  1991 0001:00042EE9  1995 0001:00042EF4  2003 0001:00042EF8  2004 0001:00042F06
  2005 0001:00042F0A  2006 0001:00042F0C  2007 0001:00042F16  2009 0001:00042F1A
  2010 0001:00042F1C  2011 0001:00042F2F  2012 0001:00042F30  2014 0001:00042F34
  2015 0001:00042F38  2016 0001:00042F3E  2017 0001:00042F43  2019 0001:00042F47
  2020 0001:00042F56  2021 0001:00042F5C  2022 0001:00042F5E  2023 0001:00042F60
  2024 0001:00042F64  2025 0001:00042F68  2026 0001:00042F6C  2017 0001:00042F79
  2028 0001:00042F7D  2036 0001:00042F84  2037 0001:00042F92  2038 0001:00042F96
  2039 0001:00042F98  2040 0001:00042FA2  2042 0001:00042FA6  2043 0001:00042FA8
  2044 0001:00042FB9  2045 0001:00042FBA  2047 0001:00042FBE  2048 0001:00042FC2
  2049 0001:00042FC4  2050 0001:00042FC9  2052 0001:00042FCD  2053 0001:00042FDA
  2054 0001:00042FDC  2055 0001:00042FDE  2056 0001:00042FE0  2057 0001:00042FE4
  2058 0001:00042FE8  2059 0001:00042FEC  2050 0001:00042FF9  2061 0001:00042FFD
  2067 0001:00043004  2068 0001:0004302B  2069 0001:00043038  2071 0001:00043040
  2073 0001:00043046  2074 0001:0004305A  2075 0001:00043061  2077 0001:00043069
  2078 0001:00043071  2079 0001:00043077  2080 0001:00043078  2075 0001:00043079
  2085 0001:0004307F  2086 0001:000430B5  2088 0001:000430BB  2089 0001:000430CF
  2092 0001:000430E3  2096 0001:000430EE  2097 0001:000430F9  2103 0001:00043120
  2104 0001:00043134  2105 0001:0004313E  2107 0001:00043142  2108 0001:00043157
  2109 0001:0004315E  2111 0001:00043164  2113 0001:00043168  2114 0001:00043174
  2115 0001:0004317A  2116 0001:0004317B  2111 0001:0004317C  2121 0001:00043182
  2123 0001:00043186  2125 0001:00043192  2126 0001:00043198  2128 0001:0004319A
  2129 0001:0004319B  2121 0001:0004319C  2134 0001:000431A2  2135 0001:000431AD
  2141 0001:000431B8  2142 0001:000431E1  2143 0001:000431EA  2145 0001:000431F2
  2147 0001:000431F8  2148 0001:0004320A  2149 0001:00043211  2151 0001:00043219
  2152 0001:00043222  2153 0001:00043229  2154 0001:0004322C  2149 0001:0004322D
  2159 0001:00043233  2160 0001:0004326A  2162 0001:00043270  2163 0001:00043282
  2166 0001:00043292  2170 0001:0004329D  2171 0001:000432A6  2177 0001:000432CC
  2178 0001:000432E1  2179 0001:000432EB  2181 0001:000432EF  2182 0001:00043302
  2183 0001:00043309  2185 0001:0004330F  2187 0001:00043313  2188 0001:00043321
  2189 0001:00043328  2190 0001:0004332B  2185 0001:0004332C  2195 0001:00043332
  2197 0001:00043336  2199 0001:00043344  2200 0001:0004334B  2202 0001:0004334D
  2203 0001:00043350  2195 0001:00043351  2208 0001:00043357  2209 0001:00043360
  2215 0001:0004336C  2216 0001:00043390  2217 0001:00043399  2219 0001:0004339D
  2221 0001:000433A3  2222 0001:000433AA  2224 0001:000433AE  2225 0001:000433B3
  2226 0001:000433BA  2227 0001:000433BD  2222 0001:000433BE  2232 0001:000433C4
  2233 0001:000433F3  2234 0001:000433F7  2237 0001:00043407  2243 0001:00043430
  2244 0001:0004343E  2245 0001:0004344A  2247 0001:0004344E  2248 0001:00043458
  2250 0001:0004345E  2252 0001:00043462  2253 0001:0004346F  2254 0001:00043476
  2255 0001:00043479  2250 0001:0004347A  2260 0001:00043480  2262 0001:00043484
  2264 0001:00043491  2265 0001:00043498  2267 0001:0004349A  2268 0001:0004349D
  2260 0001:0004349E  2272 0001:000434A2  2280 0001:000434AC  2281 0001:000434CF
  2282 0001:000434D8  2284 0001:000434DC  2286 0001:000434E2  2287 0001:000434E9
  2289 0001:000434ED  2290 0001:000434F1  2291 0001:000434F7  2292 0001:000434F8
  2287 0001:000434F9  2297 0001:000434FF  2298 0001:0004352C  2299 0001:00043530
  2302 0001:0004353F  2308 0001:00043568  2309 0001:00043576  2310 0001:0004357F
  2312 0001:00043583  2313 0001:0004358A  2315 0001:00043590  2317 0001:00043594
  2318 0001:000435A0  2319 0001:000435A6  2320 0001:000435A7  2315 0001:000435A8
  2325 0001:000435AE  2327 0001:000435B2  2329 0001:000435BE  2330 0001:000435C4
  2332 0001:000435C6  2333 0001:000435C7  2325 0001:000435C8  2337 0001:000435CC
  2345 0001:000435D4  2346 0001:000435F8  2347 0001:00043601  2349 0001:00043605
  2351 0001:0004360B  2352 0001:00043612  2354 0001:00043616  2355 0001:0004361B
  2356 0001:00043622  2357 0001:00043625  2352 0001:00043626  2362 0001:0004362C
  2363 0001:00043659  2364 0001:0004365D  2367 0001:00043668  2373 0001:00043690
  2374 0001:0004369E  2375 0001:000436AA  2377 0001:000436AE  2378 0001:000436B8
  2380 0001:000436BE  2382 0001:000436C2  2383 0001:000436CF  2384 0001:000436D6
  2385 0001:000436D9  2380 0001:000436DA  2390 0001:000436E0  2392 0001:000436E4
  2394 0001:000436F1  2395 0001:000436F8  2397 0001:000436FA  2398 0001:000436FD
  2390 0001:000436FE  2402 0001:00043702  2430 0001:0004370C  2431 0001:0004370F
  2432 0001:0004371C  2457 0001:00043720  2458 0001:00043723  2459 0001:00043730
  2479 0001:00043734  2480 0001:00043737  2481 0001:00043744  2504 0001:00043748
  2505 0001:0004374B  2539 0001:00043752  2549 0001:0004375E  2551 0001:0004376C

Line numbers for DbxOpenOdbcFuncs(DbxOpenOdbcFuncs.pas) segment .itext

  2554 0002:00000284  2566 0002:0000028B

Line numbers for OdbcApi(OdbcApi.pas) segment .text

  5974 0001:00046F00  5975 0001:00046F07  6438 0001:00047028  6439 0001:0004703D
  6440 0001:00047046  6441 0001:0004705D  6442 0001:0004706C  6445 0001:00047088
  6446 0001:00047093  6447 0001:0004709C  6448 0001:000470A4  6449 0001:000470AF
  6455 0001:000470C0  6456 0001:000470CC  6458 0001:000470E3  6459 0001:000470EC
  6461 0001:000470F0  6462 0001:000470F2  6463 0001:000470FC  6464 0001:00047104
  6465 0001:00047111  6459 0001:00047113  6467 0001:00047117  6468 0001:00047122
  6456 0001:00047123  6469 0001:00047129  6474 0001:00047130  6475 0001:00047135
  6476 0001:00047137  6477 0001:0004714B  6478 0001:0004715F  6476 0001:00047160
  6479 0001:00047163  6485 0001:0004716C  6486 0001:00047178  6487 0001:00047194
  6488 0001:000471A6  6489 0001:000471B0  6490 0001:000471B6  6491 0001:000471BE
  6493 0001:000471C4  6494 0001:000471C6  6500 0001:000471CC  6501 0001:000471D0
  6502 0001:000471D5  6503 0001:000471D7  6505 0001:000471DB  6506 0001:000471DF
  6507 0001:000471E9  6508 0001:000471F1  6510 0001:000471FE  6515 0001:00047204
  6516 0001:0004720A  6517 0001:00047215  6518 0001:00047219  6520 0001:0004721F
  6521 0001:00047221  6526 0001:00047224  6527 0001:0004722B  6528 0001:00047247
  6531 0001:00047251  6534 0001:0004725D  6529 0001:0004725F  6536 0001:00047265
  6540 0001:0004726C  6541 0001:00047273  6545 0001:00047274  6546 0001:0004727C
  6581 0001:00047280  6582 0001:000472A0  6584 0001:000472A8  6583 0001:000472A9
  6585 0001:000472C0  6586 0001:000472EE  6587 0001:00047305  6588 0001:00047306
  6589 0001:0004730C  6602 0001:00047338  6603 0001:00047362  6604 0001:00047381
  6606 0001:00047385  6607 0001:000473A9  6608 0001:000473BC  6610 0001:000473C0
  6611 0001:000473D6  6613 0001:00047414  6614 0001:0004743A  6615 0001:0004743F
  6616 0001:00047454  6617 0001:0004745F  6619 0001:00047465  6620 0001:00047473
  6622 0001:00047478  6623 0001:0004747F  6624 0001:00047489  6630 0001:00047497
  6631 0001:000474A2  6632 0001:000474A7  6634 0001:000474AE  6635 0001:000474C3
  6640 0001:000474CD  6641 0001:00047502  6643 0001:00047512  6644 0001:0004753F
  6645 0001:00047545  6647 0001:00047562  6650 0001:0004756B  6653 0001:00047572
  6657 0001:000475C9  6658 0001:000475D9  6660 0001:000475DF  6661 0001:000475E5
  6666 0001:000475EF  6667 0001:00047624  6669 0001:00047634  6670 0001:00047661
  6671 0001:00047667  6673 0001:00047684  6676 0001:0004768D  6679 0001:00047694
  6680 0001:000476AA  6681 0001:000476B9  6682 0001:000476C1  6683 0001:000476D9
  6684 0001:000476EE  6688 0001:00047706  6689 0001:00047715  6690 0001:00047731
  6692 0001:00047739  6693 0001:00047744  6694 0001:0004775A  6696 0001:0004776D
  6699 0001:00047785  6700 0001:00047790  6704 0001:0004781D  6706 0001:00047831
  6707 0001:0004783F  6708 0001:0004784C  6711 0001:00047878  6712 0001:00047898
  6713 0001:000478B0  6714 0001:000478C5  6716 0001:000478CF  6720 0001:000479A2
  6723 0001:000479BA  6725 0001:000479CF  6729 0001:000479DF  6735 0001:000479F2
  6736 0001:00047A13  6750 0001:00047A19  6762 0001:00047A25  6765 0001:00047A2B
  6768 0001:00047A35  6769 0001:00047A44  6771 0001:00047A52  6773 0001:00047A62
  6774 0001:00047A6B  6775 0001:00047A70  6776 0001:00047A7A  6777 0001:00047A88
  6783 0001:00047A96  6784 0001:00047AB0  6786 0001:00047AB9  6787 0001:00047AD3
  6788 0001:00047AED  6790 0001:00047B07  6791 0001:00047B21  6792 0001:00047B3B
  6793 0001:00047B55  6794 0001:00047B6F  6795 0001:00047B90  6796 0001:00047BB1
  6797 0001:00047BD2  6798 0001:00047BEC  6799 0001:00047C0D  6800 0001:00047C2E
  6801 0001:00047C48  6802 0001:00047C62  6803 0001:00047C83  6804 0001:00047CA4
  6805 0001:00047CBE  6806 0001:00047CDB  6807 0001:00047CF8  6808 0001:00047D15
  6809 0001:00047D32  6810 0001:00047D4F  6811 0001:00047D6C  6812 0001:00047D90
  6813 0001:00047DB4  6814 0001:00047DD8  6815 0001:00047DF5  6816 0001:00047E19
  6817 0001:00047E3D  6818 0001:00047E61  6819 0001:00047E85  6820 0001:00047EA2
  6821 0001:00047EBF  6822 0001:00047EE3  6823 0001:00047F07  6824 0001:00047F24
  6825 0001:00047F48  6826 0001:00047F65  6827 0001:00047F82  6828 0001:00047FA6
  6829 0001:00047FC3  6830 0001:00047FE7  6831 0001:0004800B  6832 0001:0004802F
  6833 0001:00048053  6834 0001:00048077  6835 0001:00048094  6836 0001:000480B1
  6837 0001:000480CE  6838 0001:000480F2  6839 0001:0004810F  6840 0001:00048133
  6841 0001:00048157  6842 0001:0004817B  6844 0001:00048198  6845 0001:000481BC
  6846 0001:000481E0  6847 0001:000481FD  6848 0001:00048221  6849 0001:00048245
  6850 0001:00048262  6851 0001:0004827F  6852 0001:000482A3  6853 0001:000482C0
  6854 0001:000482E4  6855 0001:00048301  6856 0001:0004831E  6857 0001:00048342
  6858 0001:00048366  6859 0001:0004838A  6860 0001:000483A7  6861 0001:000483CB
  6862 0001:000483EF  6863 0001:0004840C  6864 0001:00048429  6866 0001:0004844D
  6868 0001:00048469  6870 0001:00048471  6872 0001:00048478  6873 0001:0004848D
  6874 0001:0004849D  6876 0001:000484AB  6877 0001:000484C2  6878 0001:000484DF
  6879 0001:000484FC  6880 0001:00048519  6881 0001:00048536  6884 0001:00048553
  6885 0001:00048568  6886 0001:00048578  6888 0001:00048582  6889 0001:00048599
  6903 0001:000485B6  6911 0001:000485FC  6933 0001:00048604  6934 0001:00048619
  6936 0001:00048625  6937 0001:0004862E  6939 0001:0004863A  6941 0001:00048644
  6944 0001:00048659  6949 0001:0004867D  6950 0001:00048685  6954 0001:0004869C
  6955 0001:000486A6  6956 0001:000486AC  6958 0001:000486BD  6961 0001:000492AC
  6962 0001:000492B2  6964 0001:000492B6  6965 0001:000492C0  6967 0001:000492CE
  6970 0001:000492D1  6971 0001:000492DD  6974 0001:000492F9  6976 0001:0004930B
  6981 0001:00049310  6983 0001:0004931B  6985 0001:00049322  6986 0001:00049327
  6987 0001:0004932C  6990 0001:00049334  6991 0001:0004933B  6992 0001:00049341
  6993 0001:00049348  6994 0001:0004934E  6995 0001:00049355  6996 0001:0004935B
  6997 0001:00049366  7003 0001:00049374  7004 0001:00049393  7006 0001:0004939F
  7008 0001:000493AC  7010 0001:000493B9  7012 0001:000493C6  7014 0001:000493CE
  7016 0001:00049419  7020 0001:000494E4  7021 0001:000494EE  7025 0001:000494F0
  7026 0001:000494FA  7031 0001:000494FC  7032 0001:00049502  7034 0001:00049508
  7035 0001:00049514  7040 0001:00049518  7041 0001:0004951C  7042 0001:00049522
  7044 0001:00049527  7045 0001:00049533  7049 0001:00049534  7050 0001:0004953C
  7051 0001:0004953F  7052 0001:00049548  7054 0001:0004955B  7055 0001:00049567
  7059 0001:00049590  7060 0001:00049598  7061 0001:0004959B  7062 0001:000495A1
  7065 0001:000495B1  7067 0001:000495C2  7069 0001:000495C8  7070 0001:000495D1
  7073 0001:000495D3  7075 0001:000495D9  7076 0001:000495E6  7079 0001:000495E8
  7081 0001:000495EE  7082 0001:000495FB  7089 0001:000495FD  7091 0001:00049609
  7096 0001:00049630  7097 0001:00049636  7099 0001:0004963C  7100 0001:00049648
  7106 0001:0004964C  7107 0001:00049655  7108 0001:00049658  7109 0001:0004965E
  7112 0001:0004967C  7113 0001:00049688  7119 0001:000496A8  7120 0001:000496B1
  7121 0001:000496B4  7122 0001:000496BA  7125 0001:000496E2  7126 0001:000496EE
  7132 0001:00049714  7133 0001:0004971D  7134 0001:00049720  7135 0001:00049729
  7138 0001:0004975D  7139 0001:00049769  7148 0001:00049794  7149 0001:000497BF
  7150 0001:000497C2  7151 0001:000497CB  7154 0001:000497EF  7157 0001:000497FC
  7158 0001:00049812  7159 0001:0004981F  7160 0001:00049831  7162 0001:00049836
  7164 0001:0004985F  7166 0001:00049865  7167 0001:00049870  7168 0001:00049880
  7169 0001:00049890  7170 0001:0004989F  7174 0001:000498B3  7175 0001:000498C1
  7179 0001:00049920  7180 0001:00049921  7181 0001:00049924  7182 0001:0004992D
  7184 0001:00049939  7185 0001:00049945  7189 0001:0004996C  7190 0001:0004996D
  7191 0001:00049970  7192 0001:00049976  7194 0001:0004997E  7195 0001:0004998A
  7199 0001:000499A8  7200 0001:000499A9  7201 0001:000499AC  7202 0001:000499B2
  7204 0001:000499BA  7205 0001:000499C3  7207 0001:000499CE  7208 0001:000499DA
  7222 0001:000499FC  7223 0001:00049A27  7224 0001:00049A2A  7225 0001:00049A30
  7228 0001:00049A56  7231 0001:00049A63  7232 0001:00049A7D  7234 0001:00049A83
  7235 0001:00049A95  7236 0001:00049A9D  7239 0001:00049AA4  7241 0001:00049AA7
  7244 0001:00049AC8  7246 0001:00049ADC  7247 0001:00049AE7  7248 0001:00049AF7
  7249 0001:00049B07  7250 0001:00049B14  7254 0001:00049B28  7256 0001:00049B3A
  7257 0001:00049B40  7258 0001:00049B45  7261 0001:00049B6B  7262 0001:00049B6F
  7263 0001:00049B76  7264 0001:00049B7C  7267 0001:00049B8D  7268 0001:00049B9B
  7274 0001:00049BE8  7275 0001:00049BEC  7279 0001:00049C07  7285 0001:00049C0C
  7286 0001:00049C10  7290 0001:00049C2B  7300 0001:00049C30  7301 0001:00049C5B
  7302 0001:00049C5E  7303 0001:00049C67  7305 0001:00049C8F  7308 0001:00049C9C
  7309 0001:00049CB0  7311 0001:00049CB6  7312 0001:00049CC5  7313 0001:00049CDA
  7314 0001:00049CE2  7317 0001:00049CEC  7318 0001:00049CEF  7319 0001:00049D0F
  7321 0001:00049D1E  7322 0001:00049D2C  7323 0001:00049D3C  7324 0001:00049D4B
  7325 0001:00049D58  7329 0001:00049D6C  7330 0001:00049D7A  7339 0001:00049DC8
  7340 0001:00049DF3  7341 0001:00049DF6  7342 0001:00049DFF  7348 0001:00049E31
  7351 0001:00049E3E  7353 0001:00049E54  7355 0001:00049E6A  7357 0001:00049E80
  7360 0001:00049E96  7367 0001:00049ED9  7368 0001:00049EE7  7376 0001:00049F44
  7377 0001:00049F6F  7378 0001:00049F72  7379 0001:00049F78  7385 0001:00049FA7
  7388 0001:00049FB4  7390 0001:00049FB8  7392 0001:00049FCD  7395 0001:00049FD9
  7396 0001:00049FDF  7398 0001:00049FE5  7400 0001:00049FFB  7403 0001:0004A008
  7404 0001:0004A00E  7406 0001:0004A014  7408 0001:0004A02A  7411 0001:0004A037
  7412 0001:0004A03D  7414 0001:0004A043  7416 0001:0004A059  7419 0001:0004A066
  7420 0001:0004A06C  7427 0001:0004A09B  7428 0001:0004A0A9  7436 0001:0004A0FC
  7437 0001:0004A125  7438 0001:0004A128  7439 0001:0004A12E  7444 0001:0004A154
  7447 0001:0004A161  7449 0001:0004A165  7451 0001:0004A17A  7454 0001:0004A186
  7455 0001:0004A18C  7457 0001:0004A192  7459 0001:0004A1A8  7462 0001:0004A1B5
  7463 0001:0004A1BB  7465 0001:0004A1C1  7467 0001:0004A1D7  7470 0001:0004A1E4
  7472 0001:0004A1EA  7478 0001:0004A210  7479 0001:0004A21E  7483 0001:0004A270
  7484 0001:0004A271  7485 0001:0004A274  7486 0001:0004A27A  7488 0001:0004A283
  7489 0001:0004A28F  7499 0001:0004A2AC  7500 0001:0004A2D8  7501 0001:0004A2DB
  7502 0001:0004A2E1  7506 0001:0004A30A  7509 0001:0004A317  7511 0001:0004A31C
  7512 0001:0004A327  7514 0001:0004A32F  7516 0001:0004A334  7517 0001:0004A340
  7520 0001:0004A348  7526 0001:0004A36F  7528 0001:0004A374  7529 0001:0004A382
  7530 0001:0004A392  7531 0001:0004A3A1  7532 0001:0004A3AE  7534 0001:0004A3C0
  7536 0001:0004A3C5  7537 0001:0004A3D3  7538 0001:0004A3E3  7539 0001:0004A3F3
  7540 0001:0004A400  7545 0001:0004A414  7546 0001:0004A422  7557 0001:0004A478
  7558 0001:0004A4A3  7559 0001:0004A4A6  7560 0001:0004A4AC  7564 0001:0004A4D8
  7567 0001:0004A4E5  7568 0001:0004A4EA  7569 0001:0004A4EC  7570 0001:0004A4F7
  7571 0001:0004A4FC  7572 0001:0004A510  7573 0001:0004A518  7577 0001:0004A547
  7579 0001:0004A550  7580 0001:0004A55E  7581 0001:0004A56E  7582 0001:0004A57D
  7583 0001:0004A58B  7587 0001:0004A59F  7588 0001:0004A5AD  7594 0001:0004A5FC
  7595 0001:0004A605  7596 0001:0004A608  7597 0001:0004A611  7599 0001:0004A631
  7600 0001:0004A63D  7604 0001:0004A668  7605 0001:0004A669  7606 0001:0004A66C
  7607 0001:0004A672  7609 0001:0004A67A  7610 0001:0004A686  7620 0001:0004A6A8
  7621 0001:0004A6D3  7622 0001:0004A6D6  7623 0001:0004A6DF  7626 0001:0004A70B
  7629 0001:0004A718  7631 0001:0004A71E  7632 0001:0004A734  7636 0001:0004A742
  7637 0001:0004A74A  7639 0001:0004A750  7640 0001:0004A757  7641 0001:0004A75B
  7642 0001:0004A76C  7644 0001:0004A787  7647 0001:0004A7B8  7649 0001:0004A7C7
  7650 0001:0004A7D5  7651 0001:0004A7E5  7652 0001:0004A7F4  7653 0001:0004A801
  7657 0001:0004A815  7658 0001:0004A823  7668 0001:0004A880  7669 0001:0004A8AF
  7670 0001:0004A8B5  7671 0001:0004A8BE  7675 0001:0004A8E8  7678 0001:0004A8F5
  7679 0001:0004A8FA  7680 0001:0004A8FC  7681 0001:0004A907  7682 0001:0004A90C
  7683 0001:0004A920  7685 0001:0004A928  7686 0001:0004A92D  7687 0001:0004A92F
  7688 0001:0004A93A  7689 0001:0004A93F  7690 0001:0004A953  7692 0001:0004A95B
  7698 0001:0004A98A  7700 0001:0004A999  7701 0001:0004A9A7  7702 0001:0004A9B7
  7703 0001:0004A9C6  7704 0001:0004A9D3  7707 0001:0004A9E5  7709 0001:0004A9F4
  7710 0001:0004AA02  7711 0001:0004AA12  7712 0001:0004AA21  7713 0001:0004AA2E
  7717 0001:0004AA42  7718 0001:0004AA50  7722 0001:0004AAA4  7723 0001:0004AAAC
  7724 0001:0004AAAF  7725 0001:0004AAB5  7727 0001:0004AAC6  7729 0001:0004AACF
  7730 0001:0004AAD5  7732 0001:0004AAE8  7733 0001:0004AAEE  7735 0001:0004AB01
  7738 0001:0004AB0F  7739 0001:0004AB1B  7749 0001:0004AB3C  7750 0001:0004AB67
  7751 0001:0004AB6A  7752 0001:0004AB70  7756 0001:0004AB97  7759 0001:0004ABA4
  7760 0001:0004ABB1  7761 0001:0004ABCF  7762 0001:0004ABD4  7763 0001:0004ABD6
  7764 0001:0004ABE7  7765 0001:0004ABEC  7766 0001:0004AC05  7768 0001:0004AC0D
  7772 0001:0004AC3C  7774 0001:0004AC45  7775 0001:0004AC55  7776 0001:0004AC65
  7777 0001:0004AC77  7781 0001:0004AC8B  7782 0001:0004AC99  7788 0001:0004ACEC
  7789 0001:0004AD0D  7790 0001:0004AD10  7791 0001:0004AD16  7793 0001:0004AD26
  7796 0001:0004AD2F  7797 0001:0004AD45  7800 0001:0004AD5D  7801 0001:0004AD6B
  7805 0001:0004ADB8  7806 0001:0004ADB9  7807 0001:0004ADBC  7808 0001:0004ADC2
  7810 0001:0004ADCA  7811 0001:0004ADD6  7816 0001:0004ADF4  7817 0001:0004ADFD
  7818 0001:0004AE00  7819 0001:0004AE09  7821 0001:0004AE25  7822 0001:0004AE31
  7826 0001:0004AE5C  7827 0001:0004AE5D  7828 0001:0004AE60  7829 0001:0004AE69
  7831 0001:0004AE74  7832 0001:0004AE80  7836 0001:0004AE9C  7837 0001:0004AEA5
  7838 0001:0004AEA8  7839 0001:0004AEB1  7841 0001:0004AEC2  7842 0001:0004AECE
  7854 0001:0004AEF4  7855 0001:0004AF1F  7856 0001:0004AF22  7857 0001:0004AF2B
  7865 0001:0004AF6F  7868 0001:0004AF7C  7869 0001:0004AF92  7870 0001:0004AFA8
  7871 0001:0004AFBE  7872 0001:0004AFD4  7873 0001:0004AFEA  7875 0001:0004B000
  7884 0001:0004B05F  7885 0001:0004B06D  7889 0001:0004B0C4  7890 0001:0004B0C5
  7891 0001:0004B0C8  7892 0001:0004B0D1  7894 0001:0004B0DC  7895 0001:0004B0E8
  7899 0001:0004B108  7900 0001:0004B109  7901 0001:0004B10C  7902 0001:0004B115
  7904 0001:0004B120  7905 0001:0004B12C  7911 0001:0004B148  7912 0001:0004B14B
  7913 0001:0004B15A  7916 0001:0004B17E  7918 0001:0004B196  7920 0001:0004B1B0
  7922 0001:0004B1CA  7924 0001:0004B1E8  7927 0001:0004B1FA  7929 0001:0004B218
  7930 0001:0004B228  7931 0001:0004B22E  7933 0001:0004B247  7934 0001:0004B24F
  7935 0001:0004B25D  7936 0001:0004B266  7939 0001:0004B26D  7941 0001:0004B280
  7945 0001:0004B290  7946 0001:0004B297  7950 0001:0004B2A0  7951 0001:0004B2A1
  7952 0001:0004B2A4  7953 0001:0004B2AD  7955 0001:0004B2B9  7956 0001:0004B2C5
  7966 0001:0004B2E4  7967 0001:0004B30E  7968 0001:0004B311  7969 0001:0004B31A
  7972 0001:0004B338  7975 0001:0004B345  7976 0001:0004B35E  7978 0001:0004B364
  7979 0001:0004B36E  7980 0001:0004B381  7981 0001:0004B38C  7984 0001:0004B395
  7986 0001:0004B39B  7989 0001:0004B3B4  7991 0001:0004B3BE  7992 0001:0004B3CB
  7993 0001:0004B3DB  7994 0001:0004B3E7  7995 0001:0004B3F4  7999 0001:0004B40B
  8001 0001:0004B421  8004 0001:0004B44E  8006 0001:0004B454  8007 0001:0004B463
  8008 0001:0004B47C  8011 0001:0004B489  8012 0001:0004B48F  8013 0001:0004B4A3
  8014 0001:0004B4A9  8017 0001:0004B4B8  8018 0001:0004B4C6  8023 0001:0004B518
  8024 0001:0004B520  8025 0001:0004B523  8026 0001:0004B52C  8028 0001:0004B542
  8030 0001:0004B54B  8032 0001:0004B55E  8034 0001:0004B570  8044 0001:0004B591
  8046 0001:0004B5AD  8050 0001:0004B5C6  8051 0001:0004B5D2  8060 0001:0004B5FC
  8061 0001:0004B626  8062 0001:0004B629  8063 0001:0004B632  8066 0001:0004B64C
  8069 0001:0004B659  8070 0001:0004B66D  8072 0001:0004B673  8073 0001:0004B680
  8074 0001:0004B693  8077 0001:0004B69D  8079 0001:0004B6A5  8082 0001:0004B6BF
  8084 0001:0004B6C5  8085 0001:0004B6D3  8086 0001:0004B6E3  8090 0001:0004B6F7
  8091 0001:0004B705  8097 0001:0004B758  8098 0001:0004B761  8099 0001:0004B764
  8100 0001:0004B76D  8103 0001:0004B78E  8104 0001:0004B79A  8114 0001:0004B7BC
  8115 0001:0004B7E7  8116 0001:0004B7EA  8117 0001:0004B7F3  8120 0001:0004B817
  8123 0001:0004B824  8124 0001:0004B837  8126 0001:0004B83D  8127 0001:0004B847
  8128 0001:0004B85A  8129 0001:0004B861  8132 0001:0004B86B  8134 0001:0004B86E
  8137 0001:0004B88A  8139 0001:0004B898  8140 0001:0004B8A5  8141 0001:0004B8B5
  8142 0001:0004B8C1  8143 0001:0004B8CD  8147 0001:0004B8E1  8148 0001:0004B8EF
  8157 0001:0004B93C  8158 0001:0004B967  8159 0001:0004B96A  8160 0001:0004B973
  8165 0001:0004B9AA  8168 0001:0004B9B7  8170 0001:0004B9BC  8171 0001:0004B9C9
  8175 0001:0004B9DE  8176 0001:0004B9E6  8178 0001:0004B9E8  8180 0001:0004B9F0
  8185 0001:0004BA27  8187 0001:0004BA30  8188 0001:0004BA3E  8189 0001:0004BA4E
  8193 0001:0004BA62  8194 0001:0004BA70  8203 0001:0004BABC  8204 0001:0004BAE7
  8205 0001:0004BAEA  8206 0001:0004BAF3  8209 0001:0004BB1C  8212 0001:0004BB29
  8214 0001:0004BB2E  8215 0001:0004BB3B  8219 0001:0004BB50  8220 0001:0004BB58
  8222 0001:0004BB5A  8224 0001:0004BB62  8227 0001:0004BB86  8229 0001:0004BB8F
  8230 0001:0004BB9D  8231 0001:0004BBAD  8235 0001:0004BBC1  8236 0001:0004BBCF
  8245 0001:0004BC1C  8246 0001:0004BC48  8247 0001:0004BC4B  8248 0001:0004BC54
  8252 0001:0004BC80  8255 0001:0004BC8D  8256 0001:0004BC9A  8257 0001:0004BCB5
  8258 0001:0004BCBA  8259 0001:0004BCBC  8260 0001:0004BCCD  8261 0001:0004BCD2
  8262 0001:0004BCED  8264 0001:0004BCF5  8268 0001:0004BD2C  8270 0001:0004BD35
  8271 0001:0004BD45  8272 0001:0004BD55  8273 0001:0004BD67  8277 0001:0004BD7B
  8278 0001:0004BD89  8283 0001:0004BDE0  8284 0001:0004BDE8  8285 0001:0004BDEB
  8286 0001:0004BDF4  8288 0001:0004BE0F  8289 0001:0004BE1B  8294 0001:0004BE40
  8295 0001:0004BE4A  8296 0001:0004BE5B  8298 0001:0004BE65  8299 0001:0004BE67
  8303 0001:0004BE6C  8304 0001:0004BE7D  8305 0001:0004BE86  8307 0001:0004BE94
  8311 0001:0004BE97  8316 0001:0004BEA6  8317 0001:0004BEA8  8318 0001:0004BEAD
  8321 0001:0004C07A  8322 0001:0004C084  8326 0001:0004C08E  8327 0001:0004C098
  8331 0001:0004C0A2  8332 0001:0004C0AC  8336 0001:0004C0B6  8337 0001:0004C0C0
  8341 0001:0004C0CA  8342 0001:0004C0D4  8346 0001:0004C0DE  8347 0001:0004C0E8
  8351 0001:0004C0F2  8352 0001:0004C0FC  8356 0001:0004C106  8357 0001:0004C110
  8361 0001:0004C11A  8362 0001:0004C12D  8366 0001:0004C137  8367 0001:0004C14A
  8371 0001:0004C154  8372 0001:0004C167  8376 0001:0004C171  8377 0001:0004C17B
  8381 0001:0004C185  8382 0001:0004C198  8386 0001:0004C1A2  8387 0001:0004C1B5
  8391 0001:0004C1BF  8392 0001:0004C1C9  8396 0001:0004C1D3  8397 0001:0004C1DD
  8401 0001:0004C1E7  8402 0001:0004C1FA  8406 0001:0004C204  8407 0001:0004C217
  8411 0001:0004C221  8412 0001:0004C22B  8416 0001:0004C235  8417 0001:0004C242
  8421 0001:0004C24C  8422 0001:0004C259  8426 0001:0004C263  8427 0001:0004C270
  8431 0001:0004C27A  8432 0001:0004C287  8436 0001:0004C291  8437 0001:0004C29E
  8441 0001:0004C2A8  8442 0001:0004C2B5  8446 0001:0004C2BF  8447 0001:0004C2D5
  8451 0001:0004C2DF  8452 0001:0004C2F5  8456 0001:0004C2FF  8457 0001:0004C315
  8461 0001:0004C31F  8462 0001:0004C32C  8466 0001:0004C336  8467 0001:0004C34C
  8471 0001:0004C356  8472 0001:0004C36C  8476 0001:0004C376  8477 0001:0004C38C
  8481 0001:0004C396  8482 0001:0004C3AC  8486 0001:0004C3B6  8487 0001:0004C3C3
  8491 0001:0004C3CD  8492 0001:0004C3DA  8496 0001:0004C3E4  8497 0001:0004C3FA
  8501 0001:0004C404  8502 0001:0004C41A  8506 0001:0004C424  8507 0001:0004C431
  8511 0001:0004C43B  8512 0001:0004C451  8516 0001:0004C45B  8517 0001:0004C468
  8521 0001:0004C472  8522 0001:0004C47F  8526 0001:0004C489  8527 0001:0004C49F
  8531 0001:0004C4A9  8532 0001:0004C4B6  8536 0001:0004C4C0  8537 0001:0004C4D6
  8541 0001:0004C4E0  8542 0001:0004C4F6  8546 0001:0004C500  8547 0001:0004C516
  8551 0001:0004C520  8552 0001:0004C536  8556 0001:0004C540  8557 0001:0004C556
  8561 0001:0004C560  8562 0001:0004C56D  8566 0001:0004C577  8567 0001:0004C584
  8571 0001:0004C58E  8572 0001:0004C59B  8576 0001:0004C5A5  8577 0001:0004C5BB
  8581 0001:0004C5C5  8582 0001:0004C5D2  8586 0001:0004C5DC  8587 0001:0004C5F2
  8591 0001:0004C5FC  8592 0001:0004C612  8596 0001:0004C61C  8597 0001:0004C632
  8601 0001:0004C63C  8602 0001:0004C649  8607 0001:0004C653  8608 0001:0004C660
  8612 0001:0004C66A  8613 0001:0004C677  8617 0001:0004C681  8618 0001:0004C68E
  8622 0001:0004C698  8623 0001:0004C6AE  8628 0001:0004C6B8  8629 0001:0004C6CE
  8633 0001:0004C6D8  8634 0001:0004C6E5  8638 0001:0004C6EF  8639 0001:0004C705
  8643 0001:0004C70F  8644 0001:0004C725  8648 0001:0004C72F  8649 0001:0004C73C
  8653 0001:0004C746  8654 0001:0004C75C  8658 0001:0004C766  8659 0001:0004C773
  8663 0001:0004C77D  8664 0001:0004C793  8668 0001:0004C79D  8669 0001:0004C7AA
  8673 0001:0004C7B4  8674 0001:0004C7C1  8678 0001:0004C7CB  8679 0001:0004C7DD
  8683 0001:0004C7E4  8684 0001:0004C7F6  8688 0001:0004C7FD  8689 0001:0004C80F
  8693 0001:0004C816  8694 0001:0004C81F  8698 0001:0004C826  8699 0001:0004C838
  8703 0001:0004C83F  8704 0001:0004C851  8708 0001:0004C856  8718 0001:0004C860
  8719 0001:0004C88B  8720 0001:0004C88E  8721 0001:0004C897  8723 0001:0004C8B6
  8726 0001:0004C8C3  8727 0001:0004C8D8  8729 0001:0004C8DE  8730 0001:0004C8E3
  8732 0001:0004C8E7  8733 0001:0004C8E9  8734 0001:0004C8F6  8735 0001:0004C8FB
  8737 0001:0004C90C  8738 0001:0004C914  8741 0001:0004C91E  8743 0001:0004C921
  8747 0001:0004C938  8749 0001:0004C947  8750 0001:0004C95C  8751 0001:0004C96C
  8752 0001:0004C97B  8753 0001:0004C988  8757 0001:0004C99C  8758 0001:0004C9AA
  8763 0001:0004C9F4  8764 0001:0004C9F8  8767 0001:0004CA05  8772 0001:0004CA0C
  8773 0001:0004CA10  8776 0001:0004CA1D  8781 0001:0004CA24  8782 0001:0004CA28
  8785 0001:0004CA3A  8795 0001:0004CA40  8796 0001:0004CA6A  8797 0001:0004CA6D
  8798 0001:0004CA76  8801 0001:0004CA94  8804 0001:0004CAA1  8805 0001:0004CABA
  8807 0001:0004CAC0  8808 0001:0004CACB  8809 0001:0004CADF  8810 0001:0004CAE3
  8813 0001:0004CAED  8815 0001:0004CAF0  8819 0001:0004CB06  8821 0001:0004CB11
  8822 0001:0004CB1B  8823 0001:0004CB2B  8824 0001:0004CB38  8825 0001:0004CB46
  8829 0001:0004CB5A  8832 0001:0004CB62  8833 0001:0004CB69  8836 0001:0004CB6D
  8838 0001:0004CB7B  8842 0001:0004CBC8  8843 0001:0004CBD1  8844 0001:0004CBD4
  8845 0001:0004CBDD  8847 0001:0004CBF1  8848 0001:0004CBFD  8852 0001:0004CC28
  8853 0001:0004CC29  8854 0001:0004CC2C  8855 0001:0004CC35  8857 0001:0004CC41
  8859 0001:0004CC4A  8861 0001:0004CC56  8862 0001:0004CC62  8867 0001:0004CC84
  8868 0001:0004CC8D  8871 0001:0004CC95  8872 0001:0004CC99  8880 0001:0004CC9C
  8881 0001:0004CCC7  8882 0001:0004CCCA  8883 0001:0004CCD3  8887 0001:0004CCF5
  8890 0001:0004CD02  8891 0001:0004CD18  8893 0001:0004CD1E  8894 0001:0004CD29
  8897 0001:0004CD3F  8898 0001:0004CD47  8900 0001:0004CD4B  8904 0001:0004CD72
  8906 0001:0004CD77  8907 0001:0004CD81  8908 0001:0004CD91  8912 0001:0004CDA5
  8913 0001:0004CDB3  8917 0001:0004CE0C  8918 0001:0004CE0D  8919 0001:0004CE10
  8920 0001:0004CE19  8922 0001:0004CE25  8923 0001:0004CE31  8927 0001:0004CE54
  8928 0001:0004CE55  8929 0001:0004CE58  8930 0001:0004CE61  8932 0001:0004CE6D
  8933 0001:0004CE79  8937 0001:0004CEA0  8938 0001:0004CEA1  8939 0001:0004CEA4
  8940 0001:0004CEAD  8942 0001:0004CEB9  8943 0001:0004CEC5  8947 0001:0004CEE8
  8948 0001:0004CEF0  8949 0001:0004CEF3  8950 0001:0004CEFC  8952 0001:0004CF0F
  8953 0001:0004CF1B  8959 0001:0004CF40  8960 0001:0004CF61  8961 0001:0004CF64
  8962 0001:0004CF6D  8964 0001:0004CF80  8967 0001:0004CF89  8968 0001:0004CF9F
  8971 0001:0004CFB7  8972 0001:0004CFC5  8980 0001:0004D010  8981 0001:0004D039
  8982 0001:0004D03C  8983 0001:0004D045  8988 0001:0004D06E  8991 0001:0004D07B
  8993 0001:0004D07F  8994 0001:0004D094  8996 0001:0004D09E  8998 0001:0004D0A4
  8999 0001:0004D0BA  9001 0001:0004D0C5  9003 0001:0004D0CB  9004 0001:0004D0E1
  9007 0001:0004D0EC  9013 0001:0004D112  9014 0001:0004D120  9023 0001:0004D178
  9024 0001:0004D1A3  9025 0001:0004D1A6  9026 0001:0004D1AF  9032 0001:0004D1E1
  9035 0001:0004D1EE  9037 0001:0004D1F2  9038 0001:0004D207  9041 0001:0004D211
  9043 0001:0004D217  9044 0001:0004D22D  9047 0001:0004D238  9049 0001:0004D23E
  9050 0001:0004D254  9053 0001:0004D25F  9055 0001:0004D265  9056 0001:0004D27B
  9059 0001:0004D286  9066 0001:0004D2B5  9067 0001:0004D2C3  9075 0001:0004D320
  9076 0001:0004D349  9077 0001:0004D34C  9078 0001:0004D355  9083 0001:0004D37E
  9086 0001:0004D38B  9088 0001:0004D38F  9089 0001:0004D3A4  9091 0001:0004D3AE
  9093 0001:0004D3B4  9094 0001:0004D3CA  9096 0001:0004D3D5  9098 0001:0004D3DB
  9099 0001:0004D3F1  9102 0001:0004D3FC  9108 0001:0004D422  9109 0001:0004D430
  9113 0001:0004D488  9114 0001:0004D490  9115 0001:0004D493  9116 0001:0004D49C
  9118 0001:0004D4AF  9119 0001:0004D4BB  9123 0001:0004D4DC  9124 0001:0004D4DD
  9125 0001:0004D4E0  9126 0001:0004D4E9  9128 0001:0004D4F5  9129 0001:0004D501
  9137 0001:0004D520  9138 0001:0004D54D  9139 0001:0004D550  9140 0001:0004D559
  9142 0001:0004D570  9145 0001:0004D579  9146 0001:0004D58C  9148 0001:0004D590
  9149 0001:0004D5A5  9150 0001:0004D5AF  9152 0001:0004D5B4  9155 0001:0004D5C8
  9157 0001:0004D5DA  9160 0001:0004D5ED  9161 0001:0004D5FB  9166 0001:0004D64C
  9167 0001:0004D655  9168 0001:0004D658  9169 0001:0004D661  9171 0001:0004D675
  9173 0001:0004D67E  9175 0001:0004D692  9176 0001:0004D69E  9182 0001:0004D6C8
  9183 0001:0004D6E9  9184 0001:0004D6EC  9185 0001:0004D6F5  9187 0001:0004D709
  9190 0001:0004D712  9192 0001:0004D716  9193 0001:0004D72B  9195 0001:0004D735
  9198 0001:0004D749  9199 0001:0004D757  9206 0001:0004D7A8  9207 0001:0004D7D3
  9208 0001:0004D7D6  9209 0001:0004D7DF  9211 0001:0004D7FC  9214 0001:0004D805
  9216 0001:0004D809  9217 0001:0004D81E  9219 0001:0004D828  9222 0001:0004D845
  9223 0001:0004D853  9229 0001:0004D8A0  9230 0001:0004D8A9  9231 0001:0004D8AC
  9232 0001:0004D8B5  9235 0001:0004D8E9  9236 0001:0004D8F5  9241 0001:0004D91C
  9242 0001:0004D924  9243 0001:0004D927  9244 0001:0004D930  9246 0001:0004D947
  9247 0001:0004D953  9253 0001:0004D978  9254 0001:0004D981  9255 0001:0004D984
  9256 0001:0004D98D  9259 0001:0004D9B8  9260 0001:0004D9C4  9264 0001:0004D9E4
  9265 0001:0004D9ED  9266 0001:0004D9F0  9267 0001:0004D9F9  9269 0001:0004DA13
  9270 0001:0004DA1F  9275 0001:0004DA40  9276 0001:0004DA49  9277 0001:0004DA4C
  9278 0001:0004DA55  9280 0001:0004DA6E  9281 0001:0004DA7A  9290 0001:0004DAA4
  9291 0001:0004DACE  9292 0001:0004DAD1  9293 0001:0004DADA  9295 0001:0004DAF4
  9298 0001:0004DAFD  9299 0001:0004DB0D  9301 0001:0004DB11  9302 0001:0004DB26
  9305 0001:0004DB30  9306 0001:0004DB32  9309 0001:0004DB49  9318 0001:0004DB52
  9321 0001:0004DB5A  9324 0001:0004DB5F  9328 0001:0004DB72  9329 0001:0004DB80
  9333 0001:0004DBCC  9334 0001:0004DBD5  9335 0001:0004DBD8  9336 0001:0004DBE1
  9338 0001:0004DBF5  9339 0001:0004DC01  9348 0001:0004DC2C  9349 0001:0004DC5C
  9350 0001:0004DC5F  9351 0001:0004DC68  9357 0001:0004DCA0  9360 0001:0004DCAD
  9362 0001:0004DCB1  9364 0001:0004DCC6  9366 0001:0004DCD0  9368 0001:0004DCD6
  9370 0001:0004DCEC  9372 0001:0004DCF7  9374 0001:0004DCFD  9376 0001:0004DD13
  9379 0001:0004DD1E  9386 0001:0004DD53  9387 0001:0004DD61  9395 0001:0004DDBC
  9396 0001:0004DDE5  9397 0001:0004DDE8  9398 0001:0004DDF1  9404 0001:0004DE24
  9407 0001:0004DE31  9409 0001:0004DE35  9410 0001:0004DE4A  9411 0001:0004DE50
  9414 0001:0004DE5C  9415 0001:0004DE62  9417 0001:0004DE68  9418 0001:0004DE7E
  9419 0001:0004DE84  9422 0001:0004DE91  9423 0001:0004DE97  9425 0001:0004DE9D
  9426 0001:0004DEB3  9427 0001:0004DEB9  9430 0001:0004DEC6  9432 0001:0004DECC
  9439 0001:0004DEFC  9440 0001:0004DF0A  9448 0001:0004DF60  9449 0001:0004DF89
  9450 0001:0004DF8C  9451 0001:0004DF95  9456 0001:0004DFBE  9459 0001:0004DFCB
  9461 0001:0004DFE0  9463 0001:0004DFED  9465 0001:0004E003  9467 0001:0004E013
  9469 0001:0004E029  9471 0001:0004E039  9477 0001:0004E05F  9478 0001:0004E06D
  9486 0001:0004E0C8  9487 0001:0004E0F3  9488 0001:0004E0F6  9489 0001:0004E0FF
  9495 0001:0004E131  9498 0001:0004E13E  9500 0001:0004E142  9501 0001:0004E157
  9502 0001:0004E15D  9505 0001:0004E169  9506 0001:0004E16F  9508 0001:0004E175
  9509 0001:0004E18B  9510 0001:0004E191  9513 0001:0004E19E  9514 0001:0004E1A4
  9516 0001:0004E1AA  9517 0001:0004E1C0  9518 0001:0004E1C6  9521 0001:0004E1D3
  9522 0001:0004E1D9  9524 0001:0004E1DF  9525 0001:0004E1F5  9526 0001:0004E1FB
  9529 0001:0004E208  9531 0001:0004E20E  9538 0001:0004E23D  9539 0001:0004E24B
  9543 0001:0004E2A0  9544 0001:0004E2A8  9545 0001:0004E2AB  9546 0001:0004E2B4
  9548 0001:0004E2C8  9549 0001:0004E2D4  9554 0001:0004E2F4  9555 0001:0004E2F5
  9556 0001:0004E2F8  9557 0001:0004E301  9559 0001:0004E30B  9560 0001:0004E31A
  9563 0001:0004E340  9564 0001:0004E348  9565 0001:0004E34B  9566 0001:0004E354
  9568 0001:0004E367  9569 0001:0004E376  9573 0001:0004E3A0  9574 0001:0004E3A9
  9576 0001:0004E3B2  9577 0001:0004E3C1  9580 0001:0004E3DC  9581 0001:0004E3DD
  9582 0001:0004E3E0  9583 0001:0004E3E9  9585 0001:0004E3F3  9586 0001:0004E402
  9589 0001:0004E424  9590 0001:0004E425  9591 0001:0004E428  9592 0001:0004E431
  9594 0001:0004E43C  9595 0001:0004E44B  9599 0001:0004E46C  9600 0001:0004E475
  9602 0001:0004E47D  9603 0001:0004E48C  9608 0001:0004E4B0  9609 0001:0004E4B1
  9610 0001:0004E4B4  9611 0001:0004E4BD  9613 0001:0004E4C7  9614 0001:0004E4D6
  9617 0001:0004E4FC  9618 0001:0004E503  9619 0001:0004E505  9620 0001:0004E50E
  9622 0001:0004E51D  9623 0001:0004E52E  9629 0001:0004E554  9630 0001:0004E55D
  9634 0001:0004E560  9635 0001:0004E569  9638 0001:0004E56C  9639 0001:0004E56F
  9640 0001:0004E579  9641 0001:0004E58E  9643 0001:0004E595  9644 0001:0004E597
  9648 0001:0004E59C  9649 0001:0004E5A3  9653 0001:0004E5A4  9654 0001:0004E5AB
  9657 0001:0004E5AC  9658 0001:0004E5B0  9659 0001:0004E5BC  9663 0001:0004E5C4
  9664 0001:0004E5CD  9667 0001:0004E5D0  9668 0001:0004E5D4  9669 0001:0004E5E0
  9673 0001:0004E5E8  9674 0001:0004E5F1  9679 0001:0004E5F4  9680 0001:0004E5FE
  9682 0001:0004E607  9689 0001:0004E622  9690 0001:0004E62A  9691 0001:0004E638
  9693 0001:0004E64B  9699 0001:0004E65B  9701 0001:0004E664  9702 0001:0004E66C
  9703 0001:0004E67A  9705 0001:0004E68D  9709 0001:0004E69D  9712 0001:0004E6A4
  9714 0001:0004E6AB  9716 0001:0004E6B1  9717 0001:0004E6C2  9719 0001:0004E6C5
  9721 0001:0004E6D6  9725 0001:0004E6E0  9735 0001:0004E6E4  9736 0001:0004E6EA
  9738 0001:0004E700  9744 0001:0004E760  9745 0001:0004E77C  9749 0001:0004E784
  9754 0001:0004E7E4  9755 0001:0004E800  9759 0001:0004E808  9764 0001:0004E868
  9765 0001:0004E884  9769 0001:0004E88C  9774 0001:0004E8EC  9775 0001:0004E908
  9779 0001:0004E910  9784 0001:0004E970  9785 0001:0004E98C  9789 0001:0004E994
  9794 0001:0004E9F4  9795 0001:0004EA10  9799 0001:0004EA1A  9804 0001:0004EA78
  9805 0001:0004EA94  9809 0001:0004EA9E  9814 0001:0004EAFC  9815 0001:0004EB18
  9819 0001:0004EB22  9822 0001:0004EB80  9824 0001:0004EB84  9825 0001:0004EBA0
  9829 0001:0004EBAD  9834 0001:0004EC10  9835 0001:0004EC2C  9839 0001:0004EC34
  9842 0001:0004EC94  9844 0001:0004EC98  9845 0001:0004ECB4  9849 0001:0004ECC1
  9854 0001:0004ED24  9855 0001:0004ED40  9859 0001:0004ED48  9865 0001:0004EDA8
  9866 0001:0004EDC4  9870 0001:0004EDCC  9875 0001:0004EE2C  9876 0001:0004EE48
  9880 0001:0004EE50  9884 0001:0004EEB0  9886 0001:0004EEB4  9887 0001:0004EED0
  9891 0001:0004EEDC  9895 0001:0004EF40  9897 0001:0004EF44  9898 0001:0004EF60
  9902 0001:0004EF6C  9908 0001:0004EFD0  9909 0001:0004EFEC  9913 0001:0004EFF4
  9919 0001:0004F054  9921 0001:0004F058  9922 0001:0004F074  9928 0001:0004F08D
  9934 0001:0004F0F0  9936 0001:0004F0F4  9937 0001:0004F110  9943 0001:0004F133
  9949 0001:0004F194  9951 0001:0004F198  9952 0001:0004F1B4  9958 0001:0004F1E0
  9964 0001:0004F244  9966 0001:0004F248  9967 0001:0004F264  9973 0001:0004F27E
  9979 0001:0004F2E0  9980 0001:0004F2FC  9984 0001:0004F304  9989 0001:0004F364
  9990 0001:0004F380  9994 0001:0004F388  9999 0001:0004F3E8 10000 0001:0004F404
 10004 0001:0004F40C 10010 0001:0004F46C 10012 0001:0004F470 10013 0001:0004F48C
 10019 0001:0004F4AA 10025 0001:0004F50C 10027 0001:0004F510 10028 0001:0004F52C
 10034 0001:0004F54A 10039 0001:0004F5AC 10041 0001:0004F5B0 10042 0001:0004F5CC
 10048 0001:0004F5EA 10054 0001:0004F64C 10056 0001:0004F650 10057 0001:0004F66C
 10063 0001:0004F68A 10070 0001:0004F6EC 10072 0001:0004F6F0 10073 0001:0004F70C
 10079 0001:0004F734 10085 0001:0004F798 10087 0001:0004F79C 10088 0001:0004F7B8
 10094 0001:0004F7E0 10100 0001:0004F844 10102 0001:0004F848 10103 0001:0004F864
 10109 0001:0004F883 10114 0001:0004F8E4 10115 0001:0004F900 10119 0001:0004F908
 10126 0001:0004F968 10128 0001:0004F96C 10129 0001:0004F988 10135 0001:0004F9AA
 10142 0001:0004FA0C 10144 0001:0004FA10 10145 0001:0004FA2C 10151 0001:0004FA51
 10157 0001:0004FAB4 10159 0001:0004FAB8 10160 0001:0004FAD4 10166 0001:0004FAEC
 10171 0001:0004FB50 10172 0001:0004FB6C 10176 0001:0004FB74 10183 0001:0004FBD4
 10185 0001:0004FBD8 10186 0001:0004FBF4 10192 0001:0004FC17 10199 0001:0004FC78
 10201 0001:0004FC7C 10202 0001:0004FC98 10208 0001:0004FCBA 10212 0001:0004FD1C
 10214 0001:0004FD20 10215 0001:0004FD3C 10219 0001:0004FD49 10226 0001:0004FDAC
 10228 0001:0004FDB0 10229 0001:0004FDCC 10235 0001:0004FDED 10239 0001:0004FE50
 10241 0001:0004FE54 10242 0001:0004FE70 10246 0001:0004FE7C 10251 0001:0004FEE0
 10252 0001:0004FEFC 10256 0001:0004FF04 10261 0001:0004FF64 10263 0001:0004FF68
 10264 0001:0004FF84 10268 0001:0004FF98 10273 0001:0004FFFC 10274 0001:00050018
 10278 0001:00050020 10282 0001:00050080 10284 0001:00050084 10285 0001:000500A0
 10289 0001:000500AC 10298 0001:00050110 10300 0001:00050114 10301 0001:00050130
 10309 0001:0005016A 10314 0001:000501CC 10315 0001:000501E8 10319 0001:000501F0
 10324 0001:00050250 10325 0001:0005026C 10329 0001:00050274 10334 0001:000502D4
 10335 0001:000502F0 10339 0001:000502F8 10344 0001:00050358 10345 0001:00050374
 10349 0001:0005037C 10355 0001:000503DC 10356 0001:000503F8 10360 0001:00050400
 10365 0001:00050460 10367 0001:00050464 10368 0001:00050480 10374 0001:00050494
 10378 0001:000504F8 10380 0001:000504FC 10381 0001:00050518 10385 0001:00050524
 10390 0001:00050588 10392 0001:0005058C 10393 0001:000505A8 10397 0001:000505B9
 10403 0001:0005061C 10405 0001:00050620 10406 0001:0005063C 10412 0001:00050655
 10417 0001:000506B8 10419 0001:000506BC 10420 0001:000506D8 10426 0001:000506F1
 10432 0001:00050754 10434 0001:00050758 10435 0001:00050774 10441 0001:000507A1
 10447 0001:00050804 10449 0001:00050808 10450 0001:00050824 10456 0001:00050843
 10462 0001:000508A4 10464 0001:000508A8 10465 0001:000508C4 10471 0001:000508E6
 10476 0001:00050948 10478 0001:0005094C 10479 0001:00050968 10485 0001:0005097C
 10489 0001:000509E0 10491 0001:000509E4 10492 0001:00050A00 10496 0001:00050A0C
 10501 0001:00050A70 10503 0001:00050A74 10504 0001:00050A90 10510 0001:00050AA5
 10515 0001:00050B08 10517 0001:00050B0C 10518 0001:00050B28 10524 0001:00050B3D
 10529 0001:00050BA0 10531 0001:00050BA4 10532 0001:00050BC0 10538 0001:00050BD5
 10543 0001:00050C38 10545 0001:00050C3C 10546 0001:00050C58 10552 0001:00050C6D
 10557 0001:00050CD0 10559 0001:00050CD4 10560 0001:00050CF0 10566 0001:00050D04
 10570 0001:00050D68 10572 0001:00050D6C 10573 0001:00050D88 10577 0001:00050D94
 10583 0001:00050DF8 10584 0001:00050E14 10588 0001:00050E1C 10593 0001:00050E7C
 10594 0001:00050E98 10598 0001:00050EA0 10603 0001:00050F00 10605 0001:00050F04
 10606 0001:00050F20 10612 0001:00050F38 10617 0001:00050F9C 10618 0001:00050FB8
 10622 0001:00050FC0 10628 0001:00051020 10629 0001:0005103C 10633 0001:00051044
 10638 0001:000510A4 10639 0001:000510C0 10643 0001:000510C8 10647 0001:00051128
 10649 0001:0005112C 10650 0001:00051148 10654 0001:00051154 10658 0001:000511B8
 10660 0001:000511BC 10661 0001:000511D8 10665 0001:000511E4 10671 0001:00051248
 10673 0001:0005124C 10674 0001:00051268 10680 0001:00051287 10687 0001:000512E8
 10689 0001:000512EC 10690 0001:00051308 10696 0001:00051330 10702 0001:00051394
 10704 0001:00051398 10705 0001:000513B4 10711 0001:000513D3 10715 0001:00051434
 10717 0001:00051438 10718 0001:00051454 10722 0001:00051460 10728 0001:000514C4
 10729 0001:000514E0 10733 0001:000514E8 10738 0001:00051548 10740 0001:0005154C
 10741 0001:00051568 10745 0001:00051578 10749 0001:000515DC 10751 0001:000515E0
 10752 0001:000515FC 10756 0001:00051608 10760 0001:0005166C 10762 0001:00051670
 10763 0001:0005168C 10767 0001:00051699 10772 0001:000516FC 10774 0001:00051700
 10775 0001:0005171C 10781 0001:00051731 10787 0001:00051794 10789 0001:00051798
 10790 0001:000517B4 10796 0001:000517E0 10801 0001:00051844 10803 0001:00051848
 10804 0001:00051864 10808 0001:00051874 10814 0001:000518D8 10816 0001:000518DC
 10817 0001:000518F8 10823 0001:0005191B 10827 0001:0005197C 10829 0001:00051980
 10830 0001:0005199C 10834 0001:000519AE 10839 0001:00051A10 10841 0001:00051A14
 10842 0001:00051A30 10846 0001:00051A41 10851 0001:00051AA4 10853 0001:00051AA8
 10854 0001:00051AC4 10858 0001:00051AD4 10862 0001:00051B38 10864 0001:00051B3C
 10865 0001:00051B58 10869 0001:00051B64 10876 0001:00051BC8 10878 0001:00051BCC
 10879 0001:00051BE8 10885 0001:00051C15 10891 0001:00051C78 10893 0001:00051C7C
 10894 0001:00051C98 10900 0001:00051CC1 10906 0001:00051D24 10908 0001:00051D28
 10909 0001:00051D44 10915 0001:00051D63 10921 0001:00051DC4 10923 0001:00051DC8
 10924 0001:00051DE4 10930 0001:00051E0C 10934 0001:00051E70 10936 0001:00051E74
 10937 0001:00051E90 10941 0001:00051E9D 10946 0001:00051F00 10947 0001:00051F1C
 10951 0001:00051F24 10954 0001:00051F84 10956 0001:00051F88 10957 0001:00051FA4
 10961 0001:00051FB0 10966 0001:00052014 10967 0001:00052030 10971 0001:00052038
 10976 0001:00052098 10977 0001:000520B4 10981 0001:000520BC 10986 0001:0005211C
 10987 0001:00052138 10991 0001:00052140 11003 0001:000521A0 11007 0001:000521C3

Line numbers for OdbcApi(OdbcApi.pas) segment .itext

 10995 0002:0000028C 10997 0002:00000295 11001 0002:000002AB

Line numbers for DbxOpenOdbcDbx3Types(DbxOpenOdbcDbx3Types.pas) segment .itext

  1292 0002:000002AC

Line numbers for DbxOpenOdbcInterface(DbxOpenOdbcInterface.pas) segment .text

   552 0001:000552A0   553 0001:000552A1   554 0001:000552AB   555 0001:000552AF
   556 0001:000552B3   560 0001:000552B8   561 0001:000552BF   565 0001:000552C0
   566 0001:000552C7   570 0001:000552C8   571 0001:000552CF   575 0001:000552D0
   576 0001:000552D7   580 0001:000552D8   581 0001:000552E2

Line numbers for DbxOpenOdbcInterface(DbxOpenOdbcInterface.pas) segment .itext

   583 0002:000002B4

Line numbers for DbxOpenOdbcTrace(DbxOpenOdbcTrace.pas) segment .text

   229 0001:000567A8   230 0001:000567C4   231 0001:00056839   256 0001:000568C8
   257 0001:000568E4   258 0001:00056966   280 0001:000569F4   281 0001:00056A10
   282 0001:00056A8D   310 0001:00056B6C   311 0001:00056B6F   312 0001:00056B73
   314 0001:00056B81   315 0001:00056B8D   320 0001:00056BB8   321 0001:00056BE2
   322 0001:00056BE9   324 0001:00056BF2   326 0001:00056C00   328 0001:00056C5C
   330 0001:00056C7A   332 0001:00056C90   334 0001:00056CA4   336 0001:00056CCC
   339 0001:00056CFC   340 0001:00056D02   342 0001:00056D15   344 0001:00056D21
   345 0001:00056D27   347 0001:00056D6C   349 0001:00056D78   350 0001:00056D7E
   352 0001:00056DB9   354 0001:00056DC5   356 0001:00056DD9   357 0001:00056DDF
   359 0001:00056DFD   361 0001:00056E09   362 0001:00056E0F   364 0001:00056E3A
   366 0001:00056E46   367 0001:00056E4B   369 0001:00056E5C   371 0001:00056E68
   372 0001:00056E6D   374 0001:00056E9A   376 0001:00056EA3   377 0001:00056EA8
   379 0001:00056EB8   381 0001:00056EC1   384 0001:00056EE1   387 0001:00056EF1
   390 0001:00056F1C   392 0001:00056F1E   395 0001:00056FA9   403 0001:000571B4
   404 0001:000571E0   405 0001:000571E8   406 0001:000571EF   408 0001:000571F9
   409 0001:00057213   410 0001:00057221   411 0001:00057226   413 0001:00057282
   415 0001:000572A1   417 0001:000572B8   419 0001:000572CD   420 0001:000572D3
   422 0001:000572FA   424 0001:00057307   427 0001:00057338   428 0001:0005733E
   430 0001:00057352   432 0001:0005735F   433 0001:00057365   435 0001:000573AB
   437 0001:000573B8   438 0001:000573BE   440 0001:000573FA   442 0001:00057407
   444 0001:0005741C   445 0001:00057422   447 0001:00057441   449 0001:0005744E
   450 0001:00057454   452 0001:00057480   454 0001:0005748D   455 0001:00057492
   457 0001:000574A4   459 0001:000574B1   460 0001:000574B6   462 0001:000574E4
   464 0001:000574EE   465 0001:000574F3   467 0001:00057504   469 0001:0005750E
   472 0001:0005752F   473 0001:00057534   475 0001:00057545   478 0001:0005754F
   480 0001:0005755C   481 0001:00057574   482 0001:0005758E   483 0001:000575A6
   484 0001:000575B0   486 0001:000575E6   488 0001:000575E8   490 0001:00057673
   408 0001:0005767A   491 0001:00057683   497 0001:000578B8   498 0001:000578DB
   500 0001:000578E6   501 0001:000578EE   503 0001:0005798E   504 0001:00057A2F
   507 0001:00057B10   508 0001:00057B2C   509 0001:00057B4A   512 0001:00057B80
   513 0001:00057B9C   514 0001:00057BA4   515 0001:00057C3F   518 0001:00057CFC
   519 0001:00057D1D   520 0001:00057DE1   523 0001:00057EB8   524 0001:00057EDB
   525 0001:00057EE9   527 0001:00057EF4   528 0001:00057EFC   530 0001:00057F9C
   531 0001:0005803D   534 0001:00058124   535 0001:00058140   536 0001:0005815E
   543 0001:00058194   544 0001:000581B1   545 0001:000581EC   546 0001:000581F3
   547 0001:000581F7   549 0001:0005822C   553 0001:000582C8   554 0001:000582F2
   556 0001:00058304   557 0001:00058311   559 0001:00058322   562 0001:00058331
   563 0001:00058335   565 0001:00058341   567 0001:00058349   568 0001:00058351
   570 0001:000583F4   571 0001:00058498   574 0001:00058598   575 0001:000585B4
   576 0001:000585D5   579 0001:0005860C   580 0001:00058629   581 0001:0005862D
   584 0001:00058639   587 0001:0005864B   590 0001:0005865C   593 0001:0005866A
   596 0001:00058678   598 0001:000586B2   601 0001:000586DC

Line numbers for DbxOpenOdbcTrace(DbxOpenOdbcTrace.pas) segment .itext

   609 0002:000002BC

Line numbers for DbxOpenOdbcUtils(DbxOpenOdbcUtils.pas) segment .text

   269 0001:00058920   282 0001:00058926   283 0001:0005892A   295 0001:00058931
   302 0001:00058934   303 0001:00058938   304 0001:0005893A   308 0001:0005893C
   310 0001:00058940   311 0001:00058945   312 0001:00058949   315 0001:0005894E
   316 0001:00058950   319 0001:00058954   320 0001:00058958   321 0001:00058969
   324 0001:0005896C   325 0001:00058973   326 0001:00058993   329 0001:00058998
   330 0001:0005899B   331 0001:000589A8   334 0001:000589AC   335 0001:000589B2
   336 0001:000589CE   358 0001:000589D4   360 0001:000589FB   366 0001:000589FE
   367 0001:00058A05   369 0001:00058A0B   370 0001:00058A15   371 0001:00058A1D
   372 0001:00058A23   375 0001:00058A28   378 0001:00058A2D   380 0001:00058A32
   381 0001:00058A35   386 0001:00058A36   387 0001:00058A38   388 0001:00058A49
   390 0001:00058A54   392 0001:00058A67   395 0001:00058A84   400 0001:00058A9E
   402 0001:00058AAC   403 0001:00058AB2   404 0001:00058AB3   406 0001:00058AB4
   388 0001:00058AB5   409 0001:00058AB8   410 0001:00058ABC   411 0001:00058ABF
   412 0001:00058AC0   415 0001:00058AC5   418 0001:00058ACF   419 0001:00058AD5
   421 0001:00058AD6   422 0001:00058AD8   423 0001:00058AE7   425 0001:00058AFA
   428 0001:00058B19   429 0001:00058B32   430 0001:00058B33   431 0001:00058B34
   422 0001:00058B35   435 0001:00058B38   437 0001:00058B43   444 0001:00058B46
   445 0001:00058B47   442 0001:00058B48   456 0001:00058B56   457 0001:00058B57
   458 0001:00058B58   454 0001:00058B5B   461 0001:00058B68   464 0001:00058B6E
   465 0001:00058B71   466 0001:00058B72   467 0001:00058B75   469 0001:00058B76
   470 0001:00058BA2   471 0001:00058BA8   473 0001:00058BAB   477 0001:00058BAE
   480 0001:00058BB1   491 0001:00058BB7   665 0001:00058BE8   667 0001:00058BFD
   668 0001:00058C0F   671 0001:00058C2B   672 0001:00058C31   673 0001:00058C38
   680 0001:00058C3D   681 0001:00058C3F   682 0001:00058C41   686 0001:00058C46
   689 0001:00058C65   690 0001:00058C68   691 0001:00058C6A   693 0001:00058C6C
   682 0001:00058C6D   695 0001:00058C72   696 0001:00058C77   700 0001:00058C7B
   701 0001:00058C7D   702 0001:00058C80   703 0001:00058C84   699 0001:00058C85
   707 0001:00058C92   709 0001:00058C9A   710 0001:00058C9D   708 0001:00058C9E
   714 0001:00058CA3   715 0001:00058CAC   716 0001:00058CB0   717 0001:00058CB4
   718 0001:00058CB5   719 0001:00058CB7   722 0001:00058CBC   723 0001:00058CC0
   724 0001:00058CC4   725 0001:00058CC8   726 0001:00058CC9   727 0001:00058CCB
   732 0001:00058CCE   733 0001:00058CD5   734 0001:00058CD7   735 0001:00058CDA
   736 0001:00058CDE   739 0001:00058CDF   740 0001:00058CE5   741 0001:00058CEB
   742 0001:00058CF2   747 0001:00058CF7   748 0001:00058CF8   749 0001:00058CF9
   750 0001:00058CFA   751 0001:00058CFD   752 0001:00058D00   753 0001:00058D03
   754 0001:00058D06   755 0001:00058D08   756 0001:00058D09   757 0001:00058D0A
   758 0001:00058D0D   759 0001:00058D0F   760 0001:00058D11   761 0001:00058D14
   762 0001:00058D16   763 0001:00058D19   764 0001:00058D1B   765 0001:00058D1D
   766 0001:00058D1F   767 0001:00058D20   768 0001:00058D22   769 0001:00058D23
   770 0001:00058D25   771 0001:00058D28   772 0001:00058D2A   773 0001:00058D2C
   774 0001:00058D2D   775 0001:00058D2E   776 0001:00058D2F   779 0001:00058D30
   780 0001:00058D34   781 0001:00058D3E   782 0001:00058D44   784 0001:00058D57
   787 0001:00058D68   788 0001:00058D71   789 0001:00058D77   791 0001:00058D80
   802 0001:00058D87   813 0001:00058D90   814 0001:00058DA8   815 0001:00058DC7
   818 0001:00058DF4   819 0001:00058E0C   820 0001:00058E17   822 0001:00058E38
   823 0001:00058E3A   962 0001:00058E68   964 0001:00058E6B   984 0001:00058E81
   987 0001:00058E88   989 0001:00058E92   998 0001:00058EB9   999 0001:00058EBD
  1001 0001:00058EC5  1002 0001:00058ECA  1005 0001:00058ED0  1006 0001:00058EDB
  1007 0001:00058EEA  1009 0001:00058EEE  1010 0001:00058F14  1014 0001:00058F1E
  1015 0001:00058F25  1017 0001:00058F27  1020 0001:00058F30  1021 0001:00058F50
  1022 0001:00058FA7  1025 0001:00058FD0  1026 0001:00058FEF  1027 0001:00058FFA
  1030 0001:00059073  1031 0001:0005907A  1033 0001:0005907C  1037 0001:000590B4
  1038 0001:000590B8  1040 0001:000590BB  1041 0001:000590C0  1073 0001:000590C4
  1074 0001:000590C8  1076 0001:000590CA  1077 0001:000590CC  1079 0001:000590CE
  1080 0001:000590D1  1081 0001:000590D4  1082 0001:000590D7  1083 0001:000590D9
  1084 0001:000590DD  1085 0001:000590DF  1087 0001:000590E0  1088 0001:000590E2
  1098 0001:000590E4  1099 0001:000590E6  1100 0001:000590E8  1103 0001:000590EA
  1104 0001:000590ED  1106 0001:000590F0  1108 0001:000590FA  1109 0001:00059102
  1112 0001:00059104  1113 0001:00059107  1101 0001:0005910A  1115 0001:0005910C
  1121 0001:00059114  1122 0001:00059117  1123 0001:00059119  1126 0001:0005911B
  1127 0001:0005911E  1129 0001:00059121  1131 0001:0005912C  1134 0001:00059130
  1136 0001:0005913B  1139 0001:0005913F  1141 0001:00059149  1142 0001:00059151
  1145 0001:00059153  1146 0001:00059156  1124 0001:00059159  1148 0001:0005915B
  1155 0001:00059164  1156 0001:0005916C  1157 0001:0005916E  1158 0001:00059170
  1159 0001:00059172  1161 0001:00059177  1162 0001:0005917A  1164 0001:0005917D
  1166 0001:00059187  1167 0001:00059193  1170 0001:00059195  1171 0001:00059198
  1172 0001:0005919B  1159 0001:0005919C  1174 0001:000591A1  1175 0001:000591A7
  1182 0001:000591B0  1183 0001:000591B7  1190 0001:000591C0  1191 0001:000591D0
  1194 0001:000591D8  1195 0001:000591DE  1196 0001:000591EE  1201 0001:000591F4
  1202 0001:000591F6  1203 0001:000591F8  1206 0001:000591FA  1207 0001:000591FD
  1208 0001:00059200  1209 0001:00059203  1204 0001:00059204  1211 0001:00059210
  1212 0001:00059215  1215 0001:0005921C  1216 0001:00059226  1218 0001:00059236
  1219 0001:0005923F  1220 0001:00059247  1223 0001:0005924B  1224 0001:0005924D
  1226 0001:00059251  1227 0001:0005925C  1229 0001:00059264  1230 0001:00059269
  1231 0001:0005926E  1234 0001:00059278  1235 0001:00059282  1237 0001:00059292
  1238 0001:0005929B  1239 0001:000592A3  1242 0001:000592A7  1243 0001:000592A9
  1245 0001:000592AD  1246 0001:000592BA  1248 0001:000592C4  1249 0001:000592C9
  1250 0001:000592D0  1253 0001:000592D8  1254 0001:000592E3  1256 0001:000592F3
  1257 0001:00059300  1258 0001:00059308  1261 0001:0005930C  1262 0001:0005930E
  1264 0001:00059312  1265 0001:00059322  1267 0001:0005932A  1268 0001:0005932F
  1269 0001:00059334  1272 0001:0005933C  1273 0001:00059346  1275 0001:00059356
  1276 0001:0005935F  1277 0001:00059367  1280 0001:0005936B  1281 0001:0005936D
  1283 0001:00059371  1284 0001:00059383  1286 0001:0005938D  1287 0001:00059392
  1288 0001:00059399  1294 0001:000593A0  1295 0001:000593A9  1297 0001:000593AD
  1298 0001:000593AF  1299 0001:000593B4  1305 0001:000593B8  1306 0001:000593C1
  1308 0001:000593C5  1309 0001:000593C7  1310 0001:000593CC  1313 0001:000593D0
  1314 0001:000593DA  1315 0001:000593E3  1317 0001:000593E7  1318 0001:000593F0
  1320 0001:000593F4  1324 0001:000593FA  1325 0001:00059402  1326 0001:00059404
  1328 0001:0005940E  1329 0001:00059419  1331 0001:0005941F  1334 0001:00059428
  1335 0001:00059432  1336 0001:0005943B  1338 0001:0005943F  1339 0001:00059448
  1341 0001:0005944C  1345 0001:00059452  1346 0001:0005945A  1347 0001:0005945C
  1348 0001:00059468  1349 0001:00059483  1351 0001:0005948B  1369 0001:00059494
  1370 0001:0005949F  1371 0001:000594AC  1372 0001:000594B5  1375 0001:000594BB
  1376 0001:000594C3  1377 0001:000594C5  1378 0001:000594CF  1379 0001:000594DF
  1381 0001:000594E5  1389 0001:000594F0  1390 0001:000594F9  1391 0001:00059509
  1396 0001:00059510  1397 0001:00059531  1399 0001:0005953B  1400 0001:0005953F
  1404 0001:00059543  1405 0001:0005955D  1406 0001:00059567  1408 0001:0005956B
  1409 0001:00059578  1410 0001:0005957B  1411 0001:00059585  1412 0001:00059590
  1415 0001:00059598  1417 0001:0005959C  1420 0001:000595CC  1421 0001:000595D6
  1423 0001:000595E0  1424 0001:000595E4  1428 0001:000595E8  1429 0001:000595F1
  1430 0001:000595F9  1431 0001:000595FB  1432 0001:00059607  1433 0001:00059614
  1435 0001:0005961C  1438 0001:00059624  1439 0001:00059640  1441 0001:00059649
  1442 0001:0005965D  1443 0001:0005966C  1444 0001:00059677  1448 0001:00059682
  1449 0001:0005968D  1451 0001:0005968F  1454 0001:000596B4  1455 0001:000596D0
  1457 0001:000596DA  1458 0001:000596F3  1459 0001:00059702  1460 0001:0005970D
  1464 0001:00059718  1465 0001:00059723  1467 0001:00059725  1470 0001:0005974C
  1471 0001:00059768  1473 0001:00059771  1474 0001:00059785  1475 0001:00059794
  1478 0001:0005979F  1479 0001:000597A8  1480 0001:000597B1  1483 0001:000597D8
  1484 0001:000597E1  1486 0001:000597EB  1487 0001:000597F4  1488 0001:00059803
  1491 0001:0005980E  1492 0001:00059817  1493 0001:0005981E  1496 0001:00059824
  1497 0001:0005982D  1498 0001:00059831  1500 0001:0005983C  1501 0001:0005984B
  1502 0001:00059852  1505 0001:00059858  1506 0001:00059874  1507 0001:00059878
  1509 0001:00059888  1510 0001:000598A9  1511 0001:000598B2  1514 0001:000598D8
  1515 0001:000598F4  1516 0001:000598F8  1518 0001:00059903  1519 0001:0005991F
  1520 0001:00059928  1523 0001:00059950  1524 0001:00059959  1525 0001:0005995D
  1527 0001:00059968  1528 0001:00059977  1529 0001:0005997E  1533 0001:00059984
  1534 0001:00059992  1538 0001:00059994  1539 0001:000599A3  1542 0001:000599A4
  1543 0001:000599A8  1544 0001:000599C3  1547 0001:000599C8  1548 0001:000599CB
  1549 0001:000599E2  1553 0001:000599E4  1554 0001:000599F2  1558 0001:000599F4
  1559 0001:00059A03  1562 0001:00059A04  1563 0001:00059A08  1564 0001:00059A23
  1567 0001:00059A28  1568 0001:00059A2B  1569 0001:00059A42  1600 0001:00059A44
  1601 0001:00059A5D  1602 0001:00059A61  1604 0001:00059A7C  1605 0001:00059A85
  1608 0001:00059AA8  1609 0001:00059AAE  1610 0001:00059AB7  1612 0001:00059AC1
  1613 0001:00059ACA  1616 0001:00059AD0  1617 0001:00059AE9  1618 0001:00059AF3
  1620 0001:00059AFC  1621 0001:00059B15  1627 0001:00059B38  1628 0001:00059B3E
  1630 0001:00059B42  1631 0001:00059B46  1633 0001:00059B4A  1636 0001:00059B4F
  1637 0001:00059B53  1639 0001:00059B57  1640 0001:00059B65  1643 0001:00059B68
  1644 0001:00059B6E  1646 0001:00059B72  1647 0001:00059B76  1649 0001:00059B7A
  1652 0001:00059B7F  1653 0001:00059B83  1655 0001:00059B87  1656 0001:00059B95
  1659 0001:00059B98  1660 0001:00059BB3  1661 0001:00059BB7  1663 0001:00059BE6
  1664 0001:00059BF1  1667 0001:00059C20  1668 0001:00059C3B  1669 0001:00059C3F
  1671 0001:00059C6C  1672 0001:00059C77  1675 0001:00059CA4  1676 0001:00059CAA
  1677 0001:00059CB6  1680 0001:00059CBC  1681 0001:00059CC2  1682 0001:00059CCE
  1685 0001:00059CD4  1686 0001:00059CED  1687 0001:00059D0B  1690 0001:00059D30
  1691 0001:00059D49  1692 0001:00059D67  1695 0001:00059D8C  1696 0001:00059D92
  1697 0001:00059DA2  1700 0001:00059DA8  1701 0001:00059DAE  1702 0001:00059DBC
  1705 0001:00059DC0  1706 0001:00059DC6  1707 0001:00059DD6  1710 0001:00059DDC
  1711 0001:00059DE2  1712 0001:00059DF0  1719 0001:00059DF4  1720 0001:00059DFA
  1722 0001:00059DFE  1723 0001:00059E02  1725 0001:00059E06  1728 0001:00059E0B
  1729 0001:00059E0F  1731 0001:00059E13  1732 0001:00059E21  1735 0001:00059E24
  1736 0001:00059E2A  1738 0001:00059E2E  1739 0001:00059E32  1741 0001:00059E36
  1744 0001:00059E3B  1745 0001:00059E3F  1747 0001:00059E43  1748 0001:00059E51
  1751 0001:00059E54  1752 0001:00059E6F  1753 0001:00059E73  1755 0001:00059EA2
  1756 0001:00059EAD  1759 0001:00059EDC  1760 0001:00059EF7  1761 0001:00059EFB
  1763 0001:00059F28  1764 0001:00059F33  1767 0001:00059F60  1768 0001:00059F66
  1769 0001:00059F74  1772 0001:00059F78  1773 0001:00059F7E  1774 0001:00059F8C
  1777 0001:00059F90  1778 0001:00059FA9  1779 0001:00059FC9  1782 0001:00059FF0
  1783 0001:0005A009  1784 0001:0005A029  1789 0001:0005A050  1790 0001:0005A059
  1791 0001:0005A05B  1794 0001:0005A05C  1795 0001:0005A05F  1796 0001:0005A071
  1799 0001:0005A074  1800 0001:0005A07A  1801 0001:0005A083  1803 0001:0005A08F
  1804 0001:0005A096  1807 0001:0005A09C  1808 0001:0005A0A3  1809 0001:0005A0B7
  1811 0001:0005A0C2  1812 0001:0005A0C9  1818 0001:0005A0D0  1819 0001:0005A0F0
  1820 0001:0005A11E  1839 0001:0005A148  1840 0001:0005A161  1841 0001:0005A165
  1843 0001:0005A180  1844 0001:0005A187  1847 0001:0005A1AC  1848 0001:0005A1B2
  1849 0001:0005A1C0  1851 0001:0005A1CA  1852 0001:0005A1D3  1856 0001:0005A1E8
  1857 0001:0005A1EE  1858 0001:0005A1FC  1860 0001:0005A206  1861 0001:0005A20F

Line numbers for DbxOpenOdbcUtils(DbxOpenOdbcUtils.pas) segment .itext

  1876 0002:000002C4  1889 0002:000002CB

Line numbers for RegExpr(RegExpr.pas) segment .text

   859 0001:0005A628   860 0001:0005A634   861 0001:0005A643   862 0001:0005A651
   863 0001:0005A65B   864 0001:0005A675   866 0001:0005A685   871 0001:0005A690
   872 0001:0005A69D   873 0001:0005A6A4   874 0001:0005A6B3   875 0001:0005A6C1
   876 0001:0005A6CB   877 0001:0005A6E4   879 0001:0005A6F4   884 0001:0005A6FC
   885 0001:0005A709   886 0001:0005A726   887 0001:0005A730   888 0001:0005A752
   890 0001:0005A762   901 0001:0005A788   902 0001:0005A7AA   903 0001:0005A7B2
   904 0001:0005A7C0   905 0001:0005A7C5   906 0001:0005A7C7   907 0001:0005A7CC
   908 0001:0005A7F0   910 0001:0005A830   912 0001:0005A833   906 0001:0005A834
   914 0001:0005A839   915 0001:0005A859   932 0001:0005A89C   933 0001:0005A8C6
   935 0001:0005A8CB   938 0001:0005A8D3   943 0001:0005A8DD   944 0001:0005A8E2
   945 0001:0005A8EE   946 0001:0005A8F6   944 0001:0005A8F8   948 0001:0005A8FB
   949 0001:0005A90B   951 0001:0005A919   952 0001:0005A91E   953 0001:0005A923
   954 0001:0005A92C   956 0001:0005A964   960 0001:0005A970   961 0001:0005A973
   963 0001:0005A978   962 0001:0005A979   964 0001:0005A986   965 0001:0005A98B
   967 0001:0005A997   968 0001:0005A9D1   971 0001:0005A9DE   972 0001:0005A9E8
   973 0001:0005A9F4   974 0001:0005AA02   976 0001:0005AA08   980 0001:0005AA10
   981 0001:0005AA16   983 0001:0005AA1E   984 0001:0005AA21   985 0001:0005AA2D
   986 0001:0005AA39   988 0001:0005AA54   993 0001:0005AA7E   998 0001:0005AA81
   999 0001:0005AA84  1000 0001:0005AA85  1001 0001:0005AA8D  1003 0001:0005AA90
  1004 0001:0005AA98  1005 0001:0005AA9D  1002 0001:0005AA9E  1006 0001:0005AAAB
  1007 0001:0005AAB8  1009 0001:0005AAC3  1013 0001:0005AACB  1011 0001:0005AACC
  1015 0001:0005AAE3  1014 0001:0005AAE4  1020 0001:0005AAFA   953 0001:0005AAFB
  1025 0001:0005AB04  1026 0001:0005AB0A  1029 0001:0005AB11  1034 0001:0005AB46
  1036 0001:0005AB69  1038 0001:0005AB79  1184 0001:0005ABB0  1185 0001:0005ABB3
  1186 0001:0005AD1C  1187 0001:0005AD2A  1188 0001:0005AD38  1189 0001:0005AD46
  1190 0001:0005AD54  1191 0001:0005AD62  1192 0001:0005AD70  1193 0001:0005AD7E
  1194 0001:0005AD8C  1195 0001:0005AD9A  1196 0001:0005ADA8  1197 0001:0005ADB6
  1198 0001:0005ADC4  1199 0001:0005ADD2  1200 0001:0005ADE0  1201 0001:0005ADEE
  1202 0001:0005ADFC  1203 0001:0005AE0A  1204 0001:0005AE18  1205 0001:0005AE26
  1206 0001:0005AE34  1207 0001:0005AE42  1208 0001:0005AE50  1209 0001:0005AE5E
  1210 0001:0005AE6C  1212 0001:0005AE7A  1213 0001:0005AE88  1214 0001:0005AE96
  1215 0001:0005AEA4  1216 0001:0005AEB2  1217 0001:0005AEC0  1218 0001:0005AECE
  1219 0001:0005AEDC  1220 0001:0005AEEA  1221 0001:0005AEF8  1222 0001:0005AF06
  1223 0001:0005AF14  1225 0001:0005AF22  1226 0001:0005AF30  1228 0001:0005AF3C
  1233 0001:0005B788  1234 0001:0005B78E  1235 0001:0005B796  1245 0001:0005B79C
  1246 0001:0005B7A1  1251 0001:0005B7A4  1252 0001:0005B7A9  1256 0001:0005B7AC
  1257 0001:0005B7BE  1258 0001:0005B7C7  1259 0001:0005B7CF  1260 0001:0005B7D7
  1262 0001:0005B7DF  1263 0001:0005B7E7  1265 0001:0005B7EE  1266 0001:0005B801
  1267 0001:0005B814  1268 0001:0005B827  1269 0001:0005B83A  1271 0001:0005B84D
  1272 0001:0005B85E  1273 0001:0005B86F  1275 0001:0005B887  1276 0001:0005B898
  1277 0001:0005B8A5  1281 0001:0005B8C0  1282 0001:0005B8CB  1283 0001:0005B8D5
  1284 0001:0005B8DA  1285 0001:0005B8E4  1286 0001:0005B8E9  1287 0001:0005B8F3
  1288 0001:0005B8F8  1292 0001:0005B908  1299 0001:0005B90C  1300 0001:0005B915
  1301 0001:0005B919  1303 0001:0005B91F  1307 0001:0005B924  1308 0001:0005B92B
  1309 0001:0005B935  1310 0001:0005B945  1311 0001:0005B94C  1317 0001:0005B950
  1318 0001:0005B970  1319 0001:0005B998  1320 0001:0005B99F  1321 0001:0005B9A9
  1322 0001:0005B9AE  1324 0001:0005B9B6  1325 0001:0005B9BA  1326 0001:0005B9C7
  1331 0001:0005B9D5  1334 0001:0005B9EB  1337 0001:0005B9F2  1342 0001:0005BA18
  1343 0001:0005BA21  1346 0001:0005BA28  1344 0001:0005BA29  1348 0001:0005BA41
  1349 0001:0005BA44  1354 0001:0005BA48  1356 0001:0005BA6B  1358 0001:0005BA79
  1359 0001:0005BA7C  1364 0001:0005BA80  1366 0001:0005BAA3  1368 0001:0005BAB1
  1369 0001:0005BAB4  1373 0001:0005BAB8  1374 0001:0005BABC  1377 0001:0005BADF
  1378 0001:0005BAFA  1379 0001:0005BB01  1383 0001:0005BB04  1384 0001:0005BB0A
  1386 0001:0005BB16  1387 0001:0005BB26  1388 0001:0005BB36  1389 0001:0005BB42
  1390 0001:0005BB52  1391 0001:0005BB62  1392 0001:0005BB6E  1393 0001:0005BB7E
  1394 0001:0005BB8E  1395 0001:0005BB9A  1396 0001:0005BBAA  1397 0001:0005BBBA
  1398 0001:0005BBC6  1399 0001:0005BBD6  1400 0001:0005BBE6  1401 0001:0005BBF2
  1402 0001:0005BC02  1403 0001:0005BC12  1405 0001:0005BC1E  1406 0001:0005BC2E
  1407 0001:0005BC43  1417 0001:0005BCB8  1418 0001:0005BCE2  1419 0001:0005BCE6
  1420 0001:0005BCEA  1421 0001:0005BCEF  1422 0001:0005BD09  1423 0001:0005BD10
  1425 0001:0005BD19  1426 0001:0005BD37  1427 0001:0005BD43  1428 0001:0005BD61
  1429 0001:0005BD6D  1430 0001:0005BD8B  1431 0001:0005BD94  1432 0001:0005BDB2
  1433 0001:0005BDBB  1434 0001:0005BDD9  1435 0001:0005BDE2  1436 0001:0005BE00
  1438 0001:0005BE09  1439 0001:0005BE0D  1441 0001:0005BE0F  1442 0001:0005BE15
  1443 0001:0005BE1F  1444 0001:0005BE29  1421 0001:0005BE2A  1445 0001:0005BE31
  1449 0001:0005BED8  1450 0001:0005BEDE  1451 0001:0005BEF1  1452 0001:0005BEFC
  1458 0001:0005BF00  1459 0001:0005BF04  1460 0001:0005BF06  1461 0001:0005BF2E
  1462 0001:0005BF35  1463 0001:0005BF3C  1464 0001:0005BF43  1465 0001:0005BF4A
  1466 0001:0005BF51  1468 0001:0005BF58  1469 0001:0005BF63  1472 0001:0005BF65
  1473 0001:0005BF6E  1479 0001:0005BF74  1480 0001:0005BF77  1481 0001:0005BF9F
  1482 0001:0005BFA6  1483 0001:0005BFAD  1484 0001:0005BFB4  1485 0001:0005BFBB
  1486 0001:0005BFC2  1488 0001:0005BFC9  1489 0001:0005BFD4  1492 0001:0005BFD6
  1493 0001:0005BFDA  1494 0001:0005BFE2  1495 0001:0005BFEA  1504 0001:0005BFEC
  1505 0001:0005BFEF  1506 0001:0005BFF9  1507 0001:0005BFFE  1509 0001:0005C006
  1514 0001:0005C008  1515 0001:0005C011  1516 0001:0005C01A  1518 0001:0005C01B
  1519 0001:0005C026  1527 0001:0005C028  1528 0001:0005C02E  1531 0001:0005C030
  1532 0001:0005C03E  1536 0001:0005C045  1538 0001:0005C057  1537 0001:0005C083
  1542 0001:0005C086  1543 0001:0005C08F  1546 0001:0005C096  1548 0001:0005C0A0
  1549 0001:0005C0A5  1550 0001:0005C0B2  1551 0001:0005C0B4  1560 0001:0005C0DC
  1561 0001:0005C0E3  1564 0001:0005C0ED  1566 0001:0005C0EF  1567 0001:0005C0F8
  1569 0001:0005C0FC  1570 0001:0005C0FE  1572 0001:0005C100  1573 0001:0005C104
  1581 0001:0005C10F  1582 0001:0005C114  1587 0001:0005C118  1589 0001:0005C119
  1591 0001:0005C12C  1592 0001:0005C134  1597 0001:0005C138  1598 0001:0005C13A
  1599 0001:0005C142  1600 0001:0005C14C  1601 0001:0005C14E  1602 0001:0005C154
  1603 0001:0005C15E  1605 0001:0005C167  1606 0001:0005C16E  1611 0001:0005C174
  1612 0001:0005C175  1613 0001:0005C185  1614 0001:0005C187  1616 0001:0005C18F
  1617 0001:0005C195  1626 0001:0005C198  1627 0001:0005C1A4  1628 0001:0005C1B4
  1629 0001:0005C1BA  1631 0001:0005C1BC  1632 0001:0005C1C2  1633 0001:0005C1C8
  1634 0001:0005C1CE  1635 0001:0005C1D2  1636 0001:0005C1D3  1637 0001:0005C1D4
  1634 0001:0005C1D9  1639 0001:0005C1DD  1640 0001:0005C1DF  1641 0001:0005C1E5
  1642 0001:0005C1E6  1643 0001:0005C1EC  1644 0001:0005C1EF  1642 0001:0005C1F0
  1646 0001:0005C1F3  1653 0001:0005C1FC  1654 0001:0005C1FE  1655 0001:0005C200
  1657 0001:0005C204  1659 0001:0005C208  1661 0001:0005C20C  1658 0001:0005C20D
  1662 0001:0005C214  1663 0001:0005C215  1656 0001:0005C216  1665 0001:0005C21B
  1718 0001:0005C220  1719 0001:0005C22E  1721 0001:0005C232  1722 0001:0005C23D
  1723 0001:0005C246  1725 0001:0005C254  1726 0001:0005C261  1727 0001:0005C266
  1730 0001:0005C271  1731 0001:0005C275  1732 0001:0005C281  1735 0001:0005C28B
  1739 0001:0005C29D  1740 0001:0005C2AF  1741 0001:0005C2B8  1742 0001:0005C2C5
  1743 0001:0005C2D0  1744 0001:0005C2E1  1745 0001:0005C2EB  1746 0001:0005C2FC
  1756 0001:0005C306  1759 0001:0005C31D  1760 0001:0005C32F  1761 0001:0005C338
  1762 0001:0005C345  1763 0001:0005C357  1764 0001:0005C361  1765 0001:0005C372
  1769 0001:0005C37C  1770 0001:0005C391  1772 0001:0005C3A3  1773 0001:0005C3AD
  1774 0001:0005C3B7  1775 0001:0005C3C2  1776 0001:0005C3CD  1777 0001:0005C3D7
  1778 0001:0005C3E6  1781 0001:0005C3E9  1782 0001:0005C3F0  1783 0001:0005C401
  1784 0001:0005C405  1792 0001:0005C40E  1793 0001:0005C414  1794 0001:0005C416
  1795 0001:0005C418  1796 0001:0005C41C  1798 0001:0005C42D  1799 0001:0005C430
  1801 0001:0005C439  1795 0001:0005C445  1803 0001:0005C449  1804 0001:0005C452
  1808 0001:0005C45B  1811 0001:0005C46C  1812 0001:0005C472  1813 0001:0005C47A
  1814 0001:0005C485  1818 0001:0005C49A  1832 0001:0005C4C8  1833 0001:0005C4D6
  1834 0001:0005C4DC  1835 0001:0005C4E3  1836 0001:0005C4E9  1839 0001:0005C4F3
  1840 0001:0005C4F9  1841 0001:0005C502  1842 0001:0005C50D  1844 0001:0005C512
  1845 0001:0005C51C  1846 0001:0005C522  1848 0001:0005C535  1851 0001:0005C537
  1852 0001:0005C544  1853 0001:0005C548  1854 0001:0005C54E  1856 0001:0005C553
  1857 0001:0005C557  1858 0001:0005C564  1859 0001:0005C566  1860 0001:0005C56D
  1861 0001:0005C571  1863 0001:0005C57D  1864 0001:0005C583  1865 0001:0005C590
  1866 0001:0005C594  1867 0001:0005C59A  1869 0001:0005C59F  1870 0001:0005C5AA
  1871 0001:0005C5B1  1872 0001:0005C5B5  1862 0001:0005C5BF  1876 0001:0005C5CA
  1877 0001:0005C5D0  1878 0001:0005C5E3  1879 0001:0005C5EE  1882 0001:0005C5F9
  1883 0001:0005C5FB  1884 0001:0005C5FF  1885 0001:0005C60A  1883 0001:0005C615
  1889 0001:0005C619  1890 0001:0005C61F  1891 0001:0005C62A  1892 0001:0005C635
  1894 0001:0005C637  1895 0001:0005C63D  1896 0001:0005C64E  1897 0001:0005C659
  1898 0001:0005C666  1899 0001:0005C671  1901 0001:0005C673  1902 0001:0005C67D
  1903 0001:0005C681  1912 0001:0005C690  1913 0001:0005C69C  1915 0001:0005C6A3
  1916 0001:0005C6B0  1919 0001:0005C6B4  1920 0001:0005C6C1  1921 0001:0005C6C5
  1922 0001:0005C6CB  1924 0001:0005C6CD  1925 0001:0005C6D9  1926 0001:0005C6DD
  1927 0001:0005C6EB  1928 0001:0005C6F6  1917 0001:0005C6F8  1930 0001:0005C70F
  1931 0001:0005C713  1932 0001:0005C71C  1933 0001:0005C724  1944 0001:0005C730
  1945 0001:0005C735  1946 0001:0005C737  1947 0001:0005C741  1948 0001:0005C750
  1950 0001:0005C752  1951 0001:0005C756  1952 0001:0005C767  1950 0001:0005C768
  1954 0001:0005C76C  1955 0001:0005C778  1958 0001:0005C787  1975 0001:0005C790
  1979 0001:0005C7A3  1980 0001:0005C7A7  1981 0001:0005C7B0  1982 0001:0005C7B7
  1983 0001:0005C7C8  1984 0001:0005C7DC  1985 0001:0005C7F0  1987 0001:0005C802
  1988 0001:0005C807  1989 0001:0005C810  1990 0001:0005C81D  1991 0001:0005C826
  1992 0001:0005C830  1994 0001:0005C83B  1995 0001:0005C844  1996 0001:0005C857
  1997 0001:0005C86B  1999 0001:0005C882  2003 0001:0005C888  2004 0001:0005C891
  2005 0001:0005C895  2006 0001:0005C89E  2007 0001:0005C8A5  2008 0001:0005C8BF
  2009 0001:0005C8DB  2010 0001:0005C8E7  2012 0001:0005C8F6  2014 0001:0005C8FC
  2015 0001:0005C923  2016 0001:0005C930  2019 0001:0005C93A  2020 0001:0005C945
  2021 0001:0005C955  2022 0001:0005C95A  2024 0001:0005C95F  2025 0001:0005C969
  2026 0001:0005C974  2029 0001:0005C979  2031 0001:0005C99A  2032 0001:0005C9A0
  2033 0001:0005C9AF  2034 0001:0005C9C4  2035 0001:0005C9CA  2036 0001:0005C9CE
  2038 0001:0005C9E0  2039 0001:0005C9EE  2040 0001:0005CA03  2041 0001:0005CA10
  2042 0001:0005CA25  2046 0001:0005CA3C  2047 0001:0005CA40  2048 0001:0005CA46
  2049 0001:0005CA4A  2051 0001:0005CA5A  2052 0001:0005CA62  2055 0001:0005CA6F
  2056 0001:0005CA75  2057 0001:0005CA84  2058 0001:0005CA99  2059 0001:0005CA9F
  2060 0001:0005CAA3  2062 0001:0005CAB8  2063 0001:0005CAC4  2064 0001:0005CAD1
  2065 0001:0005CAE6  2066 0001:0005CAFB  2070 0001:0005CB12  2071 0001:0005CB16
  2072 0001:0005CB1C  2073 0001:0005CB20  2075 0001:0005CB30  2076 0001:0005CB38
  2079 0001:0005CB45  2080 0001:0005CB49  2081 0001:0005CB58  2082 0001:0005CB6D
  2083 0001:0005CB71  2084 0001:0005CB77  2085 0001:0005CB89  2088 0001:0005CB9B
  2089 0001:0005CBA9  2090 0001:0005CBBE  2091 0001:0005CBCA  2092 0001:0005CBD7
  2094 0001:0005CBE4  2095 0001:0005CBEC  2098 0001:0005CBF9  2101 0001:0005CC04
  2102 0001:0005CC0C  2104 0001:0005CC19  2103 0001:0005CC21  2105 0001:0005CC45
  2106 0001:0005CC5D  2107 0001:0005CC68  2108 0001:0005CC6D  2110 0001:0005CC72
  2111 0001:0005CC87  2112 0001:0005CC98  2113 0001:0005CCA0  2115 0001:0005CCAD
  2114 0001:0005CCB5  2116 0001:0005CCD9  2117 0001:0005CCE6  2118 0001:0005CCF1
  2120 0001:0005CCF6  2121 0001:0005CD03  2122 0001:0005CD0A  2124 0001:0005CD19
  2125 0001:0005CD1B  2126 0001:0005CD1F  2127 0001:0005CD2A  2129 0001:0005CD2F
  2130 0001:0005CD33  2131 0001:0005CD37  2132 0001:0005CD3B  2134 0001:0005CD45
  2135 0001:0005CD54  2136 0001:0005CD69  2137 0001:0005CD6F  2138 0001:0005CD7D
  2139 0001:0005CD89  2140 0001:0005CD8D  2145 0001:0005CD95  2146 0001:0005CD9D
  2147 0001:0005CDB8  2150 0001:0005CDC3  2178 0001:0005CE14  2179 0001:0005CE1A
  2180 0001:0005CE29  2181 0001:0005CE3E  2182 0001:0005CE51  2183 0001:0005CE5E
  2184 0001:0005CE6B  2185 0001:0005CE81  2195 0001:0005CE84  2196 0001:0005CE88
  2197 0001:0005CE8A  2198 0001:0005CE92  2199 0001:0005CE94  2200 0001:0005CEA4
  2201 0001:0005CEB3  2203 0001:0005CEB5  2204 0001:0005CEBB  2205 0001:0005CEBF
  2206 0001:0005CEC2  2209 0001:0005CEC8  2211 0001:0005CED0  2213 0001:0005CEDA
  2215 0001:0005CEE9  2217 0001:0005CEF6  2219 0001:0005CEFE  2221 0001:0005CF07
  2223 0001:0005CF0E  2224 0001:0005CF20  2225 0001:0005CF32  2226 0001:0005CF3A
  2227 0001:0005CF4C  2228 0001:0005CF53  2234 0001:0005CF5A  2238 0001:0005CF80
  2239 0001:0005CF86  2241 0001:0005CF94  2242 0001:0005CF9A  2243 0001:0005CFA2
  2244 0001:0005CFA8  2245 0001:0005CFB0  2246 0001:0005CFB6  2247 0001:0005CFC0
  2255 0001:0005CFC4  2256 0001:0005CFCF  2258 0001:0005CFD6  2259 0001:0005CFDA
  2260 0001:0005CFE6  2261 0001:0005CFF3  2268 0001:0005D016  2269 0001:0005D023
  2270 0001:0005D03F  2271 0001:0005D054  2273 0001:0005D059  2274 0001:0005D06B
  2275 0001:0005D07E  2276 0001:0005D08C  2277 0001:0005D09A  2278 0001:0005D0A6
  2274 0001:0005D0A7  2281 0001:0005D0AD  2282 0001:0005D0B6  2280 0001:0005D0C2
  2286 0001:0005D0E0  2287 0001:0005D0FC  2288 0001:0005D111  2290 0001:0005D113
  2291 0001:0005D122  2292 0001:0005D151  2293 0001:0005D154  2294 0001:0005D166
  2295 0001:0005D178  2301 0001:0005D185  2304 0001:0005D1AC  2305 0001:0005D1AF
  2306 0001:0005D1B5  2307 0001:0005D1BF  2308 0001:0005D1C6  2312 0001:0005D1C8
  2314 0001:0005D1D1  2313 0001:0005D1F7  2315 0001:0005D1FA  2318 0001:0005D200
  2319 0001:0005D207  2320 0001:0005D261  2321 0001:0005D268  2322 0001:0005D26F
  2323 0001:0005D276  2324 0001:0005D27D  2325 0001:0005D284  2327 0001:0005D28B
  2328 0001:0005D28D  2329 0001:0005D28F  2330 0001:0005D296  2331 0001:0005D2A5
  2333 0001:0005D2AA  2335 0001:0005D2B1  2336 0001:0005D2B3  2337 0001:0005D2BA
  2338 0001:0005D2C9  2340 0001:0005D2CB  2341 0001:0005D2D2  2343 0001:0005D2DC
  2344 0001:0005D2EB  2346 0001:0005D2ED  2350 0001:0005D303  2353 0001:0005D305
  2355 0001:0005D316  2356 0001:0005D318  2357 0001:0005D31F  2358 0001:0005D32E
  2360 0001:0005D330  2364 0001:0005D348  2366 0001:0005D34A  2368 0001:0005D350
  2369 0001:0005D375  2370 0001:0005D377  2372 0001:0005D37E  2373 0001:0005D387
  2374 0001:0005D410  2376 0001:0005D434  2377 0001:0005D446  2378 0001:0005D458
  2380 0001:0005D47C  2381 0001:0005D48E  2383 0001:0005D4A0  2384 0001:0005D4AC
  2385 0001:0005D4B9  2388 0001:0005D4CE  2389 0001:0005D4DB  2397 0001:0005D4E6
  2398 0001:0005D4EB  2399 0001:0005D4F7  2400 0001:0005D505  2401 0001:0005D511
  2404 0001:0005D51C  2405 0001:0005D528  2406 0001:0005D536  2408 0001:0005D542
  2410 0001:0005D546  2411 0001:0005D55A  2412 0001:0005D561  2416 0001:0005D56F
  2419 0001:0005D5A1  2420 0001:0005D5AA  2421 0001:0005D5B6  2427 0001:0005D5BB
  2429 0001:0005D5EA  2430 0001:0005D5F3  2432 0001:0005D5F8  2433 0001:0005D601
  2437 0001:0005D612  2439 0001:0005D629  2441 0001:0005D63A  2443 0001:0005D651
  2445 0001:0005D65F  2447 0001:0005D676  2448 0001:0005D682  2451 0001:0005D690
  2452 0001:0005D695  2453 0001:0005D6A1  2455 0001:0005D6A6  2456 0001:0005D6A9
  2457 0001:0005D6B2  2458 0001:0005D6B7  2459 0001:0005D6C2  2457 0001:0005D6C5
  2462 0001:0005D6CA  2465 0001:0005D6D8  2466 0001:0005D6EA  2467 0001:0005D6F3
  2468 0001:0005D701  2469 0001:0005D70D  2471 0001:0005D712  2472 0001:0005D72C
  2473 0001:0005D73A  2474 0001:0005D74C  2475 0001:0005D75E  2478 0001:0005D776
  2479 0001:0005D789  2415 0001:0005D792  2482 0001:0005D7B2  2483 0001:0005D7BB
  2484 0001:0005D7C9  2485 0001:0005D7D5  2487 0001:0005D7DA  2488 0001:0005D7E3
  2491 0001:0005D7F8  2493 0001:0005D801  2494 0001:0005D807  2496 0001:0005D813
  2495 0001:0005D81C  2497 0001:0005D830  2498 0001:0005D83E  2499 0001:0005D84A
  2501 0001:0005D84F  2502 0001:0005D858  2505 0001:0005D86A  2506 0001:0005D873
  2508 0001:0005D87E  2507 0001:0005D887  2509 0001:0005D89B  2511 0001:0005D8E7
  2512 0001:0005D8F3  2514 0001:0005D8F8  2515 0001:0005D901  2521 0001:0005D913
  2522 0001:0005D926  2523 0001:0005D92C  2524 0001:0005D92E  2526 0001:0005D933
  2530 0001:0005D943  2531 0001:0005D94F  2534 0001:0005D954  2535 0001:0005D960
  2538 0001:0005D965  2539 0001:0005D96A  2540 0001:0005D976  2542 0001:0005D97B
  2543 0001:0005D9F3  2544 0001:0005DA05  2545 0001:0005DA17  2546 0001:0005DA29
  2548 0001:0005DA3B  2549 0001:0005DA48  2552 0001:0005DA5D  2553 0001:0005DA6A
  2557 0001:0005DA7F  2558 0001:0005DA8B  2559 0001:0005DA9B  2563 0001:0005DAA4
  2567 0001:0005DAB9  2568 0001:0005DAC5  2569 0001:0005DAD5  2573 0001:0005DADE
  2577 0001:0005DAF3  2578 0001:0005DAFF  2579 0001:0005DB0F  2583 0001:0005DB18
  2587 0001:0005DB2D  2588 0001:0005DB39  2589 0001:0005DB49  2593 0001:0005DB52
  2596 0001:0005DB64  2597 0001:0005DB70  2598 0001:0005DB7F  2599 0001:0005DB8C
  2600 0001:0005DBA3  2602 0001:0005DBB5  2604 0001:0005DBCB  2607 0001:0005DBD9
  2608 0001:0005DBE2  2612 0001:0005DC14  2615 0001:0005DC24  2614 0001:0005DC2D
  2617 0001:0005DC47  2616 0001:0005DC50  2622 0001:0005DC66  2621 0001:0005DC6F
  2624 0001:0005DC89  2627 0001:0005DC9B  2628 0001:0005DCB0  2629 0001:0005DCB4
  2630 0001:0005DCC2  2631 0001:0005DCCE  2633 0001:0005DCD3  2634 0001:0005DCE3
  2635 0001:0005DCF1  2637 0001:0005DD06  2638 0001:0005DD07  2639 0001:0005DD0D
  2640 0001:0005DD12  2641 0001:0005DD18  2642 0001:0005DD24  2643 0001:0005DD33
  2646 0001:0005DD42  2649 0001:0005DD68  2650 0001:0005DD7C  2651 0001:0005DD85
  2644 0001:0005DD86  2653 0001:0005DDA4  2658 0001:0005DDAE  2659 0001:0005DDB1
  2664 0001:0005DE5C  2665 0001:0005DE5E  2667 0001:0005DE71  2668 0001:0005DE79
  2696 0001:0005DE7C  2697 0001:0005DE8B  2698 0001:0005DE91  2699 0001:0005DE97
  2700 0001:0005DE9E  2701 0001:0005DEAA  2702 0001:0005DEB4  2703 0001:0005DEBC
  2707 0001:0005DF23  2708 0001:0005DF2B  2713 0001:0005DF36  2714 0001:0005DF3A
  2712 0001:0005DF3B  2720 0001:0005DF55  2721 0001:0005DF59  2719 0001:0005DF5A
  2723 0001:0005DF6B  2724 0001:0005DF79  2727 0001:0005DF8C  2728 0001:0005DF90
  2725 0001:0005DF91  2733 0001:0005DFAF  2734 0001:0005DFBA  2736 0001:0005DFC5
  2737 0001:0005DFD0  2740 0001:0005DFDB  2741 0001:0005DFDF  2742 0001:0005DFE5
  2744 0001:0005DFFC  2745 0001:0005DFFD  2741 0001:0005DFFE  2747 0001:0005E004
  2748 0001:0005E008  2749 0001:0005E00E  2752 0001:0005E01D  2753 0001:0005E028
  2755 0001:0005E033  2756 0001:0005E03E  2759 0001:0005E049  2760 0001:0005E04D
  2761 0001:0005E053  2764 0001:0005E07D  2765 0001:0005E07E  2760 0001:0005E07F
  2767 0001:0005E085  2768 0001:0005E089  2769 0001:0005E08F  2774 0001:0005E09E
  2775 0001:0005E0A2  2772 0001:0005E0A3  2780 0001:0005E0C4  2781 0001:0005E0C8
  2778 0001:0005E0C9  2818 0001:0005E0E7  2819 0001:0005E0EB  2815 0001:0005E0EC
  2826 0001:0005E10D  2827 0001:0005E111  2823 0001:0005E112  2834 0001:0005E139
  2835 0001:0005E13D  2832 0001:0005E13E  2863 0001:0005E155  2864 0001:0005E15B
  2865 0001:0005E166  2868 0001:0005E168  2869 0001:0005E16E  2876 0001:0005E17C
  2877 0001:0005E185  2878 0001:0005E187  2880 0001:0005E188  2881 0001:0005E18D
  2882 0001:0005E191  2883 0001:0005E195  2884 0001:0005E197  2908 0001:0005E198
  2909 0001:0005E1BF  2910 0001:0005E1C3  2912 0001:0005E1C5  2913 0001:0005E1CD
  2914 0001:0005E1D2  2915 0001:0005E1D6  2916 0001:0005E1DD  2918 0001:0005E1E2
  2921 0001:0005E2CF  2928 0001:0005E3B7  2930 0001:0005E3BC  2931 0001:0005E3CE
  2932 0001:0005E3D3  2933 0001:0005E3E2  2934 0001:0005E3E7  2935 0001:0005E3F9
  2936 0001:0005E406  2940 0001:0005E439  2945 0001:0005E45A  2949 0001:0005E46E
  2952 0001:0005E473  2953 0001:0005E482  2954 0001:0005E48E  2957 0001:0005E4B0
  2963 0001:0005E4E0  2967 0001:0005E4F4  2971 0001:0005E4F9  2973 0001:0005E508
  2976 0001:0005E513  2982 0001:0005E562  2985 0001:0005E56D  2987 0001:0005E59A
  2990 0001:0005E5A5  2992 0001:0005E5CE  3017 0001:0005E5D9  3019 0001:0005E5E0
  3022 0001:0005E610  3024 0001:0005E61A  3025 0001:0005E61D  3026 0001:0005E626
  3027 0001:0005E62C  3028 0001:0005E62F  3029 0001:0005E632  3032 0001:0005E65C
  3026 0001:0005E65F  3035 0001:0005E665  3038 0001:0005E670  3040 0001:0005E677
  3042 0001:0005E68B  3044 0001:0005E695  3045 0001:0005E698  3046 0001:0005E6A1
  3047 0001:0005E6A7  3048 0001:0005E6AA  3049 0001:0005E6AD  3051 0001:0005E6BE
  3046 0001:0005E6C1  3054 0001:0005E6C7  3057 0001:0005E6D2  3058 0001:0005E6DC
  3060 0001:0005E6EA  3062 0001:0005E6FB  3063 0001:0005E704  3065 0001:0005E710
  3067 0001:0005E730  3068 0001:0005E733  3064 0001:0005E736  3070 0001:0005E745
  3073 0001:0005E753  3074 0001:0005E75D  3076 0001:0005E76B  3078 0001:0005E77C
  3079 0001:0005E785  3081 0001:0005E791  3084 0001:0005E7CA  3085 0001:0005E7CD
  3080 0001:0005E7D0  3087 0001:0005E7DF  3090 0001:0005E7ED  3095 0001:0005E834
  3098 0001:0005E83F  3103 0001:0005E88A  3107 0001:0005E895  3110 0001:0005E8BC
  3138 0001:0005E8C7  3140 0001:0005E8D0  3141 0001:0005E8DA  3142 0001:0005E8E7
  3143 0001:0005E8F4  3144 0001:0005E8FE  3149 0001:0005E908  3152 0001:0005E90D
  3154 0001:0005E916  3155 0001:0005E923  3156 0001:0005E933  3157 0001:0005E940
  3158 0001:0005E94A  3163 0001:0005E957  3166 0001:0005E95C  3167 0001:0005E964
  3170 0001:0005E970  3171 0001:0005E979  3172 0001:0005E986  3174 0001:0005E990
  3175 0001:0005E999  3176 0001:0005E9A4  3177 0001:0005E9B1  3182 0001:0005E9B6
  3183 0001:0005E9BF  3184 0001:0005E9C5  3185 0001:0005E9CE  3186 0001:0005E9D9
  3188 0001:0005E9DE  3189 0001:0005E9E7  3190 0001:0005E9F6  3191 0001:0005EA03
  3192 0001:0005EA0C  3194 0001:0005EA16  3195 0001:0005EA1F  3198 0001:0005EA24
  3199 0001:0005EA2D  3200 0001:0005EA38  3202 0001:0005EA3D  3203 0001:0005EA4D
  3204 0001:0005EA55  3205 0001:0005EA60  3206 0001:0005EA69  3207 0001:0005EA7F
  3209 0001:0005EA84  3210 0001:0005EA96  3211 0001:0005EAA3  3212 0001:0005EAAC
  3213 0001:0005EAB9  3214 0001:0005EAC2  3216 0001:0005EACC  3218 0001:0005EAD5
  3219 0001:0005EADB  3220 0001:0005EAE8  3221 0001:0005EAF2  3222 0001:0005EAFB
  3226 0001:0005EB00  3227 0001:0005EB0D  3229 0001:0005EB17  3230 0001:0005EB20
  3231 0001:0005EB32  3232 0001:0005EB3F  3233 0001:0005EB48  3234 0001:0005EB55
  3235 0001:0005EB5E  3237 0001:0005EB68  3239 0001:0005EB71  3240 0001:0005EB77
  3244 0001:0005EB7C  3245 0001:0005EB89  3246 0001:0005EB92  3247 0001:0005EB9F
  3248 0001:0005EBA8  3250 0001:0005EBB2  3251 0001:0005EBBF  3252 0001:0005EBC8
  3259 0001:0005EBCD  3260 0001:0005EBD1  3261 0001:0005EBD9  3262 0001:0005EBE6
  3263 0001:0005EBED  3264 0001:0005EBF7  3265 0001:0005EBFE  3266 0001:0005EC08
  3268 0001:0005EC11  3269 0001:0005EC19  3271 0001:0005EC24  3272 0001:0005EC2D
  3273 0001:0005EC33  3274 0001:0005EC3D  3276 0001:0005EC41  3278 0001:0005EC54
  3283 0001:0005EC64  3284 0001:0005EC6A  3285 0001:0005EC76  3287 0001:0005EC82
  3289 0001:0005EC96  3290 0001:0005ECA9  3292 0001:0005ECB2  3293 0001:0005ECC0
  3294 0001:0005ECC4  3297 0001:0005ECC9  3298 0001:0005ECDC  3301 0001:0005ECE5
  3284 0001:0005ECE8  3303 0001:0005ECF0  3306 0001:0005ECF5  3307 0001:0005ED05
  3309 0001:0005ED11  3311 0001:0005ED25  3312 0001:0005ED38  3314 0001:0005ED41
  3315 0001:0005ED4F  3316 0001:0005ED53  3319 0001:0005ED55  3320 0001:0005ED68
  3323 0001:0005ED71  3324 0001:0005ED74  3307 0001:0005ED80  3326 0001:0005ED88
  3330 0001:0005ED8A  3331 0001:0005ED8E  3334 0001:0005ED90  3335 0001:0005ED9B
  3338 0001:0005ED9D  2912 0001:0005EDA0  3343 0001:0005EDA8  3344 0001:0005EDB3
  3354 0001:0005EDE0  3355 0001:0005EDE9  3356 0001:0005EDEB  3357 0001:0005EDF3
  3358 0001:0005EDFE  3360 0001:0005EEE3  3362 0001:0005EEF5  3366 0001:0005EEFA
  3367 0001:0005EF01  3369 0001:0005EF15  3371 0001:0005EF24  3372 0001:0005EF32
  3370 0001:0005EF33  3375 0001:0005EF39  3379 0001:0005EF3E  3380 0001:0005EF50
  3383 0001:0005EF55  3384 0001:0005EF89  3387 0001:0005EF8E  3388 0001:0005EFC2
  3391 0001:0005EFC7  3392 0001:0005EFD7  3393 0001:0005EFF3  3396 0001:0005EFF8
  3397 0001:0005F008  3400 0001:0005F00D  3401 0001:0005F041  3405 0001:0005F046
  3406 0001:0005F056  3407 0001:0005F067  3409 0001:0005F07A  3413 0001:0005F07F
  3418 0001:0005F104  3424 0001:0005F109  3425 0001:0005F112  3428 0001:0005F117
  3429 0001:0005F120  3432 0001:0005F125  3433 0001:0005F12A  3436 0001:0005F132
  3437 0001:0005F13C  3438 0001:0005F147  3439 0001:0005F154  3445 0001:0005F159
  3446 0001:0005F162  3449 0001:0005F167  3450 0001:0005F171  3451 0001:0005F179
  3452 0001:0005F182  3453 0001:0005F188  3454 0001:0005F191  3458 0001:0005F193
  3460 0001:0005F19F  3461 0001:0005F1A9  3464 0001:0005F1AB  3465 0001:0005F1B1
  3466 0001:0005F1B9  3467 0001:0005F1C2  3468 0001:0005F1C8  3471 0001:0005F1CA
  3472 0001:0005F1DC  3475 0001:0005F1DE  3476 0001:0005F1E9  3479 0001:0005F1EB
  3356 0001:0005F1ED  3481 0001:0005F1F5  3486 0001:0005F260  3487 0001:0005F263
  3488 0001:0005F26A  3489 0001:0005F276  3496 0001:0005F278  3497 0001:0005F282
  3502 0001:0005F284  3503 0001:0005F289  3509 0001:0005F28C  3510 0001:0005F291
  3517 0001:0005F294  3518 0001:0005F29E  3519 0001:0005F2A0  3520 0001:0005F2A8
  3521 0001:0005F2B3  3518 0001:0005F2B4  3522 0001:0005F2B9  3526 0001:0005F2BC
  3528 0001:0005F2C2  3529 0001:0005F2CE  3530 0001:0005F2E6  3531 0001:0005F2EA
  3532 0001:0005F2F3  3534 0001:0005F30B  3540 0001:0005F310  3541 0001:0005F31E
  3543 0001:0005F320  3548 0001:0005F327  3552 0001:0005F337  3553 0001:0005F343
  3554 0001:0005F34F  3557 0001:0005F354  3560 0001:0005F365  3561 0001:0005F36A
  3562 0001:0005F376  3566 0001:0005F37B  3569 0001:0005F387  3572 0001:0005F393
  3573 0001:0005F39F  3575 0001:0005F3A1  3576 0001:0005F3B6  3577 0001:0005F3BA
  3579 0001:0005F3D7  3581 0001:0005F3D8  3582 0001:0005F3DC  3587 0001:0005F3E4
  3591 0001:0005F3F6  3595 0001:0005F40B  3599 0001:0005F416  3600 0001:0005F422
  3601 0001:0005F42D  3605 0001:0005F42F  3606 0001:0005F431  3608 0001:0005F43D
  3609 0001:0005F450  3610 0001:0005F454  3611 0001:0005F45F  3613 0001:0005F463
  3614 0001:0005F46A  3616 0001:0005F46B  3620 0001:0005F471  3621 0001:0005F483
  3625 0001:0005F48E  3627 0001:0005F497  3628 0001:0005F49E  3629 0001:0005F49F
  3651 0001:0005F4A1  3656 0001:0005F4AC  3657 0001:0005F4B0  3658 0001:0005F4B2
  3659 0001:0005F4C1  3660 0001:0005F4CC  3664 0001:0005F4CE  3665 0001:0005F4DD
  3666 0001:0005F4E2  3667 0001:0005F4E3  3668 0001:0005F4EC  3672 0001:0005F4F4
  3673 0001:0005F4FA  3674 0001:0005F503  3675 0001:0005F50E  3677 0001:0005F511
  3678 0001:0005F523  3685 0001:0005F528  3687 0001:0005F531  3688 0001:0005F533
  3689 0001:0005F539  3690 0001:0005F542  3687 0001:0005F543  3693 0001:0005F548
  3694 0001:0005F555  3695 0001:0005F56A  3696 0001:0005F575  3699 0001:0005F57D
  3700 0001:0005F586  3706 0001:0005F594  3723 0001:0005F5AA  3727 0001:0005F5B0
  3728 0001:0005F5B6  3729 0001:0005F5C5  3730 0001:0005F5D2  3732 0001:0005F5D9
  3736 0001:0005F5DC  3737 0001:0005F5E3  3738 0001:0005F5F3  3741 0001:0005F5FB
  3742 0001:0005F606  3744 0001:0005F608  3747 0001:0005F628  3748 0001:0005F62F
  3749 0001:0005F638  3750 0001:0005F642  3753 0001:0005F64B  3754 0001:0005F65A
  3755 0001:0005F663  3756 0001:0005F66A  3759 0001:0005F673  3760 0001:0005F67E
  3764 0001:0005F684  3765 0001:0005F68D  3773 0001:0005F696  3776 0001:0005F6E2
  3777 0001:0005F6E9  3798 0001:0005F6F0  3799 0001:0005F6F8  3800 0001:0005F6FA
  3801 0001:0005F6FC  3802 0001:0005F70F  3803 0001:0005F713  3804 0001:0005F714
  3805 0001:0005F721  3814 0001:0005F724  3815 0001:0005F735  3807 0001:0005F736
  3817 0001:0005F749  3818 0001:0005F74D  3819 0001:0005F75A  3820 0001:0005F75D
  3821 0001:0005F75F  3822 0001:0005F763  3823 0001:0005F766  3824 0001:0005F768
  3825 0001:0005F770  3827 0001:0005F780  3829 0001:0005F78F  3830 0001:0005F798
  3831 0001:0005F7A3  3834 0001:0005F7A8  3835 0001:0005F7B3  3836 0001:0005F7B7
  3837 0001:0005F7BF  3839 0001:0005F7C4  3840 0001:0005F7C7  3842 0001:0005F7CD
  3843 0001:0005F7D2  3844 0001:0005F7D8  3845 0001:0005F7E0  3846 0001:0005F7E6
  3847 0001:0005F7E9  3848 0001:0005F7EE  3849 0001:0005F7FC  3850 0001:0005F7FF
  3851 0001:0005F803  3852 0001:0005F819  3855 0001:0005F829  3856 0001:0005F836
  3857 0001:0005F839  3844 0001:0005F83C  3861 0001:0005F844  3862 0001:0005F84A
  3863 0001:0005F852  3865 0001:0005F857  3867 0001:0005F866  3868 0001:0005F86E
  3869 0001:0005F874  3870 0001:0005F880  3871 0001:0005F886  3872 0001:0005F889
  3873 0001:0005F88E  3874 0001:0005F89C  3875 0001:0005F89F  3876 0001:0005F8A3
  3877 0001:0005F8AA  3879 0001:0005F8C1  3880 0001:0005F8CC  3881 0001:0005F8CF
  3878 0001:0005F8D2  3885 0001:0005F8E0  3886 0001:0005F8ED  3887 0001:0005F8F3
  3889 0001:0005F8F6  3890 0001:0005F8FB  3869 0001:0005F8FE  3893 0001:0005F90A
  3898 0001:0005F914  3899 0001:0005F944  3900 0001:0005F949  3902 0001:0005F95B
  3903 0001:0005F9B0  3904 0001:0005FA14  3905 0001:0005FA23  3906 0001:0005FA4C
  3913 0001:0005FA90  3914 0001:0005FAC5  3915 0001:0005FACC  3916 0001:0005FAD1
  3918 0001:0005FAE3  3920 0001:0005FB34  3921 0001:0005FB3A  3922 0001:0005FB53
  3923 0001:0005FB5D  3924 0001:0005FBC1  3925 0001:0005FBD0  3926 0001:0005FBED
  3934 0001:0005FC20  3935 0001:0005FC51  3936 0001:0005FC59  3937 0001:0005FC5E
  3939 0001:0005FC70  3942 0001:0005FCEA  3943 0001:0005FD4E  3944 0001:0005FD5D
  3945 0001:0005FD7E  3953 0001:0005FDC0  3954 0001:0005FDE7  3955 0001:0005FDFA
  4130 0001:0005FE24  4131 0001:0005FE27  4135 0001:0005FE28  4136 0001:0005FE48
  4137 0001:0005FE4E  4138 0001:0005FE56  4140 0001:0005FEAC  4141 0001:0005FED4
  4142 0001:0005FED7  4143 0001:0005FEE1  4147 0001:0005FEEE

Line numbers for RegExpr(RegExpr.pas) segment .itext

  4168 0002:000002CC

Line numbers for DbxObjectParser(DbxObjectParser.pas) segment .text

   427 0001:00060684   428 0001:0006068D   429 0001:0006069C   430 0001:000606A2
   431 0001:000606A9   447 0001:000606D4   448 0001:0006070D   449 0001:00060713
   453 0001:0006071A   454 0001:00060729   455 0001:00060737   456 0001:0006073D
   458 0001:00060743   459 0001:0006074E   456 0001:00060757   461 0001:0006075D
   462 0001:0006077D   464 0001:0006079D   466 0001:000607B7   467 0001:000607DC
   468 0001:000607EC   469 0001:000607FE   473 0001:0006080C   478 0001:0006084A
   479 0001:00060858   481 0001:00060866   484 0001:00060879   486 0001:00060881
   488 0001:0006089B   489 0001:000608C4   491 0001:000608F5   492 0001:00060917
   486 0001:0006091A   494 0001:00060923   504 0001:0006094C   512 0001:00060975
   520 0001:0006099E   528 0001:000609C7   537 0001:000609F0   538 0001:00060A08
   539 0001:00060A17   540 0001:00060ACF   542 0001:00060AE1   543 0001:00060AEF
   545 0001:00060B17   547 0001:00060B1A   550 0001:00060B48   557 0001:00060B52
   561 0001:00060B7C   565 0001:00060BA6   569 0001:00060BD0   464 0001:00060BD3
   571 0001:00060BE9   582 0001:00060BF9   587 0001:00060D54   591 0001:00060D65
   593 0001:00060D7F   594 0001:00060D90   595 0001:00060D9E   591 0001:00060DA1
   596 0001:00060DA6   606 0001:00060DB4   641 0001:00060DC8   643 0001:00060E02
   644 0001:00060E07   645 0001:00060E0F   646 0001:00060E17   650 0001:00060E1F
   651 0001:00060E2D   653 0001:00060E43   655 0001:00060E52   657 0001:00060E65
   658 0001:00060E75   667 0001:00060E7E   668 0001:00060E89   669 0001:00060E91
   670 0001:00060E95   672 0001:00060E9F   674 0001:00060EB9   678 0001:00060FAB
   679 0001:00060FAF   680 0001:00061038   682 0001:0006103A   672 0001:0006103D
   684 0001:00061046   687 0001:00061050   688 0001:0006105B   689 0001:00061063
   691 0001:0006106D   693 0001:00061088   697 0001:0006117A   698 0001:00061203
   700 0001:00061205   691 0001:00061208   703 0001:00061211   704 0001:0006121C
   705 0001:00061224   707 0001:0006122E   709 0001:00061249   713 0001:0006133B
   714 0001:000613C4   716 0001:000613C6   707 0001:000613C9   719 0001:000613D2
   721 0001:000613D8   722 0001:000613E1   723 0001:000613F1   724 0001:000613FC
   725 0001:0006140C   726 0001:00061417   727 0001:00061427   729 0001:00061432
   731 0001:0006143B   733 0001:00061443   734 0001:00061450   736 0001:00061458
   738 0001:00061460   739 0001:0006146D   743 0001:00061475   745 0001:00061477
   651 0001:0006147A   746 0001:00061483   747 0001:0006148C   748 0001:0006149C
   759 0001:000614A7   773 0001:000614F4   774 0001:000614F7   798 0001:00061506
   800 0001:00061508   805 0001:0006154C   806 0001:00061552   808 0001:0006155B
   812 0001:00061561   815 0001:0006156F   816 0001:0006157B   817 0001:0006159A
   818 0001:000615A3   820 0001:000615B3   821 0001:000615BB   824 0001:000615E3
   825 0001:000615EF   826 0001:0006160E   827 0001:00061617   829 0001:00061627
   830 0001:0006162F   833 0001:00061657   834 0001:00061663   835 0001:00061682
   836 0001:0006168B   838 0001:0006169B   841 0001:000616A3   844 0001:000616CB
   846 0001:000616D0   847 0001:000616E3   851 0001:0006171A   852 0001:0006172D
   856 0001:00061764   857 0001:00061777   861 0001:000617AE   844 0001:000617B1
   871 0001:000617BB   877 0001:00061830   881 0001:00061861   883 0001:0006187A
   893 0001:00061894

Line numbers for DbxObjectParser(DbxObjectParser.pas) segment .itext

   895 0002:000002D4

Line numbers for DbxOpenOdbcCallback(DbxOpenOdbcCallback.pas) segment .text

   103 0001:00061950   104 0001:00061953   107 0001:00061954   108 0001:00061957
   109 0001:00061A0F   110 0001:00061A1D   111 0001:00061A2B   112 0001:00061A39
   113 0001:00061A47   114 0001:00061A55   115 0001:00061A63   116 0001:00061A71
   117 0001:00061A7F   118 0001:00061A8D   119 0001:00061A9B   120 0001:00061AA9
   122 0001:00061AB7   123 0001:00061AC5   124 0001:00061AD3   126 0001:00061AE1
   128 0001:00061AEF   130 0001:00061AFB   133 0001:00061CE0   134 0001:00061CE6
   135 0001:00061CF4   142 0001:00061CF8   144 0001:00061CFE   150 0001:00061D07
   153 0001:00061D0C   154 0001:00061D2A   155 0001:00061D33   156 0001:00061D47
   157 0001:00061D5C

Line numbers for DbxOpenOdbcCallback(DbxOpenOdbcCallback.pas) segment .itext

   159 0002:000002DC

Line numbers for DbxOpenOdbcASA(DbxOpenOdbcASA.pas) segment .text

    65 0001:00061DAC    66 0001:00061DAF    67 0001:00061DB7    68 0001:00061DBE
    74 0001:00061DC4    75 0001:00061DD7    77 0001:00061DE0    78 0001:00061DE8
    79 0001:00061DEF    80 0001:00061DFA    82 0001:00061E16

Line numbers for DbxOpenOdbcASA(DbxOpenOdbcASA.pas) segment .itext

    90 0002:000002E4    91 0002:000002ED    93 0002:00000303

Line numbers for DbxOpenOdbc3(DbxOpenOdbc3.pas) segment .text

   486 0001:00064368   487 0001:00064388   492 0001:0006438D   493 0001:00064391
   494 0001:0006439C   495 0001:000643A0   496 0001:000643D8   509 0001:000643F8
   514 0001:000644AC   515 0001:000644CC   520 0001:000644D1   521 0001:000644D5
   522 0001:000644E0   523 0001:000644E4   524 0001:0006451C   537 0001:0006453C
   544 0001:000645F0   545 0001:0006460C   546 0001:00064616   550 0001:0006461C
   551 0001:0006462E   552 0001:00064640   553 0001:0006464F   555 0001:0006465C
   556 0001:00064670   557 0001:00064676   559 0001:0006467A   560 0001:00064688
   562 0001:0006468C   563 0001:00064694   568 0001:0006469A   571 0001:0006469E
   574 0001:000646C4   575 0001:000646C7   577 0001:000646CC   578 0001:000646D4
   580 0001:000646D8   588 0001:000646DC   589 0001:000646F3   590 0001:00064724
   591 0001:00064732   592 0001:0006473B   593 0001:00064742   597 0001:00064749
   598 0001:00064757   602 0001:00064763   603 0001:00064771   607 0001:0006477B
   609 0001:00064797   613 0001:000647AC   615 0001:000647BC   622 0001:000648B8
   624 0001:000648D0   627 0001:000648D7   628 0001:000648E0   629 0001:000648E5
   630 0001:000648EE   633 0001:000648F8   635 0001:000648FF   640 0001:0006490F
   643 0001:00064930   644 0001:00064944   645 0001:00064948   647 0001:0006494A
   652 0001:0006496B   657 0001:00064974   660 0001:00064986   666 0001:0006498F
   669 0001:000649AC   670 0001:000649B7   671 0001:000649C2   672 0001:000649CD
   675 0001:000649DC   679 0001:000649F7   684 0001:00064A53   687 0001:00064A80
   689 0001:00064A9B   690 0001:00064AA9   691 0001:00064AB7   694 0001:00064AC5
   699 0001:00064B21   702 0001:00064B4C   703 0001:00064B71   705 0001:00064B73
   707 0001:00064B7D   708 0001:00064C19   714 0001:00064C21   717 0001:00064C5C
   718 0001:00064C76   720 0001:00064C78   725 0001:00064CAE   728 0001:00064CE0
   729 0001:00064CE3   730 0001:00064CEC   731 0001:00064D02   732 0001:00064D08
   805 0001:00064D0C   806 0001:00064D22   807 0001:00064D3A   808 0001:00064D44
   809 0001:00064D49   819 0001:00064D6C   820 0001:00064D88   821 0001:00064D98
   822 0001:00064DC1   823 0001:00064DEA   825 0001:00064DF4   827 0001:00064E22
   828 0001:00064E28   829 0001:00064E36   831 0001:00064E63   833 0001:00064E65
   837 0001:00064E7D   842 0001:00064F6C   843 0001:00064F84   844 0001:00064FBD
   845 0001:00064FDE   848 0001:00064FF0   849 0001:00065014   850 0001:0006501D
   852 0001:0006502D   854 0001:000650AC   855 0001:000650CD   863 0001:000650D2
   864 0001:000650DA   868 0001:000650F8   870 0001:00065100   871 0001:0006510B
   872 0001:00065116   877 0001:00065120   892 0001:0006512F   893 0001:00065137
   895 0001:00065148   898 0001:0006515A   905 0001:0006516B   906 0001:00065173
   907 0001:0006517A   918 0001:0006517F   920 0001:00065190   922 0001:000651A2
   925 0001:000651C4   929 0001:000651E3   931 0001:000651F8   932 0001:0006520C
   933 0001:0006521A   934 0001:00065227   936 0001:00065230   937 0001:00065244
   938 0001:0006524D   939 0001:00065261   942 0001:00065275   949 0001:00065285
   952 0001:0006528F   953 0001:00065298   955 0001:000652D4   956 0001:000652E1
   957 0001:000652EE   958 0001:00065344   962 0001:00065354   969 0001:00065359
   970 0001:0006535F   972 0001:00065367   973 0001:00065376   975 0001:0006537C
   977 0001:0006538A   981 0001:000653AC   982 0001:000653CC   987 0001:000653DB
   988 0001:000653E8   991 0001:000653FA   992 0001:0006541C   994 0001:00065426
   995 0001:0006543F   996 0001:00065445   998 0001:00065494  1003 0001:000654A6
  1019 0001:000654C3  1025 0001:00065718  1026 0001:00065736  1033 0001:00065738
  1035 0001:0006574F  1037 0001:00065753  1038 0001:0006576D  1042 0001:00065784
  1047 0001:00065791  1050 0001:000657C4  1051 0001:000657D8  1053 0001:000657DA
  1054 0001:000657DE  1056 0001:000657EA  1060 0001:0006580A  1061 0001:00065812
  1062 0001:0006581F  1068 0001:00065824  1071 0001:00065894  1072 0001:000658A8
  1074 0001:000658AA  1075 0001:000658AE  1077 0001:000658BA  1081 0001:000658DC
  1082 0001:000658E4  1083 0001:000658F1  1089 0001:000658F6  1096 0001:00065964
  1108 0001:00065992  1109 0001:0006599B  1112 0001:000659E1  1114 0001:000659E5
  1115 0001:000659EA  1117 0001:000659EC  1119 0001:000659F5  1124 0001:00065A13
  1125 0001:00065A2D  1132 0001:00065A51  1137 0001:00065AC8  1142 0001:00065AE0
  1143 0001:00065AE9  1145 0001:00065B08  1150 0001:00065B1B  1156 0001:00065B68
  1161 0001:00065B89  1162 0001:00065B92  1164 0001:00065BCB  1166 0001:00065BCF
  1168 0001:00065BDE  1172 0001:00065BF0  1173 0001:00065C0A  1177 0001:00065C24
  1182 0001:00065C29  1185 0001:00065C90  1186 0001:00065C96  1187 0001:00065CA3
  1190 0001:00065CA8  1191 0001:00065CAE  1192 0001:00065CBB  1197 0001:00065CC0
  1198 0001:00065CC6  1199 0001:00065CD0  1207 0001:00065CD4  1216 0001:00065CF2
  1218 0001:00065D23  1219 0001:00065D2E  1220 0001:00065D3A  1221 0001:00065D4B
  1222 0001:00065D65  1224 0001:00065D69  1225 0001:00065D82  1229 0001:00065DCE
  1234 0001:00065DE3  1263 0001:00065E10  1271 0001:00065E2D  1273 0001:00065E47
  1274 0001:00065E61  1277 0001:00065E78  1282 0001:00065E85  1287 0001:00065EB4
  1288 0001:00065EBA  1289 0001:00065EC7  1292 0001:00065ECC  1293 0001:00065ED2
  1294 0001:00065EDF  1297 0001:00065EE4  1298 0001:00065EFC  1300 0001:00065EFE
  1305 0001:00065F31  1308 0001:00065F58  1309 0001:00065F71  1313 0001:00065F73
  1318 0001:00065FC7  1321 0001:00065FF0  1322 0001:00065FFD  1324 0001:00066002
  1326 0001:00066006  1327 0001:0006600D  1329 0001:0006600F  1331 0001:0006601E
  1332 0001:00066024  1333 0001:0006602F  1335 0001:0006604D  1336 0001:00066055
  1338 0001:00066064  1344 0001:00066071  1351 0001:0006607C  1352 0001:00066089
  1360 0001:0006608E  1362 0001:00066094  1363 0001:0006609B  1365 0001:000660A0
  1368 0001:000660AE  1370 0001:000660B4  1371 0001:000660BA  1373 0001:000660C5
  1377 0001:000660D2  1378 0001:000660D7  1381 0001:000660F0  1382 0001:000660F5
  1384 0001:00066101  1385 0001:00066105  1389 0001:00066109  1392 0001:0006610B
  1394 0001:00066113  1395 0001:0006611B  1396 0001:0006612B  1400 0001:00066137
  1402 0001:0006613B  1414 0001:00066148  1416 0001:00066157  1420 0001:00066161
  1419 0001:00066164  1421 0001:0006616F  1422 0001:00066177  1424 0001:0006617B
  1425 0001:00066188  1426 0001:00066194  1429 0001:0006619F  1434 0001:000661A9
  1436 0001:000661B6  1437 0001:000661B9  1439 0001:000661C5  1444 0001:000661D2
  1445 0001:000661DA  1446 0001:000661DE  1442 0001:000661E1  1450 0001:000661E6
  1458 0001:000661EE  1463 0001:000661FC  1464 0001:00066221  1466 0001:00066223
  1467 0001:0006622D  1468 0001:000662C9  1473 0001:000662D1  1476 0001:0006630C
  1477 0001:00066326  1479 0001:00066328  1484 0001:0006635E  1491 0001:00066390
  1495 0001:000663AE  1497 0001:000663DF  1498 0001:000663EA  1499 0001:000663F6
  1500 0001:00066407  1501 0001:00066421  1503 0001:00066425  1504 0001:0006643E
  1508 0001:0006648A  1513 0001:0006649F  1533 0001:000664CC  1541 0001:000664E9
  1543 0001:00066503  1544 0001:0006651D  1547 0001:00066534  1552 0001:00066541
  1555 0001:00066570  1556 0001:0006657E  1558 0001:00066583  1563 0001:0006658A
  1566 0001:00066590  1570 0001:000665A2  1575 0001:000665BA  1581 0001:000665C0
  1587 0001:000665EF  1588 0001:00066619  1591 0001:0006662F  1592 0001:00066649
  1598 0001:00066664  1604 0001:000666A8  1610 0001:000666D6  1611 0001:000666DA
  1612 0001:000666F4  1613 0001:000666F8  1614 0001:00066712  1619 0001:00066739
  1625 0001:00066774  1630 0001:0006679C  1631 0001:000667A0  1632 0001:000667BA
  1637 0001:000667D8  1643 0001:00066808  1648 0001:00066836  1649 0001:0006683A
  1650 0001:00066854  1651 0001:00066858  1652 0001:00066872  1657 0001:00066895
  1662 0001:000668D0  1664 0001:000668EE  1666 0001:000668F8  1667 0001:0006698A
  1668 0001:00066992  1671 0001:00066996  1676 0001:0006699B  1679 0001:000669D4
  1680 0001:000669EE  1682 0001:000669F0  1687 0001:00066A26  1690 0001:00066A58
  1691 0001:00066A77  1693 0001:00066A79  1696 0001:00066A8D  1699 0001:00066AF8
  1700 0001:00066AFE  1701 0001:00066B06  1707 0001:00066B0B  1712 0001:00066B34
  1713 0001:00066B53  1715 0001:00066B55  1718 0001:00066B69  1721 0001:00066BD4
  1722 0001:00066BDA  1723 0001:00066BE2  1729 0001:00066BE7  1732 0001:00066C10
  1734 0001:00066C2E  1736 0001:00066C38  1737 0001:00066CCA  1738 0001:00066CD2
  1741 0001:00066CD6  1746 0001:00066CDB  1749 0001:00066D14  1750 0001:00066D2E
  1752 0001:00066D30  1757 0001:00066D66  1762 0001:00066D98  1763 0001:00066DB7
  1765 0001:00066DB9  1768 0001:00066DCD  1771 0001:00066E38  1772 0001:00066E3E
  1773 0001:00066E46  1779 0001:00066E4B  1782 0001:00066E74  1784 0001:00066E92
  1786 0001:00066E9C  1787 0001:00066F2E  1788 0001:00066F36  1791 0001:00066F3A
  1796 0001:00066F3F  1799 0001:00066F78  1800 0001:00066F92  1802 0001:00066F94
  1807 0001:00066FCA  1812 0001:00066FFC  1813 0001:0006701B  1815 0001:0006701D
  1818 0001:00067031  1821 0001:0006709C  1822 0001:000670A2  1823 0001:000670AA
  1829 0001:000670AF  1832 0001:000670D8  1834 0001:000670F6  1836 0001:00067100
  1837 0001:00067192  1838 0001:0006719A  1841 0001:0006719E  1846 0001:000671A3
  1849 0001:000671DC  1850 0001:000671F6  1852 0001:000671F8  1857 0001:0006722E
  1862 0001:00067260  1863 0001:0006727F  1865 0001:00067281  1868 0001:00067295
  1871 0001:00067300  1872 0001:00067306  1873 0001:0006730E  1879 0001:00067313
  1882 0001:0006733C  1884 0001:0006735A  1886 0001:00067364  1887 0001:000673F6
  1888 0001:000673FE  1891 0001:00067402  1896 0001:00067407  1899 0001:00067440
  1900 0001:0006745A  1902 0001:0006745C  1907 0001:00067492  1914 0001:000674C4
  1915 0001:000674E2  1917 0001:00067510  1920 0001:00067540  1921 0001:00067543
  1922 0001:00067559  1925 0001:00067568  1926 0001:0006756B  1927 0001:00067581
  1930 0001:0006758C  1931 0001:0006758F  1932 0001:00067593  1934 0001:000675AB
  1935 0001:000675C1  1941 0001:000675D8  1942 0001:00067619  1946 0001:00067622
  1948 0001:00067669  1949 0001:0006769B  1951 0001:000676A4  1952 0001:000676DC
  1954 0001:000676EC  1955 0001:000676F7  1956 0001:00067733  1958 0001:00067744
  1959 0001:00067776  1961 0001:0006777E  1962 0001:00067783  1963 0001:0006778A
  1964 0001:000677A4  1965 0001:000677BE  1967 0001:000677C3  1968 0001:000677F6
  1970 0001:000677F9  1971 0001:00067814  1972 0001:00067818  1974 0001:0006782C
  1976 0001:00067847  1978 0001:0006784F  1979 0001:00067858  1980 0001:00067872
  1983 0001:0006788C  1984 0001:000678B8  1985 0001:000678C9  1987 0001:000678CC
  1989 0001:000678D0  1991 0001:000678D3  1993 0001:000678EE  1999 0001:000678F6
  2003 0001:000678FE  2004 0001:0006793D  2006 0001:00067948  2011 0001:000679FC
  2012 0001:00067A28  2013 0001:00067A30  2015 0001:00067A3A  2016 0001:00067A50
  2018 0001:00067A5C  2020 0001:00067A6C  2021 0001:00067A72  2022 0001:00067A80
  2024 0001:00067A82  2016 0001:00067A83  2025 0001:00067A86  2027 0001:00067A91
  2029 0001:00067AA1  2030 0001:00067AA7  2031 0001:00067AB5  2033 0001:00067AB7
  2025 0001:00067AB8  2034 0001:00067ABB  2035 0001:00067AC0  2050 0001:00067AEC
  2052 0001:00067B01  2060 0001:00067B16  2061 0001:00067B1D  2063 0001:00067B37
  2064 0001:00067B4D  2065 0001:00067B65  2066 0001:00067B7D  2067 0001:00067B93
  2071 0001:00067BAB  2077 0001:00067BAF  2082 0001:00067C40  2083 0001:00067C62
  2085 0001:00067C77  2087 0001:00067C95  2089 0001:00067CA4  2091 0001:00067CB3
  2093 0001:00067CC2  2095 0001:00067CD1  2097 0001:00067CE0  2099 0001:00067CE8
  2102 0001:00067CFE  2103 0001:00067D0A  2108 0001:00067DA0  2110 0001:00067DB5
  2111 0001:00067DC8  2112 0001:00067DCD  2113 0001:00067DE5  2114 0001:00067DFD
  2119 0001:00067E15  2125 0001:00067E30  2126 0001:00067E9A  2127 0001:00067EA1
  2128 0001:00067EA8  2129 0001:00067EAD  2133 0001:00067EB3  2136 0001:00067EBD
  2138 0001:00067ED0  2140 0001:00067ED8  2141 0001:00067EEF  2142 0001:00067F09
  2144 0001:00067F23  2146 0001:00067F3C  2147 0001:00067F4C  2148 0001:00067F59
  2144 0001:00067F62  2156 0001:00067F69  2161 0001:00067F76  2166 0001:00067FC4
  2167 0001:00067FF1  2168 0001:00067FF7  2169 0001:00068005  2171 0001:0006800A
  2175 0001:0006801D  2177 0001:00068028  2178 0001:0006803F  2179 0001:00068059
  2180 0001:00068073  2182 0001:0006807E  2183 0001:000680AC  2184 0001:000680B5
  2185 0001:000680BF  2180 0001:000680C0  2194 0001:000680C3  2197 0001:00068120
  2198 0001:00068123  2199 0001:0006812C  2200 0001:0006812E  2204 0001:00068134
  2205 0001:00068137  2206 0001:00068140  2207 0001:00068142  2211 0001:00068148
  2212 0001:0006814B  2213 0001:00068154  2214 0001:00068156  2217 0001:0006815C
  2218 0001:0006815F  2219 0001:00068168  2220 0001:0006816A  2223 0001:00068170
  2224 0001:00068179  2225 0001:0006817F  2227 0001:00068188  2228 0001:0006818D
  2229 0001:0006818F  2232 0001:00068194  2233 0001:000681B3  2234 0001:000681C6
  2236 0001:000681F1  2237 0001:0006820D  2238 0001:0006820F  2243 0001:00068238
  2244 0001:00068257  2246 0001:0006825D  2247 0001:00068270  2249 0001:00068284
  2251 0001:000682B4  2253 0001:000682C4  2256 0001:000682C8  2257 0001:000682CD
  2260 0001:00068330  2261 0001:0006833E  2262 0001:00068351  2264 0001:00068361
  2265 0001:00068366  2266 0001:0006836E  2267 0001:00068370  2270 0001:00068378
  2271 0001:0006837B  2272 0001:00068384  2273 0001:00068386  2276 0001:0006838C
  2277 0001:0006838F  2278 0001:00068398  2279 0001:0006839A  2282 0001:000683A0
  2283 0001:000683A3  2284 0001:000683AC  2285 0001:000683AE  2288 0001:000683B4
  2290 0001:000683B7  2291 0001:000683C0  2292 0001:000683C2  2295 0001:000683C8
  2296 0001:000683CB  2303 0001:000683D3  2304 0001:000683D5  2309 0001:000683DC
  2311 0001:000683E7  2313 0001:000683FD  2315 0001:0006841A  2316 0001:00068424
  2317 0001:00068428  2318 0001:0006842D  2319 0001:00068434  2321 0001:00068439
  2324 0001:00068440  2327 0001:00068447  2328 0001:0006844C  2329 0001:0006844E
  2332 0001:00068454  2333 0001:00068457  2334 0001:00068460  2335 0001:00068462
  2338 0001:00068468  2339 0001:0006846B  2340 0001:00068474  2341 0001:00068476
  2344 0001:0006847C  2345 0001:0006847F  2346 0001:00068488  2347 0001:0006848A
  2350 0001:00068490  2351 0001:00068496  2352 0001:0006849A  2353 0001:0006849F
  2354 0001:000684A8  2355 0001:000684AA  2358 0001:000684B0  2359 0001:000684B9
  2360 0001:000684C4  2362 0001:000684C9  2363 0001:000684CF  2365 0001:000684D4
  2366 0001:000684D6  2394 0001:000684DC  2396 0001:000684F1  2404 0001:00068504
  2405 0001:0006850B  2407 0001:00068525  2408 0001:0006853B  2409 0001:00068553
  2410 0001:0006856B  2411 0001:00068583  2412 0001:0006859B  2413 0001:000685B3
  2414 0001:000685CB  2415 0001:000685E3  2416 0001:000685FB  2417 0001:00068613
  2418 0001:0006862B  2426 0001:00068643  2429 0001:00068780  2430 0001:00068790
  2432 0001:00068795  2435 0001:000687C3  2437 0001:000687C6  2440 0001:000687DD
  2442 0001:000687E8  2443 0001:000687EE  2447 0001:000687F4  2448 0001:000687F8
  2453 0001:000687FC  2455 0001:00068807  2456 0001:0006880D  2460 0001:00068813
  2461 0001:00068817  2466 0001:0006881E  2467 0001:00068822  2472 0001:0006882A
  2477 0001:00068832  2482 0001:00068838  2485 0001:00068844  2486 0001:00068854
  2488 0001:00068859  2491 0001:0006887F  2493 0001:00068882  2496 0001:00068894
  2497 0001:00068898  2501 0001:0006889F  2502 0001:000688A3  2505 0001:000688AC
  2510 0001:000688B4  2515 0001:000688BA  2534 0001:000688C8  2536 0001:000688DD
  2544 0001:000688F0  2545 0001:000688F7  2547 0001:00068911  2548 0001:00068927
  2549 0001:0006893F  2550 0001:00068957  2551 0001:0006896F  2552 0001:00068985
  2553 0001:0006899D  2554 0001:000689B5  2562 0001:000689CD  2573 0001:00068AAC
  2574 0001:00068ABC  2576 0001:00068AC1  2579 0001:00068AEF  2581 0001:00068AF2
  2584 0001:00068B08  2585 0001:00068B0C  2589 0001:00068B23  2590 0001:00068B27
  2594 0001:00068B3E  2595 0001:00068B42  2598 0001:00068B51  2603 0001:00068B59
  2608 0001:00068B5F  2626 0001:00068B6C  2628 0001:00068B81  2634 0001:00068B94
  2635 0001:00068B9B  2637 0001:00068BB5  2638 0001:00068BCB  2639 0001:00068BE3
  2640 0001:00068BFB  2641 0001:00068C13  2642 0001:00068C2B  2643 0001:00068C43
  2651 0001:00068C5B  2654 0001:00068D1C  2655 0001:00068D2C  2657 0001:00068D31
  2660 0001:00068D57  2662 0001:00068D5A  2665 0001:00068D64  2666 0001:00068D68
  2669 0001:00068D70  2674 0001:00068D78  2679 0001:00068D7E  2682 0001:00068D8C
  2683 0001:00068D9C  2685 0001:00068DA1  2688 0001:00068DC7  2690 0001:00068DCA
  2693 0001:00068DD4  2694 0001:00068DD8  2697 0001:00068DE7  2702 0001:00068DEF
  2707 0001:00068DF5  2720 0001:00068E00  2731 0001:00068E04

Line numbers for DbxOpenOdbc3(DbxOpenOdbc3.pas) segment .itext

  2733 0002:00000304  2735 0002:0000030F  2739 0002:00000324  2741 0002:0000032B
  2742 0002:00000337  2758 0002:00000343

Line numbers for DbxOpenOdbc(DbxOpenOdbc.pas) segment .text

  1750 0001:0006BE9C  1751 0001:0006BEA2  1752 0001:0006BEAF  1753 0001:0006BEBD
  1755 0001:0006BED9  1756 0001:0006BEDE  1764 0001:0006BEE4  1765 0001:0006BF02
  1766 0001:0006BF06  1767 0001:0006BF11  1768 0001:0006BF15  1770 0001:0006BF4D
  1771 0001:0006BF5B  1772 0001:0006BF7B  1779 0001:0006BF98  1782 0001:0006BFA2
  1787 0001:0006C054  1788 0001:0006C072  1789 0001:0006C076  1790 0001:0006C081
  1791 0001:0006C085  1793 0001:0006C0BD  1794 0001:0006C0DD  1795 0001:0006C0DF
  1801 0001:0006C190  1804 0001:0006C1A1  1805 0001:0006C1A5  1808 0001:0006C1BB
  1812 0001:0006C1C1  1825 0001:0006C1CD  1832 0001:0006C1E8  1854 0001:0006C207
  1855 0001:0006C20B  1868 0001:0006C21C  1869 0001:0006C24B  1871 0001:0006C24F
  1877 0001:0006C299  1878 0001:0006C29D  1881 0001:0006C2A8  1883 0001:0006C2AD
  1886 0001:0006C2DE  1889 0001:0006C30A  1890 0001:0006C314  1894 0001:0006C31D
  1896 0001:0006C32F  1897 0001:0006C339  1900 0001:0006C33F  1904 0001:0006C34B
  1908 0001:0006C357  1909 0001:0006C369  1911 0001:0006C37B  1916 0001:0006C38A
  1917 0001:0006C390  1919 0001:0006C3A5  1923 0001:0006C3B5  1925 0001:0006C3C7
  1928 0001:0006C3D0  1935 0001:0006C3E1  1937 0001:0006C3E9  1940 0001:0006C3F2
  1941 0001:0006C400  1947 0001:0006C409  1949 0001:0006C411  1951 0001:0006C420
  1952 0001:0006C438  1953 0001:0006C443  1957 0001:0006C445  1959 0001:0006C44F
  1964 0001:0006C452  1967 0001:0006C45B  1968 0001:0006C45F  1970 0001:0006C463
  1971 0001:0006C467  1972 0001:0006C46C  1973 0001:0006C472  1979 0001:0006C47B
  1982 0001:0006C483  1984 0001:0006C492  1985 0001:0006C4A8  1986 0001:0006C4B0
  1990 0001:0006C4B2  1993 0001:0006C4B5  1996 0001:0006C4E3  1997 0001:0006C4E7
  1999 0001:0006C4EF  2000 0001:0006C4F9  2004 0001:0006C502  2005 0001:0006C506
  2006 0001:0006C50D  2007 0001:0006C514  2009 0001:0006C51B  2010 0001:0006C522
  2011 0001:0006C527  2012 0001:0006C52D  2016 0001:0006C536  2017 0001:0006C53A
  2018 0001:0006C541  2019 0001:0006C548  2020 0001:0006C54D  2024 0001:0006C558
  2025 0001:0006C55C  2026 0001:0006C55F  2027 0001:0006C565  2031 0001:0006C56B
  2033 0001:0006C576  2035 0001:0006C57B  2037 0001:0006C57D  2038 0001:0006C583
  2044 0001:0006C589  2046 0001:0006C5BA  2049 0001:0006C5BF  2050 0001:0006C5C3
  2056 0001:0006C5DA  2061 0001:0006C640  2063 0001:0006C66B  2064 0001:0006C699
  2066 0001:0006C69D  2067 0001:0006C6A7  2068 0001:0006C6B5  2072 0001:0006C6BE
  2073 0001:0006C6D5  2074 0001:0006C6E3  2076 0001:0006C6EA  2083 0001:0006C734
  2085 0001:0006C73D  2086 0001:0006C742  2087 0001:0006C747  2089 0001:0006C819
  2092 0001:0006C823  2094 0001:0006C828  2097 0001:0006C82E  2104 0001:0006C846
  2109 0001:0006C850  2114 0001:0006C86C  2120 0001:0006C876  2124 0001:0006C880
  2126 0001:0006C88A  2131 0001:0006C894  2134 0001:0006C8A6  2138 0001:0006C8B0
  2142 0001:0006C8BA  2145 0001:0006C8C4  2146 0001:0006C8C9  2149 0001:0006C8D3
  2152 0001:0006C8DD  2153 0001:0006C8E2  2154 0001:0006C8E8  2155 0001:0006C8ED
  2156 0001:0006C8F7  2159 0001:0006C901  2161 0001:0006C90B  2163 0001:0006C915
  2165 0001:0006C91F  2167 0001:0006C929  2170 0001:0006C933  2171 0001:0006C938
  2175 0001:0006C942  2176 0001:0006C947  2180 0001:0006C951  2181 0001:0006C956
  2186 0001:0006C960  2189 0001:0006C96A  2190 0001:0006C978  2194 0001:0006C983
  2195 0001:0006C988  2196 0001:0006C98E  2198 0001:0006C995  2211 0001:0006C99C
  2212 0001:0006C9A0  2214 0001:0006C9A7  2216 0001:0006C9AE  2218 0001:0006C9B4
  2220 0001:0006C9C1  2221 0001:0006C9C7  2223 0001:0006C9CE  2225 0001:0006C9D5
  2227 0001:0006C9DB  2228 0001:0006C9E0  2232 0001:0006C9E7  2233 0001:0006C9EC
  2245 0001:0006C9F1  2249 0001:0006C9F8  2250 0001:0006CA11  2251 0001:0006CAF2
  2252 0001:0006CB03  2253 0001:0006CB14  2254 0001:0006CB25  2255 0001:0006CB36
  2256 0001:0006CB47  2257 0001:0006CB58  2258 0001:0006CB69  2259 0001:0006CB7A
  2260 0001:0006CB8B  2261 0001:0006CB9C  2262 0001:0006CBAD  2263 0001:0006CBBE
  2264 0001:0006CBCF  2265 0001:0006CBE0  2266 0001:0006CBF1  2267 0001:0006CC02
  2268 0001:0006CC13  2269 0001:0006CC24  2270 0001:0006CC35  2271 0001:0006CC46
  2272 0001:0006CC57  2273 0001:0006CC68  2274 0001:0006CC79  2275 0001:0006CC8A
  2276 0001:0006CC98  2277 0001:0006CCA6  2278 0001:0006CCB4  2279 0001:0006CCC2
  2280 0001:0006CCD0  2281 0001:0006CCDE  2282 0001:0006CCEC  2284 0001:0006CCFA
  2286 0001:0006CD14  2289 0001:0006D02C  2290 0001:0006D048  2291 0001:0006D04F
  2293 0001:0006D058  2295 0001:0006D0A9  2296 0001:0006D0B3  2298 0001:0006D0C4
  2299 0001:0006D116  2300 0001:0006D127  2301 0001:0006D138  2302 0001:0006D149
  2303 0001:0006D15A  2304 0001:0006D16B  2305 0001:0006D17C  2306 0001:0006D18D
  2307 0001:0006D19E  2308 0001:0006D1AF  2309 0001:0006D1C0  2310 0001:0006D1D1
  2313 0001:0006D1E2  2314 0001:0006D1FD  2315 0001:0006D20B  2316 0001:0006D219
  2317 0001:0006D227  2320 0001:0006D235  2321 0001:0006D23B  2323 0001:0006D249
  2324 0001:0006D24F  2326 0001:0006D25D  2327 0001:0006D263  2330 0001:0006D26F
  2331 0001:0006D27A  2333 0001:0006D294  2340 0001:0006D4D4  2341 0001:0006D500
  2342 0001:0006D51B  2343 0001:0006D527  2345 0001:0006D550  2347 0001:0006D561
  2349 0001:0006D56F  2351 0001:0006D57D  2353 0001:0006D58B  2355 0001:0006D599
  2357 0001:0006D5A7  2360 0001:0006D5E5  2363 0001:0006D5F2  2365 0001:0006D5FE
  2366 0001:0006D600  2369 0001:0006D70B  2370 0001:0006D717  2373 0001:0006D71C
  2375 0001:0006D72D  2377 0001:0006D73E  2379 0001:0006D74F  2382 0001:0006D760
  2383 0001:0006D776  2385 0001:0006D787  2388 0001:0006D78E  2390 0001:0006D79F
  2392 0001:0006D7B0  2394 0001:0006D7C1  2396 0001:0006D7D2  2398 0001:0006D7E3
  2400 0001:0006D7F4  2402 0001:0006D805  2404 0001:0006D816  2406 0001:0006D827
  2408 0001:0006D838  2410 0001:0006D849  2414 0001:0006D893  2416 0001:0006D8A4
  2418 0001:0006D8B5  2420 0001:0006D8C6  2422 0001:0006D8D4  2424 0001:0006D8E2
  2426 0001:0006D8F0  2429 0001:0006D8FE  2430 0001:0006D914  2432 0001:0006D922
  2436 0001:0006D926  2437 0001:0006D93C  2439 0001:0006D94A  2443 0001:0006D94C
  2445 0001:0006D950  2446 0001:0006D990  2449 0001:0006D995  2451 0001:0006D9A1
  2453 0001:0006D9A7  2454 0001:0006D9B3  2457 0001:0006D9B8  2459 0001:0006DAAA
  2460 0001:0006DAB0  2462 0001:0006DAE2  2464 0001:0006DAF3  2465 0001:0006DAF9
  2466 0001:0006DB09  2469 0001:0006DB42  2472 0001:0006DB53  2474 0001:0006DB71
  2475 0001:0006DB77  2477 0001:0006DBA9  2481 0001:0006DBBA  2483 0001:0006DBE4
  2485 0001:0006DC0F  2487 0001:0006DC3C  2489 0001:0006DC6D  2494 0001:0006DCCF
  2499 0001:0006DD3D  2508 0001:0006DDF7  2510 0001:0006DE1E  2512 0001:0006DE52
  2515 0001:0006DE60  2518 0001:0006DE6E  2520 0001:0006DE84  2525 0001:0006DE92
  2527 0001:0006DEA8  2531 0001:0006DEB4  2534 0001:0006E4FC  2536 0001:0006E505
  2541 0001:0006E510  2560 0001:0006E514  2561 0001:0006E534  2562 0001:0006E53B
  2564 0001:0006E54E  2565 0001:0006E55A  2567 0001:0006E56D  2568 0001:0006E57B
  2569 0001:0006E59F  2565 0001:0006E5A2  2570 0001:0006E5A5  2577 0001:0006E5FC
  2578 0001:0006E600  2580 0001:0006E60F  2582 0001:0006E614  2580 0001:0006E61D
  2585 0001:0006E620  2609 0001:0006E624  2610 0001:0006E645  2612 0001:0006E656
  2614 0001:0006E660  2615 0001:0006E66D  2616 0001:0006E673  2618 0001:0006E676
  2619 0001:0006E695  2620 0001:0006E698  2621 0001:0006E69D  2622 0001:0006E6A2
  2624 0001:0006E6AF  2625 0001:0006E6BF  2626 0001:0006E6C3  2627 0001:0006E6C6
  2628 0001:0006E6C8  2629 0001:0006E6CD  2631 0001:0006E6E1  2632 0001:0006E6E6
  2622 0001:0006E6E7  2633 0001:0006E6EC  2640 0001:0006E702  2641 0001:0006E707
  2643 0001:0006E70F  2644 0001:0006E71A  2646 0001:0006E727  2647 0001:0006E72A
  2648 0001:0006E732  2649 0001:0006E738  2650 0001:0006E73E  2653 0001:0006E746
  2654 0001:0006E74B  2655 0001:0006E763  2656 0001:0006E76D  2658 0001:0006E772
  2660 0001:0006E774  2661 0001:0006E776  2663 0001:0006E77B  2664 0001:0006E77E
  2666 0001:0006E782  2667 0001:0006E784  2661 0001:0006E785  2669 0001:0006E78A
  2670 0001:0006E78F  2671 0001:0006E793  2672 0001:0006E798  2674 0001:0006E79D
  2675 0001:0006E7B7  2677 0001:0006E7B9  2678 0001:0006E7BE  2680 0001:0006E7C2
  2681 0001:0006E7DB  2682 0001:0006E7DC  2678 0001:0006E7DF  2685 0001:0006E7E3
  2686 0001:0006E7E8  2688 0001:0006E7EC  2689 0001:0006E805  2690 0001:0006E806
  2686 0001:0006E809  2693 0001:0006E80D  2694 0001:0006E827  2697 0001:0006E83A
  2774 0001:0006F0B0  2775 0001:0006F0CA  2776 0001:0006F0D1  2778 0001:0006F0DE
  2780 0001:0006F0EB  2782 0001:0006F100  2783 0001:0006F112  2785 0001:0006F120
  2788 0001:0006F12E  2789 0001:0006F143  2791 0001:0006F151  2792 0001:0006F166
  2794 0001:0006F172  2796 0001:0006F177  2798 0001:0006F18D  2800 0001:0006F19B
  2802 0001:0006F1A9  2805 0001:0006F1B7  2806 0001:0006F1BE  2811 0001:0006F1C0
  2817 0001:0006F23B  2819 0001:0006F3D4  2820 0001:0006F3FF  2822 0001:0006F406
  2823 0001:0006F40C  2824 0001:0006F435  2825 0001:0006F437  2827 0001:0006F43C
  2829 0001:0006F43E  2830 0001:0006F449  2833 0001:0006F455  2835 0001:0006F45A
  2836 0001:0006F464  2840 0001:0006F46C  2841 0001:0006F471  2843 0001:0006F47C
  2844 0001:0006F481  2845 0001:0006F488  2848 0001:0006F48E  2851 0001:0006F490
  2852 0001:0006F49F  2854 0001:0006F4A6  2855 0001:0006F4AB  2857 0001:0006F4B4
  2858 0001:0006F4BA  2862 0001:0006F4CD  2864 0001:0006F4D0  2865 0001:0006F4D6
  2868 0001:0006F4FF  2870 0001:0006F501  2876 0001:0006F544  2878 0001:0006F54A
  2883 0001:0006F550  2885 0001:0006F56D  2886 0001:0006F572  2887 0001:0006F57B
  2888 0001:0006F57F  2889 0001:0006F582  2890 0001:0006F585  2891 0001:0006F58A
  2893 0001:0006F591  2895 0001:0006F5AC  2896 0001:0006F5BB  2897 0001:0006F5C2
  2898 0001:0006F5C9  2903 0001:0006F5D0  2906 0001:0006F5F4  2908 0001:0006F5FF
  2909 0001:0006F606  2910 0001:0006F60E  2911 0001:0006F616  2912 0001:0006F61B
  2917 0001:0006F626  2921 0001:0006F634  2922 0001:0006F648  2923 0001:0006F64D
  2924 0001:0006F654  2925 0001:0006F65B  2929 0001:0006F664  2931 0001:0006F668
  2932 0001:0006F66E  2933 0001:0006F674  2934 0001:0006F67B  2935 0001:0006F681
  2937 0001:0006F687  2950 0001:0006F688  2954 0001:0006F6B4  2959 0001:0006F6D1
  2960 0001:0006F6DF  2961 0001:0006F6EA  2963 0001:0006F712  2965 0001:0006F73E
  2972 0001:0006F77E  2978 0001:0006F793  2979 0001:0006F79E  2981 0001:0006F7C6
  2985 0001:0006F7ED  2986 0001:0006F7F8  2987 0001:0006F820  2988 0001:0006F84C
  2995 0001:0006F86E  3025 0001:0006F984  3026 0001:0006F987  3028 0001:0006F990
  3029 0001:0006F999  3031 0001:0006F9AA  3032 0001:0006F9B3  3034 0001:0006F9C4
  3035 0001:0006F9CD  3037 0001:0006F9D9  3038 0001:0006F9DF  3041 0001:0006F9E4
  3042 0001:0006F9E7  3043 0001:0006F9F6  3049 0001:0006F9F8  3050 0001:0006FA16
  3052 0001:0006FA1B  3054 0001:0006FA24  3055 0001:0006FA27  3056 0001:0006FA3A
  3058 0001:0006FA44  3059 0001:0006FA57  3060 0001:0006FA6B  3056 0001:0006FA6C
  3061 0001:0006FA6F  3063 0001:0006FA8B  3064 0001:0006FA92  3079 0001:0006FAC0
  3080 0001:0006FAD6  3082 0001:0006FAE6  3083 0001:0006FAEF  3084 0001:0006FB1B
  3087 0001:0006FB26  3088 0001:0006FB2F  3090 0001:0006FB50  3091 0001:0006FB57
  3092 0001:0006FB60  3094 0001:0006FB6E  3098 0001:0006FB7D  3109 0001:0006FBB2
  3113 0001:0006FBD6  3116 0001:0006FBE2  3118 0001:0006FBF0  3122 0001:0006FC1D
  3123 0001:0006FC22  3124 0001:0006FC27  3125 0001:0006FC2C  3126 0001:0006FC31
  3127 0001:0006FC36  3128 0001:0006FC3B  3129 0001:0006FC40  3130 0001:0006FC46
  3131 0001:0006FC4D  3132 0001:0006FC53  3134 0001:0006FC5A  3135 0001:0006FC63
  3138 0001:0006FC71  3143 0001:0006FC89  3146 0001:0006FC8F  3149 0001:0006FC93
  3151 0001:0006FCA3  3152 0001:0006FCA8  3153 0001:0006FCAD  3154 0001:0006FCB2
  3156 0001:0006FCC7  3158 0001:0006FCCF  3160 0001:0006FCD7  3162 0001:0006FCDD
  3164 0001:0006FCE3  3165 0001:0006FCE9  3167 0001:0006FCF7  3168 0001:0006FCFD
  3170 0001:0006FD0B  3171 0001:0006FD11  3173 0001:0006FD1D  3175 0001:0006FD27
  3176 0001:0006FD2D  3177 0001:0006FD35  3179 0001:0006FD3B  3181 0001:0006FD41
  3182 0001:0006FD4E  3184 0001:0006FD5E  3187 0001:0006FD6C  3189 0001:0006FD72
  3190 0001:0006FD7F  3192 0001:0006FD8C  3195 0001:0006FD9A  3196 0001:0006FDA0
  3199 0001:0006FDA9  3201 0001:0006FDAF  3203 0001:0006FDB5  3204 0001:0006FDC2
  3206 0001:0006FDD2  3209 0001:0006FDE0  3211 0001:0006FDE6  3212 0001:0006FDF3
  3214 0001:0006FE00  3218 0001:0006FE09  3220 0001:0006FE0F  3222 0001:0006FE24
  3224 0001:0006FE2C  3226 0001:0006FE34  3231 0001:0006FE3A  3232 0001:0006FE42
  3233 0001:0006FE54  3235 0001:0006FE5B  3237 0001:0006FE81  3239 0001:0006FE90
  3241 0001:0006FE9F  3243 0001:0006FEAE  3245 0001:0006FEBD  3247 0001:0006FECC
  3249 0001:0006FEDB  3251 0001:0006FEEA  3254 0001:0006FEF7  3255 0001:0006FEFD
  3257 0001:0006FF40  3259 0001:0006FF46  3260 0001:0006FF55  3261 0001:0006FF68
  3262 0001:0006FF73  3265 0001:0006FFB6  3266 0001:0006FFC3  3267 0001:0006FFC9
  3269 0001:0006FFD0  3270 0001:0006FFD6  3272 0001:0006FFDA  3273 0001:0006FFE0
  3275 0001:0006FFF6  3276 0001:0006FFFC  3279 0001:00070025  3282 0001:0007004C
  3284 0001:00070055  3285 0001:00070066  3287 0001:0007006C  3288 0001:00070083
  3290 0001:0007008F  3293 0001:00070105  3294 0001:0007010B  3297 0001:00070120
  3298 0001:0007012A  3302 0001:00070155  3304 0001:000701B4  3305 0001:000701BF
  3306 0001:000701C6  3307 0001:000701D0  3310 0001:000701DC  3313 0001:00070241
  3316 0001:0007025F  3319 0001:0007026D  3321 0001:00070277  3322 0001:0007027C
  3323 0001:00070296  3325 0001:0007029B  3327 0001:000702A1  3328 0001:000702AC
  3329 0001:000702B3  3330 0001:000702B9  3334 0001:000702C2  3339 0001:000702C6
  3340 0001:000702CC  3342 0001:000702DE  3343 0001:000702E4  3346 0001:00070300
  3347 0001:00070306  3348 0001:0007030F  3353 0001:00070316  3354 0001:00070317
  3356 0001:00070320  3358 0001:00070326  3359 0001:00070333  3362 0001:0007037B
  3364 0001:00070381  3365 0001:00070394  3366 0001:0007039F  3369 0001:000703C0
  3371 0001:000703CA  3372 0001:000703D0  3374 0001:00070407  3375 0001:0007040D
  3376 0001:00070455  3377 0001:0007045E  3380 0001:00070467  3381 0001:0007046F
  3382 0001:00070475  3384 0001:00070480  3385 0001:0007048B  3388 0001:00070495
  3390 0001:0007049B  3391 0001:000704AA  3392 0001:00070505  3396 0001:0007050A
  3397 0001:00070510  3399 0001:00070531  3400 0001:00070537  3403 0001:00070551
  3404 0001:00070552  3405 0001:00070558  3408 0001:00070581  3349 0001:000705A8
  3412 0001:000705B6  3413 0001:000705BC  3415 0001:000705C5  3417 0001:000705D6
  3419 0001:000705DC  3420 0001:000705EF  3421 0001:000705FA  3423 0001:00070602
  3425 0001:00070619  3427 0001:0007061D  3428 0001:00070623  3430 0001:00070632
  3431 0001:00070638  3433 0001:00070645  3434 0001:0007064F  3439 0001:000706EB
  3446 0001:00070795  3448 0001:0007079F  3450 0001:000707A5  3451 0001:000707B2
  3454 0001:000707C4  3455 0001:000707CA  3457 0001:000707D7  3459 0001:000707E0
  3460 0001:000707E6  3461 0001:00070808  3462 0001:0007080E  3466 0001:0007082D
  3467 0001:00070833  3469 0001:00070857  3470 0001:0007085D  3472 0001:0007087A
  3474 0001:000708AA  3476 0001:000708B0  3477 0001:000708BD  3480 0001:000708CF
  3481 0001:000708D5  3482 0001:000708E2  3484 0001:000708F7  3485 0001:000708FD
  3487 0001:00070944  3488 0001:0007094A  3489 0001:0007098A  3482 0001:0007098B
  3491 0001:00070992  3493 0001:00070998  3494 0001:000709A5  3495 0001:000709B5
  3499 0001:000709D9  3500 0001:000709EC  3501 0001:000709F7  3505 0001:00070A0A
  3507 0001:00070A14  3508 0001:00070A22  3509 0001:00070A27  3510 0001:00070A31
  3512 0001:00070A3D  3513 0001:00070A53  3510 0001:00070A5E  3515 0001:00070A61
  3518 0001:00070A6B  3519 0001:00070A80  3516 0001:00070A8A  3521 0001:00070A93
  3524 0001:00070AB5  3526 0001:00070AB7  3527 0001:00070ABD  3528 0001:00070AC4
  3529 0001:00070AE8  3530 0001:00070AF0  3540 0001:00070AFD  3545 0001:000712BC
  3547 0001:000712BF  3550 0001:000712C2  3551 0001:000712CF  3552 0001:000712D4
  3554 0001:000712F4  3555 0001:000712F7  3562 0001:000712FB  3568 0001:0007132C
  3570 0001:00071339  3572 0001:0007133E  3575 0001:00071341  3576 0001:0007134C
  3578 0001:00071351  3579 0001:00071357  3581 0001:00071360  3583 0001:00071381
  3585 0001:00071385  3592 0001:00071388  3599 0001:000713BC  3601 0001:000713D6
  3604 0001:000713D9  3605 0001:000713EC  3606 0001:000713F1  3608 0001:00071411
  3610 0001:00071415  3616 0001:00071425  3618 0001:00071431  3619 0001:00071436
  3623 0001:00071445  3624 0001:0007144A  3627 0001:00071457  3628 0001:0007146B
  3629 0001:00071470  3638 0001:000714A8  3643 0001:0007157C  3645 0001:00071586
  3648 0001:0007158C  3649 0001:0007159B  3650 0001:000715A0  3651 0001:000715AE
  3655 0001:000715E1  3656 0001:000715E6  3663 0001:000715EE  3707 0001:00071640
  3708 0001:0007164F  3710 0001:00071651  3711 0001:00071656  3713 0001:0007165A
  3714 0001:0007165F  3716 0001:00071664  3717 0001:00071672  3719 0001:0007169E
  3720 0001:000716A7  3722 0001:000716B1  3724 0001:000716BB  3725 0001:000716C4
  3727 0001:000716CD  3729 0001:000716D7  3730 0001:000716E0  3732 0001:000716E9
  3734 0001:000716F0  3735 0001:000716F9  3737 0001:00071700  3741 0001:00071707
  3742 0001:0007170D  3744 0001:00071714  3746 0001:0007171A  3747 0001:00071731
  3754 0001:00071740  3756 0001:00071746  3757 0001:0007175D  3767 0001:00071785
  3768 0001:0007178A  3775 0001:00071794  3780 0001:000717A0  3781 0001:000717B4
  3783 0001:000717B6  3784 0001:000717C4  3785 0001:000717CB  3789 0001:00071808
  3790 0001:0007180D  3797 0001:00071817  3803 0001:00071820  3804 0001:0007183B
  3806 0001:0007183D  3807 0001:0007184B  3809 0001:00071864  3815 0001:0007186F
  3819 0001:0007187A  3820 0001:00071880  3825 0001:00071887  3828 0001:000718B3
  3837 0001:000718BA  3840 0001:000718E6  3841 0001:000718ED  3842 0001:000718F3
  3849 0001:00071915  3850 0001:0007191A  3857 0001:00071924  3869 0001:00071954
  3871 0001:00071978  3874 0001:0007197B  3875 0001:00071980  3876 0001:00071985
  3877 0001:0007198D  3878 0001:0007199B  3879 0001:000719A8  3880 0001:000719B5
  3881 0001:000719BD  3882 0001:000719C3  3883 0001:000719C9  3886 0001:000719F3
  3887 0001:000719FE  3888 0001:00071A1E  3890 0001:00071A27  3891 0001:00071A48
  3892 0001:00071A4E  3893 0001:00071A54  3896 0001:00071A7E  3897 0001:00071A89
  3888 0001:00071AA9  3900 0001:00071ABF  3901 0001:00071AC7  3902 0001:00071ACF
  3910 0001:00071ADF  3915 0001:00071B5C  3917 0001:00071B7D  3918 0001:00071B8C
  3919 0001:00071B9A  3920 0001:00071BA4  3921 0001:00071BB2  3922 0001:00071BB8
  3924 0001:00071BCF  3926 0001:00071BE5  3932 0001:00071BF5  3937 0001:00071C20
  3939 0001:00071C35  3940 0001:00071C3E  3941 0001:00071C42  3942 0001:00071C47
  3943 0001:00071C4F  3944 0001:00071C69  3945 0001:00071C6D  3946 0001:00071C71
  3947 0001:00071C80  3950 0001:00071C83  3955 0001:00071C8A  3958 0001:00071CB0
  3960 0001:00071CBB  3961 0001:00071CC1  3962 0001:00071CCA  3967 0001:00071CD5
  3970 0001:00071CE4  3972 0001:00071CF0  3973 0001:00071CF9  3975 0001:00071D25
  3977 0001:00071D2D  3979 0001:00071D31  3980 0001:00071D3C  3981 0001:00071D4A
  3983 0001:00071D64  3984 0001:00071D6D  3986 0001:00071D77  3991 0001:00071D83
  3992 0001:00071D8D  3993 0001:00071D92  3994 0001:00071D9D  3996 0001:00071DBA
  4002 0001:00071DC2  4011 0001:00071DD0  4017 0001:00071E04  4022 0001:00071E06
  4025 0001:00071E3C  4028 0001:00071E44  4029 0001:00071E4C  4031 0001:00071E51
  4032 0001:00071E75  4033 0001:00071E7C  4034 0001:00071E80  4035 0001:00071EAE
  4038 0001:00071EBC  4043 0001:00071EC5  4044 0001:00071ECE  4045 0001:00071ED6
  4046 0001:00071EDE  4048 0001:00071EE5  4049 0001:00071EED  4051 0001:00071EF5
  4052 0001:00071EFB  4054 0001:00071F00  4061 0001:00071F07  4062 0001:00071F0D
  4063 0001:00071F17  4064 0001:00071F29  4065 0001:00071F2E  4066 0001:00071F40
  4067 0001:00071F49  4068 0001:00071F54  4069 0001:00071F5C  4070 0001:00071F62
  4071 0001:00071F67  4074 0001:00071F7F  4075 0001:00071F87  4076 0001:00071F8F
  4077 0001:00071F95  4080 0001:00071FA5  4089 0001:00071FA7  4095 0001:00072074
  4097 0001:0007207E  4100 0001:00072084  4103 0001:00072098  4106 0001:000720A5
  4108 0001:000720AE  4109 0001:000720C5  4110 0001:000720CA  4114 0001:000720E9
  4116 0001:000720F2  4118 0001:00072106  4119 0001:0007210B  4124 0001:0007212A
  4125 0001:00072141  4126 0001:00072146  4129 0001:00072165  4131 0001:00072171
  4133 0001:00072188  4134 0001:0007218D  4139 0001:000721AC  4140 0001:000721AF
  4141 0001:000721B8  4148 0001:000721BC  4161 0001:000722FC  4164 0001:00072320
  4165 0001:00072329  4167 0001:0007234E  4170 0001:0007235A  4171 0001:00072365
  4172 0001:0007236E  4174 0001:00072373  4175 0001:00072379  4177 0001:00072381
  4179 0001:00072386  4180 0001:0007238A  4181 0001:00072394  4183 0001:000723A2
  4185 0001:000723A8  4186 0001:000723ED  4187 0001:000723F1  4188 0001:000723FE
  4189 0001:0007240B  4191 0001:00072410  4192 0001:00072415  4194 0001:0007241E
  4197 0001:00072427  4199 0001:00072434  4200 0001:00072443  4202 0001:0007244E
  4203 0001:0007245B  4205 0001:0007246C  4206 0001:00072479  4208 0001:0007248A
  4210 0001:00072496  4213 0001:000724AE  4214 0001:000724B3  4217 0001:000724DD
  4222 0001:00072510  4223 0001:0007251B  4226 0001:00072544  4230 0001:00072548
  4232 0001:00072568  4234 0001:0007256D  4237 0001:00072597  4239 0001:000725A3
  4241 0001:000725AD  4243 0001:000725C5  4245 0001:000725EA  4246 0001:000725EF
  4251 0001:00072618  4252 0001:0007261C  4253 0001:0007262B  4254 0001:00072631
  4258 0001:00072649  4260 0001:00072658  4261 0001:0007265E  4262 0001:00072668
  4263 0001:0007267D  4264 0001:00072686  4265 0001:0007268A  4267 0001:00072690
  4268 0001:0007269D  4269 0001:000726CF  4271 0001:000726D6  4273 0001:000726DE
  4274 0001:000726E7  4282 0001:000726F1  4285 0001:000727C4  4288 0001:000727CA
  4291 0001:000727E2  4297 0001:000727E5  4304 0001:000727E8  4306 0001:000727F7
  4308 0001:000727FE  4309 0001:00072803  4312 0001:00072805  4315 0001:0007280B
  4316 0001:00072810  4317 0001:00072814  4319 0001:00072818  4320 0001:00072831
  4322 0001:00072836  4323 0001:0007283C  4324 0001:0007284F  4326 0001:00072857
  4327 0001:0007285C  4335 0001:0007287B  4341 0001:00072888  4343 0001:00072897
  4345 0001:0007289E  4346 0001:000728A3  4349 0001:000728A5  4352 0001:000728AB
  4353 0001:000728B0  4354 0001:000728B4  4356 0001:000728B8  4357 0001:000728D1
  4359 0001:000728D6  4360 0001:000728DC  4361 0001:000728EF  4363 0001:000728F7
  4364 0001:000728FC  4372 0001:0007291B  4407 0001:00072928  4408 0001:00072931
  4411 0001:00072937  4412 0001:0007293C  4417 0001:00072940  4418 0001:0007294B
  4419 0001:0007295A  4421 0001:00072969  4422 0001:0007296E  4423 0001:00072971
  4425 0001:00072977  4426 0001:00072978  4428 0001:0007297B  4430 0001:0007298B
  4431 0001:0007298C  4433 0001:0007298D  4436 0001:00072995  4439 0001:000729A7
  4442 0001:000729BB  4444 0001:000729BC  4440 0001:000729CE  4449 0001:000729D7
  4454 0001:000729E0  4455 0001:00072A06  4456 0001:00072A10  4458 0001:00072A1D
  4459 0001:00072A2A  4461 0001:00072A32  4463 0001:00072A3F  4464 0001:00072A4C
  4466 0001:00072A4D  4467 0001:00072A5C  4469 0001:00072A6E  4472 0001:00072A76
  4474 0001:00072A85  4480 0001:00072ABF  4485 0001:00072AEC  4486 0001:00072B0F
  4487 0001:00072B19  4489 0001:00072B26  4490 0001:00072B2F  4492 0001:00072B37
  4494 0001:00072B45  4495 0001:00072B50  4497 0001:00072B51  4498 0001:00072B61
  4500 0001:00072B73  4503 0001:00072B7B  4505 0001:00072B86  4510 0001:00072BC8
  4517 0001:00072BF8  4518 0001:00072C1C  4521 0001:00072C20  4522 0001:00072C2D
  4523 0001:00072C3A  4524 0001:00072C48  4525 0001:00072C5E  4526 0001:00072C6B
  4527 0001:00072C75  4528 0001:00072C7F  4530 0001:00072CA5  4532 0001:00072CB2
  4533 0001:00072CB6  4537 0001:00072CCF  4538 0001:00072CD4  4539 0001:00072CE1
  4541 0001:00072CEE  4545 0001:00072D20  4546 0001:00072D2C  4547 0001:00072D33
  4548 0001:00072D4C  4549 0001:00072D50  4551 0001:00072D5E  4552 0001:00072D78
  4555 0001:00072D80  4556 0001:00072D83  4557 0001:00072D91  4558 0001:00072D9C
  4559 0001:00072DA7  4567 0001:00072DAC  4568 0001:00072DAF  4569 0001:00072DBA
  4570 0001:00072DC5  4571 0001:00072DD0  4710 0001:00072DD4  4711 0001:00072E05
  4713 0001:00072E19  4714 0001:00072E20  4715 0001:00072E22  4718 0001:00072E27
  4724 0001:00072E42  4727 0001:00072E4E  4729 0001:00072E5F  4731 0001:00072E67
  4732 0001:00072E83  4733 0001:00072E90  4737 0001:00072E98  4739 0001:00072EBB
  4742 0001:00072ECB  4744 0001:00072F11  4745 0001:00072F2D  4749 0001:00072F35
  4754 0001:00072F6F  4759 0001:00072FB0  4760 0001:00072FFA  4762 0001:00073009
  4763 0001:00073021  4764 0001:00073039  4767 0001:00073051  4768 0001:00073055
  4771 0001:00073071  4805 0001:0007308B  4806 0001:00073093  4809 0001:0007309F
  4815 0001:000730F4  4820 0001:0007312A  4827 0001:00073164  4828 0001:00073185
  4830 0001:00073196  4836 0001:0007319F  4838 0001:000731B7  4866 0001:000731CF
  4878 0001:000731FC  4879 0001:0007322E  4881 0001:0007324E  4885 0001:0007326C
  4886 0001:0007327F  4893 0001:00073281  4894 0001:00073290  4903 0001:00073295
  4905 0001:000732A3  4907 0001:000732B6  4908 0001:000732B9  4909 0001:000732C5
  4910 0001:000732D2  4911 0001:000732DD  4912 0001:000732F7  4913 0001:000732FC
  4914 0001:0007330A  4916 0001:00073328  4992 0001:00073338  4993 0001:0007333E
  4994 0001:0007334D  4995 0001:0007335A  4996 0001:00073365  4997 0001:00073382
  4998 0001:00073387  4999 0001:00073397  5001 0001:000733B4  5003 0001:000733D4
  5004 0001:000733DF  5007 0001:000733EF  5013 0001:00073424  5014 0001:00073440
  5015 0001:0007344E  5016 0001:0007345F  5018 0001:0007347A  5019 0001:0007347F
  5042 0001:000734A4  5043 0001:000734AB  5045 0001:000734AD  5077 0001:000734EA
  5089 0001:00073512  5093 0001:0007352A  5095 0001:00073539  5096 0001:0007354E
  5098 0001:00073554  5101 0001:0007355E  5104 0001:00073566  5106 0001:0007356C
  5107 0001:0007357F  5108 0001:0007358B  5109 0001:00073595  5112 0001:000735A6
  5113 0001:000735AF  5114 0001:000735BB  5115 0001:000735C8  5116 0001:000735CD
  5118 0001:000735DC  5120 0001:000735DE  5122 0001:000735E4  5129 0001:000735F6
  5133 0001:00073612  5134 0001:00073614  5138 0001:00073619  5139 0001:00073621
  5143 0001:0007363D  5144 0001:0007363F  5148 0001:00073641  5149 0001:00073648
  5150 0001:00073650  5151 0001:00073656  5152 0001:0007365B  5154 0001:0007365D
  5156 0001:0007366C  5157 0001:0007367B  5159 0001:0007367F  5160 0001:00073684
  5163 0001:00073688  5165 0001:00073695  5166 0001:00073697  5169 0001:00073699
  5154 0001:0007369A  5170 0001:0007369F  5172 0001:000736A3  5173 0001:000736A5
  5176 0001:000736AC  5181 0001:000736AE  5189 0001:000736B8  5197 0001:000736C8
  5200 0001:000736CE  5202 0001:000736DB  5204 0001:000736F0  5207 0001:000736FC
  5209 0001:00073708  5212 0001:0007370E  5213 0001:00073714  5214 0001:00073718
  5215 0001:0007372E  5216 0001:00073737  5217 0001:0007373E  5218 0001:00073743
  5223 0001:00073746  5224 0001:00073757  5225 0001:0007375C  5228 0001:00073781
  5229 0001:00073787  5231 0001:000737A7  5232 0001:000737AE  5233 0001:000737B7
  5234 0001:000737BA  5237 0001:000737C0  5238 0001:000737C6  5242 0001:000737D6
  5243 0001:000737E5  5244 0001:000737EA  5247 0001:0007380B  5248 0001:00073811
  5250 0001:00073831  5251 0001:00073837  5254 0001:0007383E  5270 0001:00073844
  5281 0001:00073928  5282 0001:00073936  5285 0001:00073945  5288 0001:00073954
  5289 0001:00073960  5291 0001:0007398A  5292 0001:000739A5  5293 0001:000739BB
  5296 0001:000739F1  5297 0001:000739FB  5299 0001:00073A04  5300 0001:00073A0D
  5301 0001:00073A19  5302 0001:00073A22  5305 0001:00073A2E  5306 0001:00073A35
  5308 0001:00073A3E  5309 0001:00073A44  5313 0001:00073A4E  5314 0001:00073A51
  5316 0001:00073A55  5318 0001:00073A5C  5319 0001:00073A61  5324 0001:00073A6E
  5329 0001:00073A75  5330 0001:00073A78  5331 0001:00073A7C  5336 0001:00073A81
  5337 0001:00073A8B  5338 0001:00073A92  5340 0001:00073A96  5341 0001:00073A99
  5345 0001:00073AA3  5346 0001:00073AA8  5350 0001:00073AAF  5354 0001:00073ACD
  5356 0001:00073AD9  5357 0001:00073AE0  5359 0001:00073AE6  5361 0001:00073AF6
  5362 0001:00073B05  5366 0001:00073B0F  5372 0001:00073B3B  5374 0001:00073B52
  5375 0001:00073B62  5376 0001:00073B6C  5377 0001:00073B76  5378 0001:00073B7F
  5380 0001:00073B8A  5382 0001:00073B94  5384 0001:00073BAE  5385 0001:00073BBF
  5386 0001:00073BCA  5387 0001:00073BDE  5394 0001:00073C1E  5396 0001:00073C70
  5406 0001:00073C80  5408 0001:00073C8C  5410 0001:00073C96  5411 0001:00073CA5
  5413 0001:00073CA8  5414 0001:00073CB0  5416 0001:00073CB8  5421 0001:00073CBF
  5423 0001:00073CCB  5424 0001:00073CD2  5428 0001:00073CD7  5432 0001:00073CEF
  5435 0001:00073CF8  5436 0001:00073D01  5438 0001:00073D25  5439 0001:00073D39
  5440 0001:00073D49  5441 0001:00073D5E  5442 0001:00073D65  5456 0001:00073D6E
  5462 0001:00073E58  5463 0001:00073E5E  5464 0001:00073E60  5466 0001:00073E6B
  5467 0001:00073E74  5469 0001:00073E80  5477 0001:00073E9D  5478 0001:00073EA2
  5479 0001:00073EA4  5480 0001:00073EA6  5482 0001:00073EB2  5483 0001:00073EBC
  5490 0001:00073ED6  5497 0001:00073EEB  5499 0001:00073EEE  5502 0001:00073EF0
  5503 0001:00073EF2  5504 0001:00073EF4  5480 0001:00073EF5  5505 0001:00073EF9
  5506 0001:00073EFD  5508 0001:00073F01  5509 0001:00073F05  5511 0001:00073F09
  5514 0001:00073F13  5517 0001:00073F18  5518 0001:00073F1E  5519 0001:00073F25
  5520 0001:00073F29  5522 0001:00073F30  5523 0001:00073F35  5528 0001:00073F38
  5529 0001:00073F3B  5530 0001:00073F42  5531 0001:00073F46  5533 0001:00073F4B
  5534 0001:00073F4D  5538 0001:00073F50  5539 0001:00073F5E  5541 0001:00073F91
  5547 0001:00073F9C  5548 0001:00073FBE  5550 0001:00073FC5  5552 0001:00073FD2
  5553 0001:00073FDF  5554 0001:00073FF1  5555 0001:00073FF5  5556 0001:00073FF8
  5557 0001:00073FFD  5558 0001:00074006  5564 0001:0007402A  5566 0001:00074031
  5568 0001:00074038  5574 0001:00074058  5575 0001:00074067  5577 0001:00074075
  5584 0001:0007408E  5587 0001:000740B4  5589 0001:000740CD  5591 0001:000740D6
  5592 0001:000740F0  5593 0001:000740F9  5599 0001:00074100  5611 0001:00074124
  5612 0001:00074143  5615 0001:00074145  5616 0001:0007414E  5625 0001:00074181
  5626 0001:0007418D  5627 0001:0007419B  5628 0001:000741B3  5632 0001:000741C9
  5633 0001:000741CB  5635 0001:000741D7  5637 0001:000741E3  5638 0001:000741E6
  5643 0001:000741FA  5646 0001:00074201  5649 0001:00074208  5652 0001:0007420F
  5654 0001:00074214  5660 0001:00074247  5663 0001:00074250  5665 0001:0007425C
  5669 0001:00074264  5670 0001:00074269  5671 0001:0007426E  5673 0001:0007427A
  5676 0001:00074280  5677 0001:00074282  5679 0001:00074293  5683 0001:000742A8
  5684 0001:000742B5  5685 0001:000742BE  5688 0001:000742C0  5690 0001:000742D0
  5692 0001:000742E0  5693 0001:000742F7  5695 0001:000742FF  5696 0001:0007430D
  5699 0001:00074319  5702 0001:0007431E  5708 0001:00074344  5710 0001:0007434F
  5715 0001:00074361  5719 0001:0007436D  5722 0001:00074393  5726 0001:000743B8
  5729 0001:000743C1  5730 0001:000743C6  5731 0001:000743DD  5732 0001:000743E2
  5736 0001:00074409  5738 0001:00074410  5740 0001:00074416  5742 0001:00074429
  5743 0001:0007442E  5745 0001:00074453  5749 0001:0007445E  5750 0001:0007446A
  5751 0001:00074475  5752 0001:0007447E  5754 0001:00074488  5756 0001:00074494
  5757 0001:000744A0  5758 0001:000744A5  5760 0001:000744A9  5762 0001:000744B8
  5763 0001:000744C5  5765 0001:000744D1  5766 0001:000744D5  5760 0001:000744D6
  5768 0001:000744DB  5771 0001:000744FF  5773 0001:00074501  5774 0001:00074508
  5775 0001:00074513  5778 0001:00074521  5786 0001:0007452B  5795 0001:000747EC
  5796 0001:000747EF  5797 0001:000747F8  5800 0001:00074800  5801 0001:00074814
  5803 0001:00074854  5805 0001:00074858  5806 0001:00074861  5809 0001:00074863
  5810 0001:0007486C  5812 0001:0007488E  5813 0001:00074897  5814 0001:000748A5
  5816 0001:000748AF  5818 0001:000748BF  5819 0001:000748D2  5820 0001:000748DB
  5826 0001:00074906  5827 0001:0007490B  5828 0001:0007490D  5830 0001:00074923
  5832 0001:00074934  5836 0001:0007494B  5838 0001:00074953  5839 0001:0007495D
  5840 0001:00074964  5843 0001:00074969  5845 0001:00074972  5847 0001:0007497E
  5848 0001:00074990  5849 0001:00074995  5852 0001:000749BC  5853 0001:000749C5
  5854 0001:000749CB  5856 0001:000749D4  5857 0001:000749DB  5862 0001:000749E3
  5864 0001:000749EC  5865 0001:000749F1  5867 0001:000749F4  5869 0001:000749FA
  5870 0001:00074A05  5871 0001:00074A0D  5872 0001:00074A19  5873 0001:00074A20
  5874 0001:00074A27  5875 0001:00074A2D  5876 0001:00074A35  5880 0001:00074A3C
  5828 0001:00074A3F  5882 0001:00074A49  5883 0001:00074A55  5884 0001:00074A5E
  5886 0001:00074A6A  5890 0001:00074A90  5892 0001:00074A92  5893 0001:00074A99
  5894 0001:00074AA4  5895 0001:00074AB2  5903 0001:00074ABC  5912 0001:00074B28
  5913 0001:00074B2B  5914 0001:00074B34  5917 0001:00074B3C  5918 0001:00074B50
  5920 0001:00074B90  5922 0001:00074B94  5923 0001:00074B9D  5926 0001:00074B9F
  5927 0001:00074BA8  5929 0001:00074BCA  5930 0001:00074BD3  5931 0001:00074BE1
  5933 0001:00074BEB  5935 0001:00074BFB  5936 0001:00074C0E  5937 0001:00074C17
  5943 0001:00074C42  5944 0001:00074C47  5945 0001:00074C49  5948 0001:00074C5F
  5950 0001:00074C70  5955 0001:00074C87  5957 0001:00074C8F  5958 0001:00074C99
  5959 0001:00074CA0  5963 0001:00074CA5  5965 0001:00074CAE  5967 0001:00074CBA
  5968 0001:00074CCC  5969 0001:00074CD1  5972 0001:00074CF8  5973 0001:00074D01
  5974 0001:00074D07  5976 0001:00074D10  5977 0001:00074D17  5983 0001:00074D1F
  5985 0001:00074D28  5986 0001:00074D2D  5988 0001:00074D30  5990 0001:00074D36
  5991 0001:00074D41  5992 0001:00074D49  5993 0001:00074D55  5994 0001:00074D5C
  5995 0001:00074D63  5996 0001:00074D69  5997 0001:00074D71  6002 0001:00074D78
  5945 0001:00074D7B  6004 0001:00074D85  6005 0001:00074D91  6006 0001:00074D9A
  6008 0001:00074DA6  6012 0001:00074DCC  6014 0001:00074DCE  6015 0001:00074DD5
  6016 0001:00074DE0  6017 0001:00074DEE  6025 0001:00074DF8  6028 0001:00074E6C
  6031 0001:00074E6F  6032 0001:00074E73  6033 0001:00074E77  6036 0001:00074E7B
  6038 0001:00074E7F  6040 0001:00074E88  6041 0001:00074E8C  6042 0001:00074E94
  6043 0001:00074E9F  6044 0001:00074EA6  6045 0001:00074EB1  6046 0001:00074EBC
  6047 0001:00074EC7  6048 0001:00074ECE  6049 0001:00074ED5  6051 0001:00074EDC
  6052 0001:00074EEE  6053 0001:00074EF8  6054 0001:00074F02  6055 0001:00074F0C
  6056 0001:00074F13  6057 0001:00074F1B  6058 0001:00074F23  6059 0001:00074F2A
  6060 0001:00074F2F  6061 0001:00074F34  6062 0001:00074F39  6063 0001:00074F41
  6064 0001:00074F47  6065 0001:00074F4F  6066 0001:00074F57  6067 0001:00074F5F
  6068 0001:00074F67  6069 0001:00074F71  6070 0001:00074F7B  6071 0001:00074F85
  6072 0001:00074F92  6077 0001:00074F99  6081 0001:00074F9C  6082 0001:00074FA2
  6083 0001:00074FAD  6113 0001:00074FB0  6114 0001:00074FD0  6115 0001:00074FDD
  6116 0001:00074FE1  6117 0001:00074FEE  6118 0001:00074FF7  6121 0001:00075020
  6123 0001:0007503A  6167 0001:000750BC  6168 0001:000750C2  6170 0001:000750CA
  6172 0001:000750D3  6180 0001:00075117  6183 0001:00075143  6185 0001:0007515E
  6187 0001:0007516E  6188 0001:00075185  6168 0001:00075187  6189 0001:00075190
  6194 0001:00075198  6196 0001:000751AE  6198 0001:000751BF  6200 0001:000751C4
  6201 0001:000751D0  6203 0001:000751D2  6205 0001:000751FB  6208 0001:0007522B
  6209 0001:00075237  6196 0001:0007523E  6210 0001:00075247  6212 0001:0007527C
  6213 0001:000752B8  6218 0001:000752BA  6219 0001:000752C3  6221 0001:0007532E
  6224 0001:0007533B  6226 0001:00075346  6229 0001:00075355  6230 0001:0007535D
  6231 0001:00075366  6235 0001:0007537A  6236 0001:00075387  6235 0001:00075391
  6238 0001:00075399  6241 0001:000753A7  6242 0001:000753B0  6244 0001:000753C3
  6246 0001:000753E1  6249 0001:000753E8  6252 0001:000753F5  6254 0001:00075413
  6255 0001:00075444  6256 0001:00075459  6257 0001:00075466  6263 0001:0007547C
  6265 0001:00075488  6267 0001:000754CE  6268 0001:000754D7  6270 0001:000754E1
  6271 0001:00075538  6274 0001:00075551  6276 0001:00075561  6277 0001:00075587
  6280 0001:00075599  6281 0001:000755B5  6285 0001:000755E5  6290 0001:0007561C
  6291 0001:0007563E  6294 0001:00075650  6295 0001:00075662  6296 0001:0007567E
  6301 0001:000756AE  6302 0001:000756D0  6305 0001:000756E2  6306 0001:000756F4
  6307 0001:00075710  6312 0001:00075740  6313 0001:00075762  6316 0001:00075774
  6317 0001:00075786  6318 0001:000757A2  6323 0001:000757D2  6324 0001:000757F4
  6327 0001:00075806  6328 0001:00075818  6329 0001:00075834  6334 0001:00075864
  6335 0001:00075886  6338 0001:00075898  6339 0001:000758AA  6340 0001:000758C6
  6345 0001:000758F6  6346 0001:0007591C  6349 0001:0007592E  6350 0001:0007594A
  6355 0001:0007597A  6372 0001:000759B1  6373 0001:000759BD  6374 0001:000759FB
  6376 0001:00075A14  6377 0001:00075A49  6378 0001:00075A5E  6381 0001:00075A75
  6382 0001:00075AAA  6383 0001:00075ABF  6386 0001:00075AD6  6387 0001:00075B0B
  6388 0001:00075B20  6391 0001:00075B37  6392 0001:00075B6C  6393 0001:00075B81
  6396 0001:00075B95  6397 0001:00075BCA  6398 0001:00075BDF  6400 0001:00075BF3
  6410 0001:00075C00  6412 0001:00075C10  6413 0001:00075C32  6415 0001:00075C7E
  6416 0001:00075CA0  6418 0001:00075CB2  6419 0001:00075CC4  6424 0001:00075CD7
  6426 0001:00075CF0  6427 0001:00075D16  6429 0001:00075D55  6431 0001:00075D6D
  6432 0001:00075D88  6435 0001:00075D9D  6437 0001:00075DB8  6443 0001:00075DE0
  6444 0001:00075DF5  6446 0001:00075E02  6447 0001:00075E0F  6450 0001:00075E1D
  6453 0001:00075E5F  6454 0001:00075E79  6455 0001:00075E8F  6456 0001:00075E98
  6457 0001:00075ECB  6458 0001:00075EDC  6460 0001:00075EE9  6461 0001:00075F0A
  6465 0001:00075F1F  6471 0001:00075F35  6474 0001:00075F42  6476 0001:00075F66
  6477 0001:00075F78  6479 0001:00075F9C  6480 0001:00075FB2  6484 0001:00075FD5
  6485 0001:00075FF7  6486 0001:00076009  6487 0001:0007602B  6488 0001:0007603D
  6494 0001:00076048  6501 0001:00076055  6503 0001:00076079  6504 0001:0007608B
  6507 0001:000760CA  6509 0001:000760DC  6511 0001:00076100  6512 0001:00076112
  6515 0001:0007614C  6516 0001:0007615E  6518 0001:0007617F  6521 0001:000761B6
  6524 0001:000761DA  6525 0001:000761E3  6528 0001:00076221  6529 0001:0007622D
  6542 0001:00076266  6547 0001:0007626D  6549 0001:00076275  6551 0001:00076297
  6552 0001:0007629C  6554 0001:000762C3  6556 0001:000762CF  6558 0001:000762E9
  6559 0001:000762EE  6563 0001:00076315  6564 0001:00076322  6566 0001:00076332
  6567 0001:0007633F  6569 0001:0007634F  6570 0001:00076360  6571 0001:00076382
  6572 0001:000763B7  6581 0001:000763C8  6582 0001:000763DA  6586 0001:000763F9
  6588 0001:0007641E  6594 0001:00076459  6596 0001:00076463  6597 0001:00076477
  6598 0001:0007649E  6600 0001:000764B9  6610 0001:000764C0  6611 0001:000764CB
  6612 0001:000764EC  6614 0001:000764F1  6615 0001:000764F9  6617 0001:00076506
  6618 0001:00076511  6620 0001:00076539  6621 0001:0007654D  6622 0001:00076574
  6623 0001:00076585  6627 0001:00076591  6633 0001:000765CC  6634 0001:000765D7
  6636 0001:000765FF  6637 0001:00076606  6638 0001:0007661A  6640 0001:00076641
  6642 0001:00076665  6643 0001:0007666E  6651 0001:000766AC  6656 0001:000766B3
  6657 0001:000766B5  6658 0001:000766BE  6659 0001:000766DE  6661 0001:000766E3
  6663 0001:000766EE  6666 0001:00076715  6667 0001:0007671C  6669 0001:00076720
  6670 0001:00076729  6671 0001:00076749  6672 0001:0007674E  6675 0001:0007675F
  6677 0001:00076786  6681 0001:00076795  6682 0001:000767B8  6683 0001:000767C7
  6685 0001:000767CB  6687 0001:000767F2  6691 0001:000767FA  6693 0001:0007680A
  6694 0001:00076816  6697 0001:00076854  6698 0001:00076889  6699 0001:0007689E
  6702 0001:000768B5  6703 0001:000768EA  6704 0001:000768FF  6707 0001:00076916
  6708 0001:0007694B  6709 0001:00076960  6712 0001:00076977  6713 0001:000769AC
  6714 0001:000769C1  6717 0001:000769D5  6718 0001:00076A0A  6719 0001:00076A1F
  6721 0001:00076A33  6727 0001:00076A40  6728 0001:00076A55  6730 0001:00076A62
  6731 0001:00076A6E  6735 0001:00076A80  6737 0001:00076A8C  6740 0001:00076A9E
  6742 0001:00076AAD  6746 0001:00076ABA  6748 0001:00076ADA  6752 0001:00076ADF
  6754 0001:00076AE7  6770 0001:00076B0E  6786 0001:00076B21  6791 0001:00076B2B
  6793 0001:00076B44  6794 0001:00076B4E  6797 0001:00076B58  6801 0001:00076B75
  6802 0001:00076B87  6803 0001:00076B95  6805 0001:00076BA3  6806 0001:00076BB1
  6808 0001:00076BBD  6809 0001:00076BC7  6810 0001:00076BD1  6812 0001:00076BEB
  6813 0001:00076BF0  6816 0001:00076BFC  6819 0001:00076C32  6821 0001:00076C37
  6822 0001:00076C41  6824 0001:00076C5B  6825 0001:00076C60  6828 0001:00076C6C
  6830 0001:00076CA2  6832 0001:00076CB4  6837 0001:00076CCC  6838 0001:00076CD8
  6846 0001:00076CE4  6847 0001:00076CEE  6853 0001:00076CF8  6856 0001:00076CFF
  6857 0001:00076D10  6858 0001:00076D32  6860 0001:00076D44  6861 0001:00076D66
  6862 0001:00076D78  6865 0001:00076D83  6866 0001:00076D96  6867 0001:00076DBC
  6869 0001:00076DE2  6872 0001:00076DF5  6874 0001:00076E05  6876 0001:00076E2A
  6877 0001:00076E31  6878 0001:00076E4E  6879 0001:00076E52  6881 0001:00076E5C
  6882 0001:00076E61  6885 0001:00076E8A  6888 0001:00076E94  6890 0001:00076EA0
  6892 0001:00076EBA  6893 0001:00076EBF  6898 0001:00076EE7  6902 0001:00076F25
  6904 0001:00076F3F  6905 0001:00076F44  6911 0001:00076F6B  6913 0001:00076F7F
  6914 0001:00076F90  6915 0001:00076FC3  6918 0001:0007700B  6919 0001:0007701C
  6920 0001:0007703E  6928 0001:0007704F  6930 0001:0007706F  6932 0001:00077074
  6934 0001:0007707C  6936 0001:000770A3  6937 0001:000770B6  6939 0001:000770C9
  6941 0001:000770E9  6943 0001:000770EE  6945 0001:000770F7  6947 0001:0007711E
  6949 0001:0007713E  6951 0001:00077143  6953 0001:0007714C  6956 0001:00077175
  6957 0001:0007717F  6958 0001:00077188  6960 0001:00077198  6962 0001:000771B8
  6964 0001:000771BD  6966 0001:000771C7  6968 0001:000771EE  6969 0001:000771F8
  6970 0001:00077201  6972 0001:00077221  6974 0001:00077226  6976 0001:0007722E
  6978 0001:00077255  6979 0001:00077268  6982 0001:0007727B  6984 0001:0007729B
  6986 0001:000772A0  6988 0001:000772A9  6991 0001:000772D2  6992 0001:000772DC
  6994 0001:000772E5  6996 0001:00077305  6998 0001:0007730A  7000 0001:00077313
  7003 0001:0007733C  7004 0001:00077346  7006 0001:0007734F  7007 0001:00077358
  7008 0001:00077374  7010 0001:00077379  7012 0001:00077382  7014 0001:000773A9
  7015 0001:000773BD  7016 0001:000773C6  7017 0001:000773E2  7019 0001:000773E7
  7021 0001:000773F0  7023 0001:00077417  7025 0001:0007742B  7026 0001:0007744A
  7029 0001:0007745E  7032 0001:0007746A  7033 0001:00077482  7045 0001:0007748C
  7048 0001:00077494  7053 0001:000774A2  7054 0001:000774AF  7057 0001:00077551
  7067 0001:00077576  7068 0001:00077599  7070 0001:0007759E  7072 0001:000775A8
  7077 0001:000775D1  7087 0001:000775D9  7092 0001:000775E1  7093 0001:000775EA
  7095 0001:0007760A  7096 0001:0007760F  7109 0001:00077637  7113 0001:00077645
  7114 0001:00077657  7115 0001:000776A9  7116 0001:000776BA  7117 0001:000776C7
  7119 0001:000776D7  7120 0001:000776E7  7121 0001:000776F5  7122 0001:00077707
  7123 0001:00077713  7124 0001:0007771D  7141 0001:00077727  7143 0001:0007773A
  7144 0001:00077748  7146 0001:0007776C  7141 0001:00077772  7148 0001:0007777A
  7208 0001:0007778B  7211 0001:000777A8  7213 0001:000777AA  7214 0001:000777B1
  7215 0001:000777BC  7217 0001:000777CA  7218 0001:000777CF  7219 0001:000777D8
  7221 0001:000777E3  7231 0001:000777F0  7241 0001:00077CA8  7242 0001:00077CC7
  7243 0001:00077CCC  7244 0001:00077CDA  7246 0001:00077CE8  7247 0001:00077CF5
  7250 0001:00077D01  7258 0001:00077D1A  7260 0001:00077D3B  7261 0001:00077D48
  7263 0001:00077D70  7264 0001:00077D75  7266 0001:00077DA3  7267 0001:00077DAA
  7268 0001:00077DB8  7269 0001:00077DC3  7270 0001:00077DD3  7272 0001:00077E02
  7276 0001:00077E2A  7291 0001:00077E3E  7292 0001:00077E44  7293 0001:00077E52
  7295 0001:00077E69  7297 0001:00077E73  7298 0001:00077E79  7299 0001:00077E87
  7301 0001:00077E9E  7305 0001:00077ECB  7311 0001:00077ED0  7335 0001:00077F84
  7336 0001:00077FC8  7337 0001:00077FCD  7339 0001:00077FD1  7341 0001:00077FE4
  7342 0001:00077FEC  7344 0001:00077FF4  7346 0001:00077FFA  7347 0001:00077FFE
  7348 0001:00078001  7351 0001:00078007  7354 0001:00078027  7355 0001:0007802B
  7339 0001:0007802C  7356 0001:0007802F  7357 0001:00078035  7359 0001:00078052
  7360 0001:00078059  7361 0001:0007805F  7363 0001:0007807C  7364 0001:00078083
  7365 0001:00078089  7367 0001:000780A6  7368 0001:000780AD  7369 0001:000780B3
  7371 0001:000780D0  7372 0001:000780D7  7374 0001:00078120  7378 0001:00078142
  7381 0001:0007814B  7382 0001:0007815A  7383 0001:00078173  7384 0001:00078199
  7385 0001:0007819E  7387 0001:000781BE  7388 0001:000781D9  7390 0001:000781E4
  7391 0001:000781EA  7396 0001:00078212  7398 0001:00078221  7400 0001:00078225
  7407 0001:00078237  7409 0001:00078246  7411 0001:0007824A  7415 0001:0007825C
  7417 0001:0007826B  7419 0001:0007826F  7423 0001:00078281  7425 0001:000782A0
  7427 0001:000782A4  7431 0001:000782B6  7433 0001:000782CB  7435 0001:000782CF
  7439 0001:000782E1  7441 0001:000782F0  7443 0001:000782F4  7447 0001:00078306
  7449 0001:00078315  7451 0001:00078319  7455 0001:0007832B  7457 0001:0007833A
  7459 0001:0007833E  7463 0001:00078350  7465 0001:00078365  7467 0001:00078369
  7471 0001:0007837B  7473 0001:0007838A  7475 0001:0007838E  7479 0001:000783A0
  7481 0001:000783B5  7483 0001:000783B9  7487 0001:000783CB  7489 0001:000783DA
  7491 0001:000783DE  7495 0001:000783F0  7497 0001:000783FF  7499 0001:00078403
  7503 0001:00078415  7505 0001:0007842A  7507 0001:0007842E  7511 0001:00078440
  7513 0001:0007844F  7515 0001:00078453  7518 0001:00078465  7520 0001:00078474
  7522 0001:00078478  7526 0001:0007848A  7528 0001:00078499  7530 0001:0007849D
  7534 0001:000784AF  7536 0001:000784BE  7538 0001:000784C2  7542 0001:000784D4
  7544 0001:000784E9  7546 0001:000784ED  7550 0001:000784FF  7552 0001:0007850E
  7554 0001:00078512  7558 0001:00078524  7560 0001:00078533  7562 0001:00078537
  7566 0001:00078549  7568 0001:0007855E  7570 0001:00078562  7574 0001:00078574
  7576 0001:00078583  7578 0001:00078587  7582 0001:00078599  7584 0001:000785A8
  7586 0001:000785AC  7590 0001:000785BE  7592 0001:000785CD  7594 0001:000785D1
  7598 0001:000785E3  7600 0001:000785F2  7602 0001:000785F6  7606 0001:00078608
  7608 0001:00078617  7610 0001:0007861B  7614 0001:0007862D  7616 0001:0007864B
  7618 0001:0007864F  7622 0001:0007865E  7624 0001:0007867D  7626 0001:00078681
  7630 0001:00078690  7632 0001:000786A5  7634 0001:000786A9  7639 0001:000786B8
  7641 0001:000786BC  7646 0001:000786C9  7647 0001:000786CF  7648 0001:000786F7
  7652 0001:000786FF  7653 0001:0007870E  7654 0001:00078727  7655 0001:0007874C
  7659 0001:00078751  7660 0001:00078770  7661 0001:0007877D  7662 0001:00078782
  7663 0001:00078787  7664 0001:0007878C  7668 0001:00078796  7669 0001:000787B1
  7674 0001:000787CA  7675 0001:000787D0  7678 0001:000787F8  7680 0001:00078807
  7681 0001:00078820  7682 0001:00078845  7683 0001:0007884A  7685 0001:0007886A
  7686 0001:00078888  7688 0001:000788AD  7689 0001:000788BE  7692 0001:000788D3
  7695 0001:000788D9  7696 0001:000788F2  7697 0001:00078917  7701 0001:0007891C
  7702 0001:0007893B  7703 0001:0007894B  7704 0001:00078953  7705 0001:0007895B
  7706 0001:00078963  7710 0001:0007896D  7711 0001:0007898B  7715 0001:000789B0
  7716 0001:000789C9  7717 0001:000789EE  7721 0001:000789F3  7722 0001:00078A12
  7723 0001:00078A22  7727 0001:00078A2C  7728 0001:00078A4A  7731 0001:00078A58
  7732 0001:00078A6E  7733 0001:00078A94  7735 0001:00078A9E  7736 0001:00078AA4
  7739 0001:00078AD9  7745 0001:00078B18  7747 0001:00078B1F  7756 0001:00078B31
  7767 0001:00078BBF  7769 0001:00078BC6  7773 0001:00078BD8  7779 0001:00078C2C
  7781 0001:00078C33  7785 0001:00078C45  7788 0001:00078C5A  7790 0001:00078C61
  7794 0001:00078C73  7797 0001:00078C88  7799 0001:00078C8F  7805 0001:00078CA1
  7806 0001:00078CB6  7808 0001:00078CC2  7810 0001:00078CD7  7812 0001:00078CDE
  7816 0001:00078CF0  7831 0001:00078DD8  7833 0001:00078DDF  7837 0001:00078DF1
  7843 0001:00078E36  7845 0001:00078E3D  7850 0001:00078E4F  7852 0001:00078E64
  7854 0001:00078E6B  7872 0001:00078E7D  7874 0001:00078E92  7876 0001:00078E99
  7880 0001:00078EAB  7882 0001:00078EC0  7884 0001:00078EC7  7886 0001:00078ED4
  7888 0001:00078EE3  7890 0001:00078EF8  7892 0001:00078EFF  7894 0001:00078F0C
  7895 0001:00078F13  7897 0001:00078F1F  7899 0001:00078F34  7901 0001:00078F3B
  7906 0001:00078F4D  7908 0001:00078F62  7910 0001:00078F69  7914 0001:00078F7B
  7916 0001:00078F90  7918 0001:00078F97  7922 0001:00078FA9  7929 0001:00079012
  7931 0001:00079019  7934 0001:0007902B  7936 0001:00079040  7938 0001:00079047
  7942 0001:00079059  7944 0001:0007906E  7946 0001:00079075  7949 0001:00079087
  7951 0001:0007909C  7953 0001:000790A3  7957 0001:000790B5  7959 0001:000790CA
  7961 0001:000790D1  7963 0001:000790DE  7964 0001:000790EB  7967 0001:000790F7
  7969 0001:0007910C  7971 0001:00079113  7975 0001:00079125  7977 0001:0007913A
  7979 0001:00079141  7984 0001:00079153  7989 0001:0007917D  7991 0001:00079184
  7997 0001:00079191  7998 0001:0007919A  7999 0001:000791A1  8000 0001:000791AE
  8003 0001:000791BA  8006 0001:000791D5  8008 0001:000791DC  8010 0001:000791E9
  8011 0001:000791F3  8015 0001:000791FF  8021 0001:0007922F  8023 0001:00079236
  8027 0001:00079243  8028 0001:0007924C  8029 0001:00079253  8030 0001:00079260
  8034 0001:0007926C  8040 0001:0007929C  8042 0001:000792A3  8046 0001:000792B5
  8052 0001:000792E5  8054 0001:000792EC  8058 0001:000792FE  8064 0001:00079332
  8066 0001:00079339  8068 0001:00079346  8070 0001:0007935F  8071 0001:00079368
  8072 0001:0007936F  8073 0001:0007937C  8077 0001:00079388  8085 0001:000793CD
  8087 0001:000793D4  8091 0001:000793E3  8097 0001:00079413  8099 0001:0007941A
  8101 0001:00079427  8102 0001:00079430  8107 0001:00079439  8109 0001:00079440
  8122 0001:0007944D  8123 0001:00079453  8124 0001:0007947B  8129 0001:00079483
  8138 0001:000794D3  8146 0001:000794DC  8147 0001:000794E0  8153 0001:000794E9
  8154 0001:000794F2  8156 0001:00079502  8157 0001:00079506  8162 0001:00079512
  8163 0001:00079516  8166 0001:0007951D  8167 0001:00079524  8180 0001:0007952D
  8184 0001:00079534  8188 0001:0007959F  8196 0001:000795AB  8198 0001:000795B8
  8199 0001:000795C2  8204 0001:000795CE  8208 0001:000795D8  8210 0001:000795ED
  8220 0001:000795F4  8221 0001:000795FD  8223 0001:00079604  8249 0001:0007961D
  8256 0001:00079629  8261 0001:00079635  8263 0001:0007963C  8267 0001:00079648
  8269 0001:0007964F  8271 0001:00079656  8273 0001:00079660  8282 0001:0007966C
  8286 0001:00079678  8288 0001:0007967C  8291 0001:00079683  8293 0001:0007968A
  8294 0001:00079693  8296 0001:0007969A  8302 0001:000796A3  8304 0001:000796BA
  8305 0001:000796C6  8308 0001:000796CB  8314 0001:000796EC  8321 0001:000796F5
  8330 0001:000796FE  8335 0001:00079707  8353 0001:00079710  8357 0001:00079717
  8393 0001:0007971E  8396 0001:0007972D  8399 0001:0007973F  8401 0001:00079746
  8404 0001:00079758  8407 0001:0007975F  8409 0001:00079768  8410 0001:00079771
  8412 0001:0007977A  8415 0001:00079781  8417 0001:0007978A  8418 0001:00079793
  8421 0001:0007979A  8436 0001:0007979C  8445 0001:0007A5B0  8448 0001:0007A5B9
  8449 0001:0007A5C2  8451 0001:0007A5E4  8452 0001:0007A5F0  8453 0001:0007A5FE
  8454 0001:0007A619  8455 0001:0007A627  8457 0001:0007A642  8458 0001:0007A64A
  8459 0001:0007A658  8461 0001:0007A66E  8462 0001:0007A67F  8464 0001:0007A689
  8465 0001:0007A699  8466 0001:0007A6A7  8468 0001:0007A6B3  8469 0001:0007A6B9
  8470 0001:0007A6C2  8471 0001:0007A6C8  8472 0001:0007A6CF  8474 0001:0007A6EC
  8475 0001:0007A706  8477 0001:0007A70B  8479 0001:0007A711  8481 0001:0007A73B
  8484 0001:0007A764  8486 0001:0007A772  8488 0001:0007A77C  8490 0001:0007A787
  8491 0001:0007A78D  8492 0001:0007A7A0  8494 0001:0007A7A5  8496 0001:0007A7AB
  8498 0001:0007A7D5  8501 0001:0007A7FE  8488 0001:0007A808  8507 0001:0007A813
  8509 0001:0007A819  8511 0001:0007A82F  8513 0001:0007A834  8515 0001:0007A83A
  8517 0001:0007A864  8523 0001:0007A88D  8525 0001:0007A893  8526 0001:0007A89B
  8528 0001:0007A8A2  8529 0001:0007A8AC  8530 0001:0007A8BA  8531 0001:0007A8C7
  8533 0001:0007A8D2  8535 0001:0007A8E1  8537 0001:0007A90B  8541 0001:0007A941
  8545 0001:0007A980  8547 0001:0007A9BC  8459 0001:0007A9BF  8549 0001:0007A9D6
  8550 0001:0007A9DF  8554 0001:0007A9F2  8556 0001:0007AA0C  8558 0001:0007AA2D
  8560 0001:0007AA38  8561 0001:0007AA41  8563 0001:0007AA56  8564 0001:0007AA6A
  8566 0001:0007AA6F  8568 0001:0007AA75  8570 0001:0007AA9E  8558 0001:0007AAC6
  8574 0001:0007AACF  8576 0001:0007AADC  8577 0001:0007AAEA  8578 0001:0007AAF8
  8580 0001:0007AAFD  8582 0001:0007AB03  8584 0001:0007AB2C  8587 0001:0007AB61
  8588 0001:0007AB68  8591 0001:0007AB9C  8593 0001:0007ABA3  8596 0001:0007ABBD
  8597 0001:0007ABC6  8599 0001:0007ABD6  8601 0001:0007ABF3  8603 0001:0007ABF5
  8604 0001:0007ABFC  8605 0001:0007AC07  8606 0001:0007AC15  8614 0001:0007AC1F
  8617 0001:0007AD18  8618 0001:0007AD35  8619 0001:0007AD39  8620 0001:0007AD65
  8621 0001:0007AD6D  8622 0001:0007AD6F  8625 0001:0007ADA0  8626 0001:0007ADB7
  8627 0001:0007ADD0  8628 0001:0007ADD2  8634 0001:0007ADF8  8636 0001:0007ADFE
  8664 0001:0007AE04  8666 0001:0007AE19  8668 0001:0007AE1E  8671 0001:0007AE3D
  8674 0001:0007AE55  8681 0001:0007AE6C  8683 0001:0007AE81  8684 0001:0007AE87
  8686 0001:0007AE8E  8687 0001:0007AE93  8688 0001:0007AEB2  8690 0001:0007AEC7
  8691 0001:0007AED5  8695 0001:0007AEF8  8696 0001:0007AEFD  8704 0001:0007AF1C
  8709 0001:0007AF60  8711 0001:0007AF69  8712 0001:0007AF6F  8718 0001:0007AF76
  8733 0001:0007AF78  8752 0001:0007AFA9  8753 0001:0007AFB2  8754 0001:0007AFC0
  8755 0001:0007AFC2  8756 0001:0007AFC7  8760 0001:0007B023  8762 0001:0007B072
  8763 0001:0007B07B  8766 0001:0007B0CD  8777 0001:0007B0F0  8778 0001:0007B0F9
  8781 0001:0007B14B  8789 0001:0007B16E  8791 0001:0007B183  8793 0001:0007B18C
  8795 0001:0007B1AB  8796 0001:0007B1B0  8798 0001:0007B1D6  8802 0001:0007B1DF
  8803 0001:0007B1E4  8806 0001:0007B1EA  8807 0001:0007B1F7  8812 0001:0007B256
  8814 0001:0007B260  8816 0001:0007B26F  8817 0001:0007B27A  8835 0001:0007B284
  8841 0001:0007B28E  8844 0001:0007B29B  8845 0001:0007B2AA  8847 0001:0007B2AF
  8848 0001:0007B2BC  8853 0001:0007B2E3  8855 0001:0007B2ED  8857 0001:0007B304
  8858 0001:0007B309  8860 0001:0007B316  8862 0001:0007B32F  8863 0001:0007B334
  8865 0001:0007B35A  8867 0001:0007B363  8869 0001:0007B37C  8870 0001:0007B381
  8873 0001:0007B3A7  8875 0001:0007B3C0  8876 0001:0007B3C5  8879 0001:0007B3EB
  8880 0001:0007B3EF  8881 0001:0007B3F7  8882 0001:0007B3F9  8883 0001:0007B401
  8884 0001:0007B409  8888 0001:0007B410  8891 0001:0007B419  8892 0001:0007B426
  8897 0001:0007B44F  8899 0001:0007B459  8901 0001:0007B470  8902 0001:0007B475
  8904 0001:0007B47E  8906 0001:0007B497  8907 0001:0007B49C  8909 0001:0007B4C2
  8913 0001:0007B4CD  8916 0001:0007B4D6  8917 0001:0007B4E3  8922 0001:0007B50C
  8924 0001:0007B516  8926 0001:0007B52D  8927 0001:0007B532  8929 0001:0007B53B
  8931 0001:0007B554  8932 0001:0007B559  8934 0001:0007B57F  8938 0001:0007B58A
  8941 0001:0007B593  8942 0001:0007B5A0  8947 0001:0007B5C9  8949 0001:0007B5D3
  8951 0001:0007B5EA  8952 0001:0007B5EF  8954 0001:0007B5F8  8956 0001:0007B611
  8957 0001:0007B616  8959 0001:0007B63C  8963 0001:0007B647  8966 0001:0007B650
  8967 0001:0007B65D  8972 0001:0007B686  8974 0001:0007B690  8976 0001:0007B6A7
  8977 0001:0007B6AC  8979 0001:0007B6B5  8981 0001:0007B6CE  8982 0001:0007B6D3
  8984 0001:0007B6F9  8988 0001:0007B704  8991 0001:0007B70D  8992 0001:0007B71A
  8997 0001:0007B743  8999 0001:0007B74D  9001 0001:0007B762  9003 0001:0007B76F
  9005 0001:0007B77A  9007 0001:0007B783  9009 0001:0007B79B  9010 0001:0007B7A0
  9012 0001:0007B7C6  9014 0001:0007B7D2  9015 0001:0007B7D8  9016 0001:0007B7DF
  9020 0001:0007B7E9  9021 0001:0007B7EE  9026 0001:0007B7F5  9027 0001:0007B7FB
  9032 0001:0007B802  9034 0001:0007B80B  9036 0001:0007B826  9037 0001:0007B82B
  9042 0001:0007B853  9043 0001:0007B859  9049 0001:0007B860  9050 0001:0007B866
  9053 0001:0007B86B  9054 0001:0007B878  9059 0001:0007B8E9  9061 0001:0007B8F3
  9063 0001:0007B908  9065 0001:0007B915  9067 0001:0007B920  9069 0001:0007B938
  9070 0001:0007B93D  9072 0001:0007B963  9073 0001:0007B96C  9075 0001:0007B971
  9076 0001:0007B97E  9082 0001:0007B9EF  9084 0001:0007BA0A  9085 0001:0007BA0F
  9088 0001:0007BA35  9089 0001:0007BA42  9096 0001:0007BAB3  9097 0001:0007BAB9
  9098 0001:0007BABE  9102 0001:0007BAC8  9107 0001:0007BAD2  9109 0001:0007BAE7
  9111 0001:0007BAF0  9113 0001:0007BB08  9114 0001:0007BB0D  9116 0001:0007BB33
  9117 0001:0007BB39  9119 0001:0007BB41  9123 0001:0007BB49  9125 0001:0007BB4F
  9127 0001:0007BB54  9128 0001:0007BB61  9133 0001:0007BB8B  9136 0001:0007BB95
  9138 0001:0007BBAA  9140 0001:0007BBB3  9142 0001:0007BBCC  9143 0001:0007BBD1
  9146 0001:0007BBF7  9149 0001:0007BBFD  9151 0001:0007BC05  9155 0001:0007BC0D
  9157 0001:0007BC13  9159 0001:0007BC18  9160 0001:0007BC25  9165 0001:0007BC4F
  9167 0001:0007BC59  9171 0001:0007BC68  9172 0001:0007BC7A  9174 0001:0007BC7F
  9175 0001:0007BC8C  9180 0001:0007BCBA  9183 0001:0007BCC4  9186 0001:0007BCD1
  9187 0001:0007BCDA  9190 0001:0007BCFE  9191 0001:0007BD04  9194 0001:0007BD0B
  9200 0001:0007BD12  9201 0001:0007BD1B  9204 0001:0007BD3F  9208 0001:0007BD46
  9212 0001:0007BD76  9214 0001:0007BD7D  9215 0001:0007BD84  9217 0001:0007BD86
  9218 0001:0007BD8D  9219 0001:0007BD98  9220 0001:0007BDA6  9227 0001:0007BDB0
  9248 0001:0007C520  9249 0001:0007C53D  9250 0001:0007C545  9252 0001:0007C553
  9254 0001:0007C558  9255 0001:0007C56B  9257 0001:0007C58E  9258 0001:0007C5AF
  9250 0001:0007C5B4  9261 0001:0007C5B9  9274 0001:0007C6A5  9275 0001:0007C6BB
  9276 0001:0007C6DD  9280 0001:0007C6FD  9281 0001:0007C724  9287 0001:0007C7E8
  9307 0001:0007C80C  9308 0001:0007C832  9309 0001:0007C842  9311 0001:0007C84A
  9313 0001:0007C878  9314 0001:0007C882  9317 0001:0007C8B2  9318 0001:0007C8C3
  9320 0001:0007C8D2  9322 0001:0007C8ED  9323 0001:0007C8F5  9325 0001:0007C916
  9326 0001:0007C939  9336 0001:0007C9D8  9337 0001:0007C9EE  9338 0001:0007CA09
  9339 0001:0007CA13  9340 0001:0007CA18  9342 0001:0007CA3C  9343 0001:0007CA5E
  9344 0001:0007CA6B  9346 0001:0007CA78  9347 0001:0007CA96  9349 0001:0007CAA0
  9350 0001:0007CAA8  9353 0001:0007CACA  9357 0001:0007CAE9  9359 0001:0007CAFA
  9360 0001:0007CB04  9362 0001:0007CB16  9364 0001:0007CB27  9365 0001:0007CB31
  9373 0001:0007CB43  9376 0001:0007CB54  9377 0001:0007CB6F  9379 0001:0007CB81
  9381 0001:0007CB93  9384 0001:0007CBA4  9385 0001:0007CBB7  9387 0001:0007CBC9
  9389 0001:0007CBDB  9391 0001:0007CBEC  9393 0001:0007CBFE  9395 0001:0007CC0F
  9403 0001:0007CC25  9405 0001:0007CC36  9407 0001:0007CC48  9409 0001:0007CC59
  9410 0001:0007CC74  9412 0001:0007CC90  9414 0001:0007CC9A  9416 0001:0007CCAB
  9417 0001:0007CCB5  9419 0001:0007CCC4  9421 0001:0007CCD5  9422 0001:0007CCE4
  9424 0001:0007CCF3  9442 0001:0007CD00  9443 0001:0007CD0C  9446 0001:0007CD3B
  9447 0001:0007CD62  9454 0001:0007D118  9455 0001:0007D12E  9457 0001:0007D142
  9459 0001:0007D150  9461 0001:0007D15E  9463 0001:0007D16C  9465 0001:0007D18B
  9516 0001:0007D208  9517 0001:0007D228  9522 0001:0007D22D  9523 0001:0007D236
  9524 0001:0007D244  9526 0001:0007D304  9528 0001:0007D319  9530 0001:0007D322
  9531 0001:0007D340  9533 0001:0007D35B  9534 0001:0007D362  9536 0001:0007D38A
  9539 0001:0007D398  9541 0001:0007D39F  9542 0001:0007D3AC  9546 0001:0007D3DA
  9554 0001:0007D3E6  9555 0001:0007D3F3  9557 0001:0007D3FE  9562 0001:0007D40A
  9564 0001:0007D419  9566 0001:0007D424  9567 0001:0007D431  9571 0001:0007D45B
  9574 0001:0007D467  9579 0001:0007D482  9583 0001:0007D49D  9586 0001:0007D4B8
  9588 0001:0007D4CF  9590 0001:0007D4DB  9591 0001:0007D4F9  9593 0001:0007D514
  9594 0001:0007D51B  9598 0001:0007D545  9599 0001:0007D54C  9602 0001:0007D552
  9603 0001:0007D55D  9605 0001:0007D563  9606 0001:0007D56E  9608 0001:0007D574
  9609 0001:0007D57D  9611 0001:0007D583  9614 0001:0007D58C  9615 0001:0007D599
  9619 0001:0007D5CA  9622 0001:0007D5D6  9627 0001:0007D5E5  9630 0001:0007D5FF
  9634 0001:0007D60B  9635 0001:0007D614  9638 0001:0007D639  9642 0001:0007D65C
  9643 0001:0007D66B  9645 0001:0007D67B  9647 0001:0007D687  9648 0001:0007D696
  9650 0001:0007D6A6  9652 0001:0007D6B2  9655 0001:0007D6CD  9658 0001:0007D6D9
  9665 0001:0007D6F4  9671 0001:0007D70B  9672 0001:0007D717  9677 0001:0007D721
  9679 0001:0007D72A  9685 0001:0007D738  9686 0001:0007D740  9697 0001:0007D778
  9709 0001:0007D785  9710 0001:0007D792  9717 0001:0007D7CA  9719 0001:0007D7D6
  9721 0001:0007D7EB  9723 0001:0007D7F4  9724 0001:0007D812  9726 0001:0007D831
  9727 0001:0007D838  9731 0001:0007D862  9733 0001:0007D869  9734 0001:0007D876
  9738 0001:0007D89D  9741 0001:0007D8A9  9745 0001:0007D8C4  9746 0001:0007D8D3
  9748 0001:0007D8DF  9750 0001:0007D8EB  9753 0001:0007D8F8  9754 0001:0007D901
  9756 0001:0007D935  9758 0001:0007D93E  9759 0001:0007D94D  9763 0001:0007D95A
  9764 0001:0007D960  9769 0001:0007D96D  9770 0001:0007D975  9773 0001:0007D981
  9776 0001:0007D988  9777 0001:0007D991  9779 0001:0007D9B6  9783 0001:0007D9D9
  9785 0001:0007D9E5  9788 0001:0007DA00  9790 0001:0007DA15  9791 0001:0007DA27
  9793 0001:0007DA38  9795 0001:0007DA42  9797 0001:0007DA5B  9798 0001:0007DA62
  9800 0001:0007DA8B  9803 0001:0007DA98  9804 0001:0007DAA5  9808 0001:0007DACF
  9812 0001:0007DADB  9814 0001:0007DAEA  9815 0001:0007DAFC  9818 0001:0007DB09
  9820 0001:0007DB15  9823 0001:0007DB30  9826 0001:0007DB4B  9828 0001:0007DB58
  9830 0001:0007DB6A  9831 0001:0007DB77  9835 0001:0007DB9E  9839 0001:0007DBAA
  9842 0001:0007DBB5  9843 0001:0007DBBE  9845 0001:0007DC10  9849 0001:0007DC36
  9852 0001:0007DC42  9854 0001:0007DC4D  9856 0001:0007DC59  9857 0001:0007DCA6
  9862 0001:0007DCC9  9866 0001:0007DCE3  9867 0001:0007DCF0  9871 0001:0007DD4F
  9873 0001:0007DD5B  9875 0001:0007DD66  9876 0001:0007DD72  9880 0001:0007DD95
  9884 0001:0007DDAF  9885 0001:0007DDBC  9889 0001:0007DE1B  9891 0001:0007DE27
  9894 0001:0007DE32  9895 0001:0007DE3B  9897 0001:0007DE8D  9901 0001:0007DEB3
  9903 0001:0007DEBF  9911 0001:0007DECA  9913 0001:0007DEFE  9914 0001:0007DF0B
  9918 0001:0007DF6A  9920 0001:0007DF76  9921 0001:0007DF7D  9923 0001:0007DF89
  9925 0001:0007DF95  9927 0001:0007DFA4  9928 0001:0007DFB1  9930 0001:0007DFBF
  9933 0001:0007DFC9  9936 0001:0007DFD5  9939 0001:0007DFDC  9940 0001:0007DFE5
  9942 0001:0007E00A  9946 0001:0007E02D  9949 0001:0007E039  9950 0001:0007E048
  9952 0001:0007E05B  9954 0001:0007E067  9957 0001:0007E082  9960 0001:0007E09D
  9963 0001:0007E0B8  9966 0001:0007E0D3  9967 0001:0007E0E0  9969 0001:0007E0F4
  9971 0001:0007E100  9974 0001:0007E117  9975 0001:0007E120  9977 0001:0007E194
  9980 0001:0007E1A5  9984 0001:0007E1AE  9986 0001:0007E1B7  9987 0001:0007E1BE
  9989 0001:0007E1C7  9992 0001:0007E1D0 10005 0001:0007E22D 10007 0001:0007E236
 10008 0001:0007E23F 10010 0001:0007E241 10011 0001:0007E248 10012 0001:0007E253
 10013 0001:0007E261 10021 0001:0007E26D 10024 0001:0007F100 10025 0001:0007F111
 10027 0001:0007F113 10028 0001:0007F121 10030 0001:0007F128 10031 0001:0007F13A
 10032 0001:0007F150 10034 0001:0007F18B 10036 0001:0007F18D 10037 0001:0007F194
 10038 0001:0007F19C 10039 0001:0007F1A7 10040 0001:0007F1B5 10048 0001:0007F1BF
 10051 0001:0007F22C 10052 0001:0007F23D 10054 0001:0007F23F 10055 0001:0007F24D
 10057 0001:0007F254 10058 0001:0007F266 10059 0001:0007F27C 10061 0001:0007F2B9
 10063 0001:0007F2BB 10064 0001:0007F2C2 10065 0001:0007F2CA 10066 0001:0007F2D5
 10067 0001:0007F2E3 10075 0001:0007F2ED 10091 0001:0007F35C 10092 0001:0007F372
 10095 0001:0007F387 10097 0001:0007F3A6 10098 0001:0007F3B3 10107 0001:0007F3D4
 10108 0001:0007F3F4 10109 0001:0007F401 10114 0001:0007F411 10115 0001:0007F413
 10122 0001:0007F436 10124 0001:0007F44B 10125 0001:0007F47A 10126 0001:0007F490
 10132 0001:0007F49A 10134 0001:0007F4A8 10135 0001:0007F4AC 10137 0001:0007F4BC
 10138 0001:0007F4D2 10140 0001:0007F4FD 10141 0001:0007F52D 10142 0001:0007F53E
 10147 0001:0007F542 10148 0001:0007F552 10150 0001:0007F560 10157 0001:0007F579
 10159 0001:0007F596 10170 0001:0007F5D7 10172 0001:0007F5E0 10173 0001:0007F5FC
 10175 0001:0007F609 10178 0001:0007F63A 10179 0001:0007F64D 10183 0001:0007F67D
 10186 0001:0007F6B3 10187 0001:0007F6C9 10192 0001:0007F725 10193 0001:0007F73B
 10198 0001:0007F797 10199 0001:0007F7B5 10204 0001:0007F7EE 10205 0001:0007F801
 10210 0001:0007F85A 10211 0001:0007F870 10212 0001:0007F895 10220 0001:0007F8B8
 10222 0001:0007F8C4 10148 0001:0007F8C9 10225 0001:0007F8D2 10226 0001:0007F8D8
 10228 0001:0007F8F1 10229 0001:0007F902 10280 0001:0007FA38 10281 0001:0007FA59
 10286 0001:0007FA5B 10287 0001:0007FA64 10288 0001:0007FA72 10291 0001:0007FB2A
 10293 0001:0007FB37 10294 0001:0007FB3D 10296 0001:0007FB44 10299 0001:0007FB4B
 10300 0001:0007FB54 10303 0001:0007FB7D 10305 0001:0007FB9B 10306 0001:0007FBB2
 10307 0001:0007FBB7 10310 0001:0007FBDC 10330 0001:0007FBE4 10331 0001:0007FBF9
 10332 0001:0007FBFE 10335 0001:0007FC23 10336 0001:0007FC29 10337 0001:0007FC32
 10340 0001:0007FC43 10344 0001:0007FC4D 10351 0001:0007FC68 10353 0001:0007FC71
 10354 0001:0007FC7E 10359 0001:0007FCA2 10368 0001:0007FCBD 10370 0001:0007FCC4
 10374 0001:0007FCD6 10375 0001:0007FCE6 10380 0001:0007FCF8 10383 0001:0007FD13
 10385 0001:0007FD30 10391 0001:0007FD3F 10393 0001:0007FD46 10399 0001:0007FD55
 10401 0001:0007FD5C 10407 0001:0007FD6B 10409 0001:0007FD72 10415 0001:0007FD81
 10417 0001:0007FD8E 10423 0001:0007FDBD 10424 0001:0007FDC6 10428 0001:0007FDE8
 10430 0001:0007FE06 10431 0001:0007FE1D 10432 0001:0007FE22 10435 0001:0007FE47
 10437 0001:0007FE53 10439 0001:0007FE61 10441 0001:0007FE73 10442 0001:0007FE83
 10448 0001:0007FEA7 10449 0001:0007FEBB 10450 0001:0007FEC0 10452 0001:0007FEE1
 10439 0001:0007FEE4 10454 0001:0007FEEA 10455 0001:0007FEFF 10456 0001:0007FF08
 10462 0001:0007FF32 10468 0001:0007FF4D 10475 0001:0007FF68 10481 0001:0007FF84
 10483 0001:0007FF9C 10484 0001:0007FFA3 10487 0001:0007FFDE 10489 0001:0007FFE3
 10491 0001:0007FFEC 10492 0001:00080010 10499 0001:0008004E 10501 0001:00080066
 10502 0001:0008006D 10505 0001:000800B4 10507 0001:000800B9 10509 0001:000800C2
 10510 0001:000800E6 10514 0001:00080130 10517 0001:0008014B 10522 0001:00080166
 10530 0001:00080181 10534 0001:0008019C 10539 0001:000801B7 10544 0001:000801D2
 10547 0001:000801ED 10550 0001:00080208 10553 0001:00080223 10557 0001:0008023E
 10560 0001:00080259 10563 0001:00080274 10568 0001:0008028F 10573 0001:000802AA
 10575 0001:000802C5 10576 0001:000802CE 10579 0001:00080320 10580 0001:00080340
 10582 0001:0008036D 10583 0001:0008037A 10587 0001:000803D1 10593 0001:000803E1
 10596 0001:000803EC 10597 0001:000803F5 10600 0001:00080417 10601 0001:00080436
 10603 0001:00080440 10605 0001:00080449 10606 0001:00080459 10610 0001:0008046E
 10611 0001:0008048C 10612 0001:000804C9 10616 0001:000804F2 10618 0001:00080500
 10620 0001:00080516 10621 0001:00080526 10626 0001:00080544 10628 0001:00080566
 10630 0001:0008057F 10631 0001:00080584 10634 0001:000805A5 10618 0001:000805A8
 10637 0001:000805B2 10639 0001:000805CC 10640 0001:000805D1 10642 0001:000805F6
 10648 0001:00080606 10649 0001:00080613 10658 0001:0008066A 10661 0001:00080675
 10664 0001:00080681 10666 0001:0008068E 10667 0001:00080694 10669 0001:000806A5
 10674 0001:000806B7 10676 0001:000806C4 10678 0001:000806E3 10679 0001:000806F0
 10685 0001:0008071A 10686 0001:00080727 10690 0001:0008076C 10695 0001:00080787
 10700 0001:000807A2 10705 0001:000807BD 10709 0001:000807D8 10712 0001:000807E9
 10714 0001:00080804 10715 0001:0008080D 10717 0001:0008082F 10719 0001:00080839
 10721 0001:0008085D 10723 0001:00080861 10724 0001:00080871 10728 0001:0008087D
 10729 0001:00080886 10735 0001:00080892 10740 0001:000808D8 10741 0001:000808E5
 10746 0001:00080967 10750 0001:000809C0 10752 0001:000809C2 10753 0001:000809C9
 10754 0001:000809D4 10755 0001:000809E2 10763 0001:000809EC 10771 0001:00081EB8
 10773 0001:00081EC2 10775 0001:00081ECE 10779 0001:00081EE8 10781 0001:00081EF5
 10782 0001:00081EF8 10787 0001:00081F00 10791 0001:00081F19 10793 0001:00081F25
 10794 0001:00081F27 10797 0001:00081F2B 10800 0001:00081F35 10801 0001:00081F3A
 10802 0001:00081F4F 10803 0001:00081F54 10806 0001:00081F75 10808 0001:00081F7B
 10810 0001:00081F8F 10811 0001:00081F94 10814 0001:00081FB5 10815 0001:00081FBB
 10816 0001:00081FC2 10823 0001:00081FCC 10826 0001:00082064 10827 0001:0008206A
 10828 0001:0008206E 10831 0001:00082074 10832 0001:0008207A 10833 0001:00082081
 10839 0001:00082088 10841 0001:000820A5 10842 0001:000820AB 10843 0001:000820BA
 10844 0001:000820C2 10845 0001:000820CA 10847 0001:000820DD 10848 0001:000820FD
 10850 0001:00082107 10851 0001:0008211D 10853 0001:00082125 10845 0001:00082126
 10854 0001:00082129 10855 0001:0008212F 10856 0001:00082145 10861 0001:0008214D
 10864 0001:00082188 10865 0001:0008218E 10866 0001:00082193 10869 0001:00082198
 10870 0001:0008219F 10871 0001:000821AA 10874 0001:000821B0 10875 0001:000821B6
 10876 0001:000821B9 10879 0001:000821C0 10880 0001:000821C6 10881 0001:000821C9
 10884 0001:000821D0 10885 0001:000821D6 10886 0001:000821D9 10889 0001:000821E0
 10890 0001:000821E6 10891 0001:000821EC 10894 0001:000821F0 10895 0001:000821F7
 10896 0001:00082202 10899 0001:00082208 10900 0001:0008220F 10901 0001:0008221D
 10904 0001:00082224 10905 0001:0008222A 10906 0001:00082230 10909 0001:00082234
 10910 0001:0008223A 10911 0001:00082240 10914 0001:00082244 10915 0001:0008224A
 10916 0001:00082250 10919 0001:00082254 10920 0001:0008225A 10921 0001:00082260
 10924 0001:00082264 10925 0001:0008226B 10926 0001:00082279 10929 0001:00082280
 10930 0001:00082287 10931 0001:00082292 10934 0001:00082298 10935 0001:0008229E
 10936 0001:000822A5 10939 0001:000822AC 10940 0001:000822B2 10941 0001:000822BC
 10944 0001:000822C0 10945 0001:000822C6 10946 0001:000822CC 10949 0001:000822D0
 10950 0001:000822D6 10951 0001:000822DD 10954 0001:000822E4 10955 0001:000822EA
 10956 0001:000822EE 10959 0001:000822F4 10960 0001:000822FA 10961 0001:00082300
 10964 0001:00082304 10965 0001:0008230A 10966 0001:0008230D 10969 0001:00082314
 10970 0001:0008231B 10971 0001:00082329 10974 0001:00082330 10975 0001:00082336
 10976 0001:0008233D 10985 0001:00082344 10987 0001:00082359 10988 0001:00082362
 10989 0001:00082366 10991 0001:0008236B 10992 0001:00082370 10993 0001:00082376
 10994 0001:0008237F 10995 0001:00082384 10996 0001:00082389 10997 0001:00082393
 10998 0001:00082397 10999 0001:0008239E 11000 0001:000823A5 11003 0001:000823AC
 11009 0001:000823BC 11016 0001:000823D8 11019 0001:000823E3 11020 0001:000823EA
 11021 0001:000823F1 11022 0001:000823FA 11024 0001:00082406 11025 0001:0008241F
 11026 0001:00082429 11027 0001:00082432 11029 0001:0008243A 11030 0001:00082443
 11033 0001:00082468 11034 0001:0008246F 11036 0001:00082489 11039 0001:00082494
 11042 0001:000824AA 11043 0001:000824AF 11045 0001:000824DB 11047 0001:000824E4
 11048 0001:000824EB 11049 0001:000824F9 11050 0001:00082500 11052 0001:0008251C
 11056 0001:0008252B 11057 0001:0008253B 11062 0001:00082546 11067 0001:0008254C
 11069 0001:00082559 11070 0001:0008255D 11071 0001:00082561 11072 0001:0008256B
 11074 0001:00082571 11082 0001:0008257B 11084 0001:00082581 11086 0001:00082588
 11087 0001:00082591 11089 0001:000825B3 11090 0001:000825BD 11092 0001:000825C2
 11095 0001:000825E3 11096 0001:000825EF 11099 0001:000825F4 11101 0001:00082615
 11103 0001:0008261B 11104 0001:00082629 11107 0001:0008262E 11109 0001:0008264F
 11110 0001:0008265D 11113 0001:00082662 11115 0001:00082683 11117 0001:0008268D
 11119 0001:00082693 11120 0001:0008269A 11122 0001:000826A8 11123 0001:000826AE
 11126 0001:000826B3 11127 0001:000826B7 11133 0001:000826BE 11139 0001:000826F4
 11141 0001:000826F9 11143 0001:00082700 11145 0001:00082709 11146 0001:00082715
 11147 0001:00082721 11148 0001:00082728 11143 0001:00082729 11149 0001:0008272E
 11155 0001:00082736 11158 0001:0008273C 11160 0001:00082747 11161 0001:0008274D
 11166 0001:00082758 11169 0001:00082768 11170 0001:0008276E 11171 0001:00082779
 11172 0001:00082787 11175 0001:0008278C 11176 0001:00082790 11178 0001:000827AF
 11181 0001:000827B4 11183 0001:000827BB 11184 0001:000827CA 11185 0001:000827D2
 11186 0001:000827DD 11192 0001:000827E4 11193 0001:000827E6 11199 0001:000827EC
 11200 0001:00082812 11201 0001:0008281E 11202 0001:00082824 11203 0001:00082830
 11204 0001:0008283C 11205 0001:00082842 11207 0001:00082876 11208 0001:00082890
 11211 0001:000828C2 11212 0001:000828CC 11214 0001:000828D8 11215 0001:000828DF
 11217 0001:000828E4 11218 0001:000828E6 11219 0001:000828EA 11220 0001:000828F0
 11221 0001:000828F1 11222 0001:000828F5 11223 0001:00082902 11224 0001:00082908
 11225 0001:00082914 11226 0001:00082920 11222 0001:00082923 11229 0001:00082926
 11231 0001:00082932 11232 0001:0008293B 11234 0001:0008295B 11242 0001:00082A44
 11243 0001:00082A4B 11245 0001:00082A4F 11259 0001:00082A55 11260 0001:00082A57
 11264 0001:00082A5D 11266 0001:00082A68 11267 0001:00082A74 11269 0001:00082A79
 11270 0001:00082A85 11272 0001:00082AAB 11273 0001:00082ACE 11275 0001:00082AD0
 11276 0001:00082ADE 11278 0001:00082AE3 11279 0001:00082B06 11281 0001:00082B08
 11282 0001:00082B09 11284 0001:00082B11 11285 0001:00082B15 11264 0001:00082B17
 11293 0001:00082B22 11305 0001:00082B48 11309 0001:00082B64 11310 0001:00082B82
 11312 0001:00082B9F 11314 0001:00082BBB 11315 0001:00082BCE 11333 0001:00082BDA
 11342 0001:00082C1D 11343 0001:00082C27 11344 0001:00082C56 11346 0001:00082C60
 11312 0001:00082C61 11348 0001:00082C6A 11351 0001:00082CB0 11353 0001:00082CBA
 11354 0001:00082CC1 11355 0001:00082CCB 11358 0001:00082CD5 11359 0001:00082CDE
 11362 0001:00082D0D 11365 0001:00082D3A 11371 0001:00082D57 11373 0001:00082D61
 11375 0001:00082D64 11377 0001:00082D8C 11378 0001:00082D93 11379 0001:00082D9B
 11380 0001:00082DA4 11382 0001:00082DB2 11383 0001:00082DB9 11384 0001:00082DC3
 11386 0001:00082DDE 11387 0001:00082DE5 11389 0001:00082DEC 11390 0001:00082DF3
 11391 0001:00082DF8 11396 0001:00082E05 11397 0001:00082E0C 11399 0001:00082E1D
 11401 0001:00082E2C 11402 0001:00082E3D 11403 0001:00082E53 11407 0001:00082E8D
 11409 0001:00082E93 11410 0001:00082EB2 11411 0001:00082EC8 11415 0001:00082EFF
 11416 0001:00082F1F 11417 0001:00082F2D 11421 0001:00082F62 11422 0001:00082F69
 11425 0001:00082F70 11426 0001:00082F76 11427 0001:00082F8A 11430 0001:00082F91
 11431 0001:00082FC5 11434 0001:00082FCB 11435 0001:00082FD0 11436 0001:00082FE4
 11439 0001:00082FEB 11440 0001:0008301F 11442 0001:00083024 11443 0001:0008302A
 11445 0001:00083035 11448 0001:0008303D 11449 0001:00083049 11452 0001:00083073
 11454 0001:0008307D 11461 0001:00083093 11463 0001:000830A0 11464 0001:000830A9
 11466 0001:000830B4 11470 0001:000830BF 11473 0001:000830D0 11474 0001:000830D4
 11476 0001:000830DF 11478 0001:000830E8 11479 0001:000830F4 11481 0001:000830FC
 11486 0001:00083102 11488 0001:0008310D 11491 0001:00083137 11496 0001:00083146
 11497 0001:00083152 11498 0001:0008315A 11500 0001:00083165 11501 0001:0008316F
 11502 0001:00083175 11503 0001:00083189 11504 0001:00083190 11506 0001:000831C5
 11507 0001:000831D1 11509 0001:000831F1 11511 0001:000831FC 11512 0001:00083205
 11514 0001:0008320F 11515 0001:0008321B 11518 0001:00083240 11530 0001:00083262
 11531 0001:0008326B 11534 0001:00083275 11535 0001:00083281 11538 0001:000832A3
 11541 0001:000832C3 11542 0001:000832CA 11544 0001:000832E7 11546 0001:000832E9
 11547 0001:000832F0 11548 0001:000832F8 11549 0001:00083302 11551 0001:00083307
 11553 0001:0008330F 11554 0001:0008331B 11563 0001:0008334F 11566 0001:000834C4
 11569 0001:000834DC 11570 0001:000834E5 11573 0001:00083504 11579 0001:00083512
 11582 0001:0008355C 11583 0001:0008355F 11584 0001:00083565 11585 0001:0008356E
 11586 0001:00083574 11587 0001:00083579 11588 0001:0008357D 11589 0001:00083581
 11590 0001:00083588 11636 0001:0008358C 11637 0001:000835AB 11638 0001:000835C8
 11639 0001:000835DC 11641 0001:000835F8 11642 0001:0008361E 11643 0001:0008362D
 11644 0001:00083635 11645 0001:0008365B 11646 0001:00083681 11651 0001:00083683
 11652 0001:00083699 11653 0001:000836B5 11655 0001:000836B8 11656 0001:000836CE
 11657 0001:000836EA 11659 0001:000836ED 11660 0001:00083703 11661 0001:0008371F
 11663 0001:00083722 11664 0001:00083738 11665 0001:00083754 11667 0001:00083757
 11668 0001:0008376D 11669 0001:00083789 11671 0001:0008378C 11673 0001:000837B6
 11675 0001:000837BA 11677 0001:000837E1 11678 0001:000837F5 11679 0001:000837FD
 11685 0001:000839B0 11686 0001:000839CA 11687 0001:000839E7 11688 0001:000839FB
 11690 0001:00083A17 11691 0001:00083A3D 11692 0001:00083A63 11694 0001:00083A89
 11699 0001:00083AB1 11700 0001:00083AC5 11701 0001:00083ACD 11707 0001:00083B50
 11708 0001:00083B6A 11709 0001:00083B87 11710 0001:00083B9B 11713 0001:00083BC4
 11714 0001:00083BEA 11715 0001:00083C10 11716 0001:00083C36 11720 0001:00083C60
 11721 0001:00083C74 11722 0001:00083C7C 11728 0001:00083CFC 11729 0001:00083D18
 11730 0001:00083D35 11731 0001:00083D49 11734 0001:00083D72 11735 0001:00083D98
 11736 0001:00083DBE 11737 0001:00083DE4 11738 0001:00083E0A 11743 0001:00083E3B
 11744 0001:00083E4F 11745 0001:00083E57 11747 0001:00083EF0 11766 0001:00083F03
 11767 0001:00083F1A 11768 0001:00083F23 11769 0001:00083F3A 11781 0001:00083F43
 11782 0001:00083F5A 11783 0001:00083F63 11784 0001:00083F7A 11856 0001:00083F81
 11858 0001:00084038 11859 0001:00084054 11860 0001:0008405D 11862 0001:0008406D
 11863 0001:00084086 11864 0001:0008409A 11865 0001:000840A8 11866 0001:000840B3
 11868 0001:000840B9 11869 0001:000840C0 11872 0001:000840DA 11874 0001:000840EA
 11877 0001:00084118 11882 0001:00084146 11885 0001:0008414D 11887 0001:00084164
 11889 0001:0008419F 11890 0001:000841AD 11891 0001:000841B7 11892 0001:000841C2
 11894 0001:000841C6 11895 0001:000841CB 11897 0001:000841E2 11901 0001:000841F4
 11905 0001:000841FE 11906 0001:00084206 11907 0001:0008420F 11909 0001:0008421D
 11911 0001:0008422F 11912 0001:00084237 11915 0001:00084241 11917 0001:0008424A
 11920 0001:00084252 11921 0001:00084259 11923 0001:0008425F 11925 0001:0008426D
 11926 0001:00084284 11930 0001:0008429C 11932 0001:000842B5 11935 0001:000842C8
 11936 0001:000842CF 11937 0001:000842E0 11938 0001:000842E7 11940 0001:000842F0
 11941 0001:000842F4 11942 0001:0008430D 11943 0001:00084313 11947 0001:00084326
 11948 0001:00084337 11949 0001:0008433D 11952 0001:0008434E 11953 0001:00084358
 11955 0001:0008435E 11958 0001:00084379 11959 0001:0008438C 11963 0001:000843C0
 11966 0001:000843DC 11967 0001:000843E7 11971 0001:00084419 11975 0001:00084420
 11976 0001:00084426 11977 0001:00084436 11980 0001:0008443B 11981 0001:0008446C
 11984 0001:00084472 11985 0001:00084477 11986 0001:00084487 11989 0001:0008448C
 11990 0001:000844BD 11992 0001:000844C2 11993 0001:000844C8 11995 0001:000844D3
 11998 0001:000844DB 11999 0001:000844E7 12002 0001:00084511 12004 0001:0008451B
 12011 0001:00084531 12013 0001:0008453E 12014 0001:00084547 12016 0001:00084552
 12020 0001:0008455D 12023 0001:0008456E 12024 0001:00084572 12026 0001:0008457D
 12028 0001:00084586 12029 0001:00084592 12031 0001:0008459A 12036 0001:000845A0
 12038 0001:000845AB 12039 0001:000845B3 12042 0001:000845DD 12045 0001:000845EC
 12047 0001:000845F7 12048 0001:000845FF 12049 0001:00084607 12051 0001:00084610
 12052 0001:0008461A 12053 0001:00084620 12054 0001:00084630 12055 0001:00084635
 12057 0001:00084667 12058 0001:00084673 12060 0001:00084693 12062 0001:0008469E
 12063 0001:000846A7 12065 0001:000846B1 12066 0001:000846BD 12069 0001:000846E2
 12082 0001:00084704 12083 0001:0008470D 12086 0001:00084717 12087 0001:00084723
 12090 0001:00084745 12093 0001:00084765 12094 0001:0008476C 12096 0001:00084789
 12098 0001:0008478B 12099 0001:00084792 12100 0001:0008479A 12101 0001:000847A4
 12103 0001:000847A9 12105 0001:000847B1 12106 0001:000847BD 12115 0001:000847F1
 12118 0001:00084990 12121 0001:000849AE 12122 0001:000849B7 12125 0001:000849E0
 12126 0001:000849E4 12128 0001:000849F6 12134 0001:000849FB 12139 0001:00084A54
 12141 0001:00084A5B 12144 0001:00084A61 12145 0001:00084A69 12146 0001:00084A6E
 12154 0001:00084A92 12158 0001:00084AB0 12159 0001:00084AB7 12161 0001:00084ABE
 12162 0001:00084AC0 12168 0001:00084AC4 12170 0001:00084AD2 12173 0001:00084ADB
 12174 0001:00084ADF 12177 0001:00084AE5 12179 0001:00084AE9 12180 0001:00084AED
 12182 0001:00084AEF 12184 0001:00084AF1 12185 0001:00084AF6 12187 0001:00084B0B
 12189 0001:00084B15 12190 0001:00084B25 12192 0001:00084B2C 12193 0001:00084B31
 12200 0001:00084B54 12206 0001:00084B60 12208 0001:00084B68 12211 0001:00084B6E
 12213 0001:00084B74 12214 0001:00084B79 12216 0001:00084B8B 12218 0001:00084B90
 12222 0001:00084B95 12223 0001:00084BB8 12228 0001:00084BBD 12236 0001:00084BC6
 12239 0001:00084BCC 12240 0001:00084BE9 12241 0001:00084BED 12242 0001:00084C1C
 12243 0001:00084C27 12244 0001:00084C29 12247 0001:00084C58 12248 0001:00084C6F
 12249 0001:00084C8B 12250 0001:00084C8D 12261 0001:00084CB4 12262 0001:00084CBB
 12264 0001:00084CBD 12265 0001:00084CC4 12266 0001:00084CCD 12268 0001:00084CDB
 12269 0001:00084CE7 12271 0001:00084CF6 12273 0001:00084D09 12274 0001:00084D0E
 12277 0001:00084D1B 12278 0001:00084D20 12280 0001:00084D2A 12284 0001:00084D2C
 12286 0001:00084D31 12287 0001:00084D39 12292 0001:00084D58 12294 0001:00084D64
 12295 0001:00084D69 12300 0001:00084D76 12302 0001:00084D80 12303 0001:00084D86
 12305 0001:00084D90 12306 0001:00084D9C 12307 0001:00084DA1 12310 0001:00084DD3
 12313 0001:00084DDA 12317 0001:00084DE1 12318 0001:00084DEA 12320 0001:00084DF4
 12321 0001:00084E00 12324 0001:00084E22 12328 0001:00084E5D 12330 0001:00084E5F
 12331 0001:00084E66 12332 0001:00084E6E 12333 0001:00084E78 12341 0001:00084E82
 12353 0001:00084EF4 12354 0001:00084F15 12359 0001:00084F17 12360 0001:00084F20
 12361 0001:00084F2E 12362 0001:00084F36 12364 0001:00084F96 12366 0001:00084FA5
 12367 0001:00084FB0 12370 0001:00084FBD 12372 0001:00084FC7 12374 0001:00084FD6
 12375 0001:00084FE1 12378 0001:00084FEE 12380 0001:00084FF8 12382 0001:00085005
 12383 0001:00085011 12386 0001:0008501E 12388 0001:00085028 12391 0001:00085043
 12393 0001:00085052 12400 0001:00085062 12403 0001:0008506C 12404 0001:00085073
 12406 0001:0008507B 12407 0001:0008508B 12411 0001:000850B1 12413 0001:000850BB
 12415 0001:000850CA 12416 0001:000850D5 12419 0001:000850E2 12421 0001:000850EC
 12423 0001:000850F7 12425 0001:00085104 12426 0001:0008510A 12427 0001:00085111
 12429 0001:00085115 12430 0001:0008512C 12431 0001:00085131 12432 0001:00085163
 12434 0001:0008516D 12435 0001:00085192 12439 0001:000851F4 12441 0001:000851FE
 12443 0001:0008520D 12444 0001:0008521F 12446 0001:00085227 12447 0001:00085237
 12451 0001:0008525A 12453 0001:00085264 12457 0001:0008527F 12459 0001:0008528E
 12460 0001:0008529F 12462 0001:000852A7 12463 0001:000852B7 12467 0001:000852DA
 12470 0001:000852E4 12473 0001:000852EB 12475 0001:00085309 12476 0001:00085319
 12480 0001:00085369 12482 0001:00085373 12484 0001:00085382 12485 0001:0008538E
 12488 0001:0008539B 12490 0001:000853A5 12493 0001:000853C0 12496 0001:000853C7
 12498 0001:000853E5 12499 0001:000853F5 12503 0001:00085445 12505 0001:0008544F
 12508 0001:00085456 12510 0001:00085474 12511 0001:00085484 12515 0001:000854D4
 12517 0001:000854DE 12520 0001:000854F6 12525 0001:0008550E 12528 0001:00085526
 12532 0001:0008553E 12538 0001:000855A6 12539 0001:000855AE 12540 0001:000855B5
 12544 0001:000855BC 12545 0001:000855C4 12549 0001:000855CB 12550 0001:000855D3
 12551 0001:000855DA 12553 0001:000855E1 12555 0001:000855E3 12556 0001:000855EA
 12557 0001:000855F2 12558 0001:000855F9 12559 0001:00085603 12567 0001:0008560D
 12575 0001:00085C80 12576 0001:00085CA2 12577 0001:00085CA7 12583 0001:00085CB0
 12584 0001:00085CBC 12586 0001:00085CDB 12588 0001:00085CDF 12589 0001:00085CE9
 12590 0001:00085CF0 12592 0001:00085CF5 12593 0001:00085D09 12594 0001:00085D0F
 12595 0001:00085D13 12596 0001:00085D21 12598 0001:00085D37 12600 0001:00085D48
 12601 0001:00085D54 12606 0001:00085D93 12609 0001:00085D99 12612 0001:00085DAE
 12614 0001:00085DBB 12618 0001:00085DBF 12619 0001:00085DC6 12622 0001:00085DCD
 12624 0001:00085DD0 12629 0001:00085E89 12632 0001:00085E9C 12633 0001:00085EA3
 12634 0001:00085EAA 12637 0001:00085EB1 12646 0001:00085ED1 12647 0001:00085EDA
 12650 0001:00085EDF 12652 0001:00085EE7 12653 0001:00085EF0 12654 0001:00085EF7
 12662 0001:00085F06 12665 0001:00085F19 12666 0001:00085F20 12667 0001:00085F27
 12670 0001:00085F2E 12679 0001:00085F4E 12680 0001:00085F57 12683 0001:00085F5C
 12685 0001:00085F64 12686 0001:00085F6D 12688 0001:00085F74 12693 0001:00085F83
 12697 0001:00085F8D 12701 0001:00085F99 12705 0001:00085FA9 12714 0001:00085FB9
 12717 0001:00085FDA 12719 0001:00085FED 12720 0001:00085FF2 12722 0001:00086014
 12723 0001:00086017 12725 0001:0008603C 12726 0001:0008603F 12727 0001:00086047
 12728 0001:0008604F 12729 0001:00086057 12730 0001:0008605F 12731 0001:00086067
 12732 0001:0008606F 12735 0001:00086082 12736 0001:00086087 12740 0001:000860D1
 12741 0001:000860DB 12742 0001:000860DF 12743 0001:000860E7 12745 0001:000860F0
 12747 0001:000860F4 12748 0001:000860FC 12750 0001:000860FF 12756 0001:0008610D
 12757 0001:00086117 12758 0001:0008611B 12759 0001:00086123 12761 0001:0008612C
 12763 0001:00086130 12764 0001:00086138 12766 0001:0008613E 12768 0001:00086144
 12770 0001:00086147 12773 0001:0008614A 12777 0001:00086158 12781 0001:0008615F
 12782 0001:00086168 12783 0001:0008616F 12788 0001:00086194 12790 0001:00086196
 12791 0001:0008619D 12792 0001:000861A6 12793 0001:000861B0 12801 0001:000861BC
 12804 0001:000862F0 12805 0001:000862F6 12807 0001:000862F8 12812 0001:00086300
 12818 0001:00086308 12819 0001:00086310 12821 0001:00086317 12822 0001:00086320
 12821 0001:00086330 12823 0001:00086335 12826 0001:0008633D 12828 0001:00086342
 12829 0001:00086353 12830 0001:0008635F 12832 0001:00086367 12833 0001:00086375
 12834 0001:00086381 12835 0001:00086388 12830 0001:00086389 12837 0001:0008638C
 12843 0001:00086394 12844 0001:0008639C 12845 0001:000863A3 12846 0001:000863AE
 12848 0001:000863B6 12849 0001:000863BD 12850 0001:000863C3 12852 0001:000863CA
 12853 0001:000863D8 12854 0001:000863E4 12855 0001:000863EB 12850 0001:000863EC
 12857 0001:000863EF 12862 0001:000863F4 12863 0001:0008641F 12870 0001:00086421
 12872 0001:00086425 12873 0001:0008642A 12875 0001:0008642F 12876 0001:0008643B
 12878 0001:00086449 12881 0001:00086471 12884 0001:00086479 12885 0001:00086480
 12886 0001:0008648A 12888 0001:00086490 12890 0001:0008649D 12891 0001:000864B4
 12895 0001:000864CC 12897 0001:000864E4 12900 0001:000864F7 12901 0001:000864FB
 12902 0001:0008650C 12904 0001:00086513 12905 0001:00086519 12907 0001:00086525
 12909 0001:00086532 12910 0001:0008653D 12922 0001:0008654C 12923 0001:00086565
 12925 0001:0008656B 12926 0001:0008657C 12928 0001:0008658D 12930 0001:00086595
 12932 0001:0008659B 12933 0001:000865BB 12935 0001:000865C4 12936 0001:000865DA
 12941 0001:0008660F 12942 0001:0008662E 12943 0001:00086633 12946 0001:00086666
 12950 0001:00086672 12951 0001:00086683 12952 0001:00086689 12953 0001:0008669A
 12954 0001:000866A8 12956 0001:000866B0 12958 0001:000866B6 12959 0001:000866D6
 12961 0001:000866DF 12962 0001:000866F5 12967 0001:0008672A 12968 0001:00086749
 12969 0001:0008674E 12972 0001:00086781 12976 0001:000867A3 12978 0001:000867A5
 12979 0001:000867AC 12980 0001:000867B6 12982 0001:000867BB 12990 0001:000867C8
 12993 0001:00086828 12996 0001:0008684D 12997 0001:00086856 12999 0001:0008688C
 13001 0001:00086890 13002 0001:00086895 13004 0001:00086897 13009 0001:000868B3
 13026 0001:00086914 13027 0001:0008691C 13028 0001:00086929 13030 0001:0008692E
 13031 0001:00086930 13033 0001:00086934 13034 0001:0008693B 13036 0001:00086943
 13038 0001:00086957 13039 0001:00086965 13040 0001:00086977 13042 0001:0008697E
 13034 0001:0008697F 13044 0001:00086982 13070 0001:00086988 13071 0001:000869A8
 13076 0001:000869AA 13077 0001:000869B3 13078 0001:000869C1 13083 0001:00086A19
 13084 0001:00086A22 13086 0001:00086A2D 13087 0001:00086A39 13089 0001:00086A42
 13090 0001:00086A48 13091 0001:00086A51 13092 0001:00086A69 13093 0001:00086A70
 13096 0001:00086A7F 13098 0001:00086AA3 13099 0001:00086AA7 13100 0001:00086AAE
 13102 0001:00086ACA 13104 0001:00086AE4 13106 0001:00086AE9 13107 0001:00086AF0
 13108 0001:00086AFD 13109 0001:00086B04 13111 0001:00086B35 13113 0001:00086B42
 13115 0001:00086B48 13117 0001:00086B52 13119 0001:00086B68 13121 0001:00086B71
 13123 0001:00086B78 13124 0001:00086B7F 13133 0001:00086BB2 13135 0001:00086BB8
 13137 0001:00086BCE 13139 0001:00086BD3 13140 0001:00086BDA 13141 0001:00086BE1
 13151 0001:00086C13 13160 0001:00086C21 13162 0001:00086C2A 13163 0001:00086C3A
 13168 0001:00086C5D 13170 0001:00086C6C 13171 0001:00086C82 13173 0001:00086C8E
 13177 0001:00086C99 13183 0001:00086CB4 13185 0001:00086CBD 13187 0001:00086CCA
 13189 0001:00086CD4 13190 0001:00086CE4 13195 0001:00086D08 13199 0001:00086D23
 13203 0001:00086D3E 13204 0001:00086D52 13205 0001:00086D57 13207 0001:00086D89
 13208 0001:00086D99 13213 0001:00086DFA 13214 0001:00086E01 13216 0001:00086E0D
 13218 0001:00086E15 13219 0001:00086E25 13223 0001:00086E4C 13232 0001:00086E67
 13234 0001:00086E7A 13235 0001:00086E8A 13240 0001:00086EDA 13243 0001:00086EE8
 13247 0001:00086F03 13249 0001:00086F16 13250 0001:00086F26 13255 0001:00086F76
 13257 0001:00086F8F 13258 0001:00086F9F 13262 0001:00086FEC 13265 0001:00087004
 13269 0001:0008701C 13274 0001:00087071 13275 0001:00087078 13277 0001:0008707A
 13278 0001:00087081 13279 0001:0008708B 13287 0001:00087095 13320 0001:0008777C
 13334 0001:0008777F 13335 0001:00087791 13337 0001:00087795 13338 0001:0008779E
 13340 0001:000877A5 13341 0001:000877AA 13342 0001:000877B9 13345 0001:000877D3
 13347 0001:000877DC 13348 0001:000877EA 13352 0001:000877F8 13355 0001:00087807
 13358 0001:0008780C 13359 0001:00087811 13363 0001:00087827 13364 0001:00087830
 13365 0001:00087839 13367 0001:0008784D 13368 0001:0008785F 13370 0001:0008786D
 13371 0001:0008787C 13372 0001:00087891 13373 0001:000878A3 13376 0001:000878C0
 13384 0001:000878C4 13385 0001:000878CA 13386 0001:000878DA 13387 0001:00087901
 13388 0001:00087905 13390 0001:00087918 13391 0001:00087923 13393 0001:00087928
 13394 0001:0008793D 13396 0001:00087946 13400 0001:0008796F 13404 0001:00087985
 13405 0001:00087991 13406 0001:0008799A 13408 0001:000879A8 13411 0001:000879B4
 13414 0001:000879E0 13415 0001:00087A2F 13417 0001:00087A31 13425 0001:00087A38
 13426 0001:00087A44 13427 0001:00087A58 13428 0001:00087A5E 13430 0001:00087A62
 13434 0001:00087A67 13437 0001:00087A6B 13438 0001:00087A75 13441 0001:00087A87
 13444 0001:00087A97 13448 0001:00087AA3 13452 0001:00087AAF 13453 0001:00087AB9
 13457 0001:00087AC2 13458 0001:00087AC9 13459 0001:00087AD0 13463 0001:00087ADC
 13468 0001:00087AF2 13469 0001:00087B07 13471 0001:00087B13 13472 0001:00087B1E
 13474 0001:00087B29 13475 0001:00087B31 13476 0001:00087B3A 13477 0001:00087B47
 13479 0001:00087B5E 13480 0001:00087B6A 13483 0001:00087B71 13484 0001:00087B7D
 13486 0001:00087B8E 13488 0001:00087B99 13489 0001:00087B9F 13491 0001:00087BA9
 13492 0001:00087BAD 13513 0001:00087C59 13520 0001:00087C77 13523 0001:00087C7F
 13524 0001:00087C85 13525 0001:00087C8B 13526 0001:00087C91 13529 0001:00087C97
 13530 0001:00087C9D 13532 0001:00087CA2 13535 0001:00087CAC 13537 0001:00087CB6
 13540 0001:00087CC2 13541 0001:00087CC8 13543 0001:00087CD5 13544 0001:00087CE0
 13545 0001:00087CE8 13548 0001:00087CF0 13551 0001:00087CFF 13552 0001:00087D05
 13554 0001:00087D2E 13558 0001:00087D57 13561 0001:00087D5D 13564 0001:00087D64
 13570 0001:00087D67 13573 0001:00087D73 13577 0001:00087D88 13578 0001:00087D8D
 13579 0001:00087D94 13587 0001:00087D9E 13590 0001:00087DA4 13600 0001:00087DAD
 13601 0001:00087DB3 13603 0001:00087DBE 13607 0001:00087DC9 13608 0001:00087DD2
 13609 0001:00087DD8 13611 0001:00087DE3 13618 0001:00087DEC 13620 0001:00087DF2
 13632 0001:00087E38 13633 0001:00087E3D 13634 0001:00087E42 13635 0001:00087E49
 13640 0001:00087E55 13643 0001:00087E70 13644 0001:00087E78 13645 0001:00087E7F
 13646 0001:00087E84 13650 0001:00087E8C 13651 0001:00087E94 13659 0001:00087E9B
 13661 0001:00087EB8 13663 0001:00087EBE 13664 0001:00087EC5 13665 0001:00087ED0
 13666 0001:00087EDB 13668 0001:00087EE2 13670 0001:00087EE8 13671 0001:00087EEF
 13672 0001:00087EF9 13674 0001:00087EFE 13677 0001:00087F19 13678 0001:00087F21
 13679 0001:00087F28 13680 0001:00087F2D 13684 0001:00087F35 13685 0001:00087F3D
 13686 0001:00087F44 13687 0001:00087F4A 13689 0001:00087F52 13693 0001:00087F56
 13695 0001:00087F5C 13696 0001:00087F63 13698 0001:00087F69 13699 0001:00087F78
 13704 0001:00087F86 13705 0001:00087F8C 13711 0001:00087F94 13713 0001:00087F9A
 13714 0001:00087FA0 13724 0001:00087FA6 13726 0001:00087FB1 13728 0001:00087FBD
 13730 0001:00087FCB 13733 0001:00087FE7 13736 0001:00087FF3 13741 0001:00087FFE
 13742 0001:0008800A 13761 0001:00088015 13764 0001:00088031 13767 0001:0008803D
 13772 0001:00088048 13773 0001:00088054 13778 0001:0008805D 13780 0001:0008807A
 13781 0001:00088089 13786 0001:00088093 13787 0001:0008809A 13789 0001:000880A5
 13790 0001:000880AE 13791 0001:000880B7 13792 0001:000880C1 13794 0001:000880CB
 13795 0001:000880D5 13800 0001:000880E5 13801 0001:000880EC 13803 0001:000880F7
 13804 0001:00088100 13805 0001:00088109 13806 0001:00088113 13808 0001:0008811D
 13809 0001:00088127 13814 0001:00088139 13815 0001:00088140 13817 0001:0008814B
 13818 0001:00088154 13819 0001:0008815D 13820 0001:00088167 13822 0001:00088171
 13823 0001:0008817B 13832 0001:00088191 13833 0001:0008819A 13834 0001:000881A3
 13835 0001:000881AD 13837 0001:000881B7 13838 0001:000881C1 13848 0001:000881D7
 13851 0001:000881E6 13852 0001:000881F4 13856 0001:000881FD 13857 0001:00088206
 13860 0001:0008820F 13861 0001:00088219 13863 0001:00088223 13864 0001:0008822D
 13873 0001:0008823A 13874 0001:00088255 13875 0001:00088260 13876 0001:0008826B
 13881 0001:0008827B 13884 0001:0008828A 13885 0001:00088298 13889 0001:000882A1
 13890 0001:000882AA 13893 0001:000882B3 13894 0001:000882BD 13897 0001:000882C7
 13898 0001:000882D8 13899 0001:000882E2 13900 0001:000882F4 13901 0001:0008830E
 13906 0001:00088325 13909 0001:00088334 13910 0001:00088342 13914 0001:0008834B
 13915 0001:00088354 13918 0001:0008835D 13919 0001:00088367 13920 0001:00088370
 13923 0001:00088383 13924 0001:0008838D 13926 0001:00088396 13928 0001:000883A9
 13929 0001:000883B3 13930 0001:000883B9 13931 0001:000883C1 13932 0001:000883C9
 13933 0001:000883D1 13934 0001:000883D9 13936 0001:000883E1 13937 0001:00088410
 13946 0001:0008841F 13947 0001:00088428 13948 0001:00088431 13949 0001:0008843B
 13950 0001:00088444 13953 0001:00088457 13954 0001:00088461 13956 0001:0008846A
 13959 0001:0008847A 13960 0001:00088488 13961 0001:0008849A 13962 0001:000884A6
 13963 0001:000884BA 13964 0001:000884D2 13965 0001:000884D9 13966 0001:000884E1
 13967 0001:000884E9 13968 0001:000884F1 13969 0001:000884F9 13971 0001:00088501
 13972 0001:00088529 13978 0001:0008853B 13979 0001:00088544 13980 0001:0008854D
 13981 0001:0008855C 13982 0001:00088565 13983 0001:0008856E 13984 0001:00088579
 13986 0001:00088596 13987 0001:000885A0 13995 0001:000885CD 13996 0001:000885D4
 13997 0001:000885DE 14003 0001:0008860B 14004 0001:00088615 14010 0001:00088623
 14011 0001:0008862C 14012 0001:00088635 14013 0001:0008863F 14015 0001:00088649
 14016 0001:00088653 14017 0001:0008865B 14019 0001:00088667 14040 0001:00088673
 14041 0001:00088682 14042 0001:00088688 14045 0001:000886BF 14046 0001:000886C5
 14047 0001:000886CB 14048 0001:000886D1 14049 0001:000886D8 14050 0001:000886E1
 14052 0001:000886EA 14053 0001:000886F5 14060 0001:00088704 14061 0001:0008870D
 14063 0001:00088717 14064 0001:00088720 14065 0001:00088729 14066 0001:0008872E
 14068 0001:00088734 14070 0001:0008873A 14071 0001:00088741 14073 0001:0008874B
 14074 0001:00088751 14076 0001:00088757 14077 0001:0008875E 14078 0001:00088765
 14084 0001:00088771 14086 0001:00088779 14088 0001:0008877F 14089 0001:00088786
 14090 0001:0008878D 14092 0001:00088797 14095 0001:0008879D 14099 0001:000887A8
 14100 0001:000887B1 14101 0001:000887BA 14103 0001:000887C0 14104 0001:000887C6
 14105 0001:000887D1 14106 0001:000887DA 14107 0001:000887E3 14108 0001:000887E9
 14112 0001:000887F2 14114 0001:000887F7 14115 0001:00088807 14116 0001:0008880D
 14117 0001:00088814 14118 0001:0008881C 14120 0001:00088827 14121 0001:00088832
 14123 0001:00088838 14125 0001:0008884A 14126 0001:0008884F 14127 0001:00088856
 14131 0001:00088860 14133 0001:0008887D 14135 0001:00088883 14136 0001:00088887
 14137 0001:00088890 14139 0001:00088899 14141 0001:0008889F 14142 0001:000888C0
 14143 0001:000888CB 14145 0001:000888D6 14147 0001:000888DC 14148 0001:000888E3
 14149 0001:000888E8 14151 0001:000888F4 14153 0001:000888FA 14157 0001:000888FF
 14158 0001:0008890B 14159 0001:00088915 14161 0001:0008891F 14166 0001:00088938
 14173 0001:00088953 14174 0001:00088959 14175 0001:0008895F 14176 0001:00088965
 14177 0001:0008896C 14178 0001:00088973 14180 0001:0008897E 14181 0001:00088987
 14182 0001:00088990 14183 0001:0008899B 14188 0001:000889A7 14190 0001:000889B6
 14191 0001:000889BF 14192 0001:000889C8 14193 0001:000889D2 14195 0001:000889D8
 14196 0001:000889E2 14200 0001:000889EF 14213 0001:000889F5 14216 0001:000889F9
 14217 0001:000889FF 14220 0001:00088A39 14221 0001:00088A45 14224 0001:00088A54
 14226 0001:00088A5C 14228 0001:00088A68 14229 0001:00088A74 14232 0001:00088ABB
 14233 0001:00088ABD 14238 0001:00088ACA 14239 0001:00088AD6 14244 0001:00088B1D
 14247 0001:00088B2D 14248 0001:00088B36 14265 0001:00088B3E 14275 0001:00088B92
 14276 0001:00088B97 14278 0001:00088C16 14282 0001:00088C40 14283 0001:00088C47
 14285 0001:00088C49 14286 0001:00088C50 14287 0001:00088C5A 14295 0001:00088C64
 14300 0001:00088F78 14302 0001:00088F90 14303 0001:00088F99 14304 0001:00088F9D
 14305 0001:00088FA4 14306 0001:00088FB3 14311 0001:00088FB6 14314 0001:00088FD4
 14316 0001:00088FDF 14317 0001:00088FE7 14322 0001:00088FF2 14328 0001:00089000
 14329 0001:00089012 14331 0001:00089014 14333 0001:0008901B 14334 0001:0008902A
 14337 0001:00089046 14338 0001:00089060 14340 0001:0008906E 14342 0001:0008907D
 14345 0001:000890AB 14346 0001:000890BA 14349 0001:000890CE 14351 0001:000890FB
 14353 0001:000890FD 14354 0001:00089104 14355 0001:0008910C 14356 0001:00089114
 14357 0001:0008911F 14358 0001:0008912D 14366 0001:00089137 14369 0001:00089144
 14370 0001:00089161 14372 0001:00089165 14373 0001:0008916A 14375 0001:0008916C
 14376 0001:00089198 14377 0001:000891A0 14378 0001:000891A2 14381 0001:000891D4
 14382 0001:000891EB 14383 0001:00089204 14384 0001:00089206 14390 0001:0008922C
 14391 0001:0008923E 14393 0001:00089240 14395 0001:00089247 14396 0001:00089256
 14399 0001:00089272 14400 0001:0008928C 14402 0001:0008929A 14404 0001:000892A9
 14405 0001:000892B2 14408 0001:000892E0 14409 0001:000892EF 14412 0001:00089303
 14414 0001:00089330 14416 0001:00089332 14417 0001:00089339 14418 0001:00089341
 14419 0001:00089349 14420 0001:00089354 14421 0001:00089362 14429 0001:0008936C
 14432 0001:00089378 14433 0001:00089386 14435 0001:0008938B 14440 0001:00089392
 14446 0001:00089398 14447 0001:000893A1 14452 0001:000893A3 14453 0001:000893B1
 14455 0001:000893CB 14458 0001:000893EA 14462 0001:00089406 14466 0001:00089422
 14467 0001:0008942E 14470 0001:00089444 14472 0001:00089449 14473 0001:0008944F
 14477 0001:00089459 14478 0001:00089461 14484 0001:00089468 14489 0001:000894AB
 14490 0001:000894B3 14494 0001:000894BA 14495 0001:000894C2 14497 0001:000894C9
 14499 0001:000894CB 14500 0001:000894D2 14501 0001:000894DA 14502 0001:000894E5
 14503 0001:000894F3 14511 0001:000894FD 14517 0001:00089508 14518 0001:0008951A
 14520 0001:0008951C 14522 0001:00089523 14523 0001:00089532 14526 0001:0008954E
 14527 0001:00089568 14529 0001:00089576 14531 0001:00089585 14534 0001:000895AF
 14535 0001:000895BE 14538 0001:000895D2 14540 0001:000895FF 14542 0001:00089601
 14543 0001:00089608 14544 0001:00089610 14545 0001:00089618 14546 0001:00089623
 14547 0001:00089631 14555 0001:0008963B 14561 0001:00089648 14562 0001:0008965A
 14564 0001:0008965C 14566 0001:00089663 14567 0001:00089672 14570 0001:0008968E
 14571 0001:000896A8 14573 0001:000896B6 14575 0001:000896C5 14577 0001:000896D3
 14578 0001:000896E2 14581 0001:000896F6 14583 0001:00089723 14585 0001:00089725
 14586 0001:0008972C 14587 0001:00089734 14588 0001:0008973C 14589 0001:00089747
 14590 0001:00089755 14598 0001:0008975F 14604 0001:0008976C 14605 0001:00089773
 14609 0001:00089775 14611 0001:0008977C 14612 0001:0008978B 14615 0001:000897AA
 14616 0001:000897C7 14617 0001:000897D5 14620 0001:000897F0 14621 0001:000897FF
 14624 0001:00089813 14627 0001:00089840 14629 0001:00089842 14630 0001:00089849
 14631 0001:00089851 14632 0001:00089858 14633 0001:00089863 14634 0001:00089871
 14642 0001:0008987B 14646 0001:00089888 14650 0001:0008989A 14655 0001:000898B2
 14675 0001:000898B8 14676 0001:000898D2 14681 0001:000898D4 14682 0001:000898E2
 14684 0001:0008993A 14687 0001:0008996F 14688 0001:00089982 14690 0001:000899A0
 14693 0001:000899BB 14697 0001:000899D6 14701 0001:000899F1 14704 0001:00089A0C
 14707 0001:00089A27 14710 0001:00089A42 14713 0001:00089A5D 14716 0001:00089A78
 14719 0001:00089A93 14722 0001:00089AAB 14725 0001:00089AC3 14728 0001:00089ADB
 14731 0001:00089AF3 14735 0001:00089B0B 14740 0001:00089B4F 14742 0001:00089B56
 14743 0001:00089B5D 14745 0001:00089B5F 14746 0001:00089B66 14747 0001:00089B71
 14748 0001:00089B7F 14756 0001:00089B89 14761 0001:0008A4A4 14763 0001:0008A4B9
 14764 0001:0008A4C2 14766 0001:0008A4C6 14767 0001:0008A4C9 14768 0001:0008A4CF
 14769 0001:0008A4D5 14770 0001:0008A4DB 14771 0001:0008A4DF 14773 0001:0008A4EF
 14774 0001:0008A4F9 14775 0001:0008A502 14777 0001:0008A50B 14778 0001:0008A51D
 14780 0001:0008A525 14782 0001:0008A52C 14788 0001:0008A533 14793 0001:0008A550
 14795 0001:0008A556 14801 0001:0008A55C 14802 0001:0008A566 14803 0001:0008A56F
 14805 0001:0008A578 14807 0001:0008A581 14808 0001:0008A586 14809 0001:0008A58B
 14811 0001:0008A595 14814 0001:0008A59F 14815 0001:0008A5A8 14817 0001:0008A5B1
 14823 0001:0008A5B6 14829 0001:0008A5BC 14833 0001:0008A5E2 14834 0001:0008A5EB
 14837 0001:0008A62B 14839 0001:0008A634 14841 0001:0008A63B 14843 0001:0008A644
 14844 0001:0008A650 14845 0001:0008A65C 14846 0001:0008A663 14841 0001:0008A664
 14847 0001:0008A669 14850 0001:0008A671 14851 0001:0008A685 14853 0001:0008A69D
 14858 0001:0008A6AB 14862 0001:0008A71C 14863 0001:0008A720 14865 0001:0008A740
 14871 0001:0008A748 14872 0001:0008A74C 14873 0001:0008A885 14874 0001:0008A894
 14875 0001:0008A8A3 14876 0001:0008A8B2 14877 0001:0008A8C1 14878 0001:0008A8D0
 14879 0001:0008A8DF 14880 0001:0008A8EE 14881 0001:0008A8FD 14882 0001:0008A90C
 14883 0001:0008A91B 14884 0001:0008A92A 14885 0001:0008A939 14886 0001:0008A948
 14887 0001:0008A957 14888 0001:0008A966 14889 0001:0008A975 14890 0001:0008A984
 14891 0001:0008A993 14892 0001:0008A9A2 14893 0001:0008A9B1 14894 0001:0008A9C0
 14895 0001:0008A9CF 14896 0001:0008A9DE 14897 0001:0008A9ED 14898 0001:0008A9FC
 14899 0001:0008AA0B 14900 0001:0008AA1A 14901 0001:0008AA29 14902 0001:0008AA38
 14903 0001:0008AA47 14904 0001:0008AA56 14905 0001:0008AA65 14906 0001:0008AA74
 14907 0001:0008AA83 14908 0001:0008AA92 14909 0001:0008AAA1 14910 0001:0008AAB0
 14911 0001:0008AABF 14914 0001:0008AACE 14915 0001:0008AAD0 14916 0001:0008AAD9
 14919 0001:0008AB14 14920 0001:0008AB16 14924 0001:0008AB27 14925 0001:0008AB29
 14929 0001:0008AB3A 14930 0001:0008AB3C 14934 0001:0008AB4D 14935 0001:0008AB4F
 14939 0001:0008AB5D 14940 0001:0008AB5F 14944 0001:0008AB6D 14945 0001:0008AB6F
 14949 0001:0008AB7D 14950 0001:0008AB7F 14954 0001:0008AB8D 14955 0001:0008AB8F
 14959 0001:0008AB9D 14960 0001:0008AB9F 14964 0001:0008ABAD 14965 0001:0008ABAF
 14968 0001:0008ABBD 14969 0001:0008ABC2 14972 0001:0008ABC9 14973 0001:0008ABCB
 14976 0001:0008ABD7 14977 0001:0008ABDB 14980 0001:0008ABE7 14983 0001:0008B1E8
 14984 0001:0008B201 14985 0001:0008B34D 14986 0001:0008B35E 14987 0001:0008B36F
 14988 0001:0008B380 14989 0001:0008B391 14990 0001:0008B3A2 14991 0001:0008B3B3
 14992 0001:0008B3C4 14993 0001:0008B3D5 14994 0001:0008B3E6 14995 0001:0008B3F7
 14996 0001:0008B408 14997 0001:0008B419 14998 0001:0008B42A 14999 0001:0008B43B
 15000 0001:0008B44C 15001 0001:0008B45D 15002 0001:0008B46E 15003 0001:0008B47F
 15004 0001:0008B490 15005 0001:0008B4A1 15006 0001:0008B4B2 15007 0001:0008B4C3
 15008 0001:0008B4D4 15009 0001:0008B4E5 15010 0001:0008B4F6 15011 0001:0008B507
 15012 0001:0008B518 15013 0001:0008B529 15014 0001:0008B53A 15015 0001:0008B54B
 15016 0001:0008B55C 15017 0001:0008B56A 15018 0001:0008B578 15019 0001:0008B586
 15020 0001:0008B594 15021 0001:0008B5A2 15022 0001:0008B5B0 15024 0001:0008B5BE
 15026 0001:0008B5CC 15028 0001:0008B5E5 15057 0001:0008BAB8 15058 0001:0008BABC
 15060 0001:0008BAC8 15062 0001:0008BADE 15064 0001:0008BAE6 15074 0001:0008BB13
 15075 0001:0008BB26 15077 0001:0008BB34 15078 0001:0008BB3E 15083 0001:0008BB81
 15085 0001:0008BB84 15089 0001:0008BBA8 15090 0001:0008BBB4 15093 0001:0008BBE2
 15094 0001:0008BBE7 15095 0001:0008BBEB 15096 0001:0008BBF7 15097 0001:0008BC05
 15098 0001:0008BC12 15100 0001:0008BC1E 15101 0001:0008BC36 15102 0001:0008BC3D
 15104 0001:0008BC70 15106 0001:0008BC79 15107 0001:0008BC8B 15106 0001:0008BCA1
 15108 0001:0008BCA7 15110 0001:0008BCB2 15111 0001:0008BCC4 15112 0001:0008BCD6
 15115 0001:0008BCD8 15117 0001:0008BCEE 15118 0001:0008BCFD 15122 0001:0008BD0D
 15123 0001:0008BD18 15125 0001:0008BD1E 15129 0001:0008BD64 15131 0001:0008BD6F
 15133 0001:0008BD7C 15135 0001:0008BDB6 15137 0001:0008BDC5 15138 0001:0008BDDE
 15139 0001:0008BDEB 15141 0001:0008BDF7 15145 0001:0008BE3D 15146 0001:0008BE44
 15149 0001:0008BE79 15153 0001:0008BEAC 15155 0001:0008BEB8 15156 0001:0008BEC2
 15158 0001:0008BEC7 15157 0001:0008BEC8 15159 0001:0008BED1 15162 0001:0008BEDC
 15168 0001:0008BEEC 15169 0001:0008BF23 15170 0001:0008BF34 15174 0001:0008BF8D
 15177 0001:0008C024 15179 0001:0008C03B 15182 0001:0008C079 15184 0001:0008C086
 15186 0001:0008C098 15188 0001:0008C0A6 15194 0001:0008C0B1 15195 0001:0008C0C0
 15197 0001:0008C0CB 15205 0001:0008C0D6 15209 0001:0008C0E2 15210 0001:0008C0F1
 15212 0001:0008C0FC 15241 0001:0008C107 15244 0001:0008C114 15245 0001:0008C124
 15261 0001:0008C12D 15262 0001:0008C140 15264 0001:0008C149 15265 0001:0008C155
 15266 0001:0008C15E 15271 0001:0008C165 15274 0001:0008C228 15275 0001:0008C231
 15276 0001:0008C23A 15277 0001:0008C244 15297 0001:0008C250 15306 0001:0008C26B
 15307 0001:0008C274 15308 0001:0008C27D 15313 0001:0008C289 15322 0001:0008C2A7
 15323 0001:0008C2B0 15324 0001:0008C2B9 15329 0001:0008C2C5 15330 0001:0008C2CE
 15331 0001:0008C2D7 15332 0001:0008C2E1 15333 0001:0008C2EA 15337 0001:0008C2F9
 15341 0001:0008C305 15342 0001:0008C30E 15343 0001:0008C317 15344 0001:0008C321
 15348 0001:0008C32D 15353 0001:0008C345 15354 0001:0008C34E 15355 0001:0008C357
 15358 0001:0008C366 15360 0001:0008C375 15361 0001:0008C37E 15362 0001:0008C387
 15363 0001:0008C39B 15364 0001:0008C3A1 15365 0001:0008C3B3 15366 0001:0008C3C5
 15367 0001:0008C3D0 15371 0001:0008C3E4 15372 0001:0008C3F1 15377 0001:0008C4A1
 15378 0001:0008C4AA 15401 0001:0008C4B3 15410 0001:0008C4C7 15414 0001:0008C4CD
 15418 0001:0008C511 15420 0001:0008C520 15450 0001:0008C52F 15453 0001:0008C54F
 15454 0001:0008C558 15455 0001:0008C561 15460 0001:0008C56B 15464 0001:0008C574
 15465 0001:0008C57D 15466 0001:0008C586 15469 0001:0008C590 15470 0001:0008C5A3
 15479 0001:0008C653 15481 0001:0008C666 15483 0001:0008C679 15484 0001:0008C682
 15485 0001:0008C68B 15487 0001:0008C697 15489 0001:0008C6AA 15490 0001:0008C6B3
 15491 0001:0008C6BC 15493 0001:0008C6C8 15495 0001:0008C6D1 15496 0001:0008C6DA
 15497 0001:0008C6E3 15501 0001:0008C6ED 15502 0001:0008C709 15507 0001:0008C715
 15508 0001:0008C71E 15509 0001:0008C727 15513 0001:0008C736 15514 0001:0008C73F
 15516 0001:0008C76B 15518 0001:0008C771 15520 0001:0008C77D 15524 0001:0008C788
 15526 0001:0008C791 15527 0001:0008C79A 15528 0001:0008C7A4 15530 0001:0008C7AF
 15532 0001:0008C7C3 15533 0001:0008C7CC 15537 0001:0008C7D7 15540 0001:0008C7E0
 15542 0001:0008C7E9 15549 0001:0008C7F3 15551 0001:0008C806 15559 0001:0008C810
 15563 0001:0008C82B 15564 0001:0008C834 15565 0001:0008C83A 15567 0001:0008C845
 15569 0001:0008C84E 15571 0001:0008C85A 15573 0001:0008C866 15582 0001:0008C86F
 15585 0001:0008C879 15586 0001:0008C882 15587 0001:0008C889 15588 0001:0008C88D
 15590 0001:0008C8AA 15591 0001:0008C8AF 15593 0001:0008C8D1 15595 0001:0008C8DE
 15596 0001:0008C8E2 15597 0001:0008C8EB 15598 0001:0008C8F4 15599 0001:0008C8FE
 15600 0001:0008C907 15603 0001:0008C910 15604 0001:0008C917 15607 0001:0008C951
 15609 0001:0008C95B 15610 0001:0008C969 15611 0001:0008C973 15619 0001:0008C97E
 15621 0001:0008C98E 15623 0001:0008C994 15624 0001:0008C99D 15625 0001:0008C9A6
 15629 0001:0008C9B1 15630 0001:0008C9BA 15631 0001:0008C9C3 15633 0001:0008C9CC
 15637 0001:0008C9D8 15640 0001:0008C9EC 15642 0001:0008C9FB 15646 0001:0008CA04
 15647 0001:0008CA11 15648 0001:0008CA1B 15650 0001:0008CA26 15651 0001:0008CA33
 15657 0001:0008CA3F 15658 0001:0008CA49 15660 0001:0008CA54 15661 0001:0008CA5D
 15662 0001:0008CA66 15663 0001:0008CA6F 15666 0001:0008CA7D 15667 0001:0008CA90
 15669 0001:0008CA98 15671 0001:0008CAAD 15673 0001:0008CAB9 15676 0001:0008CAD5
 15679 0001:0008CAE9 15682 0001:0008CAF0 15683 0001:0008CAFD 15687 0001:0008CB09
 15689 0001:0008CB12 15690 0001:0008CB28 15694 0001:0008CB37 15696 0001:0008CB40
 15697 0001:0008CB57 15701 0001:0008CB66 15703 0001:0008CB6F 15704 0001:0008CB86
 15710 0001:0008CB95 15712 0001:0008CB9E 15713 0001:0008CBB5 15717 0001:0008CBC4
 15718 0001:0008CBCD 15719 0001:0008CBD6 15723 0001:0008CBE5 15725 0001:0008CC07
 15727 0001:0008CC0D 15728 0001:0008CC16 15729 0001:0008CC1F 15733 0001:0008CC2A
 15734 0001:0008CC33 15735 0001:0008CC3C 15737 0001:0008CC45 15741 0001:0008CC51
 15744 0001:0008CC65 15745 0001:0008CC74 15748 0001:0008CC7D 15749 0001:0008CC8A
 15750 0001:0008CC94 15753 0001:0008CC9F 15754 0001:0008CCAC 15760 0001:0008CCB8
 15761 0001:0008CCC1 15762 0001:0008CCCA 15765 0001:0008CCD3 15766 0001:0008CCDA
 15772 0001:0008CCE6 15773 0001:0008CCEF 15774 0001:0008CCF8 15775 0001:0008CD02
 15779 0001:0008CD10 15780 0001:0008CD14 15782 0001:0008CD27 15787 0001:0008CD50
 15788 0001:0008CD59 15790 0001:0008CD7D 15792 0001:0008CD84 15794 0001:0008CDB4
 15819 0001:0008CDBE 15820 0001:0008CDC6 15837 0001:0008CDCF 15839 0001:0008CDD8
 15841 0001:0008CDFC 15843 0001:0008CE03 15845 0001:0008CE33 15847 0001:0008CE3D
 15848 0001:0008CE46 15849 0001:0008CE4E 15853 0001:0008CE52 15855 0001:0008CE61
 15858 0001:0008CE6E 15859 0001:0008CE77 15860 0001:0008CE7F 15861 0001:0008CE83
 15865 0001:0008CE8C 15871 0001:0008CE96 15875 0001:0008CEB5 15876 0001:0008CEC4
 15877 0001:0008CECC 15878 0001:0008CED0 15882 0001:0008CED5 15890 0001:0008CF73
 15891 0001:0008CF7A 15893 0001:0008CF85 15895 0001:0008CF86 15896 0001:0008CF8F
 15898 0001:0008CF95 15902 0001:0008CFAA 15905 0001:0008CFB1 15906 0001:0008CFC1
 15920 0001:0008D18C 15115 0001:0008D18F 15922 0001:0008D196 15923 0001:0008D1A3
 15944 0001:0008D1AA 15945 0001:0008D1B4 15947 0001:0008D1BC 15948 0001:0008D1C1
 15949 0001:0008D1C8 15951 0001:0008D1CD 15953 0001:0008D1E1 15956 0001:0008D1F2
 15958 0001:0008D1FB 15959 0001:0008D1FE 15962 0001:0008D20C 15964 0001:0008D215
 15965 0001:0008D21E 15966 0001:0008D224 15969 0001:0008D22A 15951 0001:0008D22D
 15970 0001:0008D230 15972 0001:0008D23D 15974 0001:0008D247 15975 0001:0008D25C
 15978 0001:0008D266 15980 0001:0008D26F 15983 0001:0008D28A 15986 0001:0008D296
 15989 0001:0008D2A9 15990 0001:0008D2C0 15991 0001:0008D2C9 16004 0001:0008D2D3
 16007 0001:0008D2E0 16008 0001:0008D2E9 16009 0001:0008D2F7 16012 0001:0008D301
 16014 0001:0008D31E 16016 0001:0008D325 16017 0001:0008D32C 16019 0001:0008D360
 16021 0001:0008D365 16028 0001:0008D384 16032 0001:0008D393 16033 0001:0008D39A
 16034 0001:0008D3A5 16036 0001:0008D3DF 16039 0001:0008D3E4 16041 0001:0008D404
 16043 0001:0008D40B 16044 0001:0008D412 16046 0001:0008D44C 16048 0001:0008D451
 16050 0001:0008D470 16052 0001:0008D482 16053 0001:0008D489 16054 0001:0008D494
 16056 0001:0008D4CE 16058 0001:0008D4D3 16059 0001:0008D4F3 16066 0001:0008D535
 16067 0001:0008D550 16069 0001:0008D557 16009 0001:0008D559 16071 0001:0008D563
 16073 0001:0008D56D 16076 0001:0008D577 16078 0001:0008D58E 16079 0001:0008D5A9
 16081 0001:0008D5B4 16083 0001:0008D5EE 16085 0001:0008D609 16086 0001:0008D610
 16089 0001:0008D643 16090 0001:0008D64D 16091 0001:0008D65A 16092 0001:0008D664
 16095 0001:0008D68F 16097 0001:0008D692 16098 0001:0008D6A4 16100 0001:0008D6DE
 16102 0001:0008D6E8 16105 0001:0008D703 16106 0001:0008D70A 16109 0001:0008D744
 16110 0001:0008D75F 16113 0001:0008D76A 16115 0001:0008D7A4 16117 0001:0008D7BF
 16122 0001:0008D7C6 16127 0001:0008D800 16128 0001:0008D80A 16129 0001:0008D817
 16130 0001:0008D821 16135 0001:0008D833 16137 0001:0008D83C 16138 0001:0008D842
 16139 0001:0008D84F 16140 0001:0008D855 16145 0001:0008D85E 16146 0001:0008D86B
 16149 0001:0008D87B 16151 0001:0008D881 16154 0001:0008D88E 16157 0001:0008D894
 16159 0001:0008D8A4 16162 0001:0008D8AF 16164 0001:0008D8C3 16167 0001:0008D8D4
 16169 0001:0008D8E6 16174 0001:0008D8F2 16177 0001:0008D8F5 16162 0001:0008D8F8
 16181 0001:0008D8FB 16182 0001:0008D909 16184 0001:0008D921 16187 0001:0008D932
 16189 0001:0008D93F 16191 0001:0008D945 16193 0001:0008D948 16195 0001:0008D94E
 16197 0001:0008D958 16201 0001:0008D98E 16202 0001:0008D999 16205 0001:0008DA21
 16182 0001:0008DA24 16207 0001:0008DA49 16209 0001:0008DA4C 16210 0001:0008DA5E
 16212 0001:0008DA90 16213 0001:0008DAA6 16214 0001:0008DAAD 16216 0001:0008DADF
 16217 0001:0008DB19 16219 0001:0008DB34 16221 0001:0008DB46 16222 0001:0008DB57
 16223 0001:0008DB67 16224 0001:0008DB6F 16219 0001:0008DB72 16225 0001:0008DB78
 16227 0001:0008DB83 16228 0001:0008DB8D 16229 0001:0008DB9A 16230 0001:0008DBA4
 16233 0001:0008DBB1 16241 0001:0008DBC3 16243 0001:0008DBDB 16246 0001:0008DBEC
 16248 0001:0008DBF9 16250 0001:0008DBFF 16251 0001:0008DC09 16253 0001:0008DC16
 16257 0001:0008DC4C 16259 0001:0008DC57 16260 0001:0008DC67 16263 0001:0008DCF1
 16265 0001:0008DCF8 16272 0001:0008DD32 16241 0001:0008DD35 16275 0001:0008DD49
 16283 0001:0008DD59 16288 0001:0008E2F0 16290 0001:0008E30E 16294 0001:0008E314
 16297 0001:0008E333 16298 0001:0008E33E 16299 0001:0008E3AF 16305 0001:0008E3B3
 16311 0001:0008E408 16313 0001:0008E426 16314 0001:0008E427 16315 0001:0008E434
 16317 0001:0008E43D 16320 0001:0008E447 16321 0001:0008E464 16323 0001:0008E46D
 16326 0001:0008E48F 16327 0001:0008E49A 16328 0001:0008E50B 16334 0001:0008E50F
 16341 0001:0008E56C 16351 0001:0008E591 16353 0001:0008E5A0 16354 0001:0008E5AD
 16356 0001:0008E5B7 16358 0001:0008E5C1 16359 0001:0008E5CB 16362 0001:0008E697
 16365 0001:0008E6AF 16366 0001:0008E6BF 16368 0001:0008E6D6 16372 0001:0008E6DA
 16375 0001:0008E6F1 16377 0001:0008E6F3 16381 0001:0008E702 16383 0001:0008E706
 16351 0001:0008E707 16388 0001:0008E70E 16392 0001:0008E76C 16393 0001:0008E774
 16407 0001:0008E778 16412 0001:0008E77B 16413 0001:0008E78D 16415 0001:0008E7AB
 16416 0001:0008E7B7 16418 0001:0008E7CA 16419 0001:0008E7DC 16422 0001:0008E805
 16423 0001:0008E81B 16425 0001:0008E829 16430 0001:0008E835 16436 0001:0008E83F
 16439 0001:0008E844 16440 0001:0008E847 16443 0001:0008E855 16444 0001:0008E866
 16447 0001:0008E870 16455 0001:0008E87C 16456 0001:0008E891 16459 0001:0008E89B
 16466 0001:0008E8A5 16468 0001:0008E8A8 16470 0001:0008E8DD 16496 0001:0008E8E6
 16498 0001:0008E8F4 16502 0001:0008E8F9 16503 0001:0008E902 16505 0001:0008E910
 16509 0001:0008E915 16510 0001:0008E922 16512 0001:0008E929 16513 0001:0008E93B
 16521 0001:0008E93E 16523 0001:0008E943 16524 0001:0008E94F 16532 0001:0008E951
 16534 0001:0008E969 16537 0001:0008E972 16540 0001:0008E988 16542 0001:0008E99F
 16544 0001:0008E9A3 16545 0001:0008E9AD 16547 0001:0008E9B5 16548 0001:0008E9C7
 16552 0001:0008E9D1 16553 0001:0008E9DA 16554 0001:0008E9E5 16558 0001:0008E9EE
 16560 0001:0008E9F9 16562 0001:0008EA05 16564 0001:0008EA0C 16565 0001:0008EA15
 16567 0001:0008EA1C 16570 0001:0008EA25 16574 0001:0008EA2C 16578 0001:0008EA31
 16581 0001:0008EA36 16583 0001:0008EA3E 16584 0001:0008EA44 16585 0001:0008EA4E
 16586 0001:0008EA58 16589 0001:0008EA77 16591 0001:0008EA81 16592 0001:0008EA8A
 16595 0001:0008EA93 16597 0001:0008EAA7 16600 0001:0008EAAD 16601 0001:0008EAB6
 16603 0001:0008EABD 16605 0001:0008EAC6 16606 0001:0008EACC 16607 0001:0008EADA
 16608 0001:0008EAE4 16611 0001:0008EB09 16615 0001:0008EB2D 16616 0001:0008EB42
 16618 0001:0008EB4A 16620 0001:0008EB55 16621 0001:0008EB64 16623 0001:0008EB7A
 16624 0001:0008EB85 16627 0001:0008EB9D 16628 0001:0008EBA5 16630 0001:0008EBAF
 16632 0001:0008EBB1 16593 0001:0008EBBA 16635 0001:0008EBBF 16637 0001:0008EBD4
 16638 0001:0008EBDD 16644 0001:0008EBF0 16645 0001:0008EC01 16647 0001:0008EC09
 16649 0001:0008EC14 16650 0001:0008EC23 16653 0001:0008EC39 16654 0001:0008EC44
 16656 0001:0008EC5C 16659 0001:0008EC75 16675 0001:0008EC85 16676 0001:0008EC8B
 16677 0001:0008EC98 16678 0001:0008ECA2 16679 0001:0008ECAB 16681 0001:0008ECD0
 16682 0001:0008ECD6 16686 0001:0008ECE0 16687 0001:0008ECE9 16688 0001:0008ECF2
 16689 0001:0008ECF8 16691 0001:0008ED03 16692 0001:0008ED14 16694 0001:0008ED1D
 16695 0001:0008ED29 16696 0001:0008ED33 16697 0001:0008ED39 16702 0001:0008ED5E
 16706 0001:0008ED6F 16707 0001:0008ED78 16682 0001:0008ED7F 16710 0001:0008ED89
 16711 0001:0008ED9A 16713 0001:0008ED9C 16715 0001:0008EDA8 16716 0001:0008EDAF
 16719 0001:0008EDBF 16732 0001:0008EDCA 16733 0001:0008EDDB 16737 0001:0008EDDD
 16740 0001:0008EDFE 16747 0001:0008EE9A 16748 0001:0008EE9F 16749 0001:0008EF13
 16755 0001:0008EF1A 16762 0001:0008F0A4 16764 0001:0008F0B2 16765 0001:0008F0B3
 16768 0001:0008F0C0 16771 0001:0008F0C6 16772 0001:0008F0E3 16774 0001:0008F0EC
 16780 0001:0008F0FD 16795 0001:0008F108 16797 0001:0008F123 16799 0001:0008F129
 16800 0001:0008F12E 16802 0001:0008F133 16805 0001:0008F146 16806 0001:0008F153
 16807 0001:0008F243 16809 0001:0008F264 16810 0001:0008F26C 16812 0001:0008F277
 16887 0001:0008F298 16893 0001:0008F29A 16899 0001:0008F2FC 16906 0001:0008F305
 16907 0001:0008F313 16911 0001:0008F326 16912 0001:0008F32F 16915 0001:0008F394
 16917 0001:0008F3A7 16919 0001:0008F3C8 16921 0001:0008F3CE 16922 0001:0008F3D6
 16926 0001:0008F3DF 16929 0001:0008F3E9 16930 0001:0008F3F3 16934 0001:0008F3FF
 16936 0001:0008F417 16937 0001:0008F421 16939 0001:0008F42D 16941 0001:0008F43A
 16944 0001:0008F43E 16948 0001:0008F442 16949 0001:0008F462 16950 0001:0008F46A
 16953 0001:0008F473 16954 0001:0008F47D 16956 0001:0008F490 16958 0001:0008F49A
 16962 0001:0008F4B7 16964 0001:0008F4B9 16965 0001:0008F4C0 16966 0001:0008F4C7
 16967 0001:0008F4D0 16968 0001:0008F4DD 16976 0001:0008F4E7 16982 0001:0008F5B8
 16990 0001:0008F5D7 16991 0001:0008F5E5 16995 0001:0008F5FA 16996 0001:0008F604
 17000 0001:0008F632 17001 0001:0008F63B 17004 0001:0008F6A0 17005 0001:0008F6B7
 17006 0001:0008F6BF 17007 0001:0008F6C8 17008 0001:0008F6D7 17010 0001:0008F6DE
 17012 0001:0008F6EF 17015 0001:0008F70C 17017 0001:0008F70E 17018 0001:0008F715
 17019 0001:0008F71C 17020 0001:0008F725 17021 0001:0008F732 17029 0001:0008F73C
 17034 0001:0008F7F0 17036 0001:0008F80B 17038 0001:0008F811 17039 0001:0008F816
 17041 0001:0008F81B 17044 0001:0008F82E 17045 0001:0008F83B 17046 0001:0008F92B
 17048 0001:0008F94C 17050 0001:0008F952 17051 0001:0008F95A 17058 0001:0008F963
 17060 0001:0008F96D 17062 0001:0008F976 17064 0001:0008F97F 17066 0001:0008F995
 17069 0001:0008F999 17075 0001:0008F99E 17078 0001:0008FA00 17079 0001:0008FA06
 17080 0001:0008FA10 17081 0001:0008FA12 17086 0001:0008FA18 17088 0001:0008FA37
 17089 0001:0008FA45 17092 0001:0008FA56 17096 0001:0008FB23 17101 0001:0008FB31
 17105 0001:0008FB49 17109 0001:0008FB57 17110 0001:0008FB5E 17112 0001:0008FB68
 17116 0001:0008FB76 17120 0001:0008FB84 17124 0001:0008FB92 17128 0001:0008FBA0
 17132 0001:0008FBAE 17136 0001:0008FBC6 17140 0001:0008FBD3 17144 0001:0008FBE1
 17148 0001:0008FBEF 17152 0001:0008FBFD 17156 0001:0008FC0B 17160 0001:0008FC19
 17161 0001:0008FC20 17163 0001:0008FC2A 17167 0001:0008FC38 17171 0001:0008FC45
 17175 0001:0008FC52 17179 0001:0008FC60 17183 0001:0008FC6E 17187 0001:0008FC7B
 17188 0001:0008FC82 17190 0001:0008FC8C 17194 0001:0008FC9A 17198 0001:0008FCA7
 17205 0001:0008FCB4 17209 0001:0008FCC2 17215 0001:0008FCDA 17219 0001:0008FCF2
 17220 0001:0008FD04 17226 0001:0008FD98 17227 0001:0008FDA0 17228 0001:0008FDA9
 17230 0001:0008FDC6 17232 0001:0008FDC8 17233 0001:0008FDCF 17234 0001:0008FDD6
 17235 0001:0008FDE3 17243 0001:0008FDED 17247 0001:0008FEF4 17249 0001:0008FEFB
 17250 0001:0008FF18 17255 0001:0008FF1A 17258 0001:0008FF20 17259 0001:0008FF28
 17261 0001:0008FF2A 17266 0001:0008FF50 17272 0001:0008FF58 17274 0001:0008FF5E
 17275 0001:0008FF6C 17278 0001:0008FF7C 17284 0001:0008FFA9 17285 0001:0008FFAC
 17286 0001:0008FFB0 17287 0001:0008FFB5 17288 0001:0008FFC8 17290 0001:0008FFD0
 17298 0001:0008FFDA 17299 0001:0008FFDD 17300 0001:0008FFE1 17301 0001:0008FFE6
 17302 0001:0008FFF9 17304 0001:00090001 17310 0001:0009000B 17317 0001:00090013
 17319 0001:00090030 17321 0001:00090032 17322 0001:00090039 17323 0001:00090041
 17324 0001:0009004E 17332 0001:00090058 17337 0001:00090064 17339 0001:0009006A
 17340 0001:00090078 17342 0001:00090088 17344 0001:00090092 17350 0001:0009009E
 17352 0001:000900A6 17354 0001:000900C3 17356 0001:000900C5 17357 0001:000900CC
 17358 0001:000900D4 17359 0001:000900E1 17367 0001:000900EB 17373 0001:000900F4
 17375 0001:00090103 17377 0001:0009010E 17380 0001:0009011A 17381 0001:00090121
 17383 0001:0009012B 17388 0001:0009012F 17389 0001:00090134 17390 0001:0009013C
 17396 0001:0009013E 17402 0001:00090148 17404 0001:00090163 17406 0001:00090169
 17407 0001:0009016E 17409 0001:00090173 17412 0001:00090186 17413 0001:00090193
 17414 0001:00090283 17421 0001:000902A4 17422 0001:000902AC 17424 0001:000902B5
 17427 0001:000902BB 17428 0001:000902C9 17433 0001:000902F7 17434 0001:00090300
 17441 0001:0009030C 17447 0001:0009030E 17453 0001:00090370 17455 0001:0009038B
 17457 0001:00090391 17458 0001:00090396 17460 0001:0009039B 17463 0001:000903AE
 17464 0001:000903BB 17465 0001:000904AB 17467 0001:000904CC 17468 0001:000904D4
 17470 0001:000904E0 17471 0001:000904F3 17477 0001:000904F5 17480 0001:00090558
 17481 0001:00090575 17483 0001:00090579 17484 0001:0009057E 17486 0001:00090580
 17487 0001:000905B2 17488 0001:000905C0 17489 0001:000905C2 17492 0001:000905F4
 17493 0001:0009060B 17494 0001:0009062A 17495 0001:0009062C 17501 0001:00090654
 17503 0001:0009066F 17505 0001:00090675 17506 0001:0009067A 17508 0001:0009067F
 17511 0001:00090692 17512 0001:0009069F 17513 0001:0009078F 17515 0001:000907B0
 17516 0001:000907B8 17518 0001:000907C1 17520 0001:000907CE 17525 0001:000907D0
 17529 0001:00090834 17530 0001:00090837 17551 0001:0009083C 17557 0001:00090840
 17559 0001:0009085B 17561 0001:00090861 17562 0001:00090866 17564 0001:0009086B
 17567 0001:0009087E 17568 0001:0009088B 17569 0001:0009097B 17571 0001:0009099C
 17572 0001:000909A4 17573 0001:000909AE 17574 0001:000909B8 17576 0001:000909C9
 17577 0001:000909D8 17583 0001:000909DA 17595 0001:00090A3C 17604 0001:00090A5E
 17606 0001:00090A64 17607 0001:00090A69 17609 0001:00090A6E 17612 0001:00090A80
 17614 0001:00090A8A 17615 0001:00090A94 17617 0001:00090B9A 17620 0001:00090BFA
 17623 0001:00090C16 17625 0001:00090C1B 17628 0001:00090C34 17630 0001:00090C40
 17632 0001:00090C44 17633 0001:00090C4B 17637 0001:00090C4F 17638 0001:00090C58
 17643 0001:00090C5C 17646 0001:00090C5E 17648 0001:00090C66 17649 0001:00090C6A
 17651 0001:00090C72 17652 0001:00090C7A 17653 0001:00090C8D 17657 0001:00090C99
 17659 0001:00090C9D 17660 0001:00090CA1 17662 0001:00090CAC 17665 0001:00090CB9
 17667 0001:00090CCF 17668 0001:00090CD5 17671 0001:00090CDB 17670 0001:00090CDC
 17672 0001:00090CE6 17673 0001:00090CEE 17674 0001:00090CF2 17675 0001:00090CFC
 17680 0001:00090D08 17679 0001:00090D0B 17681 0001:00090D16 17682 0001:00090D25
 17683 0001:00090D29 17684 0001:00090D38 17685 0001:00090D42 17690 0001:00090D4B
 17692 0001:00090D4F 17693 0001:00090D5C 17694 0001:00090D5F 17697 0001:00090D6A
 17698 0001:00090D71 17699 0001:00090D7D 17701 0001:00090D80 17705 0001:00090D88
 17706 0001:00090D98 17707 0001:00090D9E 17711 0001:00090DAC 17729 0001:00090DAE
 17734 0001:00090E10 17736 0001:00090E2B 17738 0001:00090E31 17739 0001:00090E36
 17741 0001:00090E3B 17744 0001:00090E4E 17745 0001:00090E5B 17746 0001:00090F4B
 17748 0001:00090F6C 17749 0001:00090F74 17751 0001:00090F7D 17752 0001:00090F83
 17753 0001:00090FA6 17759 0001:00090FA8 17765 0001:0009100C 17767 0001:00091027
 17769 0001:0009102D 17770 0001:00091032 17772 0001:00091037 17775 0001:0009104A
 17776 0001:00091057 17777 0001:00091147 17779 0001:00091168 17780 0001:00091170
 17786 0001:00091181 17788 0001:00091187 17790 0001:0009118F 17791 0001:00091195
 17792 0001:0009119D 17793 0001:000911A5 17794 0001:000911AD 17795 0001:000911B5
 17797 0001:000911BD 17801 0001:000911CD 17802 0001:000911D6 17807 0001:000911E5
 17812 0001:000911E7 17820 0001:00091248 17822 0001:0009124F 17823 0001:00091258
 17824 0001:00091266 17826 0001:00091275 17827 0001:0009127C 17828 0001:0009127E
 17830 0001:0009128B 17831 0001:0009129B 17836 0001:000912B1 17837 0001:000912B8
 17838 0001:000912BA 17841 0001:000912C7 17842 0001:000912CC 17850 0001:000912E9
 17852 0001:00091303 17853 0001:00091308 17855 0001:00091339 17857 0001:00091356
 17859 0001:00091358 17860 0001:0009135F 17861 0001:00091366 17862 0001:00091373
 17870 0001:0009137D 17876 0001:00091388 17878 0001:00091390 17880 0001:00091392
 17881 0001:0009139F 17882 0001:000913AF 17888 0001:000913B8 17889 0001:000913C0
 17891 0001:000913C2 17892 0001:000913CF 17907 0001:000913E0 17918 0001:000913E8
 17919 0001:000913EE 17922 0001:000913F0 17923 0001:000913FE 17977 0001:00091420
 17979 0001:00091422 17980 0001:00091429 17981 0001:00091436 17989 0001:00091440
 17997 0001:0009144C 17999 0001:00091453 18001 0001:00091455 18002 0001:0009145E
 18003 0001:0009146C 18004 0001:0009147C 18006 0001:00091499 18007 0001:0009149E
 18008 0001:000914CE 18010 0001:000914F9 18012 0001:000914FB 18013 0001:00091502
 18014 0001:0009150F 18022 0001:00091519 18072 0001:00091550 18080 0001:00091571
 18081 0001:0009157D 18083 0001:0009158B 18085 0001:000915A0 18086 0001:000915A5
 18089 0001:000915B2 18095 0001:000915C5 18097 0001:000915D2 18099 0001:000915DF
 18100 0001:000915E5 18101 0001:000915F5 18104 0001:000915FB 18118 0001:00091603
 18119 0001:0009160B 18120 0001:00091611 18126 0001:00091617 18133 0001:00091628
 18134 0001:00091630 18138 0001:00091636 18140 0001:00091645 18143 0001:00091652
 18145 0001:00091658 18147 0001:0009165B 18148 0001:0009165E 18150 0001:00091661
 18153 0001:00091668 18138 0001:00091669 18158 0001:0009166E 18159 0001:00091672
 18162 0001:0009167A 18164 0001:00091684 18165 0001:00091694 18168 0001:000916A9
 18174 0001:000916B0 18176 0001:000916CE 18178 0001:000916D5 18181 0001:000916DC
 18182 0001:000916E1 18183 0001:000916EA 18189 0001:00091720 18190 0001:00091725
 18194 0001:00091734 18195 0001:00091739 18196 0001:00091742 18203 0001:00091778
 18205 0001:00091785 18206 0001:000917A1 18207 0001:000917AA 18210 0001:0009183B
 18212 0001:0009185B 18214 0001:00091862 18217 0001:00091869 18227 0001:000919A8
 18228 0001:000919B8 18230 0001:000919CA 18233 0001:000919CE 18238 0001:000919D2
 18241 0001:000919D9 18242 0001:000919DE 18243 0001:000919E3 18249 0001:00091A14
 18251 0001:00091A25 18252 0001:00091A32 18263 0001:00091A36 18249 0001:00091A37
 18268 0001:00091A3A 18275 0001:00091A61 18279 0001:00091A86 18281 0001:00091A88
 18282 0001:00091A8F 18283 0001:00091A9C 18288 0001:00091AA6 18290 0001:00091AB7
 18318 0001:00091AF7 18323 0001:00091E28 18327 0001:00091E2E 18328 0001:00091E3C
 18333 0001:00091E6D 18334 0001:00091E79 18342 0001:00091E83 18347 0001:00091EF4
 18349 0001:00091F0D 18350 0001:00091F16 18352 0001:00091F1A 18353 0001:00091F21
 18354 0001:00091F24 18355 0001:00091F29 18356 0001:00091F38 18357 0001:00091F3E
 18358 0001:00091F44 18364 0001:00091F4A 18367 0001:00091F6C 18369 0001:00091F77
 18370 0001:00091F7F 18375 0001:00091F8A 18378 0001:00091F98 18379 0001:00091F9B
 18380 0001:00091FA7 18381 0001:00091FB3 18382 0001:00091FBF 18385 0001:00091FC4
 18386 0001:00091FCB 18387 0001:00091FE5 18389 0001:00091FE9 18390 0001:00091FEC
 18392 0001:00091FFE 18393 0001:00092007 18394 0001:0009200B 18396 0001:00092017
 18400 0001:0009201E 18401 0001:00092023 18405 0001:0009202C 18407 0001:00092047
 18409 0001:0009204A 18411 0001:0009204C 18415 0001:00092050 18417 0001:00092066
 18419 0001:00092069 18421 0001:0009206B 18425 0001:0009206C 18426 0001:0009206F
 18430 0001:00092070 18431 0001:00092075 18434 0001:00092078 18435 0001:00092085
 18436 0001:000920EA 18438 0001:000920FD 18439 0001:00092104 18442 0001:0009210C
 18443 0001:00092115 18444 0001:00092125 18447 0001:0009212C 18448 0001:00092139
 18449 0001:00092143 18450 0001:00092149 18451 0001:0009215A 18452 0001:0009215E
 18453 0001:00092168 18456 0001:0009216E 18458 0001:0009218E 18460 0001:00092194
 18462 0001:000921A0 18467 0001:000921A8 18469 0001:000921CA 18470 0001:000921FA
 18472 0001:0009220B 18474 0001:0009222D 18477 0001:0009223D 18479 0001:00092274
 18481 0001:000922AB 18486 0001:000922E4 18491 0001:00092318 18492 0001:0009233F
 18493 0001:00092349 18494 0001:00092358 18496 0001:00092361 18497 0001:00092363
 18499 0001:00092365 18500 0001:00092396 18501 0001:000923F1 18502 0001:00092401
 18503 0001:00092432 18504 0001:00092489 18516 0001:000924C4 18518 0001:000924E8
 18521 0001:000924F1 18522 0001:00092500 18525 0001:00092531 18526 0001:00092537
 18528 0001:0009253B 18530 0001:00092541 18532 0001:00092563 18534 0001:00092565
 18536 0001:00092573 18537 0001:00092581 18538 0001:000925A1 18539 0001:000925A7
 18540 0001:000925AB 18541 0001:000925B1 18543 0001:000925C1 18551 0001:000925E3
 18563 0001:0009264C 18564 0001:00092670 18566 0001:00092672 18569 0001:0009267B
 18572 0001:0009268B 18573 0001:00092698 18576 0001:000926CC 18577 0001:000926D2
 18579 0001:000926D6 18581 0001:000926DC 18583 0001:000926FE 18585 0001:00092703
 18587 0001:00092711 18588 0001:00092721 18589 0001:00092743 18590 0001:00092749
 18591 0001:0009274D 18592 0001:00092753 18594 0001:00092763 18602 0001:00092785
 18614 0001:000927EC 18616 0001:00092834 18619 0001:0009283D 18622 0001:0009286C
 18623 0001:00092872 18625 0001:00092876 18627 0001:0009287C 18629 0001:0009289E
 18631 0001:000928A3 18634 0001:000928B1 18639 0001:000928BC 18643 0001:000928D8
 18645 0001:000928E2 18649 0001:00092944 18651 0001:00092951 18652 0001:00092953
 18654 0001:0009295D 18658 0001:000929BF 18660 0001:000929DA 18661 0001:000929E0
 18663 0001:000929E4 18665 0001:000929EA 18667 0001:00092A0C 18669 0001:00092A0E
 18677 0001:00092A1C 18689 0001:00092B7C 18691 0001:00092BC4 18694 0001:00092BCD
 18697 0001:00092BFC 18698 0001:00092C02 18700 0001:00092C06 18702 0001:00092C0C
 18704 0001:00092C2E 18706 0001:00092C33 18716 0001:00092C41 18719 0001:00092C4E
 18720 0001:00092C50 18722 0001:00092C5A 18726 0001:00092CBC 18728 0001:00092CC9
 18729 0001:00092CCB 18731 0001:00092CD5 18735 0001:00092D37 18737 0001:00092D52
 18738 0001:00092D58 18740 0001:00092D5C 18742 0001:00092D62 18744 0001:00092D84
 18746 0001:00092D86 18754 0001:00092D94 18757 0001:00092EF0 18758 0001:00092EFA
 18762 0001:00092EFC 18763 0001:00092F07 18764 0001:00092F0C 18772 0001:00092F12
 18775 0001:00092F1C 18776 0001:00092F1F 18780 0001:00092F21 18788 0001:00092F2A
 18791 0001:00092F30 18792 0001:00092F33 18796 0001:00092F35 18797 0001:00092F3C
 18805 0001:00092F45 18808 0001:00092F4C 18809 0001:00092F56 18813 0001:00092F58
 18814 0001:00092F63 18815 0001:00092F68 18823 0001:00092F6C 18826 0001:00092F74
 18827 0001:00092F7D 18828 0001:00092F83 18830 0001:00092F8C 18831 0001:00092F93
 18832 0001:00092F95 18835 0001:00092F9C 18836 0001:00092FA6 18838 0001:00092FAB
 18840 0001:00093010 18841 0001:0009301F 18844 0001:00093041 18845 0001:00093046
 18846 0001:0009304E 18847 0001:00093057 18848 0001:00093066 18852 0001:0009306D
 18857 0001:00093074 18860 0001:00093080 18861 0001:0009308A 18863 0001:0009308F
 18864 0001:00093100 18867 0001:00093119 18868 0001:0009311F 18869 0001:00093125
 18875 0001:0009312C 18878 0001:00093138 18879 0001:00093142 18881 0001:00093147
 18882 0001:000931AC 18884 0001:000931CE 18889 0001:000931D5 18894 0001:000931E0
 18895 0001:000931EA 18897 0001:000931EF 18899 0001:00093254 18905 0001:00093288
 18906 0001:0009328E 18907 0001:00093292 18908 0001:00093297 18909 0001:0009329E
 18911 0001:000932A6 18919 0001:000932B0 18922 0001:000932BA 18926 0001:000932C4
 18931 0001:000932CB 18936 0001:000932D8 18937 0001:000932E2 18940 0001:000932E7
 18943 0001:00093376 18944 0001:00093380 18945 0001:00093384 18946 0001:00093389
 18947 0001:00093390 18949 0001:00093398 18952 0001:000933A2 18957 0001:000933AA
 18960 0001:000933B8 18961 0001:000933C2 18963 0001:000933C7 18965 0001:0009342C
 18966 0001:00093434 18970 0001:00093447 18971 0001:0009344F 18972 0001:00093457
 18978 0001:0009345E 18981 0001:0009346C 18982 0001:00093476 18986 0001:00093478
 18987 0001:00093483 18988 0001:00093488 18996 0001:0009348C 18999 0001:00093494
 19000 0001:0009349E 19004 0001:000934A0 19005 0001:000934AB 19006 0001:000934B0
 19014 0001:000934B7 19017 0001:000934C0 19018 0001:000934DD 19020 0001:000934E1
 19021 0001:000934E6 19023 0001:000934E8 19024 0001:00093514 19025 0001:0009351C
 19026 0001:0009351E 19029 0001:00093550 19030 0001:00093567 19031 0001:00093580
 19032 0001:00093582 19035 0001:000935A8 19036 0001:000935B2 19040 0001:000935B4
 19041 0001:000935BF 19042 0001:000935C4 19050 0001:000935C8 19053 0001:000935D0
 19054 0001:000935D3 19072 0001:000935D8 19075 0001:000935DC 19076 0001:000935E6
 19080 0001:000935E8 19081 0001:000935F3 19082 0001:000935F8 19090 0001:000935FD
 19093 0001:00093604 19094 0001:00093613 19096 0001:00093618 19097 0001:0009361F
 19098 0001:000936AF 19101 0001:000936BD 19102 0001:000936C1 19104 0001:000936C6
 19110 0001:000936CF 19113 0001:000936DC 19114 0001:000936EB 19116 0001:000936F0
 19117 0001:000936F7 19118 0001:00093795 19121 0001:000937A4 19122 0001:000937A8
 19124 0001:000937AF 19130 0001:000937B8 19133 0001:000937C4 19134 0001:000937CE
 19138 0001:000937D0 19139 0001:000937DB 19140 0001:000937E0 19148 0001:000937ED
 19151 0001:000937F4 19152 0001:000937FE 19156 0001:00093800 19157 0001:0009380B
 19158 0001:00093810 19166 0001:00093814 19169 0001:0009381C 19170 0001:00093826
 19174 0001:00093828 19175 0001:00093833 19176 0001:00093838 19184 0001:00093846
 19187 0001:00093850 19188 0001:00093853 19190 0001:00093855 19195 0001:0009385C
 19198 0001:00093860 19199 0001:00093863 19201 0001:00093865 19206 0001:0009386C
 19209 0001:00093870 19210 0001:00093873 19212 0001:00093875 19217 0001:0009387C
 19220 0001:00093880 19221 0001:00093883 19223 0001:00093885 19228 0001:0009388E
 19242 0001:00093894 19243 0001:00093897 19245 0001:00093899 19250 0001:000938A0
 19253 0001:000938A4 19254 0001:000938AA 19256 0001:000938AC 19257 0001:000938B5
 19259 0001:000938BA 19264 0001:000938BF 19267 0001:000938C8 19271 0001:000938CE
 19272 0001:000938DC 19278 0001:0009390D 19279 0001:0009391B 19287 0001:00093925
 19292 0001:000939B4 19293 0001:000939D6 19298 0001:000939EA 19299 0001:000939F5
 19301 0001:00093A1D 19305 0001:00093A41 19306 0001:00093A4D 19307 0001:00093A56
 19308 0001:00093A64 19310 0001:00093A8D 19314 0001:00093AA1 19319 0001:00093B44
 19321 0001:00093B56 19322 0001:00093B5F 19327 0001:00093B65 19330 0001:00093B80
 19332 0001:00093B8B 19334 0001:00093B97 19335 0001:00093BAB 19337 0001:00093BB0
 19338 0001:00093BB8 19343 0001:00093BC3 19348 0001:00093BD4 19350 0001:00093BE6
 19351 0001:00093BEF 19356 0001:00093BF5 19359 0001:00093C10 19361 0001:00093C1B
 19362 0001:00093C2F 19367 0001:00093C3A 19384 0001:00093C48 19388 0001:00093C92
 19390 0001:00093C97 19392 0001:00093C9B 19393 0001:00093CA0 19395 0001:00093D13
 19397 0001:00093D15 19398 0001:00093D89 19400 0001:00093DFA 19401 0001:00093DFE
 19409 0001:00093E02 19410 0001:00093E11 19412 0001:00093E17 19415 0001:00093E36
 19417 0001:00093E3A 19418 0001:00093E49 19422 0001:00093E4D 19424 0001:00093E53
 19425 0001:00093E57 19429 0001:00093E5B 19430 0001:00093E65 19432 0001:00093E71
 19434 0001:00093E7D 19435 0001:00093E89 19437 0001:00093E96 19439 0001:00093EA2
 19440 0001:00093EA8 19442 0001:00093EB5 19445 0001:00093EC1 19447 0001:00093EE5
 19448 0001:00093EF1 19450 0001:00093F2A 19452 0001:00093F32 19453 0001:00093F38
 19462 0001:00093F4E 19463 0001:00093F59 19464 0001:00093F64 19465 0001:00093F6F
 19466 0001:00093F7A 19472 0001:00093F85 19487 0001:00093FD8 19491 0001:00094025
 19492 0001:0009402A 19494 0001:0009402E 19495 0001:00094034 19497 0001:0009408E
 19499 0001:00094090 19500 0001:000940EE 19502 0001:00094149 19503 0001:0009414D
 19511 0001:00094151 19512 0001:00094160 19514 0001:00094166 19517 0001:000941A2
 19519 0001:000941A6 19520 0001:000941B5 19524 0001:000941B9 19526 0001:000941BF
 19527 0001:000941C3 19531 0001:000941C7 19532 0001:000941D1 19534 0001:000941ED
 19536 0001:000941F9 19537 0001:00094205 19539 0001:00094222 19541 0001:0009422E
 19542 0001:00094234 19544 0001:00094251 19547 0001:0009425D 19549 0001:00094281
 19550 0001:0009428D 19553 0001:000942C6 19556 0001:000942CE 19557 0001:000942D4
 19566 0001:000942DF 19567 0001:000942EF 19568 0001:000942FF 19569 0001:0009430F
 19570 0001:0009431F 19576 0001:0009432F 19579 0001:00094398 19581 0001:000943A3
 19582 0001:000943AB 19587 0001:000943B6 19592 0001:000943C4 19596 0001:000943FA
 19598 0001:00094402 19599 0001:0009445D 19600 0001:000944B9 19601 0001:00094515
 19603 0001:00094571 19604 0001:0009457C 19605 0001:00094587 19606 0001:00094592
 19611 0001:0009459D 19614 0001:000945E4 19618 0001:00094600 19620 0001:00094608
 19621 0001:00094651 19622 0001:00094699 19623 0001:000946E1 19625 0001:00094729
 19626 0001:00094739 19627 0001:00094749 19628 0001:00094759 19633 0001:00094769
 19636 0001:0009478C 19638 0001:00094797 19643 0001:000947A2 19649 0001:000947B0
 19653 0001:000947E8 19655 0001:000947EE 19656 0001:0009484A 19657 0001:000948A6
 19658 0001:00094902 19659 0001:0009495E 19661 0001:000949BA 19662 0001:00094A01
 19663 0001:00094A48 19664 0001:00094A8F 19665 0001:00094AD6 19671 0001:00094B1D
 19675 0001:00094B70 19679 0001:00094BAC 19681 0001:00094BB2 19682 0001:00094BFB
 19683 0001:00094C43 19684 0001:00094C8B 19685 0001:00094CD3 19687 0001:00094D29
 19688 0001:00094D7A 19689 0001:00094DCB 19690 0001:00094E1C 19691 0001:00094E6D
 19697 0001:00094EBE 19700 0001:00094F18 19702 0001:00094F23 19707 0001:00094F2E
 19712 0001:00094F3C 19716 0001:00094F71 19717 0001:00094FCC 19718 0001:00095028
 19720 0001:00095084 19722 0001:0009508A 19723 0001:000950CE 19724 0001:00095112
 19729 0001:00095156 19732 0001:000951A8 19736 0001:000951DF 19737 0001:00095228
 19738 0001:00095270 19740 0001:000952B8 19742 0001:000952BE 19743 0001:0009530C
 19744 0001:0009535A 19749 0001:000953A8 19752 0001:000953FC 19754 0001:00095407
 19759 0001:00095412 19764 0001:00095420 19766 0001:0009544F 19767 0001:00095454
 19768 0001:000954AF 19773 0001:000954F3 19776 0001:00095540 19778 0001:00095572
 19779 0001:00095577 19780 0001:000955C0 19785 0001:0009560E 19788 0001:00095654
 19790 0001:0009565F 19795 0001:0009566A 19831 0001:00095678 19833 0001:00095690
 19835 0001:000956A1 19837 0001:000956A4 19838 0001:000956AA 19840 0001:000956B0
 19844 0001:000956B4 19845 0001:000956BB 19846 0001:000956C2 19847 0001:000956DC
 19848 0001:000956F6 19850 0001:00095710 19851 0001:0009571D 19852 0001:00095725
 19854 0001:0009572E 19855 0001:0009573E 19856 0001:00095745 19858 0001:0009574F
 19859 0001:0009575F 19860 0001:00095766 19862 0001:00095770 19863 0001:00095780
 19864 0001:00095787 19866 0001:00095791 19867 0001:000957A1 19868 0001:000957AA
 19870 0001:000957B4 19871 0001:000957C4 19872 0001:000957CB 19876 0001:000957D5
 19882 0001:000957D9 19885 0001:00095884 19887 0001:0009588F 19888 0001:00095896
 19893 0001:000958A1 19898 0001:000958B0 19900 0001:000958B4 19902 0001:000958BB
 19904 0001:000958C4 19905 0001:000958D3 19906 0001:000958DF 19902 0001:000958E0
 19907 0001:000958E5 19913 0001:000958ED 19979 0001:000958F0 19980 0001:000958F3
 19982 0001:000958FE 19983 0001:0009590B 19986 0001:0009591C 19987 0001:0009591E
 19994 0001:00095920 19996 0001:0009593B 20007 0001:0009595C 20014 0001:00095984
 20016 0001:0009599F 20026 0001:000959BE 20035 0001:000959E8 20036 0001:00095A36
 20037 0001:00095A3A 20038 0001:00095A48 20039 0001:00095A5F 20040 0001:00095A6B
 20041 0001:00095A78 20042 0001:00095A8B 20043 0001:00095A98 20044 0001:00095AA4
 20045 0001:00095AB1 20046 0001:00095AC0 20049 0001:00095AD8 20050 0001:00095B1E
 20052 0001:00095B2E 20054 0001:00095B56 20055 0001:00095B6E 20056 0001:00095B78
 20058 0001:00095B86 20063 0001:00095B9F 20064 0001:00095BD7 20065 0001:00095BED
 20070 0001:00095C1F 20071 0001:00095C58 20072 0001:00095C88 20074 0001:00095C9E
 20076 0001:00095CA9 20077 0001:00095CC1 20078 0001:00095CC5 20080 0001:00095CDB
 20084 0001:00095CFB 20085 0001:00095D00 20089 0001:00095D74 20090 0001:00095D94
 20091 0001:00095D9B 20092 0001:00095DA0 20093 0001:00095DAC 20094 0001:00095DB1
 20095 0001:00095DBD 20096 0001:00095DC2 20098 0001:00095DCE 20099 0001:00095DD3
 20101 0001:00095DDF 20102 0001:00095DE4 20103 0001:00095DF0 20104 0001:00095DF5
 20105 0001:00095E01 20106 0001:00095E06 20108 0001:00095E12 20109 0001:00095E1D
 20110 0001:00095E34 20111 0001:00095E38 20112 0001:00095E55 20114 0001:00095F30
 20120 0001:00095F5E 20121 0001:00095F6E 20126 0001:0009600E 20129 0001:00096036
 20131 0001:00096038 20132 0001:00096041 20133 0001:00096043 20134 0001:0009604C
 20138 0001:0009604E 20139 0001:00096056 20140 0001:0009605B 20141 0001:00096060
 20142 0001:00096065 20143 0001:0009606A 20144 0001:0009606F 20145 0001:00096077
 20147 0001:0009607F 20148 0001:0009608E 20150 0001:0009609C 20152 0001:000960D8
 20153 0001:000960E0 20154 0001:000960E8 20156 0001:000960F5 20157 0001:00096106
 20158 0001:00096112 20161 0001:0009611A 20163 0001:00096133 20165 0001:0009613B
 20166 0001:00096141 20168 0001:00096148 20170 0001:00096165 20172 0001:00096174
 20173 0001:00096180 20176 0001:00096188 20177 0001:0009618E 20179 0001:0009619B
 20181 0001:000961A0 20182 0001:000961AD 20184 0001:000961B2 20186 0001:000961BA
 20213 0001:0009621E 20216 0001:00096226 20218 0001:0009622A 20220 0001:00096230
 20221 0001:0009624B 20224 0001:00096258 20227 0001:0009625B 20229 0001:00096263
 20231 0001:00096269 20232 0001:00096284 20235 0001:00096291 20239 0001:00096296
 20241 0001:000962A5 20243 0001:000962BA 20244 0001:000962C0 20247 0001:000962D6
 20248 0001:000962EA 20253 0001:000962F5 20255 0001:000962F9 20257 0001:000962FF
 20258 0001:00096309 20259 0001:00096313 20263 0001:00096325 20264 0001:0009632F
 20265 0001:00096339 20267 0001:00096344 20268 0001:00096350 20270 0001:00096352
 20271 0001:0009635D 20273 0001:0009638D 20274 0001:0009639A 20275 0001:000963A4
 20276 0001:000963AC 20279 0001:000963B4 20281 0001:000963BC 20283 0001:000963C2
 20285 0001:000963CC 20287 0001:000963D2 20288 0001:0009641D 20292 0001:0009642A
 20296 0001:0009642F 20298 0001:00096434 20299 0001:0009643A 20302 0001:0009643F
 20303 0001:0009645A 20307 0001:00096465 20309 0001:0009646F 20315 0001:0009649B
 20318 0001:000964A6 20324 0001:000964D5 20326 0001:000964DB 20327 0001:000964E6
 20329 0001:000964F1 20335 0001:00096520 20338 0001:00096527 20343 0001:00096554
 20344 0001:00096559 20345 0001:0009655E 20346 0001:00096563 20347 0001:00096568
 20349 0001:0009656D 20351 0001:00096578 20353 0001:00096586 20354 0001:00096595
 20355 0001:000965AA 20356 0001:000965C2 20357 0001:000965DA 20358 0001:000965F2
 20362 0001:0009660F 20363 0001:0009661E 20364 0001:00096633 20365 0001:0009664B
 20366 0001:00096663 20367 0001:0009667B 20371 0001:00096693 20374 0001:000966A5
 20375 0001:000966A7 20377 0001:000966B3 20378 0001:000966BB 20381 0001:000966CC
 20385 0001:000966E4 20387 0001:000966F3 20389 0001:00096702 20393 0001:0009670F
 20395 0001:00096715 20398 0001:00096732 20401 0001:00096736 20402 0001:0009673D
 20405 0001:00096752 20407 0001:0009675D 20409 0001:00096768 20410 0001:00096773
 20412 0001:0009688B 20413 0001:000968AB 20414 0001:000968B5 20415 0001:000968D5
 20416 0001:000968DF 20420 0001:0009691F 20423 0001:00096924 20425 0001:00096934
 20427 0001:0009693E 20429 0001:00096944 20430 0001:00096954 20434 0001:0009695F
 20435 0001:0009696F 20440 0001:0009697C 20441 0001:0009699C 20443 0001:000969A3
 20444 0001:000969C3 20446 0001:000969CA 20447 0001:000969EA 20448 0001:000969F1
 20449 0001:00096A11 20452 0001:00096A18 20454 0001:00096A1D 20455 0001:00096A23
 20457 0001:00096A4B 20459 0001:00096A71 20460 0001:00096AA8 20462 0001:00096AB8
 20464 0001:00096AC0 20407 0001:00096AD5 20470 0001:00096AE0 20471 0001:00096AEA
 20472 0001:00096AF4 20473 0001:00096AFE 20474 0001:00096B08 20476 0001:00096B12
 20478 0001:00096B27 20479 0001:00096B37 20480 0001:00096B5B 20481 0001:00096B7F
 20482 0001:00096BA3 20483 0001:00096BC7 20476 0001:00096BC8 20487 0001:00096BD4
 20489 0001:00096BE9 20490 0001:00096BF9 20491 0001:00096C1D 20492 0001:00096C41
 20493 0001:00096C65 20494 0001:00096C89 20487 0001:00096C8A 20499 0001:00096C91
 20501 0001:00096C9C 20502 0001:00096CA4 20503 0001:00096CAA 20504 0001:00096CB8
 20505 0001:00096CC4 20506 0001:00096CD2 20507 0001:00096CDE 20508 0001:00096CEC
 20510 0001:00096CF8 20511 0001:00096D07 20512 0001:00096D16 20513 0001:00096D25
 20516 0001:00096D41 20517 0001:00096D49 20518 0001:00096D51 20519 0001:00096D59
 20520 0001:00096D61 20522 0001:00096D69 20525 0001:00096D72 20526 0001:00096D89
 20529 0001:00096D9C 20536 0001:00096DF5 20539 0001:000970A4 20541 0001:000970BC
 20542 0001:000970CA 20544 0001:00097130 20545 0001:00097132 20548 0001:00097144
 20549 0001:0009714F 20553 0001:00097158 20554 0001:00097166 20558 0001:0009716F
 20559 0001:00097176 20566 0001:000971A8 20568 0001:000971C8 20570 0001:000971CA
 20571 0001:000971D1 20572 0001:000971DF 20580 0001:000971E9 20585 0001:00097294
 20586 0001:000972B7 20587 0001:000972C3 20589 0001:000972CE 20591 0001:000972EA
 20592 0001:000972F0 20594 0001:000972FD 20596 0001:00097307 20597 0001:0009730D
 20599 0001:0009731A 20602 0001:00097324 20604 0001:00097330 20605 0001:00097333
 20608 0001:0009734F 20611 0001:0009735F 20614 0001:0009736A 20615 0001:0009737E
 20620 0001:000973A4 20621 0001:000973C5 20622 0001:000973CF 20624 0001:000973DA
 20626 0001:000973FA 20627 0001:00097400 20629 0001:0009740D 20631 0001:00097417
 20632 0001:0009741D 20634 0001:0009742A 20637 0001:00097434 20639 0001:00097440
 20640 0001:00097443 20643 0001:0009746A 20646 0001:0009747A 20649 0001:00097485
 20650 0001:00097499 20656 0001:000974C8 20657 0001:000974D2 20659 0001:000974E4
 20661 0001:0009757F 20665 0001:0009758E 20669 0001:00097599 20674 0001:000975B0
 20675 0001:000975B5 20676 0001:000975BD 20677 0001:000975C6 20678 0001:000975D5
 20686 0001:000975DA 20689 0001:000975E8 20691 0001:000975F0 20693 0001:000975F3
 20696 0001:00097602 20700 0001:00097609 20701 0001:00097617 20707 0001:00097619
 20803 0001:00097620 20805 0001:00097637 20807 0001:00097644 20808 0001:0009764A
 20810 0001:00097650 20814 0001:00097654 20815 0001:0009765B 20816 0001:00097662
 20817 0001:0009767C 20818 0001:00097696 20820 0001:000976B0 20821 0001:000976BD
 20822 0001:000976C5 20824 0001:000976CE 20825 0001:000976DE 20826 0001:000976E5
 20828 0001:000976EF 20829 0001:000976FF 20830 0001:00097706 20832 0001:00097710
 20833 0001:00097720 20834 0001:00097727 20836 0001:00097731 20837 0001:00097741
 20838 0001:00097748 20840 0001:00097752 20841 0001:00097762 20842 0001:0009776B
 20844 0001:00097775 20845 0001:00097785 20846 0001:0009778E 20848 0001:00097798
 20849 0001:000977A8 20850 0001:000977B1 20852 0001:000977BB 20853 0001:000977CB
 20854 0001:000977D2 20856 0001:000977DC 20857 0001:000977EC 20858 0001:000977F5
 20860 0001:000977FF 20861 0001:0009780F 20862 0001:00097818 20864 0001:00097822
 20865 0001:00097832 20866 0001:0009783B 20868 0001:00097845 20869 0001:00097855
 20870 0001:0009785E 20872 0001:00097868 20873 0001:00097878 20874 0001:00097881
 20876 0001:0009788B 20877 0001:0009789B 20878 0001:000978A2 20880 0001:000978AC
 20881 0001:000978BC 20882 0001:000978C3 20890 0001:000978CD 20893 0001:00097A90
 20895 0001:00097A9B 20896 0001:00097AA2 20901 0001:00097AAD 20906 0001:00097ABC
 20908 0001:00097AC0 20910 0001:00097AC7 20912 0001:00097AD0 20913 0001:00097ADF
 20914 0001:00097AEB 20910 0001:00097AEC 20915 0001:00097AF1 20917 0001:00097AF9
 20919 0001:00097B00 20921 0001:00097B09 20922 0001:00097B18 20923 0001:00097B24
 20919 0001:00097B25 20924 0001:00097B2A 20930 0001:00097B32 20982 0001:00097B38
 20986 0001:00097B65 20987 0001:00097B6D 20988 0001:00097B72 20989 0001:00097B77
 20990 0001:00097B7C 20991 0001:00097B81 20992 0001:00097B86 20993 0001:00097B8B
 20994 0001:00097B90 20995 0001:00097B98 20998 0001:00097BA0 20999 0001:00097BB0
 21005 0001:00097C62 21006 0001:00097C71 21010 0001:00097C7F 21011 0001:00097C87
 21012 0001:00097C8F 21014 0001:00097C9C 21015 0001:00097CAD 21016 0001:00097CB9
 21019 0001:00097CC1 21021 0001:00097CDA 21022 0001:00097CE9 21024 0001:00097CEE
 21026 0001:00097D00 21027 0001:00097D06 21028 0001:00097D0E 21030 0001:00097D13
 21036 0001:00097DF3 21037 0001:00097DFE 21039 0001:00097F3A 21040 0001:00097F49
 21041 0001:00097F5E 21042 0001:00097F6B 21043 0001:00097F80 21044 0001:00097F98
 21045 0001:00097FB0 21046 0001:00097FC8 21047 0001:00097FE0 21048 0001:00097FF8
 21049 0001:00098010 21050 0001:00098028 21051 0001:00098040 21053 0001:00098058
 21055 0001:00098067 21056 0001:0009806C 21057 0001:00098076 21064 0001:00098085
 21065 0001:00098093 21066 0001:000980AB 21067 0001:000980C3 21069 0001:000980EA
 21071 0001:000980FA 21072 0001:000980FF 21073 0001:00098109 21077 0001:00098118
 21078 0001:0009812A 21080 0001:0009813C 21082 0001:00098151 21084 0001:0009815C
 21085 0001:00098167 21096 0001:000982A3 21097 0001:000982A9 21099 0001:000982B9
 21100 0001:000982C1 21103 0001:000982EF 21104 0001:00098304 21108 0001:00098309
 21109 0001:00098310 21110 0001:00098312 21112 0001:00098335 21113 0001:00098348
 21117 0001:000983F0 21118 0001:000983F7 21120 0001:000983F9 21110 0001:000983FF
 21121 0001:0009840B 21123 0001:00098414 21124 0001:00098438 21127 0001:00098445
 21128 0001:00098467 21129 0001:00098474 21130 0001:00098477 21131 0001:00098480
 21133 0001:00098489 21135 0001:0009848F 21136 0001:00098498 21138 0001:000984A0
 21139 0001:000984A8 21140 0001:000984B1 21143 0001:000984BA 21146 0001:000984CA
 21148 0001:000984DE 21151 0001:000984E4 21153 0001:000984F0 21155 0001:000984F8
 21157 0001:00098500 21160 0001:00098506 21162 0001:0009852D 21164 0001:00098534
 21177 0001:00098543 21185 0001:0009859D 21187 0001:000985A6 21190 0001:000985AD
 21191 0001:000985B6 21207 0001:000985BD 21208 0001:000985C6 21209 0001:000985CB
 21082 0001:000985E0 21212 0001:000985EB 21213 0001:00098600 21214 0001:0009860B
 21215 0001:00098747 21216 0001:00098760 21217 0001:0009876B 21302 0001:000988A7
 21303 0001:000988B1 21304 0001:000988BB 21305 0001:000988C5 21306 0001:000988CF
 21307 0001:000988D9 21308 0001:000988E3 21309 0001:000988ED 21311 0001:00098910
 21312 0001:00098923 21313 0001:00098944 21314 0001:00098965 21315 0001:00098986
 21309 0001:0009898C 21316 0001:00098998 21318 0001:000989BB 21319 0001:000989CE
 21320 0001:000989EF 21321 0001:00098A10 21322 0001:00098A31 21323 0001:00098A52
 21316 0001:00098A58 21327 0001:00098A64 21329 0001:00098A71 21330 0001:00098A7F
 21331 0001:00098A8B 21332 0001:00098A99 21333 0001:00098AA5 21334 0001:00098AB3
 21335 0001:00098ABF 21336 0001:00098ACD 21337 0001:00098AD9 21338 0001:00098AE7
 21339 0001:00098AF3 21340 0001:00098B01 21342 0001:00098B0D 21343 0001:00098B1C
 21344 0001:00098B2B 21345 0001:00098B3A 21346 0001:00098B49 21347 0001:00098B58
 21350 0001:00098B74 21351 0001:00098B7C 21352 0001:00098B84 21353 0001:00098B8C
 21354 0001:00098B94 21355 0001:00098B9C 21356 0001:00098BA4 21358 0001:00098BAC
 21361 0001:00098BB9 21362 0001:00098BD0 21365 0001:00098BE9 21373 0001:00098C48
 21376 0001:00098E20 21377 0001:00098E26 21379 0001:00098E28 21380 0001:00098E36
 21382 0001:00098EA0 21384 0001:00098EAA 21387 0001:00098ECB 21388 0001:00098ED2
 21392 0001:00098EE2 21393 0001:00098EE9 21397 0001:00098EFD 21399 0001:00098F0D
 21400 0001:00098F16 21404 0001:00098F1F 21405 0001:00098F26 21410 0001:00098F2D
 21412 0001:00098F3D 21413 0001:00098F46 21417 0001:00098F4F 21418 0001:00098F56
 21423 0001:00098F5D 21424 0001:00098F68 21433 0001:00098F73 21437 0001:00098F7E
 21439 0001:00098F9E 21441 0001:00098FA0 21442 0001:00098FA7 21443 0001:00098FAD
 21444 0001:00098FB4 21445 0001:00098FBD 21446 0001:00098FCB 21454 0001:00098FD5
 21457 0001:00098FE0 21458 0001:00098FE6 21460 0001:00098FE8 21461 0001:00098FF6
 21463 0001:00099060 21465 0001:0009906A 21468 0001:000990A5 21469 0001:000990AC
 21473 0001:000990C1 21474 0001:000990C8 21478 0001:000990DD 21479 0001:000990E4
 21483 0001:000990F6 21485 0001:00099106 21486 0001:0009910F 21490 0001:00099119
 21491 0001:00099120 21496 0001:00099128 21497 0001:0009912F 21501 0001:00099141
 21502 0001:00099149 21511 0001:00099154 21515 0001:0009915F 21517 0001:0009917F
 21519 0001:00099181 21520 0001:00099188 21521 0001:0009918E 21522 0001:00099196
 21523 0001:0009919F 21524 0001:000991AD 21532 0001:000991B7 21537 0001:000991C0
 21538 0001:000991E3 21539 0001:000991EF 21541 0001:00099204 21543 0001:00099257
 21545 0001:00099264 21547 0001:00099271 21549 0001:0009927E 21551 0001:0009928E
 21553 0001:0009929E 21555 0001:000992AE 21558 0001:000992BC 21559 0001:000992D0
 21564 0001:000992F4 21565 0001:00099317 21566 0001:00099321 21568 0001:00099336
 21570 0001:00099389 21572 0001:00099396 21574 0001:000993A3 21576 0001:000993B0
 21578 0001:000993C0 21580 0001:000993D0 21582 0001:000993E0 21585 0001:000993EE
 21586 0001:00099402 21589 0001:00099428 21591 0001:00099431 21592 0001:00099434
 21594 0001:00099443 21598 0001:0009944A 21599 0001:0009945A 21600 0001:00099460
 21606 0001:00099462 21727 0001:0009946C 21729 0001:00099484 21731 0001:00099491
 21732 0001:00099497 21734 0001:0009949D 21738 0001:000994A1 21739 0001:000994A9
 21740 0001:000994C0 21741 0001:000994DA 21743 0001:000994F4 21744 0001:00099501
 21745 0001:00099509 21747 0001:00099512 21748 0001:00099522 21749 0001:00099529
 21751 0001:00099533 21752 0001:00099543 21753 0001:0009954A 21755 0001:00099554
 21756 0001:00099564 21757 0001:0009956B 21759 0001:00099575 21760 0001:00099585
 21761 0001:0009958C 21763 0001:00099596 21764 0001:000995A6 21765 0001:000995AD
 21767 0001:000995B7 21768 0001:000995C7 21769 0001:000995CE 21771 0001:000995D8
 21772 0001:000995E8 21773 0001:000995F1 21775 0001:000995FB 21776 0001:0009960B
 21777 0001:00099614 21779 0001:0009961E 21780 0001:0009962E 21781 0001:00099635
 21783 0001:0009963F 21784 0001:0009964F 21785 0001:00099656 21789 0001:00099660
 21790 0001:0009966F 21796 0001:0009967E 21799 0001:000997A8 21801 0001:000997B3
 21802 0001:000997BA 21807 0001:000997C5 21812 0001:000997D4 21814 0001:000997D8
 21816 0001:000997DF 21818 0001:000997E8 21819 0001:000997F7 21820 0001:00099803
 21816 0001:00099804 21821 0001:00099809 21823 0001:00099811 21825 0001:00099818
 21827 0001:00099821 21828 0001:00099830 21829 0001:0009983C 21825 0001:0009983D
 21830 0001:00099842 21836 0001:0009984A 21921 0001:00099850 21922 0001:00099866
 21924 0001:00099886 21925 0001:000998C5 21926 0001:000998C9 21928 0001:000998DA
 21929 0001:000998DC 21933 0001:00099918 21934 0001:0009991E 21936 0001:00099943
 21947 0001:00099948 21948 0001:0009996C 21950 0001:00099979 21951 0001:000999EC
 21952 0001:000999FE 21955 0001:00099A14 21956 0001:00099A16 21959 0001:00099A18
 21960 0001:00099A1A 21969 0001:00099A64 21970 0001:00099A67 21973 0001:00099A70
 21974 0001:00099A75 21976 0001:00099A78 21985 0001:00099AAD 21987 0001:00099AB8
 21988 0001:00099AC0 21989 0001:00099AC8 21990 0001:00099AD0 21991 0001:00099AD8
 21993 0001:00099AE0 21994 0001:00099AE8 21995 0001:00099AF0 21996 0001:00099AF8
 21997 0001:00099B00 21998 0001:00099B08 22000 0001:00099B10 22002 0001:00099B18
 22003 0001:00099B22 22004 0001:00099B2C 22005 0001:00099B36 22006 0001:00099B40
 22007 0001:00099B4A 22010 0001:00099B54 22011 0001:00099B5E 22012 0001:00099B68
 22013 0001:00099B6D 22016 0001:00099B72 22018 0001:00099B85 22020 0001:00099B99
 22022 0001:00099BA8 22024 0001:00099BB7 22026 0001:00099BC6 22028 0001:00099BD3
 22034 0001:00099C8E 22035 0001:00099CA0 22039 0001:00099CAE 22041 0001:00099CB4
 22042 0001:00099CC3 22043 0001:00099CC9 22046 0001:00099CD3 22047 0001:00099CE1
 22049 0001:00099CE6 22053 0001:00099CF5 22054 0001:00099CFD 22055 0001:00099D05
 22057 0001:00099D15 22058 0001:00099D29 22059 0001:00099D38 22062 0001:00099D40
 22064 0001:00099D5F 22065 0001:00099D71 22067 0001:00099D79 22069 0001:00099D94
 22070 0001:00099DAD 22072 0001:00099DB7 22075 0001:00099DC9 22077 0001:00099DD4
 22122 0001:00099DDD 22125 0001:00099E6E 22127 0001:00099E82 22129 0001:00099EA8
 22131 0001:00099EC2 22137 0001:00099F19 22138 0001:00099F21 22142 0001:00099F29
 22144 0001:00099F3F 22151 0001:00099FD1 22153 0001:00099FDF 22154 0001:00099FF1
 22155 0001:0009A00F 22156 0001:0009A02D 22157 0001:0009A04B 22158 0001:0009A069
 22159 0001:0009A087 22162 0001:0009A09D 22163 0001:0009A0AD 22164 0001:0009A0E1
 22165 0001:0009A0EF 22168 0001:0009A231 22170 0001:0009A24F 22176 0001:0009A26A
 22178 0001:0009A278 22180 0001:0009A27D 22181 0001:0009A28B 22183 0001:0009A3BC
 22228 0001:0009A3EB 22230 0001:0009A400 22231 0001:0009A416 22233 0001:0009A4A1
 22234 0001:0009A4A8 22239 0001:0009A53A 22240 0001:0009A55E 22245 0001:0009A59D
 22247 0001:0009A5A7 22248 0001:0009A5B3 22249 0001:0009A5C8 22251 0001:0009A5D9
 22252 0001:0009A5E5 22253 0001:0009A5F1 22255 0001:0009A602 22257 0001:0009A610
 22258 0001:0009A619 22259 0001:0009A620 22261 0001:0009A62F 22263 0001:0009A672
 22176 0001:0009A68D 22266 0001:0009A69B 22267 0001:0009A6B6 22268 0001:0009A6C4
 22269 0001:0009A7F5 22270 0001:0009A814 22271 0001:0009A822 22278 0001:0009A953
 22285 0001:0009A9D1 22286 0001:0009A9DB 22291 0001:0009AA14 22293 0001:0009AA22
 22294 0001:0009AA34 22295 0001:0009AA52 22296 0001:0009AA70 22297 0001:0009AA8E
 22298 0001:0009AAAC 22299 0001:0009AACA 22302 0001:0009AAE8 22304 0001:0009AB06
 22305 0001:0009AB24 22307 0001:0009AB52 22308 0001:0009AB60 22309 0001:0009AC91
 22311 0001:0009ACAF 22312 0001:0009ACCA 22314 0001:0009ACD8 22315 0001:0009ACE6
 22317 0001:0009AE17 22319 0001:0009AE25 22326 0001:0009AE87 22328 0001:0009AE9C
 22334 0001:0009B18B 22336 0001:0009B1B3 22338 0001:0009B1F2 22339 0001:0009B1FE
 22340 0001:0009B213 22341 0001:0009B224 22343 0001:0009B235 22345 0001:0009B243
 22346 0001:0009B24C 22348 0001:0009B267 22351 0001:0009B296 22352 0001:0009B2A5
 22354 0001:0009B2C3 22355 0001:0009B2CB 22358 0001:0009B321 22361 0001:0009B32C
 22364 0001:0009B335 22365 0001:0009B341 22367 0001:0009B34A 22369 0001:0009B351
 22370 0001:0009B35E 22373 0001:0009B415 22377 0001:0009B42B 22379 0001:0009B439
 22381 0001:0009B48C 22383 0001:0009B499 22385 0001:0009B49F 22389 0001:0009B4BF
 22395 0001:0009B4C9 22399 0001:0009B521 22400 0001:0009B532 22402 0001:0009B543
 22404 0001:0009B566 22405 0001:0009B577 22407 0001:0009B587 22408 0001:0009B594
 22410 0001:0009B64B 22411 0001:0009B650 22413 0001:0009B664 22415 0001:0009B68D
 22416 0001:0009B6E0 22417 0001:0009B6E9 22420 0001:0009B6FA 22381 0001:0009B702
 22427 0001:0009B70F 22312 0001:0009B72A 22430 0001:0009B738 22431 0001:0009B753
 22432 0001:0009B761 22433 0001:0009B8A3 22434 0001:0009B8C2 22435 0001:0009B8D0
 22437 0001:0009BA12 22127 0001:0009BA18 22441 0001:0009BA24 22443 0001:0009BA4A
 22445 0001:0009BA64 22446 0001:0009BADE 22447 0001:0009BB58 22448 0001:0009BBD2
 22441 0001:0009BBD8 22449 0001:0009BBE4 22451 0001:0009BC0A 22453 0001:0009BC21
 22454 0001:0009BC98 22456 0001:0009BD12 22457 0001:0009BD89 22459 0001:0009BE09
 22460 0001:0009BE86 22462 0001:0009BF06 22463 0001:0009BF83 22464 0001:0009C000
 22465 0001:0009C03C 22449 0001:0009C042 22469 0001:0009C04E 22471 0001:0009C05E
 22472 0001:0009C06F 22473 0001:0009C07E 22474 0001:0009C08F 22475 0001:0009C09E
 22476 0001:0009C0AF 22477 0001:0009C0BE 22478 0001:0009C0CF 22479 0001:0009C0DE
 22480 0001:0009C0EF 22481 0001:0009C0FE 22482 0001:0009C10F 22483 0001:0009C11E
 22484 0001:0009C12F 22485 0001:0009C13E 22486 0001:0009C14F 22488 0001:0009C15E
 22489 0001:0009C170 22490 0001:0009C182 22491 0001:0009C194 22492 0001:0009C1A6
 22493 0001:0009C1B8 22494 0001:0009C1CA 22497 0001:0009C1DC 22500 0001:0009C1FB
 22501 0001:0009C203 22507 0001:0009C20B 22508 0001:0009C216 22509 0001:0009C221
 22510 0001:0009C22C 22511 0001:0009C237 22512 0001:0009C242 22513 0001:0009C24D
 22514 0001:0009C258 22515 0001:0009C263 22516 0001:0009C26E 22517 0001:0009C279
 22519 0001:0009C284 22522 0001:0009C294 22523 0001:0009C2B1 22526 0001:0009C2D0
 22533 0001:0009C332 22539 0001:0009C604 22540 0001:0009C62F 22541 0001:0009C63B
 22543 0001:0009C646 22546 0001:0009C685 22549 0001:0009C6ED 22551 0001:0009C6F5
 22552 0001:0009C721 22554 0001:0009C734 22559 0001:0009C74A 22562 0001:0009C7A2
 22564 0001:0009C7AA 22565 0001:0009C7D6 22567 0001:0009C7E9 22572 0001:0009C7FF
 22573 0001:0009C828 22575 0001:0009C83B 22578 0001:0009C851 22581 0001:0009C85E
 22586 0001:0009C89A 22590 0001:0009C8B0 22592 0001:0009C8BD 22594 0001:0009C8D0
 22597 0001:0009C8DB 22598 0001:0009C8EF 22604 0001:0009C918 22605 0001:0009C943
 22606 0001:0009C94D 22608 0001:0009C958 22611 0001:0009C997 22614 0001:0009CA01
 22616 0001:0009CA09 22617 0001:0009CA36 22619 0001:0009CA49 22624 0001:0009CA5F
 22627 0001:0009CAB9 22629 0001:0009CAC1 22630 0001:0009CAEE 22632 0001:0009CB01
 22637 0001:0009CB17 22638 0001:0009CB41 22640 0001:0009CB54 22643 0001:0009CB6A
 22646 0001:0009CB77 22651 0001:0009CBB3 22655 0001:0009CBC9 22657 0001:0009CBD6
 22659 0001:0009CBE4 22662 0001:0009CBEF 22663 0001:0009CC03 22666 0001:0009CC2C
 22668 0001:0009CC47 22670 0001:0009CC4D 22671 0001:0009CC52 22673 0001:0009CC57
 22674 0001:0009CC65 22676 0001:0009CC7B 22677 0001:0009CC7D 22680 0001:0009CC88
 22681 0001:0009CC93 22684 0001:0009CC9C 22690 0001:0009CCCC 22692 0001:0009CCEC
 22694 0001:0009CCEE 22695 0001:0009CCF5 22696 0001:0009CCFC 22697 0001:0009CD05
 22698 0001:0009CD13 22706 0001:0009CD1D 22710 0001:0009CDC8 22712 0001:0009CDE3
 22714 0001:0009CDE9 22715 0001:0009CDEE 22717 0001:0009CDF3 22718 0001:0009CE01
 22720 0001:0009CE1B 22721 0001:0009CE1D 22724 0001:0009CE2D 22725 0001:0009CE3D
 22729 0001:0009CE46 22730 0001:0009CE56 22733 0001:0009CE5F 22739 0001:0009CE8F
 22741 0001:0009CEAF 22743 0001:0009CEB1 22744 0001:0009CEB8 22745 0001:0009CEC1
 22746 0001:0009CEC9 22747 0001:0009CED7 22755 0001:0009CEE1 22758 0001:0009CF90
 22760 0001:0009CF98 22761 0001:0009CF9B 22763 0001:0009CFAA 22764 0001:0009CFB8
 22767 0001:0009CFBC 22772 0001:0009CFC1 22819 0001:0009CFC8 22821 0001:0009CFE0
 22823 0001:0009CFED 22824 0001:0009CFF3 22826 0001:0009CFF9 22830 0001:0009CFFD
 22831 0001:0009D005 22832 0001:0009D01C 22833 0001:0009D036 22835 0001:0009D050
 22836 0001:0009D05D 22837 0001:0009D065 22839 0001:0009D06E 22840 0001:0009D07E
 22841 0001:0009D085 22843 0001:0009D08F 22844 0001:0009D09F 22845 0001:0009D0A6
 22847 0001:0009D0B0 22848 0001:0009D0C0 22849 0001:0009D0C7 22851 0001:0009D0D1
 22852 0001:0009D0E1 22853 0001:0009D0EA 22855 0001:0009D0F4 22856 0001:0009D104
 22857 0001:0009D10D 22859 0001:0009D117 22860 0001:0009D127 22861 0001:0009D130
 22869 0001:0009D13A 22874 0001:0009D204 22876 0001:0009D210 22878 0001:0009D217
 22880 0001:0009D220 22881 0001:0009D22F 22882 0001:0009D23B 22878 0001:0009D23C
 22883 0001:0009D241 22885 0001:0009D249 22890 0001:0009D254 22912 0001:0009D264
 22914 0001:0009D28F 22915 0001:0009D294 22916 0001:0009D299 22917 0001:0009D29E
 22918 0001:0009D2A3 22919 0001:0009D2AB 22922 0001:0009D2B0 22923 0001:0009D2BC
 22927 0001:0009D2F4 22928 0001:0009D300 22932 0001:0009D30E 22933 0001:0009D313
 22934 0001:0009D318 22936 0001:0009D325 22937 0001:0009D32D 22938 0001:0009D339
 22941 0001:0009D33E 22952 0001:0009D354 22956 0001:0009D372 22957 0001:0009D386
 22960 0001:0009D38D 22965 0001:0009D3AF 22966 0001:0009D3BA 22968 0001:0009D4B2
 22969 0001:0009D4B7 22970 0001:0009D4C6 22971 0001:0009D4DB 22972 0001:0009D4F0
 22973 0001:0009D505 22975 0001:0009D51A 22976 0001:0009D51F 22977 0001:0009D524
 22979 0001:0009D529 22980 0001:0009D53B 22982 0001:0009D54D 22983 0001:0009D554
 22984 0001:0009D55B 22986 0001:0009D562 22989 0001:0009D56D 22990 0001:0009D578
 22992 0001:0009D67C 22993 0001:0009D69B 22995 0001:0009D6A9 22996 0001:0009D6CB
 22997 0001:0009D6ED 22999 0001:0009D716 22986 0001:0009D728 23004 0001:0009D733
 23006 0001:0009D73E 23007 0001:0009D743 23008 0001:0009D746 23009 0001:0009D751
 23010 0001:0009D754 23011 0001:0009D75F 23013 0001:0009D762 23014 0001:0009D76E
 23015 0001:0009D77A 23017 0001:0009D793 23018 0001:0009D79B 23019 0001:0009D7A3
 23021 0001:0009D7AB 23024 0001:0009D7B4 23025 0001:0009D7C8 23028 0001:0009D7DB
 23036 0001:0009D803 23039 0001:0009D920 23040 0001:0009D926 23042 0001:0009D928
 23043 0001:0009D936 23045 0001:0009D99C 23047 0001:0009D9A2 23050 0001:0009D9B4
 23051 0001:0009D9BF 23056 0001:0009D9C8 23057 0001:0009D9D1 23061 0001:0009D9DA
 23062 0001:0009D9E3 23070 0001:0009D9EC 23073 0001:0009D9F7 23075 0001:0009DA17
 23077 0001:0009DA19 23078 0001:0009DA20 23079 0001:0009DA27 23080 0001:0009DA35
 23088 0001:0009DA3F 23091 0001:0009DA48 23092 0001:0009DA4E 23094 0001:0009DA50
 23095 0001:0009DA5E 23097 0001:0009DAC4 23099 0001:0009DACA 23102 0001:0009DADB
 23103 0001:0009DAE3 23107 0001:0009DAEC 23108 0001:0009DAF4 23112 0001:0009DAFD
 23113 0001:0009DB05 23122 0001:0009DB10 23126 0001:0009DB1B 23128 0001:0009DB3B
 23130 0001:0009DB3D 23131 0001:0009DB44 23132 0001:0009DB4B 23133 0001:0009DB59
 23141 0001:0009DB63 23146 0001:0009DB6C 23147 0001:0009DB8F 23148 0001:0009DB9B
 23150 0001:0009DBA2 23152 0001:0009DBB5 23154 0001:0009DBC2 23156 0001:0009DBCF
 23159 0001:0009DBDA 23160 0001:0009DBEE 23165 0001:0009DC14 23166 0001:0009DC37
 23167 0001:0009DC41 23169 0001:0009DC48 23171 0001:0009DC5B 23173 0001:0009DC68
 23175 0001:0009DC75 23178 0001:0009DC80 23179 0001:0009DC94 23182 0001:0009DCB8
 23184 0001:0009DCC0 23185 0001:0009DCC3 23187 0001:0009DCD2 23188 0001:0009DCE0
 23191 0001:0009DCE4 23196 0001:0009DCE9 23350 0001:0009DCF0 23352 0001:0009DD08
 23354 0001:0009DD15 23355 0001:0009DD1B 23357 0001:0009DD21 23361 0001:0009DD25
 23362 0001:0009DD2D 23363 0001:0009DD44 23364 0001:0009DD5E 23366 0001:0009DD78
 23367 0001:0009DD85 23368 0001:0009DD8D 23370 0001:0009DD96 23371 0001:0009DDA6
 23372 0001:0009DDAD 23374 0001:0009DDB7 23375 0001:0009DDC7 23376 0001:0009DDCE
 23378 0001:0009DDD8 23379 0001:0009DDE8 23380 0001:0009DDEF 23382 0001:0009DDF9
 23383 0001:0009DE09 23384 0001:0009DE10 23386 0001:0009DE1A 23387 0001:0009DE2A
 23388 0001:0009DE33 23390 0001:0009DE3D 23391 0001:0009DE4D 23392 0001:0009DE56
 23394 0001:0009DE60 23395 0001:0009DE70 23396 0001:0009DE79 23398 0001:0009DE83
 23399 0001:0009DE93 23400 0001:0009DE9A 23402 0001:0009DEA4 23403 0001:0009DEB4
 23404 0001:0009DEBD 23406 0001:0009DEC7 23407 0001:0009DED7 23408 0001:0009DEE0
 23410 0001:0009DEEA 23411 0001:0009DEFA 23412 0001:0009DF03 23414 0001:0009DF0D
 23415 0001:0009DF1D 23416 0001:0009DF26 23418 0001:0009DF30 23419 0001:0009DF40
 23420 0001:0009DF49 23428 0001:0009DF53 23433 0001:0009E0C4 23435 0001:0009E0D0
 23437 0001:0009E0D7 23439 0001:0009E0E0 23440 0001:0009E0EF 23441 0001:0009E0FB
 23437 0001:0009E0FC 23442 0001:0009E101 23444 0001:0009E109 23446 0001:0009E110
 23448 0001:0009E119 23449 0001:0009E128 23450 0001:0009E134 23446 0001:0009E135
 23451 0001:0009E13A 23453 0001:0009E142 23458 0001:0009E14D 23530 0001:0009E15C
 23531 0001:0009E178 23532 0001:0009E18C 23534 0001:0009E1A2 23535 0001:0009E1BD
 23537 0001:0009E1CF 23538 0001:0009E1D6 23539 0001:0009E1E5 23541 0001:0009E1EB
 23542 0001:0009E1FC 23543 0001:0009E20A 23544 0001:0009E21D 23545 0001:0009E226
 23547 0001:0009E22A 23548 0001:0009E245 23549 0001:0009E24B 23551 0001:0009E25E
 23555 0001:0009E268 23558 0001:0009E270 23560 0001:0009E294 23565 0001:0009E2C1
 23566 0001:0009E2C6 23567 0001:0009E2CB 23568 0001:0009E2D0 23569 0001:0009E2D5
 23570 0001:0009E2DA 23571 0001:0009E2E2 23574 0001:0009E2EA 23575 0001:0009E2FA
 23580 0001:0009E39C 23581 0001:0009E3AB 23585 0001:0009E3B9 23586 0001:0009E3C1
 23587 0001:0009E3C9 23589 0001:0009E3D6 23590 0001:0009E3E7 23591 0001:0009E3F3
 23594 0001:0009E3FB 23596 0001:0009E414 23597 0001:0009E418 23600 0001:0009E426
 23603 0001:0009E42A 23605 0001:0009E434 23607 0001:0009E442 23608 0001:0009E45E
 23610 0001:0009E469 23612 0001:0009E477 23613 0001:0009E493 23615 0001:0009E49E
 23617 0001:0009E4B4 23618 0001:0009E4D0 23620 0001:0009E4E2 23623 0001:0009E524
 23624 0001:0009E53C 23625 0001:0009E549 23628 0001:0009E554 23630 0001:0009E55F
 23632 0001:0009E56D 23633 0001:0009E589 23637 0001:0009E594 23638 0001:0009E59A
 23639 0001:0009E5A2 23641 0001:0009E5A7 23642 0001:0009E5B6 23644 0001:0009E5BB
 23645 0001:0009E5CD 23648 0001:0009E5D7 23649 0001:0009E5E7 23654 0001:0009E71D
 23659 0001:0009E79D 23660 0001:0009E7A8 23662 0001:0009E8D3 23663 0001:0009E8E2
 23664 0001:0009E8FA 23665 0001:0009E907 23666 0001:0009E91F 23667 0001:0009E937
 23668 0001:0009E94F 23669 0001:0009E96A 23670 0001:0009E985 23672 0001:0009E99D
 23673 0001:0009E9B8 23674 0001:0009E9D3 23675 0001:0009E9EE 23681 0001:0009EA09
 23682 0001:0009EA12 23683 0001:0009EA1B 23684 0001:0009EA23 23687 0001:0009EA2B
 23688 0001:0009EA46 23689 0001:0009EA54 23690 0001:0009EA6C 23692 0001:0009EA82
 23693 0001:0009EA89 23696 0001:0009EA95 23697 0001:0009EAA7 23699 0001:0009EAB9
 23705 0001:0009EACE 23708 0001:0009EAD9 23709 0001:0009EAE4 23717 0001:0009EC20
 23718 0001:0009EC26 23720 0001:0009EC32 23721 0001:0009EC34 23724 0001:0009EC55
 23729 0001:0009EC6A 23733 0001:0009EC6F 23735 0001:0009EC7D 23736 0001:0009EC98
 23737 0001:0009ECA5 23738 0001:0009ECB6 23740 0001:0009ECC3 23741 0001:0009ECC6
 23743 0001:0009ECF1 23745 0001:0009ECF8 23747 0001:0009ED01 23749 0001:0009ED0A
 23751 0001:0009ED13 23756 0001:0009ED1A 23757 0001:0009ED23 23759 0001:0009ED2C
 23761 0001:0009ED35 23762 0001:0009ED3E 23764 0001:0009ED46 23766 0001:0009ED51
 23767 0001:0009ED5A 23770 0001:0009ED63 23771 0001:0009ED76 23773 0001:0009ED8D
 23775 0001:0009ED96 23778 0001:0009EDC6 23779 0001:0009EDD0 23781 0001:0009EE0F
 23782 0001:0009EE1A 23783 0001:0009EE25 23785 0001:0009EED2 23786 0001:0009EEDC
 23788 0001:0009EEE4 23789 0001:0009EEEA 23790 0001:0009EEF3 23791 0001:0009EEF6
 23795 0001:0009EEFE 23796 0001:0009EF07 23797 0001:0009EF10 23799 0001:0009EF18
 23802 0001:0009EF20 23705 0001:0009EF35 23813 0001:0009EF40 23819 0001:0009F02C
 23824 0001:0009F02E 23828 0001:0009F099 23830 0001:0009F09E 23832 0001:0009F0A6
 23833 0001:0009F0AF 23842 0001:0009F0C7 23844 0001:0009F0D7 23846 0001:0009F192
 23849 0001:0009F1A1 23850 0001:0009F1B0 23852 0001:0009F1D2 23854 0001:0009F1EE
 23855 0001:0009F1F7 23856 0001:0009F1FA 23857 0001:0009F24F 23858 0001:0009F25C
 23859 0001:0009F25F 23861 0001:0009F28C 23863 0001:0009F295 23865 0001:0009F29E
 23867 0001:0009F2A7 23869 0001:0009F2B0 23872 0001:0009F2B7 23873 0001:0009F2C5
 23874 0001:0009F2D3 23875 0001:0009F2E2 23876 0001:0009F2EE 23877 0001:0009F2FC
 23878 0001:0009F302 23879 0001:0009F30F 23882 0001:0009F39D 23883 0001:0009F3A9
 23885 0001:0009F3BB 23888 0001:0009F3CD 23891 0001:0009F3DF 23893 0001:0009F3F1
 23895 0001:0009F403 23897 0001:0009F415 23899 0001:0009F427 23901 0001:0009F439
 23903 0001:0009F44B 23905 0001:0009F4A0 23907 0001:0009F4B2 23909 0001:0009F505
 23911 0001:0009F517 23913 0001:0009F529 23915 0001:0009F53B 23917 0001:0009F54D
 23919 0001:0009F55F 23921 0001:0009F571 23923 0001:0009F580 23925 0001:0009F58F
 23927 0001:0009F59E 23929 0001:0009F5AD 23931 0001:0009F5BC 23933 0001:0009F5CB
 23936 0001:0009F5DA 23938 0001:0009F5E9 23941 0001:0009F5F6 23942 0001:0009F658
 23943 0001:0009F660 23850 0001:0009F661 23951 0001:0009F66D 23952 0001:0009F679
 23958 0001:0009F6AD 23959 0001:0009F6B7 23960 0001:0009F6C1 23961 0001:0009F6CB
 23962 0001:0009F6D5 23963 0001:0009F6DF 23965 0001:0009F6FA 23966 0001:0009F709
 23967 0001:0009F72A 23968 0001:0009F74B 23969 0001:0009F76C 23963 0001:0009F76D
 23970 0001:0009F775 23972 0001:0009F78C 23973 0001:0009F79B 23974 0001:0009F7BC
 23975 0001:0009F7DD 23970 0001:0009F7DE 23979 0001:0009F7E6 23981 0001:0009F7F3
 23982 0001:0009F801 23983 0001:0009F80D 23984 0001:0009F81B 23985 0001:0009F827
 23986 0001:0009F835 23987 0001:0009F841 23988 0001:0009F84F 23989 0001:0009F85B
 23990 0001:0009F869 23992 0001:0009F875 23993 0001:0009F884 23994 0001:0009F893
 23995 0001:0009F8A2 23996 0001:0009F8B1 23998 0001:0009F8CD 23999 0001:0009F8D5
 24000 0001:0009F8DD 24001 0001:0009F8E5 24002 0001:0009F8ED 24004 0001:0009F8F5
 24007 0001:0009F902 24008 0001:0009F919 24011 0001:0009F932 24018 0001:0009F991
 24021 0001:0009FD68 24022 0001:0009FD6E 24024 0001:0009FD70 24025 0001:0009FD7E
 24027 0001:0009FDE4 24029 0001:0009FDEA 24032 0001:0009FE02 24033 0001:0009FE0D
 24037 0001:0009FE16 24038 0001:0009FE24 24042 0001:0009FE2D 24043 0001:0009FE3B
 24047 0001:0009FE44 24048 0001:0009FE4B 24057 0001:0009FE56 24061 0001:0009FE61
 24063 0001:0009FE81 24065 0001:0009FE83 24066 0001:0009FE8A 24067 0001:0009FE91
 24068 0001:0009FE9A 24069 0001:0009FEA8 24077 0001:0009FEB2 24081 0001:0009FEBC
 24082 0001:0009FEC2 24084 0001:0009FEC4 24085 0001:0009FED2 24087 0001:0009FF3C
 24089 0001:0009FF46 24092 0001:0009FF82 24093 0001:0009FF92 24097 0001:0009FF9E
 24098 0001:0009FFAE 24102 0001:0009FFBA 24103 0001:0009FFCA 24107 0001:0009FFD3
 24108 0001:0009FFE3 24112 0001:0009FFEC 24113 0001:0009FFFC 24117 0001:000A0005
 24118 0001:000A0015 24122 0001:000A001E 24123 0001:000A0026 24132 0001:000A0031
 24136 0001:000A003C 24138 0001:000A005C 24140 0001:000A005E 24141 0001:000A0065
 24142 0001:000A006D 24143 0001:000A0076 24144 0001:000A0084 24152 0001:000A008E
 24157 0001:000A0098 24158 0001:000A00BB 24159 0001:000A00C7 24160 0001:000A00D8
 24162 0001:000A00DA 24164 0001:000A010D 24166 0001:000A011D 24168 0001:000A012D
 24170 0001:000A013D 24172 0001:000A014A 24175 0001:000A0155 24176 0001:000A0169
 24181 0001:000A0190 24182 0001:000A01B3 24183 0001:000A01BD 24184 0001:000A01CE
 24186 0001:000A01D0 24188 0001:000A0203 24190 0001:000A0213 24192 0001:000A0223
 24194 0001:000A0233 24196 0001:000A0240 24199 0001:000A024B 24200 0001:000A025F
 24203 0001:000A0284 24205 0001:000A028C 24206 0001:000A028F 24208 0001:000A029E
 24209 0001:000A02AC 24212 0001:000A02B0 24217 0001:000A02B5 24224 0001:000A02BC
 24225 0001:000A02C5 24227 0001:000A02CF 24228 0001:000A02D1 24229 0001:000A02D4
 24231 0001:000A02D9 24232 0001:000A02DF 24234 0001:000A02E7 24235 0001:000A02EA
 24236 0001:000A02ED 24240 0001:000A02F6 24245 0001:000A02FC 24248 0001:000A0307
 24249 0001:000A0309 24250 0001:000A030F 24251 0001:000A0316 24246 0001:000A0322
 24259 0001:000A0329 24260 0001:000A032E 24263 0001:000A0338 24264 0001:000A0343
 24265 0001:000A0349 24266 0001:000A0354 24269 0001:000A0364 24270 0001:000A036D
 24271 0001:000A0379 24277 0001:000A0388 24278 0001:000A0393 24280 0001:000A0398
 24281 0001:000A039A 24282 0001:000A039D 24285 0001:000A03A1 24287 0001:000A03AD
 24289 0001:000A03B0 24282 0001:000A03B3 24291 0001:000A03B7 24296 0001:000A03C0
 24297 0001:000A03DD 24298 0001:000A03EB 24317 0001:000A03FA 24324 0001:000A0408
 24325 0001:000A0429 24327 0001:000A043F 24331 0001:000A044F 24332 0001:000A045D
 24333 0001:000A0460 24335 0001:000A0464 24336 0001:000A0469 24337 0001:000A047F
 24339 0001:000A0483 24340 0001:000A048D 24342 0001:000A0495 24333 0001:000A0498
 24345 0001:000A049C 24354 0001:000A04C8 24363 0001:000A04CC 24388 0001:000A04D0
 24389 0001:000A04EF 24390 0001:000A04F6 24391 0001:000A04FE 24392 0001:000A0523
 24393 0001:000A0548 24395 0001:000A056D 24396 0001:000A0592 24397 0001:000A05B7
 24398 0001:000A05DC 24401 0001:000A0601 24402 0001:000A0649 24413 0001:000A0656
 24415 0001:000A0689 24416 0001:000A06AE 24417 0001:000A06D3 24418 0001:000A06F8
 24420 0001:000A071D 24421 0001:000A0729 24434 0001:000A0735 24440 0001:000A0C24
 24445 0001:000A0C56

Line numbers for DbxOpenOdbc(DbxOpenOdbc.pas) segment .itext

 24436 0002:00000348 24437 0002:00000351 24439 0002:00000356

Line numbers for DbxOpenOdbcStatic(DbxOpenOdbcStatic.pas) segment .text

    83 0001:000A0CD8    84 0001:000A0CE2    90 0001:000A0CE4    91 0001:000A0CFF
    92 0001:000A0D39    94 0001:000A0D41    95 0001:000A0D4A   101 0001:000A0DA8
   102 0001:000A0DC3   103 0001:000A0DFD   105 0001:000A0E05   106 0001:000A0E0E
   112 0001:000A0E6C   113 0001:000A0E72   114 0001:000A0E83   116 0001:000A0E8C
   117 0001:000A0E8F   127 0001:000A0E94   128 0001:000A0EAF   129 0001:000A0EBD
   130 0001:000A0EE3   132 0001:000A0F24   134 0001:000A0F3B   136 0001:000A0F48
   138 0001:000A0F4E   139 0001:000A0F56   272 0001:000A0F5B   274 0001:000A0F6A
   277 0001:000A0F7A   279 0001:000A0F89   283 0001:000A0F96   285 0001:000A0FA5
   288 0001:000A0FB2   290 0001:000A0FC1   294 0001:000A0FCE   296 0001:000A0FDD
   299 0001:000A0FEA   301 0001:000A0FF9   305 0001:000A1006   306 0001:000A100E
   308 0001:000A110C   313 0001:000A1114   315 0001:000A1125   316 0001:000A112C
   319 0001:000A1132   320 0001:000A1140   325 0001:000A114C   327 0001:000A1155
   328 0001:000A115C   330 0001:000A1164   331 0001:000A1170   332 0001:000A117A
   334 0001:000A1182   337 0001:000A118C   338 0001:000A1193   340 0001:000A119B
   341 0001:000A11A5   342 0001:000A11AF   343 0001:000A11B9   345 0001:000A11C3
   351 0001:000A11C4   354 0001:000A11D2   364 0001:000A1246   365 0001:000A1252
   367 0001:000A125B   368 0001:000A1263   371 0001:000A1264   375 0001:000A1269
   376 0001:000A127A   386 0001:000A1306   387 0001:000A1312   389 0001:000A131B
   390 0001:000A1323   393 0001:000A1324   395 0001:000A1329   405 0001:000A1480
   407 0001:000A148D

Line numbers for DbxOpenOdbcStatic(DbxOpenOdbcStatic.pas) segment .itext

   397 0002:00000358   398 0002:00000367   399 0002:0000036C   400 0002:00000376
   402 0002:0000039D   404 0002:000003C2

Line numbers for .dbxoodbc_emb(.\..\..\..\source\packages\pkg\dbxoodbc.dpk) segment .itext

    77 0002:0000043C

Bound resource files

dbxoodbc_man_icn.res
dbxoodbc_ver.res
C:\TEMP\dtfF53.tmp


Program entry point at 0002:0000043C
