
 Start         Length     Name                   Class
 0001:00401000 0004CFF8H .text                   CODE
 0002:0044E000 00001BA0H .data                   DATA
 0003:00450000 00000068H .bss                    BSS
 0004:00000000 00000000H .tls                    TLS
 0005:00466000 00001344H .pdata                  PDATA


Detailed map of segments

 0001:00000000 000003C8 C=CODE     S=.text    G=(none)   M=System   ACBP=A9
 0001:000003C8 000010C8 C=CODE     S=.text    G=(none)   M=SysInit  ACBP=A9
 0001:00001490 00000018 C=CODE     S=.text    G=(none)   M=System.Types ACBP=A9
 0001:000014A8 00000020 C=CODE     S=.text    G=(none)   M=System.UITypes ACBP=A9
 0001:000014C8 000000F4 C=CODE     S=.text    G=(none)   M=Winapi.Windows ACBP=A9
 0001:000015BC 0000001C C=CODE     S=.text    G=(none)   M=System.SysConst ACBP=A9
 0001:000015D8 00000020 C=CODE     S=.text    G=(none)   M=Winapi.ImageHlp ACBP=A9
 0001:000015F8 00000020 C=CODE     S=.text    G=(none)   M=Winapi.SHFolder ACBP=A9
 0001:00001618 00000028 C=CODE     S=.text    G=(none)   M=Winapi.PsAPI ACBP=A9
 0001:00001640 00000018 C=CODE     S=.text    G=(none)   M=System.RTLConsts ACBP=A9
 0001:00001658 00000020 C=CODE     S=.text    G=(none)   M=System.Character ACBP=A9
 0001:00001678 00000020 C=CODE     S=.text    G=(none)   M=System.Internal.ExcUtils ACBP=A9
 0001:00001698 000001A0 C=CODE     S=.text    G=(none)   M=System.SysUtils ACBP=A9
 0001:00001838 00000028 C=CODE     S=.text    G=(none)   M=Winapi.Messages ACBP=A9
 0001:00001860 00000018 C=CODE     S=.text    G=(none)   M=Winapi.ActiveX ACBP=A9
 0001:00001878 00000020 C=CODE     S=.text    G=(none)   M=System.VarUtils ACBP=A9
 0001:00001898 00000020 C=CODE     S=.text    G=(none)   M=System.Variants ACBP=A9
 0001:000018B8 00000020 C=CODE     S=.text    G=(none)   M=System.TypInfo ACBP=A9
 0001:000018D8 000000D0 C=CODE     S=.text    G=(none)   M=System.Classes ACBP=A9
 0001:000019A8 00000020 C=CODE     S=.text    G=(none)   M=Data.DBXCommonResStrs ACBP=A9
 0001:000019C8 00000070 C=CODE     S=.text    G=(none)   M=Data.DBXClassRegistry ACBP=A9
 0001:00001A38 00000020 C=CODE     S=.text    G=(none)   M=System.MaskUtils ACBP=A9
 0001:00001A58 00000020 C=CODE     S=.text    G=(none)   M=System.WideStrUtils ACBP=A9
 0001:00001A78 00000020 C=CODE     S=.text    G=(none)   M=System.Math ACBP=A9
 0001:00001A98 00000020 C=CODE     S=.text    G=(none)   M=System.WideStrings ACBP=A9
 0001:00001AB8 00000040 C=CODE     S=.text    G=(none)   M=System.TimeSpan ACBP=A9
 0001:00001AF8 00000020 C=CODE     S=.text    G=(none)   M=System.Diagnostics ACBP=A9
 0001:00001B18 00000020 C=CODE     S=.text    G=(none)   M=System.SyncObjs ACBP=A9
 0001:00001B38 00000030 C=CODE     S=.text    G=(none)   M=System.StrUtils ACBP=A9
 0001:00001B68 00000020 C=CODE     S=.text    G=(none)   M=System.AnsiStrings ACBP=A9
 0001:00001B88 00000020 C=CODE     S=.text    G=(none)   M=System.Generics.Defaults ACBP=A9
 0001:00001BA8 00000020 C=CODE     S=.text    G=(none)   M=System.Generics.Collections ACBP=A9
 0001:00001BC8 00000040 C=CODE     S=.text    G=(none)   M=System.DateUtils ACBP=A9
 0001:00001C08 00000020 C=CODE     S=.text    G=(none)   M=Data.DBConsts ACBP=A9
 0001:00001C28 00000020 C=CODE     S=.text    G=(none)   M=Data.SqlTimSt ACBP=A9
 0001:00001C48 00000020 C=CODE     S=.text    G=(none)   M=Data.FmtBcd ACBP=A9
 0001:00001C68 00000020 C=CODE     S=.text    G=(none)   M=Data.DBCommonTypes ACBP=A9
 0001:00001C88 00000020 C=CODE     S=.text    G=(none)   M=Data.DB  ACBP=A9
 0001:00001CA8 00000020 C=CODE     S=.text    G=(none)   M=System.Contnrs ACBP=A9
 0001:00001CC8 00000020 C=CODE     S=.text    G=(none)   M=System.ObjAuto ACBP=A9
 0001:00001CE8 00000080 C=CODE     S=.text    G=(none)   M=Data.DBXPlatform ACBP=A9
 0001:00001D68 00000020 C=CODE     S=.text    G=(none)   M=System.Masks ACBP=A9
 0001:00001D88 00000040 C=CODE     S=.text    G=(none)   M=System.IOUtils ACBP=A9
 0001:00001DC8 00000020 C=CODE     S=.text    G=(none)   M=System.IniFiles ACBP=A9
 0001:00001DE8 00000020 C=CODE     S=.text    G=(none)   M=Data.DBXJSON ACBP=A9
 0001:00001E08 00000020 C=CODE     S=.text    G=(none)   M=Data.DBCommon ACBP=A9
 0001:00001E28 00000020 C=CODE     S=.text    G=(none)   M=System.Win.ComConst ACBP=A9
 0001:00001E48 00000040 C=CODE     S=.text    G=(none)   M=System.Win.ComObj ACBP=A9
 0001:00001E88 00000020 C=CODE     S=.text    G=(none)   M=Datasnap.MidConst ACBP=A9
 0001:00001EA8 00000020 C=CODE     S=.text    G=(none)   M=Datasnap.DSIntf ACBP=A9
 0001:00001EC8 00000020 C=CODE     S=.text    G=(none)   M=Datasnap.Midas ACBP=A9
 0001:00001EE8 00000020 C=CODE     S=.text    G=(none)   M=Datasnap.DBClient ACBP=A9
 0001:00001F08 00000020 C=CODE     S=.text    G=(none)   M=Datasnap.DataBkr ACBP=A9
 0001:00001F28 00000020 C=CODE     S=.text    G=(none)   M=Datasnap.Provider ACBP=A9
 0001:00001F48 00000020 C=CODE     S=.text    G=(none)   M=Data.DSUtil ACBP=A9
 0001:00001F68 00000040 C=CODE     S=.text    G=(none)   M=System.Win.Registry ACBP=A9
 0001:00001FA8 00000560 C=CODE     S=.text    G=(none)   M=Data.DBXCommon ACBP=A9
 0001:00002508 00000050 C=CODE     S=.text    G=(none)   M=Data.DBXDynalinkNative ACBP=A9
 0001:00002558 00000110 C=CODE     S=.text    G=(none)   M=Data.DBXDynalink ACBP=A9
 0001:00002668 00000020 C=CODE     S=.text    G=(none)   M=Data.DBXDelegate ACBP=A9
 0001:00002688 00000020 C=CODE     S=.text    G=(none)   M=Data.DBXJSONCommon ACBP=A9
 0001:000026A8 00000020 C=CODE     S=.text    G=(none)   M=Data.DBXCommonTable ACBP=A9
 0001:000026C8 00000020 C=CODE     S=.text    G=(none)   M=Data.DBXMetaDataUtil ACBP=A9
 0001:000026E8 00000020 C=CODE     S=.text    G=(none)   M=Data.DBXSqlScanner ACBP=A9
 0001:00002708 00000020 C=CODE     S=.text    G=(none)   M=Data.DBXMetaDataError ACBP=A9
 0001:00002728 00000020 C=CODE     S=.text    G=(none)   M=Data.DBXMetaDataNames ACBP=A9
 0001:00002748 00000020 C=CODE     S=.text    G=(none)   M=Data.DBXMetaDataWriter ACBP=A9
 0001:00002768 00000020 C=CODE     S=.text    G=(none)   M=Data.DBXDBReaders ACBP=A9
 0001:00002788 00000020 C=CODE     S=.text    G=(none)   M=Data.DBXTableFactory ACBP=A9
 0001:000027A8 00000020 C=CODE     S=.text    G=(none)   M=Data.DBXTypedTableStorage ACBP=A9
 0001:000027C8 00000020 C=CODE     S=.text    G=(none)   M=Data.DBXMetaDataProvider ACBP=A9
 0001:000027E8 00000650 C=CODE     S=.text    G=(none)   M=Data.DBXMetaDataReader ACBP=A9
 0001:00002E38 000000D0 C=CODE     S=.text    G=(none)   M=Data.DBXMetaDataCommand ACBP=A9
 0001:00002F08 00000020 C=CODE     S=.text    G=(none)   M=Data.DBXReaderTableStorage ACBP=A9
 0001:00002F28 000000F0 C=CODE     S=.text    G=(none)   M=Data.DBXMetaDataCommandFactory ACBP=A9
 0001:00003018 00041348 C=CODE     S=.text    G=(none)   M=Dbx34DrvDbms ACBP=A9
 0001:00044360 00008414 C=CODE     S=.text    G=(none)   M=Dbx34Drv ACBP=A9
 0001:0004C774 0000003C C=CODE     S=.text    G=(none)   M=DbxXXDrv ACBP=A9
 0001:0004C7B0 00000020 C=CODE     S=.text    G=(none)   M=DbxDBFix ACBP=A9
 0001:0004C7D0 00000828 C=CODE     S=.text    G=(none)   M=.dbxoodbc ACBP=A9
 0002:00000000 00000154 C=DATA     S=.data    G=DGROUP   M=SysInit  ACBP=A9
 0002:00000154 00000024 C=DATA     S=.data    G=DGROUP   M=Winapi.Windows ACBP=A9
 0002:00000178 00000008 C=DATA     S=.data    G=DGROUP   M=Winapi.PsAPI ACBP=A9
 0002:00000180 00000008 C=DATA     S=.data    G=DGROUP   M=Winapi.Messages ACBP=A9
 0002:00000188 000009CC C=DATA     S=.data    G=DGROUP   M=Dbx34DrvDbms ACBP=A9
 0002:00000B54 00000FC8 C=DATA     S=.data    G=DGROUP   M=Dbx34Drv ACBP=A9
 0002:00001B1C 0000000C C=DATA     S=.data    G=DGROUP   M=DbxXXDrv ACBP=A9
 0002:00001B28 00000008 C=DATA     S=.data    G=DGROUP   M=DbxDBFix ACBP=A9
 0003:00000000 00000040 C=BSS      S=.bss     G=DGROUP   M=SysInit  ACBP=A9
 0003:00000040 00000010 C=BSS      S=.bss     G=DGROUP   M=Winapi.Windows ACBP=A9
 0003:00000050 00000004 C=BSS      S=.bss     G=DGROUP   M=Winapi.PsAPI ACBP=A9
 0003:00000054 00000004 C=BSS      S=.bss     G=DGROUP   M=Winapi.Messages ACBP=A9
 0003:00000058 00000004 C=BSS      S=.bss     G=DGROUP   M=Dbx34DrvDbms ACBP=A9
 0003:0000005C 00000004 C=BSS      S=.bss     G=DGROUP   M=Dbx34Drv ACBP=A9
 0003:00000060 00000004 C=BSS      S=.bss     G=DGROUP   M=DbxXXDrv ACBP=A9
 0003:00000064 00000004 C=BSS      S=.bss     G=DGROUP   M=DbxDBFix ACBP=A9
 0005:00000000 0000015C C=PDATA    S=.pdata   G=(none)   M=SysInit  ACBP=A9
 0005:0000015C 00000024 C=PDATA    S=.pdata   G=(none)   M=Winapi.Windows ACBP=A9
 0005:00000180 00000018 C=PDATA    S=.pdata   G=(none)   M=Winapi.PsAPI ACBP=A9
 0005:00000198 00000018 C=PDATA    S=.pdata   G=(none)   M=Winapi.Messages ACBP=A9
 0005:000001B0 000007EC C=PDATA    S=.pdata   G=(none)   M=Dbx34DrvDbms ACBP=A9
 0005:0000099C 0000096C C=PDATA    S=.pdata   G=(none)   M=Dbx34Drv ACBP=A9
 0005:00001308 00000024 C=PDATA    S=.pdata   G=(none)   M=DbxXXDrv ACBP=A9
 0005:0000132C 00000018 C=PDATA    S=.pdata   G=(none)   M=DbxDBFix ACBP=A9


  Address             Publics by Name

 0001:0004CFF0       .dbxoodbc..dbxoodbc
 0001:0004CFC0       .dbxoodbc.@GetPackageInfoTable
 0001:0004CFD0       .dbxoodbc.@PackageLoad
 0001:0004CFE0       .dbxoodbc.@PackageUnload
 0001:00001CA0       Data.DB.Data.DB
 0001:00001C90       Data.DB.Finalization
 0001:00001E20       Data.DBCommon.Data.DBCommon
 0001:00001E10       Data.DBCommon.Finalization
 0001:00001C80       Data.DBCommonTypes.Data.DBCommonTypes
 0001:00001C70       Data.DBCommonTypes.Finalization
 0001:00001C20       Data.DBConsts.Data.DBConsts
 0001:00001C10       Data.DBConsts.Finalization
 0001:00001A30       Data.DBXClassRegistry.Data.DBXClassRegistry
 0001:00001A20       Data.DBXClassRegistry.Finalization
 0001:000019D0       Data.DBXClassRegistry.TClassRegistry.CreateInstance
 0001:000019E0       Data.DBXClassRegistry.TClassRegistry.GetClassRegistry
 0001:000019F0       Data.DBXClassRegistry.TClassRegistry.HasClass
 0001:00001A00       Data.DBXClassRegistry.TClassRegistry.RegisterRegistryClass
 0001:00001A10       Data.DBXClassRegistry.TClassRegistry.UnregisterClass
 0001:00002500       Data.DBXCommon.Data.DBXCommon
 0001:000024F0       Data.DBXCommon.Finalization
 0001:00002320       Data.DBXCommon.TDBXCommand.Close
 0001:00002280       Data.DBXCommon.TDBXCommand.CloseReader
 0001:00002210       Data.DBXCommon.TDBXCommand.CreateParameter
 0001:00002220       Data.DBXCommon.TDBXCommand.CreateParameterRow
 0001:00002230       Data.DBXCommon.TDBXCommand.CreateParameters
 0001:00002310       Data.DBXCommon.TDBXCommand.DerivedClearParameters
 0001:00002250       Data.DBXCommon.TDBXCommand.ExecuteQuery
 0001:00002260       Data.DBXCommon.TDBXCommand.ExecuteUpdate
 0001:00002270       Data.DBXCommon.TDBXCommand.FreeOnExecute
 0001:000024D0       Data.DBXCommon.TDBXCommand.GetCommandTimeout
 0001:00002290       Data.DBXCommon.TDBXCommand.GetCommandType
 0001:000022A0       Data.DBXCommon.TDBXCommand.GetErrorEvent
 0001:000022B0       Data.DBXCommon.TDBXCommand.GetNextReader
 0001:000022C0       Data.DBXCommon.TDBXCommand.GetParameters
 0001:000022D0       Data.DBXCommon.TDBXCommand.GetText
 0001:00002300       Data.DBXCommon.TDBXCommand.Open
 0001:000022E0       Data.DBXCommon.TDBXCommand.Prepare
 0001:000024E0       Data.DBXCommon.TDBXCommand.SetCommandTimeout
 0001:00002240       Data.DBXCommon.TDBXCommand.SetCommandType
 0001:000022F0       Data.DBXCommon.TDBXCommand.SetText
 0001:00002130       Data.DBXCommon.TDBXConnection.BeginTransaction
 0001:00002140       Data.DBXCommon.TDBXConnection.BeginTransaction
 0001:00002150       Data.DBXCommon.TDBXConnection.CommitFreeAndNil
 0001:000020E0       Data.DBXCommon.TDBXConnection.CreateCommand
 0001:000020D0       Data.DBXCommon.TDBXConnection.CreateMorphCommand
 0001:000020C0       Data.DBXCommon.TDBXConnection.Destroy
 0001:00002180       Data.DBXCommon.TDBXConnection.GetConnectionProperties
 0001:000021B0       Data.DBXCommon.TDBXConnection.GetConnectionProperty
 0001:00002100       Data.DBXCommon.TDBXConnection.GetDatabaseMetaData
 0001:000021E0       Data.DBXCommon.TDBXConnection.GetDBXFormatter
 0001:00002190       Data.DBXCommon.TDBXConnection.GetErrorEvent
 0001:000021A0       Data.DBXCommon.TDBXConnection.GetIsOpen
 0001:00002110       Data.DBXCommon.TDBXConnection.GetTraceFlags
 0001:00002120       Data.DBXCommon.TDBXConnection.GetTraceInfoEvent
 0001:000020F0       Data.DBXCommon.TDBXConnection.Open
 0001:00002160       Data.DBXCommon.TDBXConnection.RollbackFreeAndNil
 0001:00002170       Data.DBXCommon.TDBXConnection.RollbackIncompleteFreeAndNil
 0001:000021D0       Data.DBXCommon.TDBXConnection.SetConnectionProperties
 0001:000021F0       Data.DBXCommon.TDBXConnection.SetDBXFormatter
 0001:000021C0       Data.DBXCommon.TDBXConnection.SetErrorEvent
 0001:00002200       Data.DBXCommon.TDBXConnection.SetTraceFlags
 0001:000024A0       Data.DBXCommon.TDBXConnectionBuilder.GetConnectionProperties
 0001:00002490       Data.DBXCommon.TDBXContext.Error
 0001:00002020       Data.DBXCommon.TDBXDriver.AddCommandFactory
 0001:00002030       Data.DBXCommon.TDBXDriver.CreateMorphCommand
 0001:00002040       Data.DBXCommon.TDBXDriver.GetDriverClass
 0001:00002050       Data.DBXCommon.TDBXDriver.GetDriverName
 0001:00002060       Data.DBXCommon.TDBXDriver.GetDriverProperties
 0001:00002070       Data.DBXCommon.TDBXDriver.GetDriverPropertyNames
 0001:00002090       Data.DBXCommon.TDBXDriver.InitDriverProperties
 0001:00002080       Data.DBXCommon.TDBXDriver.SetDriverName
 0001:000024B0       Data.DBXCommon.TDBXDriverHelp.GetMetaDataReader
 0001:000024C0       Data.DBXCommon.TDBXDriverHelp.SetMetaDataReader
 0001:000020A0       Data.DBXCommon.TDBXDriverRegistry.RegisterDriverClass
 0001:000020B0       Data.DBXCommon.TDBXDriverRegistry.UnregisterDriverClass
 0001:00002480       Data.DBXCommon.TDBXMorphicCommand.CloseReader
 0001:00002330       Data.DBXCommon.TDBXMorphicCommand.Create
 0001:00002390       Data.DBXCommon.TDBXMorphicCommand.CreateParameterRow
 0001:00002340       Data.DBXCommon.TDBXMorphicCommand.CreateParameters
 0001:000023E0       Data.DBXCommon.TDBXMorphicCommand.DerivedClose
 0001:000023F0       Data.DBXCommon.TDBXMorphicCommand.DerivedExecuteQuery
 0001:00002400       Data.DBXCommon.TDBXMorphicCommand.DerivedExecuteUpdate
 0001:00002410       Data.DBXCommon.TDBXMorphicCommand.DerivedGetNextReader
 0001:00002420       Data.DBXCommon.TDBXMorphicCommand.DerivedOpen
 0001:00002430       Data.DBXCommon.TDBXMorphicCommand.DerivedPrepare
 0001:00002350       Data.DBXCommon.TDBXMorphicCommand.Destroy
 0001:00002360       Data.DBXCommon.TDBXMorphicCommand.ExecuteQuery
 0001:00002370       Data.DBXCommon.TDBXMorphicCommand.ExecuteUpdate
 0001:000023B0       Data.DBXCommon.TDBXMorphicCommand.FreeOnExecute
 0001:000023D0       Data.DBXCommon.TDBXMorphicCommand.GetNextReader
 0001:00002380       Data.DBXCommon.TDBXMorphicCommand.GetParameters
 0001:000023A0       Data.DBXCommon.TDBXMorphicCommand.GetRowsAffected
 0001:000023C0       Data.DBXCommon.TDBXMorphicCommand.Prepare
 0001:00002460       Data.DBXCommon.TDBXMorphicCommand.SetCommandType
 0001:00002440       Data.DBXCommon.TDBXMorphicCommand.SetMaxBlobSize
 0001:00002450       Data.DBXCommon.TDBXMorphicCommand.SetRowSetSize
 0001:00002470       Data.DBXCommon.TDBXMorphicCommand.SetText
 0001:00001FC0       Data.DBXCommon.TDBXProperties.Create
 0001:00001FB0       Data.DBXCommon.TDBXProperties.Create
 0001:00001FD0       Data.DBXCommon.TDBXProperties.Destroy
 0001:00001FE0       Data.DBXCommon.TDBXProperties.DoOnChange
 0001:00001FF0       Data.DBXCommon.TDBXProperties.GetLists
 0001:00002000       Data.DBXCommon.TDBXProperties.GetValue
 0001:00002010       Data.DBXCommon.TDBXProperties.SetValue
 0001:000019C0       Data.DBXCommonResStrs.Data.DBXCommonResStrs
 0001:000019B0       Data.DBXCommonResStrs.Finalization
 0001:000026C0       Data.DBXCommonTable.Data.DBXCommonTable
 0001:000026B0       Data.DBXCommonTable.Finalization
 0001:00002780       Data.DBXDBReaders.Data.DBXDBReaders
 0001:00002770       Data.DBXDBReaders.Finalization
 0001:00002680       Data.DBXDelegate.Data.DBXDelegate
 0001:00002670       Data.DBXDelegate.Finalization
 0001:00002660       Data.DBXDynalink.Data.DBXDynalink
 0001:00002650       Data.DBXDynalink.Finalization
 0001:000025E0       Data.DBXDynalink.TDBXDynalinkConnection.Close
 0001:000025F0       Data.DBXDynalink.TDBXDynalinkConnection.Commit
 0001:00002620       Data.DBXDynalink.TDBXDynalinkConnection.Create
 0001:000025D0       Data.DBXDynalink.TDBXDynalinkConnection.CreateAndBeginTransaction
 0001:00002630       Data.DBXDynalink.TDBXDynalinkConnection.DerivedOpen
 0001:00002640       Data.DBXDynalink.TDBXDynalinkConnection.GetVendorProperty
 0001:00002600       Data.DBXDynalink.TDBXDynalinkConnection.Rollback
 0001:00002610       Data.DBXDynalink.TDBXDynalinkConnection.SetTraceInfoEvent
 0001:00002560       Data.DBXDynalink.TDBXDynalinkDriver.CheckResult
 0001:00002570       Data.DBXDynalink.TDBXDynalinkDriver.Close
 0001:00002580       Data.DBXDynalink.TDBXDynalinkDriver.Destroy
 0001:00002590       Data.DBXDynalink.TDBXDynalinkDriver.GetDriverVersion
 0001:000025A0       Data.DBXDynalink.TDBXDynalinkDriverCommonLoader.Create
 0001:000025B0       Data.DBXDynalink.TDBXDynalinkDriverCommonLoader.Load
 0001:000025C0       Data.DBXDynalink.TDBXDynalinkDriverCommonLoader.LoadDriverLibrary
 0001:00002550       Data.DBXDynalinkNative.Data.DBXDynalinkNative
 0001:00002540       Data.DBXDynalinkNative.Finalization
 0001:00002520       Data.DBXDynalinkNative.TDBXDynalinkDriverLoader.CreateDynalinkDriver
 0001:00002530       Data.DBXDynalinkNative.TDBXDynalinkDriverLoader.CreateMethodTable
 0001:00002510       Data.DBXDynalinkNative.TDBXDynalinkDriverNative.Create
 0001:00001E00       Data.DBXJSON.Data.DBXJSON
 0001:00001DF0       Data.DBXJSON.Finalization
 0001:000026A0       Data.DBXJSONCommon.Data.DBXJSONCommon
 0001:00002690       Data.DBXJSONCommon.Finalization
 0001:00002F00       Data.DBXMetaDataCommand.Data.DBXMetaDataCommand
 0001:00002EF0       Data.DBXMetaDataCommand.Finalization
 0001:00002E40       Data.DBXMetaDataCommand.TDBXMetaDataCommand.Create
 0001:00002EB0       Data.DBXMetaDataCommand.TDBXMetaDataCommand.DerivedClose
 0001:00002ED0       Data.DBXMetaDataCommand.TDBXMetaDataCommand.DerivedExecuteQuery
 0001:00002EE0       Data.DBXMetaDataCommand.TDBXMetaDataCommand.DerivedExecuteUpdate
 0001:00002E90       Data.DBXMetaDataCommand.TDBXMetaDataCommand.DerivedGetNextReader
 0001:00002EA0       Data.DBXMetaDataCommand.TDBXMetaDataCommand.DerivedOpen
 0001:00002EC0       Data.DBXMetaDataCommand.TDBXMetaDataCommand.DerivedPrepare
 0001:00002E50       Data.DBXMetaDataCommand.TDBXMetaDataCommand.Destroy
 0001:00002E80       Data.DBXMetaDataCommand.TDBXMetaDataCommand.GetRowsAffected
 0001:00002E70       Data.DBXMetaDataCommand.TDBXMetaDataCommand.SetMaxBlobSize
 0001:00002E60       Data.DBXMetaDataCommand.TDBXMetaDataCommand.SetRowSetSize
 0001:00003010       Data.DBXMetaDataCommandFactory.Data.DBXMetaDataCommandFactory
 0001:00003000       Data.DBXMetaDataCommandFactory.Finalization
 0001:00002FD0       Data.DBXMetaDataCommandFactory.TDBXDataExpressProviderContext.Commit
 0001:00002F50       Data.DBXMetaDataCommandFactory.TDBXDataExpressProviderContext.Create
 0001:00002FA0       Data.DBXMetaDataCommandFactory.TDBXDataExpressProviderContext.CreateRowStorage
 0001:00002F90       Data.DBXMetaDataCommandFactory.TDBXDataExpressProviderContext.CreateTableStorage
 0001:00002F60       Data.DBXMetaDataCommandFactory.TDBXDataExpressProviderContext.Destroy
 0001:00002F80       Data.DBXMetaDataCommandFactory.TDBXDataExpressProviderContext.ExecuteQuery
 0001:00002F70       Data.DBXMetaDataCommandFactory.TDBXDataExpressProviderContext.GetPlatformTypeName
 0001:00002FF0       Data.DBXMetaDataCommandFactory.TDBXDataExpressProviderContext.GetVendorProperty
 0001:00002FE0       Data.DBXMetaDataCommandFactory.TDBXDataExpressProviderContext.Rollback
 0001:00002FC0       Data.DBXMetaDataCommandFactory.TDBXDataExpressProviderContext.StartSerializedTransaction
 0001:00002FB0       Data.DBXMetaDataCommandFactory.TDBXDataExpressProviderContext.StartTransaction
 0001:00002F30       Data.DBXMetaDataCommandFactory.TDBXMetaDataCommandFactory.RegisterMetaDataCommandFactory
 0001:00002F40       Data.DBXMetaDataCommandFactory.TDBXMetaDataCommandFactory.UnRegisterMetaDataCommandFactory
 0001:00002720       Data.DBXMetaDataError.Data.DBXMetaDataError
 0001:00002710       Data.DBXMetaDataError.Finalization
 0001:00002740       Data.DBXMetaDataNames.Data.DBXMetaDataNames
 0001:00002730       Data.DBXMetaDataNames.Finalization
 0001:000027E0       Data.DBXMetaDataProvider.Data.DBXMetaDataProvider
 0001:000027D0       Data.DBXMetaDataProvider.Finalization
 0001:00002E30       Data.DBXMetaDataReader.Data.DBXMetaDataReader
 0001:00002E20       Data.DBXMetaDataReader.Finalization
 0001:00002A50       Data.DBXMetaDataReader.TDBXBaseMetaDataReader.AreCatalogFunctionsSupported
 0001:00002A20       Data.DBXMetaDataReader.TDBXBaseMetaDataReader.CompareVersion
 0001:000029B0       Data.DBXMetaDataReader.TDBXBaseMetaDataReader.Destroy
 0001:00002B30       Data.DBXMetaDataReader.TDBXBaseMetaDataReader.FetchCatalogs
 0001:00002AF0       Data.DBXMetaDataReader.TDBXBaseMetaDataReader.FetchCollection
 0001:00002B10       Data.DBXMetaDataReader.TDBXBaseMetaDataReader.FetchCollectionWithStorage
 0001:00002B80       Data.DBXMetaDataReader.TDBXBaseMetaDataReader.FetchColumnConstraints
 0001:00002B70       Data.DBXMetaDataReader.TDBXBaseMetaDataReader.FetchColumns
 0001:00002B20       Data.DBXMetaDataReader.TDBXBaseMetaDataReader.FetchDataTypes
 0001:00002BC0       Data.DBXMetaDataReader.TDBXBaseMetaDataReader.FetchForeignKeyColumns
 0001:00002BB0       Data.DBXMetaDataReader.TDBXBaseMetaDataReader.FetchForeignKeys
 0001:00002BA0       Data.DBXMetaDataReader.TDBXBaseMetaDataReader.FetchIndexColumns
 0001:00002B90       Data.DBXMetaDataReader.TDBXBaseMetaDataReader.FetchIndexes
 0001:00002C30       Data.DBXMetaDataReader.TDBXBaseMetaDataReader.FetchPackageProcedureParameters
 0001:00002C20       Data.DBXMetaDataReader.TDBXBaseMetaDataReader.FetchPackageProcedures
 0001:00002C10       Data.DBXMetaDataReader.TDBXBaseMetaDataReader.FetchPackages
 0001:00002C40       Data.DBXMetaDataReader.TDBXBaseMetaDataReader.FetchPackageSources
 0001:00002C00       Data.DBXMetaDataReader.TDBXBaseMetaDataReader.FetchProcedureParameters
 0001:00002BE0       Data.DBXMetaDataReader.TDBXBaseMetaDataReader.FetchProcedures
 0001:00002BF0       Data.DBXMetaDataReader.TDBXBaseMetaDataReader.FetchProcedureSources
 0001:00002C70       Data.DBXMetaDataReader.TDBXBaseMetaDataReader.FetchReservedWords
 0001:00002C60       Data.DBXMetaDataReader.TDBXBaseMetaDataReader.FetchRoles
 0001:00002B40       Data.DBXMetaDataReader.TDBXBaseMetaDataReader.FetchSchemas
 0001:00002BD0       Data.DBXMetaDataReader.TDBXBaseMetaDataReader.FetchSynonyms
 0001:00002B50       Data.DBXMetaDataReader.TDBXBaseMetaDataReader.FetchTables
 0001:00002C50       Data.DBXMetaDataReader.TDBXBaseMetaDataReader.FetchUsers
 0001:00002B60       Data.DBXMetaDataReader.TDBXBaseMetaDataReader.FetchViews
 0001:000029D0       Data.DBXMetaDataReader.TDBXBaseMetaDataReader.GetContext
 0001:00002C80       Data.DBXMetaDataReader.TDBXBaseMetaDataReader.GetDataTypeDescriptions
 0001:00002AC0       Data.DBXMetaDataReader.TDBXBaseMetaDataReader.GetDataTypeHash
 0001:00002AD0       Data.DBXMetaDataReader.TDBXBaseMetaDataReader.GetDataTypes
 0001:000029E0       Data.DBXMetaDataReader.TDBXBaseMetaDataReader.GetProductName
 0001:00002C90       Data.DBXMetaDataReader.TDBXBaseMetaDataReader.GetReservedWords
 0001:00002A10       Data.DBXMetaDataReader.TDBXBaseMetaDataReader.GetSqlDefaultParameterMarker
 0001:00002CB0       Data.DBXMetaDataReader.TDBXBaseMetaDataReader.GetSqlForCatalogs
 0001:00002D00       Data.DBXMetaDataReader.TDBXBaseMetaDataReader.GetSqlForColumnConstraints
 0001:00002CF0       Data.DBXMetaDataReader.TDBXBaseMetaDataReader.GetSqlForColumns
 0001:00002CA0       Data.DBXMetaDataReader.TDBXBaseMetaDataReader.GetSqlForDataTypes
 0001:00002D40       Data.DBXMetaDataReader.TDBXBaseMetaDataReader.GetSqlForForeignKeyColumns
 0001:00002D30       Data.DBXMetaDataReader.TDBXBaseMetaDataReader.GetSqlForForeignKeys
 0001:00002D20       Data.DBXMetaDataReader.TDBXBaseMetaDataReader.GetSqlForIndexColumns
 0001:00002D10       Data.DBXMetaDataReader.TDBXBaseMetaDataReader.GetSqlForIndexes
 0001:00002DB0       Data.DBXMetaDataReader.TDBXBaseMetaDataReader.GetSqlForPackageProcedureParameters
 0001:00002DA0       Data.DBXMetaDataReader.TDBXBaseMetaDataReader.GetSqlForPackageProcedures
 0001:00002D90       Data.DBXMetaDataReader.TDBXBaseMetaDataReader.GetSqlForPackages
 0001:00002DC0       Data.DBXMetaDataReader.TDBXBaseMetaDataReader.GetSqlForPackageSources
 0001:00002D80       Data.DBXMetaDataReader.TDBXBaseMetaDataReader.GetSqlForProcedureParameters
 0001:00002D60       Data.DBXMetaDataReader.TDBXBaseMetaDataReader.GetSqlForProcedures
 0001:00002D70       Data.DBXMetaDataReader.TDBXBaseMetaDataReader.GetSqlForProcedureSources
 0001:00002DF0       Data.DBXMetaDataReader.TDBXBaseMetaDataReader.GetSqlForReservedWords
 0001:00002DE0       Data.DBXMetaDataReader.TDBXBaseMetaDataReader.GetSqlForRoles
 0001:00002CC0       Data.DBXMetaDataReader.TDBXBaseMetaDataReader.GetSqlForSchemas
 0001:00002D50       Data.DBXMetaDataReader.TDBXBaseMetaDataReader.GetSqlForSynonyms
 0001:00002CD0       Data.DBXMetaDataReader.TDBXBaseMetaDataReader.GetSqlForTables
 0001:00002DD0       Data.DBXMetaDataReader.TDBXBaseMetaDataReader.GetSqlForUsers
 0001:00002CE0       Data.DBXMetaDataReader.TDBXBaseMetaDataReader.GetSqlForViews
 0001:00002AA0       Data.DBXMetaDataReader.TDBXBaseMetaDataReader.GetSynonymType
 0001:00002A80       Data.DBXMetaDataReader.TDBXBaseMetaDataReader.GetSystemTableType
 0001:00002A90       Data.DBXMetaDataReader.TDBXBaseMetaDataReader.GetSystemViewType
 0001:00002A60       Data.DBXMetaDataReader.TDBXBaseMetaDataReader.GetTableType
 0001:000029F0       Data.DBXMetaDataReader.TDBXBaseMetaDataReader.GetVersion
 0001:00002A70       Data.DBXMetaDataReader.TDBXBaseMetaDataReader.GetViewType
 0001:00002A30       Data.DBXMetaDataReader.TDBXBaseMetaDataReader.IsQuotedIdentifiersSupported
 0001:00002A40       Data.DBXMetaDataReader.TDBXBaseMetaDataReader.IsSPReturnCodeSupported
 0001:00002B00       Data.DBXMetaDataReader.TDBXBaseMetaDataReader.MakeStorage
 0001:00002AB0       Data.DBXMetaDataReader.TDBXBaseMetaDataReader.MakeTableTypeString
 0001:00002AE0       Data.DBXMetaDataReader.TDBXBaseMetaDataReader.PopulateDataTypes
 0001:000029C0       Data.DBXMetaDataReader.TDBXBaseMetaDataReader.SetContext
 0001:00002A00       Data.DBXMetaDataReader.TDBXBaseMetaDataReader.SetVersion
 0001:000027F0       Data.DBXMetaDataReader.TDBXCustomMetaDataTable.Create
 0001:00002800       Data.DBXMetaDataReader.TDBXDataTypeCursor.Create
 0001:00002820       Data.DBXMetaDataReader.TDBXDataTypeDescription.Create
 0001:00002810       Data.DBXMetaDataReader.TDBXDataTypeDescription.Create
 0001:00002830       Data.DBXMetaDataReader.TDBXDataTypeDescription.SetUnicodeOptionSupported
 0001:00002840       Data.DBXMetaDataReader.TDBXEmptyTableCursor.Create
 0001:00002860       Data.DBXMetaDataReader.TDBXMetaDataCollectionColumns.CreateCatalogsColumns
 0001:000028C0       Data.DBXMetaDataReader.TDBXMetaDataCollectionColumns.CreateColumnConstraintsColumns
 0001:000028B0       Data.DBXMetaDataReader.TDBXMetaDataCollectionColumns.CreateColumnsColumns
 0001:00002850       Data.DBXMetaDataReader.TDBXMetaDataCollectionColumns.CreateDataTypesColumns
 0001:00002900       Data.DBXMetaDataReader.TDBXMetaDataCollectionColumns.CreateForeignKeyColumnsColumns
 0001:000028F0       Data.DBXMetaDataReader.TDBXMetaDataCollectionColumns.CreateForeignKeysColumns
 0001:000028E0       Data.DBXMetaDataReader.TDBXMetaDataCollectionColumns.CreateIndexColumnsColumns
 0001:000028D0       Data.DBXMetaDataReader.TDBXMetaDataCollectionColumns.CreateIndexesColumns
 0001:00002960       Data.DBXMetaDataReader.TDBXMetaDataCollectionColumns.CreatePackageProcedureParametersColumns
 0001:00002950       Data.DBXMetaDataReader.TDBXMetaDataCollectionColumns.CreatePackageProceduresColumns
 0001:00002940       Data.DBXMetaDataReader.TDBXMetaDataCollectionColumns.CreatePackagesColumns
 0001:00002970       Data.DBXMetaDataReader.TDBXMetaDataCollectionColumns.CreatePackageSourcesColumns
 0001:00002930       Data.DBXMetaDataReader.TDBXMetaDataCollectionColumns.CreateProcedureParametersColumns
 0001:00002910       Data.DBXMetaDataReader.TDBXMetaDataCollectionColumns.CreateProceduresColumns
 0001:00002920       Data.DBXMetaDataReader.TDBXMetaDataCollectionColumns.CreateProcedureSourcesColumns
 0001:000029A0       Data.DBXMetaDataReader.TDBXMetaDataCollectionColumns.CreateReservedWordsColumns
 0001:00002990       Data.DBXMetaDataReader.TDBXMetaDataCollectionColumns.CreateRolesColumns
 0001:00002870       Data.DBXMetaDataReader.TDBXMetaDataCollectionColumns.CreateSchemasColumns
 0001:000028A0       Data.DBXMetaDataReader.TDBXMetaDataCollectionColumns.CreateSynonymsColumns
 0001:00002880       Data.DBXMetaDataReader.TDBXMetaDataCollectionColumns.CreateTablesColumns
 0001:00002980       Data.DBXMetaDataReader.TDBXMetaDataCollectionColumns.CreateUsersColumns
 0001:00002890       Data.DBXMetaDataReader.TDBXMetaDataCollectionColumns.CreateViewsColumns
 0001:00002E00       Data.DBXMetaDataReader.TDBXReservedWordsCursor.Create
 0001:00002E10       Data.DBXMetaDataReader.TDBXTableTypeParser.ParseTableTypes
 0001:000026E0       Data.DBXMetaDataUtil.Data.DBXMetaDataUtil
 0001:000026D0       Data.DBXMetaDataUtil.Finalization
 0001:00002760       Data.DBXMetaDataWriter.Data.DBXMetaDataWriter
 0001:00002750       Data.DBXMetaDataWriter.Finalization
 0001:00001D60       Data.DBXPlatform.Data.DBXPlatform
 0001:00001D50       Data.DBXPlatform.Finalization
 0001:00001D00       Data.DBXPlatform.FreeObjectArray
 0001:00001CF0       Data.DBXPlatform.IncrAfter
 0001:00001D10       Data.DBXPlatform.TDBXObjectStore.SetObjectByName
 0001:00001D30       Data.DBXPlatform.TDBXPlatform.CopyWideStringBuilder
 0001:00001D20       Data.DBXPlatform.TDBXPlatform.CreateWideStringBuilder
 0001:00001D40       Data.DBXPlatform.TDBXPlatform.FreeAndNilWideStringBuilder
 0001:00002F20       Data.DBXReaderTableStorage.Data.DBXReaderTableStorage
 0001:00002F10       Data.DBXReaderTableStorage.Finalization
 0001:00002700       Data.DBXSqlScanner.Data.DBXSqlScanner
 0001:000026F0       Data.DBXSqlScanner.Finalization
 0001:000027A0       Data.DBXTableFactory.Data.DBXTableFactory
 0001:00002790       Data.DBXTableFactory.Finalization
 0001:000027C0       Data.DBXTypedTableStorage.Data.DBXTypedTableStorage
 0001:000027B0       Data.DBXTypedTableStorage.Finalization
 0001:00001F60       Data.DSUtil.Data.DSUtil
 0001:00001F50       Data.DSUtil.Finalization
 0001:00001C60       Data.FmtBcd.Data.FmtBcd
 0001:00001C50       Data.FmtBcd.Finalization
 0001:00001C40       Data.SqlTimSt.Data.SqlTimSt
 0001:00001C30       Data.SqlTimSt.Finalization
 0001:00001F20       Datasnap.DataBkr.Datasnap.DataBkr
 0001:00001F10       Datasnap.DataBkr.Finalization
 0001:00001F00       Datasnap.DBClient.Datasnap.DBClient
 0001:00001EF0       Datasnap.DBClient.Finalization
 0001:00001EC0       Datasnap.DSIntf.Datasnap.DSIntf
 0001:00001EB0       Datasnap.DSIntf.Finalization
 0001:00001EE0       Datasnap.Midas.Datasnap.Midas
 0001:00001ED0       Datasnap.Midas.Finalization
 0001:00001EA0       Datasnap.MidConst.Datasnap.MidConst
 0001:00001E90       Datasnap.MidConst.Finalization
 0001:00001F40       Datasnap.Provider.Datasnap.Provider
 0001:00001F30       Datasnap.Provider.Finalization
 0002:00000BF0       Dbx34Drv..$Dbx34drv$CheckGetVendorPropertyCommand$_eh0
 0005:000009E4       Dbx34Drv..$Dbx34drv$CheckGetVendorPropertyCommand$_eh1
 0002:00000C88       Dbx34Drv..$Dbx34drv$CheckLibraryName$_eh0
 0005:00000A2C       Dbx34Drv..$Dbx34drv$CheckLibraryName$_eh1
 0002:00000C58       Dbx34Drv..$Dbx34drv$CheckLibraryPath$_eh0
 0005:00000A14       Dbx34Drv..$Dbx34drv$CheckLibraryPath$_eh1
 0002:00000C20       Dbx34Drv..$Dbx34drv$CheckPathEnvironmet$_eh0
 0005:000009FC       Dbx34Drv..$Dbx34drv$CheckPathEnvironmet$_eh1
 0002:00000C90       Dbx34Drv..$Dbx34drv$CheckVendorLib$_eh0
 0005:00000A38       Dbx34Drv..$Dbx34drv$CheckVendorLib$_eh1
 0002:00001AEC       Dbx34Drv..$Dbx34drv$Dbx34Drv$_eh0
 0005:000012F0       Dbx34Drv..$Dbx34drv$Dbx34Drv$_eh1
 0002:00000B8C       Dbx34Drv..$Dbx34drv$DBXStringArrayToErrorInfo$_eh0
 0005:000009B4       Dbx34Drv..$Dbx34drv$DBXStringArrayToErrorInfo$_eh1
 0002:00000B58       Dbx34Drv..$Dbx34drv$DBXStringArrayToNamedQueryParams$_eh0
 0005:0000099C       Dbx34Drv..$Dbx34drv$DBXStringArrayToNamedQueryParams$_eh1
 0002:00000BC0       Dbx34Drv..$Dbx34drv$ErrorGetVendorPropertyCommand$_eh0
 0005:000009CC       Dbx34Drv..$Dbx34drv$ErrorGetVendorPropertyCommand$_eh1
 0002:00001AC0       Dbx34Drv..$Dbx34drv$Finalization$_eh0
 0005:000012D8       Dbx34Drv..$Dbx34drv$Finalization$_eh1
 0002:00000F94       Dbx34Drv..$Dbx34drv$RaiseDriverVersionFailed$_eh0
 0005:00000C54       Dbx34Drv..$Dbx34drv$RaiseDriverVersionFailed$_eh1
 0002:000010CC       Dbx34Drv..$Dbx34drv$TDBXCustomOpenODBCMetaDataReader.CheckMetadata$_eh0
 0005:00000D20       Dbx34Drv..$Dbx34drv$TDBXCustomOpenODBCMetaDataReader.CheckMetadata$_eh1
 0002:000010E0       Dbx34Drv..$Dbx34drv$TDBXCustomOpenODBCMetaDataReader.GetProductName$_eh0
 0005:00000D38       Dbx34Drv..$Dbx34drv$TDBXCustomOpenODBCMetaDataReader.GetProductName$_eh1
 0002:0000110C       Dbx34Drv..$Dbx34drv$TDBXCustomOpenODBCMetaDataReader.GetSqlIdentifierQuoteChar$_eh0
 0005:00000D98       Dbx34Drv..$Dbx34drv$TDBXCustomOpenODBCMetaDataReader.GetSqlIdentifierQuoteChar$_eh1
 0002:000010E8       Dbx34Drv..$Dbx34drv$TDBXCustomOpenODBCMetaDataReader.GetSqlIdentifierQuotePrefix$_eh0
 0005:00000D44       Dbx34Drv..$Dbx34drv$TDBXCustomOpenODBCMetaDataReader.GetSqlIdentifierQuotePrefix$_eh1
 0002:000010F0       Dbx34Drv..$Dbx34drv$TDBXCustomOpenODBCMetaDataReader.GetSqlIdentifierQuoteSuffix$_eh0
 0005:00000D50       Dbx34Drv..$Dbx34drv$TDBXCustomOpenODBCMetaDataReader.GetSqlIdentifierQuoteSuffix$_eh1
 0002:00001114       Dbx34Drv..$Dbx34drv$TDBXCustomOpenODBCMetaDataReader.GetSqlProcedureQuoteChar$_eh0
 0005:00000DA4       Dbx34Drv..$Dbx34drv$TDBXCustomOpenODBCMetaDataReader.GetSqlProcedureQuoteChar$_eh1
 0002:0000112C       Dbx34Drv..$Dbx34drv$TDBXCustomOpenODBCMetaDataReader.GetUseAnsiStrings$_eh0
 0005:00000DE0       Dbx34Drv..$Dbx34drv$TDBXCustomOpenODBCMetaDataReader.GetUseAnsiStrings$_eh1
 0002:0000109C       Dbx34Drv..$Dbx34drv$TDBXCustomOpenODBCMetaDataReader.InitMetadata$_eh0
 0005:00000D08       Dbx34Drv..$Dbx34drv$TDBXCustomOpenODBCMetaDataReader.InitMetadata$_eh1
 0002:00001108       Dbx34Drv..$Dbx34drv$TDBXCustomOpenODBCMetaDataReader.IsDescendingIndexColumnsSupported$_eh0
 0005:00000D8C       Dbx34Drv..$Dbx34drv$TDBXCustomOpenODBCMetaDataReader.IsDescendingIndexColumnsSupported$_eh1
 0002:00001104       Dbx34Drv..$Dbx34drv$TDBXCustomOpenODBCMetaDataReader.IsDescendingIndexSupported$_eh0
 0005:00000D80       Dbx34Drv..$Dbx34drv$TDBXCustomOpenODBCMetaDataReader.IsDescendingIndexSupported$_eh1
 0002:000010FC       Dbx34Drv..$Dbx34drv$TDBXCustomOpenODBCMetaDataReader.IsLowerCaseIdentifiersSupported$_eh0
 0005:00000D68       Dbx34Drv..$Dbx34drv$TDBXCustomOpenODBCMetaDataReader.IsLowerCaseIdentifiersSupported$_eh1
 0002:0000111C       Dbx34Drv..$Dbx34drv$TDBXCustomOpenODBCMetaDataReader.IsMultipleCommandsSupported$_eh0
 0005:00000DB0       Dbx34Drv..$Dbx34drv$TDBXCustomOpenODBCMetaDataReader.IsMultipleCommandsSupported$_eh1
 0002:00001124       Dbx34Drv..$Dbx34drv$TDBXCustomOpenODBCMetaDataReader.IsNestedTransactionsSupported$_eh0
 0005:00000DC8       Dbx34Drv..$Dbx34drv$TDBXCustomOpenODBCMetaDataReader.IsNestedTransactionsSupported$_eh1
 0002:000010F8       Dbx34Drv..$Dbx34drv$TDBXCustomOpenODBCMetaDataReader.IsParameterMetadataSupported$_eh0
 0005:00000D5C       Dbx34Drv..$Dbx34drv$TDBXCustomOpenODBCMetaDataReader.IsParameterMetadataSupported$_eh1
 0002:00001128       Dbx34Drv..$Dbx34drv$TDBXCustomOpenODBCMetaDataReader.IsSetRowSizeSupported$_eh0
 0005:00000DD4       Dbx34Drv..$Dbx34drv$TDBXCustomOpenODBCMetaDataReader.IsSetRowSizeSupported$_eh1
 0002:00001120       Dbx34Drv..$Dbx34drv$TDBXCustomOpenODBCMetaDataReader.IsTransactionsSupported$_eh0
 0005:00000DBC       Dbx34Drv..$Dbx34drv$TDBXCustomOpenODBCMetaDataReader.IsTransactionsSupported$_eh1
 0002:00001100       Dbx34Drv..$Dbx34drv$TDBXCustomOpenODBCMetaDataReader.IsUpperCaseIdentifiersSupported$_eh0
 0005:00000D74       Dbx34Drv..$Dbx34drv$TDBXCustomOpenODBCMetaDataReader.IsUpperCaseIdentifiersSupported$_eh1
 0002:000010D8       Dbx34Drv..$Dbx34drv$TDBXCustomOpenODBCMetaDataReader.SetContext$_eh0
 0005:00000D2C       Dbx34Drv..$Dbx34drv$TDBXCustomOpenODBCMetaDataReader.SetContext$_eh1
 0002:0000103C       Dbx34Drv..$Dbx34drv$TDBXDynalinkConnectionOpenOdbc.Close$_eh0
 0005:00000CC0       Dbx34Drv..$Dbx34drv$TDBXDynalinkConnectionOpenOdbc.Close$_eh1
 0002:00001030       Dbx34Drv..$Dbx34drv$TDBXDynalinkConnectionOpenOdbc.DerivedClose$_eh0
 0005:00000CA8       Dbx34Drv..$Dbx34drv$TDBXDynalinkConnectionOpenOdbc.DerivedClose$_eh1
 0002:00001044       Dbx34Drv..$Dbx34drv$TDBXDynalinkConnectionOpenOdbc.DerivedCreateCommand$_eh0
 0005:00000CCC       Dbx34Drv..$Dbx34drv$TDBXDynalinkConnectionOpenOdbc.DerivedCreateCommand$_eh1
 0002:00000F8C       Dbx34Drv..$Dbx34drv$TDBXDynalinkConnectionOpenOdbc.DerivedGetCommands$_eh0
 0005:00000C3C       Dbx34Drv..$Dbx34drv$TDBXDynalinkConnectionOpenOdbc.DerivedGetCommands$_eh1
 0002:00000F90       Dbx34Drv..$Dbx34drv$TDBXDynalinkConnectionOpenOdbc.DerivedGetCommandTypes$_eh0
 0005:00000C48       Dbx34Drv..$Dbx34drv$TDBXDynalinkConnectionOpenOdbc.DerivedGetCommandTypes$_eh1
 0002:00000F9C       Dbx34Drv..$Dbx34drv$TDBXDynalinkConnectionOpenOdbc.DerivedOpen$_eh0
 0005:00000C60       Dbx34Drv..$Dbx34drv$TDBXDynalinkConnectionOpenOdbc.DerivedOpen$_eh1
 0002:00001000       Dbx34Drv..$Dbx34drv$TDBXDynalinkConnectionOpenOdbc.DoDerivedOpenAfter$_eh0
 0005:00000C90       Dbx34Drv..$Dbx34drv$TDBXDynalinkConnectionOpenOdbc.DoDerivedOpenAfter$_eh1
 0002:00000FCC       Dbx34Drv..$Dbx34drv$TDBXDynalinkConnectionOpenOdbc.DoDerivedOpenBefore$_eh0
 0005:00000C78       Dbx34Drv..$Dbx34drv$TDBXDynalinkConnectionOpenOdbc.DoDerivedOpenBefore$_eh1
 0002:00001034       Dbx34Drv..$Dbx34drv$TDBXDynalinkConnectionOpenOdbc.GetDatabaseMetaData$_eh0
 0005:00000CB4       Dbx34Drv..$Dbx34drv$TDBXDynalinkConnectionOpenOdbc.GetDatabaseMetaData$_eh1
 0002:00000F84       Dbx34Drv..$Dbx34drv$TDBXDynalinkConnectionOpenOdbc.GetProductName$_eh0
 0005:00000C30       Dbx34Drv..$Dbx34drv$TDBXDynalinkConnectionOpenOdbc.GetProductName$_eh1
 0002:00000F7C       Dbx34Drv..$Dbx34drv$TDBXDynalinkConnectionOpenOdbc.GetProductVersion$_eh0
 0005:00000C24       Dbx34Drv..$Dbx34drv$TDBXDynalinkConnectionOpenOdbc.GetProductVersion$_eh1
 0002:0000104C       Dbx34Drv..$Dbx34drv$TDBXDynalinkConnectionOpenOdbc.GetVendorProperty$_eh0
 0005:00000CD8       Dbx34Drv..$Dbx34drv$TDBXDynalinkConnectionOpenOdbc.GetVendorProperty$_eh1
 0002:00000F74       Dbx34Drv..$Dbx34drv$TDBXDynalinkDriverLoaderOpenOdbc.FreeOldLibrary$_eh0
 0005:00000C18       Dbx34Drv..$Dbx34drv$TDBXDynalinkDriverLoaderOpenOdbc.FreeOldLibrary$_eh1
 0002:00000EFC       Dbx34Drv..$Dbx34drv$TDBXDynalinkDriverLoaderOpenOdbc.LoadDriverLibraryAndMethodTable$_eh0
 0005:00000BE8       Dbx34Drv..$Dbx34drv$TDBXDynalinkDriverLoaderOpenOdbc.LoadDriverLibraryAndMethodTable$_eh1
 0002:00001058       Dbx34Drv..$Dbx34drv$TDBXMorphicCommandOpenOdbc.Create$_eh0
 0005:00000CE4       Dbx34Drv..$Dbx34drv$TDBXMorphicCommandOpenOdbc.Create$_eh1
 0002:00001094       Dbx34Drv..$Dbx34drv$TDBXMorphicCommandOpenOdbc.DerivedExecuteQuery$_eh0
 0005:00000CFC       Dbx34Drv..$Dbx34drv$TDBXMorphicCommandOpenOdbc.DerivedExecuteQuery$_eh1
 0002:00000C98       Dbx34Drv..$Dbx34drv$TDbxOpenOdbcDriver.Create$_eh0
 0005:00000A44       Dbx34Drv..$Dbx34drv$TDbxOpenOdbcDriver.Create$_eh1
 0002:00000CF4       Dbx34Drv..$Dbx34drv$TDbxOpenOdbcDriver.CreateCommandOpenOdbc$_eh0
 0005:00000A68       Dbx34Drv..$Dbx34drv$TDbxOpenOdbcDriver.CreateCommandOpenOdbc$_eh1
 0002:00000CFC       Dbx34Drv..$Dbx34drv$TDbxOpenOdbcDriver.CreateConnection$_eh0
 0005:00000A74       Dbx34Drv..$Dbx34drv$TDbxOpenOdbcDriver.CreateConnection$_eh1
 0002:00000D3C       Dbx34Drv..$Dbx34drv$TDbxOpenOdbcDriver.GetDriverPropertyNames$_eh0
 0005:00000A98       Dbx34Drv..$Dbx34drv$TDbxOpenOdbcDriver.GetDriverPropertyNames$_eh1
 0002:00000D44       Dbx34Drv..$Dbx34drv$TDbxOpenOdbcDriver.GetDriverVersion$_eh0
 0005:00000AA4       Dbx34Drv..$Dbx34drv$TDbxOpenOdbcDriver.GetDriverVersion$_eh1
 0002:00000D0C       Dbx34Drv..$Dbx34drv$TDbxOpenOdbcDriver.LoadDriverWithConnectionBuilder$_eh0
 0005:00000A80       Dbx34Drv..$Dbx34drv$TDbxOpenOdbcDriver.LoadDriverWithConnectionBuilder$_eh1
 0002:00001130       Dbx34Drv..$Dbx34drv$TDBXOpenODBCMetaDataCommand.DerivedExecuteQuery$_eh0
 0005:00000DEC       Dbx34Drv..$Dbx34drv$TDBXOpenODBCMetaDataCommand.DerivedExecuteQuery$_eh1
 0002:00001190       Dbx34Drv..$Dbx34drv$TDBXOpenODBCMetaDataCommandFactory.CreateCommand$_eh0
 0005:00000E34       Dbx34Drv..$Dbx34drv$TDBXOpenODBCMetaDataCommandFactory.CreateCommand$_eh1
 0002:000011CC       Dbx34Drv..$Dbx34drv$TDBXOpenODBCMetaDataCommandFactory.CreateMetaDataReader$_eh0
 0002:000011FC       Dbx34Drv..$Dbx34drv$TDBXOpenODBCMetaDataCommandFactory.CreateMetaDataReader$_eh0
 0005:00000E58       Dbx34Drv..$Dbx34drv$TDBXOpenODBCMetaDataCommandFactory.CreateMetaDataReader$_eh1
 0005:00000E70       Dbx34Drv..$Dbx34drv$TDBXOpenODBCMetaDataCommandFactory.CreateMetaDataReader$_eh1
 0002:00001140       Dbx34Drv..$Dbx34drv$TDBXOpenODBCMetaDataCommandFactory.GetMetaDataReaderClass$_eh0
 0005:00000E04       Dbx34Drv..$Dbx34drv$TDBXOpenODBCMetaDataCommandFactory.GetMetaDataReaderClass$_eh1
 0002:000011C4       Dbx34Drv..$Dbx34drv$TDBXOpenODBCMetaDataCommandFactory.GetProductName$_eh0
 0005:00000E4C       Dbx34Drv..$Dbx34drv$TDBXOpenODBCMetaDataCommandFactory.GetProductName$_eh1
 0002:00001144       Dbx34Drv..$Dbx34drv$TDBXOpenODBCMetaDataCommandFactory.InitMetaDataReaderClass$_eh0
 0005:00000E10       Dbx34Drv..$Dbx34drv$TDBXOpenODBCMetaDataCommandFactory.InitMetaDataReaderClass$_eh1
 0002:00001204       Dbx34Drv..$Dbx34drv$TDBXOpenODBCMetaDataCommandFactory.RegisterMetaDataCommandFactory$_eh0
 0005:00000E7C       Dbx34Drv..$Dbx34drv$TDBXOpenODBCMetaDataCommandFactory.RegisterMetaDataCommandFactory$_eh1
 0002:0000120C       Dbx34Drv..$Dbx34drv$TDBXOpenODBCMetaDataCommandFactory.UnRegisterMetaDataCommandFactory$_eh0
 0005:00000E88       Dbx34Drv..$Dbx34drv$TDBXOpenODBCMetaDataCommandFactory.UnRegisterMetaDataCommandFactory$_eh1
 0002:00001138       Dbx34Drv..$Dbx34drv$TDBXOpenODBCMetaDataCommandFactoryCustom.CreateMetaDataReader$_eh0
 0005:00000DF8       Dbx34Drv..$Dbx34drv$TDBXOpenODBCMetaDataCommandFactoryCustom.CreateMetaDataReader$_eh1
 0002:00001214       Dbx34Drv..$Dbx34drv$TDBXOpenODBCMetaDataReader.Create$_eh0
 0005:00000E94       Dbx34Drv..$Dbx34drv$TDBXOpenODBCMetaDataReader.Create$_eh1
 0002:00001280       Dbx34Drv..$Dbx34drv$TDBXOpenODBCMetaDataReader.FetchCatalogs$_eh0
 0005:00000EC4       Dbx34Drv..$Dbx34drv$TDBXOpenODBCMetaDataReader.FetchCatalogs$_eh1
 0002:0000143C       Dbx34Drv..$Dbx34drv$TDBXOpenODBCMetaDataReader.FetchColumnConstraints$_eh0
 0005:00000F78       Dbx34Drv..$Dbx34drv$TDBXOpenODBCMetaDataReader.FetchColumnConstraints$_eh1
 0002:000013E4       Dbx34Drv..$Dbx34drv$TDBXOpenODBCMetaDataReader.FetchColumns$_eh0
 0005:00000F54       Dbx34Drv..$Dbx34drv$TDBXOpenODBCMetaDataReader.FetchColumns$_eh1
 0002:00001250       Dbx34Drv..$Dbx34drv$TDBXOpenODBCMetaDataReader.FetchDataTypes$_eh0
 0005:00000EAC       Dbx34Drv..$Dbx34drv$TDBXOpenODBCMetaDataReader.FetchDataTypes$_eh1
 0002:00001494       Dbx34Drv..$Dbx34drv$TDBXOpenODBCMetaDataReader.FetchForeignKeyColumns$_eh0
 0005:00000F9C       Dbx34Drv..$Dbx34drv$TDBXOpenODBCMetaDataReader.FetchForeignKeyColumns$_eh1
 0002:000014F0       Dbx34Drv..$Dbx34drv$TDBXOpenODBCMetaDataReader.FetchForeignKeys$_eh0
 0005:00000FC0       Dbx34Drv..$Dbx34drv$TDBXOpenODBCMetaDataReader.FetchForeignKeys$_eh1
 0002:00001548       Dbx34Drv..$Dbx34drv$TDBXOpenODBCMetaDataReader.FetchIndexColumns$_eh0
 0005:00000FE4       Dbx34Drv..$Dbx34drv$TDBXOpenODBCMetaDataReader.FetchIndexColumns$_eh1
 0002:000015CC       Dbx34Drv..$Dbx34drv$TDBXOpenODBCMetaDataReader.FetchIndexes$_eh0
 0005:00001014       Dbx34Drv..$Dbx34drv$TDBXOpenODBCMetaDataReader.FetchIndexes$_eh1
 0002:00001860       Dbx34Drv..$Dbx34drv$TDBXOpenODBCMetaDataReader.FetchPackageProcedureParameters$_eh0
 0005:0000111C       Dbx34Drv..$Dbx34drv$TDBXOpenODBCMetaDataReader.FetchPackageProcedureParameters$_eh1
 0002:00001808       Dbx34Drv..$Dbx34drv$TDBXOpenODBCMetaDataReader.FetchPackageProcedures$_eh0
 0005:000010F8       Dbx34Drv..$Dbx34drv$TDBXOpenODBCMetaDataReader.FetchPackageProcedures$_eh1
 0002:000017B0       Dbx34Drv..$Dbx34drv$TDBXOpenODBCMetaDataReader.FetchPackages$_eh0
 0005:000010D4       Dbx34Drv..$Dbx34drv$TDBXOpenODBCMetaDataReader.FetchPackages$_eh1
 0002:000018B8       Dbx34Drv..$Dbx34drv$TDBXOpenODBCMetaDataReader.FetchPackageSources$_eh0
 0005:00001140       Dbx34Drv..$Dbx34drv$TDBXOpenODBCMetaDataReader.FetchPackageSources$_eh1
 0002:00001758       Dbx34Drv..$Dbx34drv$TDBXOpenODBCMetaDataReader.FetchProcedureParameters$_eh0
 0005:000010B0       Dbx34Drv..$Dbx34drv$TDBXOpenODBCMetaDataReader.FetchProcedureParameters$_eh1
 0002:00001650       Dbx34Drv..$Dbx34drv$TDBXOpenODBCMetaDataReader.FetchProcedures$_eh0
 0005:00001044       Dbx34Drv..$Dbx34drv$TDBXOpenODBCMetaDataReader.FetchProcedures$_eh1
 0002:000016A8       Dbx34Drv..$Dbx34drv$TDBXOpenODBCMetaDataReader.FetchProcedureSources$_eh0
 0005:00001068       Dbx34Drv..$Dbx34drv$TDBXOpenODBCMetaDataReader.FetchProcedureSources$_eh1
 0002:000019C0       Dbx34Drv..$Dbx34drv$TDBXOpenODBCMetaDataReader.FetchReservedWords$_eh0
 0005:000011AC       Dbx34Drv..$Dbx34drv$TDBXOpenODBCMetaDataReader.FetchReservedWords$_eh1
 0002:00001968       Dbx34Drv..$Dbx34drv$TDBXOpenODBCMetaDataReader.FetchRoles$_eh0
 0005:00001188       Dbx34Drv..$Dbx34drv$TDBXOpenODBCMetaDataReader.FetchRoles$_eh1
 0002:000012B0       Dbx34Drv..$Dbx34drv$TDBXOpenODBCMetaDataReader.FetchSchemas$_eh0
 0005:00000EDC       Dbx34Drv..$Dbx34drv$TDBXOpenODBCMetaDataReader.FetchSchemas$_eh1
 0002:00001700       Dbx34Drv..$Dbx34drv$TDBXOpenODBCMetaDataReader.FetchSynonyms$_eh0
 0005:0000108C       Dbx34Drv..$Dbx34drv$TDBXOpenODBCMetaDataReader.FetchSynonyms$_eh1
 0002:00001308       Dbx34Drv..$Dbx34drv$TDBXOpenODBCMetaDataReader.FetchTables$_eh0
 0005:00000F00       Dbx34Drv..$Dbx34drv$TDBXOpenODBCMetaDataReader.FetchTables$_eh1
 0002:00001910       Dbx34Drv..$Dbx34drv$TDBXOpenODBCMetaDataReader.FetchUsers$_eh0
 0005:00001164       Dbx34Drv..$Dbx34drv$TDBXOpenODBCMetaDataReader.FetchUsers$_eh1
 0002:0000138C       Dbx34Drv..$Dbx34drv$TDBXOpenODBCMetaDataReader.FetchViews$_eh0
 0005:00000F30       Dbx34Drv..$Dbx34drv$TDBXOpenODBCMetaDataReader.FetchViews$_eh1
 0002:00001A18       Dbx34Drv..$Dbx34drv$TDBXOpenODBCMetaDataReader.GetProductName$_eh0
 0005:000011D0       Dbx34Drv..$Dbx34drv$TDBXOpenODBCMetaDataReader.GetProductName$_eh1
 0002:00001A20       Dbx34Drv..$Dbx34drv$TDBXOpenODBCMetaDataReader.GetReservedWords$_eh0
 0005:000011DC       Dbx34Drv..$Dbx34drv$TDBXOpenODBCMetaDataReader.GetReservedWords$_eh1
 0002:00001A28       Dbx34Drv..$Dbx34drv$TDBXOpenODBCMetaDataReader.GetSqlForColumns$_eh0
 0005:000011E8       Dbx34Drv..$Dbx34drv$TDBXOpenODBCMetaDataReader.GetSqlForColumns$_eh1
 0002:00001A30       Dbx34Drv..$Dbx34drv$TDBXOpenODBCMetaDataReader.GetSqlForForeignKeyColumns$_eh0
 0005:000011F4       Dbx34Drv..$Dbx34drv$TDBXOpenODBCMetaDataReader.GetSqlForForeignKeyColumns$_eh1
 0002:00001A38       Dbx34Drv..$Dbx34drv$TDBXOpenODBCMetaDataReader.GetSqlForForeignKeys$_eh0
 0005:00001200       Dbx34Drv..$Dbx34drv$TDBXOpenODBCMetaDataReader.GetSqlForForeignKeys$_eh1
 0002:00001A40       Dbx34Drv..$Dbx34drv$TDBXOpenODBCMetaDataReader.GetSqlForIndexColumns$_eh0
 0005:0000120C       Dbx34Drv..$Dbx34drv$TDBXOpenODBCMetaDataReader.GetSqlForIndexColumns$_eh1
 0002:00001A48       Dbx34Drv..$Dbx34drv$TDBXOpenODBCMetaDataReader.GetSqlForIndexes$_eh0
 0005:00001218       Dbx34Drv..$Dbx34drv$TDBXOpenODBCMetaDataReader.GetSqlForIndexes$_eh1
 0002:00001A50       Dbx34Drv..$Dbx34drv$TDBXOpenODBCMetaDataReader.GetSqlForPackageProcedureParameters$_eh0
 0005:00001224       Dbx34Drv..$Dbx34drv$TDBXOpenODBCMetaDataReader.GetSqlForPackageProcedureParameters$_eh1
 0002:00001A58       Dbx34Drv..$Dbx34drv$TDBXOpenODBCMetaDataReader.GetSqlForPackageProcedures$_eh0
 0005:00001230       Dbx34Drv..$Dbx34drv$TDBXOpenODBCMetaDataReader.GetSqlForPackageProcedures$_eh1
 0002:00001A60       Dbx34Drv..$Dbx34drv$TDBXOpenODBCMetaDataReader.GetSqlForPackages$_eh0
 0005:0000123C       Dbx34Drv..$Dbx34drv$TDBXOpenODBCMetaDataReader.GetSqlForPackages$_eh1
 0002:00001A68       Dbx34Drv..$Dbx34drv$TDBXOpenODBCMetaDataReader.GetSqlForPackageSources$_eh0
 0005:00001248       Dbx34Drv..$Dbx34drv$TDBXOpenODBCMetaDataReader.GetSqlForPackageSources$_eh1
 0002:00001A70       Dbx34Drv..$Dbx34drv$TDBXOpenODBCMetaDataReader.GetSqlForProcedureParameters$_eh0
 0005:00001254       Dbx34Drv..$Dbx34drv$TDBXOpenODBCMetaDataReader.GetSqlForProcedureParameters$_eh1
 0002:00001A78       Dbx34Drv..$Dbx34drv$TDBXOpenODBCMetaDataReader.GetSqlForProcedures$_eh0
 0005:00001260       Dbx34Drv..$Dbx34drv$TDBXOpenODBCMetaDataReader.GetSqlForProcedures$_eh1
 0002:00001A80       Dbx34Drv..$Dbx34drv$TDBXOpenODBCMetaDataReader.GetSqlForProcedureSources$_eh0
 0005:0000126C       Dbx34Drv..$Dbx34drv$TDBXOpenODBCMetaDataReader.GetSqlForProcedureSources$_eh1
 0002:00001A88       Dbx34Drv..$Dbx34drv$TDBXOpenODBCMetaDataReader.GetSqlForRoles$_eh0
 0005:00001278       Dbx34Drv..$Dbx34drv$TDBXOpenODBCMetaDataReader.GetSqlForRoles$_eh1
 0002:00001A90       Dbx34Drv..$Dbx34drv$TDBXOpenODBCMetaDataReader.GetSqlForSchemas$_eh0
 0005:00001284       Dbx34Drv..$Dbx34drv$TDBXOpenODBCMetaDataReader.GetSqlForSchemas$_eh1
 0002:00001A98       Dbx34Drv..$Dbx34drv$TDBXOpenODBCMetaDataReader.GetSqlForSynonyms$_eh0
 0005:00001290       Dbx34Drv..$Dbx34drv$TDBXOpenODBCMetaDataReader.GetSqlForSynonyms$_eh1
 0002:00001AA0       Dbx34Drv..$Dbx34drv$TDBXOpenODBCMetaDataReader.GetSqlForTables$_eh0
 0005:0000129C       Dbx34Drv..$Dbx34drv$TDBXOpenODBCMetaDataReader.GetSqlForTables$_eh1
 0002:00001AA8       Dbx34Drv..$Dbx34drv$TDBXOpenODBCMetaDataReader.GetSqlForUsers$_eh0
 0005:000012A8       Dbx34Drv..$Dbx34drv$TDBXOpenODBCMetaDataReader.GetSqlForUsers$_eh1
 0002:00001AB0       Dbx34Drv..$Dbx34drv$TDBXOpenODBCMetaDataReader.GetSqlForViews$_eh0
 0005:000012B4       Dbx34Drv..$Dbx34drv$TDBXOpenODBCMetaDataReader.GetSqlForViews$_eh1
 0002:00001AB8       Dbx34Drv..$Dbx34drv$TDBXOpenODBCMetaDataReader.IsNestedTransactionsSupported$_eh0
 0005:000012C0       Dbx34Drv..$Dbx34drv$TDBXOpenODBCMetaDataReader.IsNestedTransactionsSupported$_eh1
 0002:00001ABC       Dbx34Drv..$Dbx34drv$TDBXOpenODBCMetaDataReader.IsSetRowSizeSupported$_eh0
 0005:000012CC       Dbx34Drv..$Dbx34drv$TDBXOpenODBCMetaDataReader.IsSetRowSizeSupported$_eh1
 0002:00000D74       Dbx34Drv..$Dbx34drv$TDBXOpenOdbcProperties.Create$_eh0
 0005:00000ABC       Dbx34Drv..$Dbx34drv$TDBXOpenOdbcProperties.Create$_eh1
 0002:00000E0C       Dbx34Drv..$Dbx34drv$TDBXOpenOdbcProperties.GetBlobSize$_eh0
 0005:00000B40       Dbx34Drv..$Dbx34drv$TDBXOpenOdbcProperties.GetBlobSize$_eh1
 0002:00000DCC       Dbx34Drv..$Dbx34drv$TDBXOpenOdbcProperties.GetConnectionString$_eh0
 0005:00000AE0       Dbx34Drv..$Dbx34drv$TDBXOpenOdbcProperties.GetConnectionString$_eh1
 0002:00000EEC       Dbx34Drv..$Dbx34drv$TDBXOpenOdbcProperties.GetCustomString$_eh0
 0005:00000BD0       Dbx34Drv..$Dbx34drv$TDBXOpenOdbcProperties.GetCustomString$_eh1
 0002:00000DDC       Dbx34Drv..$Dbx34drv$TDBXOpenOdbcProperties.GetDatabase$_eh0
 0005:00000AF8       Dbx34Drv..$Dbx34drv$TDBXOpenOdbcProperties.GetDatabase$_eh1
 0002:00000E7C       Dbx34Drv..$Dbx34drv$TDBXOpenOdbcProperties.GetDecimalSeparator$_eh0
 0005:00000B88       Dbx34Drv..$Dbx34drv$TDBXOpenOdbcProperties.GetDecimalSeparator$_eh1
 0002:00000E6C       Dbx34Drv..$Dbx34drv$TDBXOpenOdbcProperties.GetOdbcTransIsolation$_eh0
 0005:00000B70       Dbx34Drv..$Dbx34drv$TDBXOpenOdbcProperties.GetOdbcTransIsolation$_eh1
 0002:00000DFC       Dbx34Drv..$Dbx34drv$TDBXOpenOdbcProperties.GetPassWord$_eh0
 0005:00000B28       Dbx34Drv..$Dbx34drv$TDBXOpenOdbcProperties.GetPassWord$_eh1
 0002:00000E8C       Dbx34Drv..$Dbx34drv$TDBXOpenOdbcProperties.GetTrimChar$_eh0
 0005:00000BA0       Dbx34Drv..$Dbx34drv$TDBXOpenOdbcProperties.GetTrimChar$_eh1
 0002:00000DEC       Dbx34Drv..$Dbx34drv$TDBXOpenOdbcProperties.GetUserName$_eh0
 0005:00000B10       Dbx34Drv..$Dbx34drv$TDBXOpenOdbcProperties.GetUserName$_eh1
 0002:00000E3C       Dbx34Drv..$Dbx34drv$TDBXOpenOdbcProperties.SetBlobSize$_eh0
 0005:00000B58       Dbx34Drv..$Dbx34drv$TDBXOpenOdbcProperties.SetBlobSize$_eh1
 0002:00000DD4       Dbx34Drv..$Dbx34drv$TDBXOpenOdbcProperties.SetConnectionString$_eh0
 0005:00000AEC       Dbx34Drv..$Dbx34drv$TDBXOpenOdbcProperties.SetConnectionString$_eh1
 0002:00000EF4       Dbx34Drv..$Dbx34drv$TDBXOpenOdbcProperties.SetCustomString$_eh0
 0005:00000BDC       Dbx34Drv..$Dbx34drv$TDBXOpenOdbcProperties.SetCustomString$_eh1
 0002:00000DE4       Dbx34Drv..$Dbx34drv$TDBXOpenOdbcProperties.SetDatabase$_eh0
 0005:00000B04       Dbx34Drv..$Dbx34drv$TDBXOpenOdbcProperties.SetDatabase$_eh1
 0002:00000E84       Dbx34Drv..$Dbx34drv$TDBXOpenOdbcProperties.SetDecimalSeparator$_eh0
 0005:00000B94       Dbx34Drv..$Dbx34drv$TDBXOpenOdbcProperties.SetDecimalSeparator$_eh1
 0002:00000E74       Dbx34Drv..$Dbx34drv$TDBXOpenOdbcProperties.SetOdbcTransIsolation$_eh0
 0005:00000B7C       Dbx34Drv..$Dbx34drv$TDBXOpenOdbcProperties.SetOdbcTransIsolation$_eh1
 0002:00000E04       Dbx34Drv..$Dbx34drv$TDBXOpenOdbcProperties.SetPassWord$_eh0
 0005:00000B34       Dbx34Drv..$Dbx34drv$TDBXOpenOdbcProperties.SetPassWord$_eh1
 0002:00000EBC       Dbx34Drv..$Dbx34drv$TDBXOpenOdbcProperties.SetTrimChar$_eh0
 0005:00000BB8       Dbx34Drv..$Dbx34drv$TDBXOpenOdbcProperties.SetTrimChar$_eh1
 0002:00000DF4       Dbx34Drv..$Dbx34drv$TDBXOpenOdbcProperties.SetUserName$_eh0
 0005:00000B1C       Dbx34Drv..$Dbx34drv$TDBXOpenOdbcProperties.SetUserName$_eh1
 0003:0000005C       Dbx34Drv..71
 0001:00044360       Dbx34Drv..EDBXError
 0001:00044468       Dbx34Drv..EDbxOODBCDriverError
 0001:00045378       Dbx34Drv..TDBXCustomOpenODBCMetaDataReader
 0001:000451F8       Dbx34Drv..TDBXDataExpressProviderContextOpenOdbc
 0001:00044D98       Dbx34Drv..TDBXDynalinkConnectionOpenOdbc
 0001:00044C48       Dbx34Drv..TDBXDynalinkDriverLoaderOpenOdbc
 0001:00044FF0       Dbx34Drv..TDBXMorphicCommandOpenOdbc
 0001:000447B0       Dbx34Drv..TDbxOpenOdbcDriver
 0001:00045730       Dbx34Drv..TDBXOpenODBCMetaDataCommand
 0001:000459D0       Dbx34Drv..TDBXOpenODBCMetaDataCommandFactory
 0001:00045B60       Dbx34Drv..TDBXOpenODBCMetaDataCommandFactoryCustom
 0001:00045CB8       Dbx34Drv..TDBXOpenODBCMetaDataReader
 0001:00044918       Dbx34Drv..TDBXOpenOdbcProperties
 0001:00044590       Dbx34Drv..TDBXOpenOdbcPropertyNames
 0001:000446A8       Dbx34Drv..TDBXPropertyNames
 0002:00000B54       Dbx34Drv.bIsDbx34Drv
 0001:000465E0       Dbx34Drv.CheckGetVendorPropertyCommand
 0001:00046A40       Dbx34Drv.CheckLibraryName
 0001:00046950       Dbx34Drv.CheckLibraryPath
 0001:000466B0       Dbx34Drv.CheckPathEnvironmet
 0001:00046A90       Dbx34Drv.CheckVendorLib
 0001:0004C6A0       Dbx34Drv.Dbx34Drv
 0001:000461F0       Dbx34Drv.DBXStringArrayToErrorInfo
 0001:00046050       Dbx34Drv.DBXStringArrayToNamedQueryParams
 0001:00046400       Dbx34Drv.ErrorGetVendorPropertyCommand
 0001:0004C5F0       Dbx34Drv.Finalization
 0001:00047BD0       Dbx34Drv.RaiseDriverVersionFailed
 0001:00048750       Dbx34Drv.TDBXCustomOpenODBCMetaDataReader.CheckMetadata
 0001:00048830       Dbx34Drv.TDBXCustomOpenODBCMetaDataReader.GetProductName
 0001:00048910       Dbx34Drv.TDBXCustomOpenODBCMetaDataReader.GetSqlIdentifierQuoteChar
 0001:00048880       Dbx34Drv.TDBXCustomOpenODBCMetaDataReader.GetSqlIdentifierQuotePrefix
 0001:000488A0       Dbx34Drv.TDBXCustomOpenODBCMetaDataReader.GetSqlIdentifierQuoteSuffix
 0001:00048930       Dbx34Drv.TDBXCustomOpenODBCMetaDataReader.GetSqlProcedureQuoteChar
 0001:00048990       Dbx34Drv.TDBXCustomOpenODBCMetaDataReader.GetUseAnsiStrings
 0001:00048630       Dbx34Drv.TDBXCustomOpenODBCMetaDataReader.InitMetadata
 0001:00048900       Dbx34Drv.TDBXCustomOpenODBCMetaDataReader.IsDescendingIndexColumnsSupported
 0001:000488F0       Dbx34Drv.TDBXCustomOpenODBCMetaDataReader.IsDescendingIndexSupported
 0001:000488D0       Dbx34Drv.TDBXCustomOpenODBCMetaDataReader.IsLowerCaseIdentifiersSupported
 0001:00048950       Dbx34Drv.TDBXCustomOpenODBCMetaDataReader.IsMultipleCommandsSupported
 0001:00048970       Dbx34Drv.TDBXCustomOpenODBCMetaDataReader.IsNestedTransactionsSupported
 0001:000488C0       Dbx34Drv.TDBXCustomOpenODBCMetaDataReader.IsParameterMetadataSupported
 0001:00048980       Dbx34Drv.TDBXCustomOpenODBCMetaDataReader.IsSetRowSizeSupported
 0001:00048960       Dbx34Drv.TDBXCustomOpenODBCMetaDataReader.IsTransactionsSupported
 0001:000488E0       Dbx34Drv.TDBXCustomOpenODBCMetaDataReader.IsUpperCaseIdentifiersSupported
 0001:00048800       Dbx34Drv.TDBXCustomOpenODBCMetaDataReader.SetContext
 0001:00048490       Dbx34Drv.TDBXDynalinkConnectionOpenOdbc.Close
 0001:00048470       Dbx34Drv.TDBXDynalinkConnectionOpenOdbc.DerivedClose
 0001:000484A0       Dbx34Drv.TDBXDynalinkConnectionOpenOdbc.DerivedCreateCommand
 0001:00047BB0       Dbx34Drv.TDBXDynalinkConnectionOpenOdbc.DerivedGetCommands
 0001:00047BC0       Dbx34Drv.TDBXDynalinkConnectionOpenOdbc.DerivedGetCommandTypes
 0001:00047C70       Dbx34Drv.TDBXDynalinkConnectionOpenOdbc.DerivedOpen
 0001:00048330       Dbx34Drv.TDBXDynalinkConnectionOpenOdbc.DoDerivedOpenAfter
 0001:00047E30       Dbx34Drv.TDBXDynalinkConnectionOpenOdbc.DoDerivedOpenBefore
 0001:00048480       Dbx34Drv.TDBXDynalinkConnectionOpenOdbc.GetDatabaseMetaData
 0001:00047B60       Dbx34Drv.TDBXDynalinkConnectionOpenOdbc.GetProductName
 0001:00047B40       Dbx34Drv.TDBXDynalinkConnectionOpenOdbc.GetProductVersion
 0001:000484D0       Dbx34Drv.TDBXDynalinkConnectionOpenOdbc.GetVendorProperty
 0001:00047B10       Dbx34Drv.TDBXDynalinkDriverLoaderOpenOdbc.FreeOldLibrary
 0001:00047720       Dbx34Drv.TDBXDynalinkDriverLoaderOpenOdbc.LoadDriverLibraryAndMethodTable
 0001:00048570       Dbx34Drv.TDBXMorphicCommandOpenOdbc.Create
 0001:00048620       Dbx34Drv.TDBXMorphicCommandOpenOdbc.DerivedExecuteQuery
 0001:00046AE0       Dbx34Drv.TDbxOpenOdbcDriver.Create
 0001:00046C70       Dbx34Drv.TDbxOpenOdbcDriver.CreateCommandOpenOdbc
 0001:00046CA0       Dbx34Drv.TDbxOpenOdbcDriver.CreateConnection
 0001:00046DF0       Dbx34Drv.TDbxOpenOdbcDriver.GetDriverPropertyNames
 0001:00046E00       Dbx34Drv.TDbxOpenOdbcDriver.GetDriverVersion
 0001:00046D00       Dbx34Drv.TDbxOpenOdbcDriver.LoadDriverWithConnectionBuilder
 0001:000489A0       Dbx34Drv.TDBXOpenODBCMetaDataCommand.DerivedExecuteQuery
 0001:00048CB0       Dbx34Drv.TDBXOpenODBCMetaDataCommandFactory.CreateCommand
 0001:00048E40       Dbx34Drv.TDBXOpenODBCMetaDataCommandFactory.CreateMetaDataReader
 0001:000491A0       Dbx34Drv.TDBXOpenODBCMetaDataCommandFactory.CreateMetaDataReader
 0001:000489D0       Dbx34Drv.TDBXOpenODBCMetaDataCommandFactory.GetMetaDataReaderClass
 0001:00048DF0       Dbx34Drv.TDBXOpenODBCMetaDataCommandFactory.GetProductName
 0001:000489E0       Dbx34Drv.TDBXOpenODBCMetaDataCommandFactory.InitMetaDataReaderClass
 0001:000491C0       Dbx34Drv.TDBXOpenODBCMetaDataCommandFactory.RegisterMetaDataCommandFactory
 0001:000491D0       Dbx34Drv.TDBXOpenODBCMetaDataCommandFactory.UnRegisterMetaDataCommandFactory
 0001:000489B0       Dbx34Drv.TDBXOpenODBCMetaDataCommandFactoryCustom.CreateMetaDataReader
 0001:000491E0       Dbx34Drv.TDBXOpenODBCMetaDataReader.Create
 0001:00049320       Dbx34Drv.TDBXOpenODBCMetaDataReader.FetchCatalogs
 0001:0004A030       Dbx34Drv.TDBXOpenODBCMetaDataReader.FetchColumnConstraints
 0001:00049E80       Dbx34Drv.TDBXOpenODBCMetaDataReader.FetchColumns
 0001:00049280       Dbx34Drv.TDBXOpenODBCMetaDataReader.FetchDataTypes
 0001:0004A1F0       Dbx34Drv.TDBXOpenODBCMetaDataReader.FetchForeignKeyColumns
 0001:0004A400       Dbx34Drv.TDBXOpenODBCMetaDataReader.FetchForeignKeys
 0001:0004A5C0       Dbx34Drv.TDBXOpenODBCMetaDataReader.FetchIndexColumns
 0001:0004AB20       Dbx34Drv.TDBXOpenODBCMetaDataReader.FetchIndexes
 0001:0004BB10       Dbx34Drv.TDBXOpenODBCMetaDataReader.FetchPackageProcedureParameters
 0001:0004B920       Dbx34Drv.TDBXOpenODBCMetaDataReader.FetchPackageProcedures
 0001:0004B770       Dbx34Drv.TDBXOpenODBCMetaDataReader.FetchPackages
 0001:0004BD30       Dbx34Drv.TDBXOpenODBCMetaDataReader.FetchPackageSources
 0001:0004B570       Dbx34Drv.TDBXOpenODBCMetaDataReader.FetchProcedureParameters
 0001:0004B020       Dbx34Drv.TDBXOpenODBCMetaDataReader.FetchProcedures
 0001:0004B200       Dbx34Drv.TDBXOpenODBCMetaDataReader.FetchProcedureSources
 0001:0004C150       Dbx34Drv.TDBXOpenODBCMetaDataReader.FetchReservedWords
 0001:0004C020       Dbx34Drv.TDBXOpenODBCMetaDataReader.FetchRoles
 0001:000493D0       Dbx34Drv.TDBXOpenODBCMetaDataReader.FetchSchemas
 0001:0004B3C0       Dbx34Drv.TDBXOpenODBCMetaDataReader.FetchSynonyms
 0001:00049570       Dbx34Drv.TDBXOpenODBCMetaDataReader.FetchTables
 0001:0004BEF0       Dbx34Drv.TDBXOpenODBCMetaDataReader.FetchUsers
 0001:00049CC0       Dbx34Drv.TDBXOpenODBCMetaDataReader.FetchViews
 0001:0004C320       Dbx34Drv.TDBXOpenODBCMetaDataReader.GetProductName
 0001:0004C370       Dbx34Drv.TDBXOpenODBCMetaDataReader.GetReservedWords
 0001:0004C390       Dbx34Drv.TDBXOpenODBCMetaDataReader.GetSqlForColumns
 0001:0004C3B0       Dbx34Drv.TDBXOpenODBCMetaDataReader.GetSqlForForeignKeyColumns
 0001:0004C3D0       Dbx34Drv.TDBXOpenODBCMetaDataReader.GetSqlForForeignKeys
 0001:0004C3F0       Dbx34Drv.TDBXOpenODBCMetaDataReader.GetSqlForIndexColumns
 0001:0004C410       Dbx34Drv.TDBXOpenODBCMetaDataReader.GetSqlForIndexes
 0001:0004C430       Dbx34Drv.TDBXOpenODBCMetaDataReader.GetSqlForPackageProcedureParameters
 0001:0004C450       Dbx34Drv.TDBXOpenODBCMetaDataReader.GetSqlForPackageProcedures
 0001:0004C470       Dbx34Drv.TDBXOpenODBCMetaDataReader.GetSqlForPackages
 0001:0004C490       Dbx34Drv.TDBXOpenODBCMetaDataReader.GetSqlForPackageSources
 0001:0004C4B0       Dbx34Drv.TDBXOpenODBCMetaDataReader.GetSqlForProcedureParameters
 0001:0004C4D0       Dbx34Drv.TDBXOpenODBCMetaDataReader.GetSqlForProcedures
 0001:0004C4F0       Dbx34Drv.TDBXOpenODBCMetaDataReader.GetSqlForProcedureSources
 0001:0004C510       Dbx34Drv.TDBXOpenODBCMetaDataReader.GetSqlForRoles
 0001:0004C530       Dbx34Drv.TDBXOpenODBCMetaDataReader.GetSqlForSchemas
 0001:0004C550       Dbx34Drv.TDBXOpenODBCMetaDataReader.GetSqlForSynonyms
 0001:0004C570       Dbx34Drv.TDBXOpenODBCMetaDataReader.GetSqlForTables
 0001:0004C590       Dbx34Drv.TDBXOpenODBCMetaDataReader.GetSqlForUsers
 0001:0004C5B0       Dbx34Drv.TDBXOpenODBCMetaDataReader.GetSqlForViews
 0001:0004C5D0       Dbx34Drv.TDBXOpenODBCMetaDataReader.IsNestedTransactionsSupported
 0001:0004C5E0       Dbx34Drv.TDBXOpenODBCMetaDataReader.IsSetRowSizeSupported
 0001:00046E60       Dbx34Drv.TDBXOpenOdbcProperties.Create
 0001:000472B0       Dbx34Drv.TDBXOpenOdbcProperties.GetBlobSize
 0001:00047090       Dbx34Drv.TDBXOpenOdbcProperties.GetConnectionString
 0001:00047680       Dbx34Drv.TDBXOpenOdbcProperties.GetCustomString
 0001:00047130       Dbx34Drv.TDBXOpenOdbcProperties.GetDatabase
 0001:000474C0       Dbx34Drv.TDBXOpenOdbcProperties.GetDecimalSeparator
 0001:000473F0       Dbx34Drv.TDBXOpenOdbcProperties.GetOdbcTransIsolation
 0001:00047230       Dbx34Drv.TDBXOpenOdbcProperties.GetPassWord
 0001:00047560       Dbx34Drv.TDBXOpenOdbcProperties.GetTrimChar
 0001:000471B0       Dbx34Drv.TDBXOpenOdbcProperties.GetUserName
 0001:00047350       Dbx34Drv.TDBXOpenOdbcProperties.SetBlobSize
 0001:000470E0       Dbx34Drv.TDBXOpenOdbcProperties.SetConnectionString
 0001:000476D0       Dbx34Drv.TDBXOpenOdbcProperties.SetCustomString
 0001:00047170       Dbx34Drv.TDBXOpenOdbcProperties.SetDatabase
 0001:00047510       Dbx34Drv.TDBXOpenOdbcProperties.SetDecimalSeparator
 0001:00047460       Dbx34Drv.TDBXOpenOdbcProperties.SetOdbcTransIsolation
 0001:00047270       Dbx34Drv.TDBXOpenOdbcProperties.SetPassWord
 0001:000475F0       Dbx34Drv.TDBXOpenOdbcProperties.SetTrimChar
 0001:000471F0       Dbx34Drv.TDBXOpenOdbcProperties.SetUserName
 0002:00000B4C       Dbx34DrvDbms..$Dbx34drvdbms$Dbx34DrvDbms$_eh0
 0005:00000990       Dbx34DrvDbms..$Dbx34drvdbms$Dbx34DrvDbms$_eh1
 0002:00000B44       Dbx34DrvDbms..$Dbx34drvdbms$Finalization$_eh0
 0005:00000984       Dbx34DrvDbms..$Dbx34drvdbms$Finalization$_eh1
 0002:00000890       Dbx34DrvDbms..$Dbx34drvdbms$TDBXOpenODBCMetaDataCommandFactoryDataStorage.GetMetaDataReaderClass$_eh0
 0005:00000750       Dbx34DrvDbms..$Dbx34drvdbms$TDBXOpenODBCMetaDataCommandFactoryDataStorage.GetMetaDataReaderClass$_eh1
 0002:000006F4       Dbx34DrvDbms..$Dbx34drvdbms$TDBXOpenODBCMetaDataCommandFactoryDB2.GetMetaDataReaderClass$_eh0
 0005:000005D0       Dbx34DrvDbms..$Dbx34drvdbms$TDBXOpenODBCMetaDataCommandFactoryDB2.GetMetaDataReaderClass$_eh1
 0002:000008B4       Dbx34DrvDbms..$Dbx34drvdbms$TDBXOpenODBCMetaDataCommandFactoryFirebird.GetMetaDataReaderClass$_eh0
 0005:0000078C       Dbx34DrvDbms..$Dbx34drvdbms$TDBXOpenODBCMetaDataCommandFactoryFirebird.GetMetaDataReaderClass$_eh1
 0002:000007A0       Dbx34DrvDbms..$Dbx34drvdbms$TDBXOpenODBCMetaDataCommandFactoryInformix.GetMetaDataReaderClass$_eh0
 0005:00000678       Dbx34DrvDbms..$Dbx34drvdbms$TDBXOpenODBCMetaDataCommandFactoryInformix.GetMetaDataReaderClass$_eh1
 0002:000009B8       Dbx34DrvDbms..$Dbx34drvdbms$TDBXOpenODBCMetaDataCommandFactoryInterbase.GetMetaDataReaderClass$_eh0
 0005:0000084C       Dbx34DrvDbms..$Dbx34drvdbms$TDBXOpenODBCMetaDataCommandFactoryInterbase.GetMetaDataReaderClass$_eh1
 0002:00000224       Dbx34DrvDbms..$Dbx34drvdbms$TDBXOpenODBCMetaDataCommandFactoryMSSQL.GetMetaDataReaderClass$_eh0
 0005:00000240       Dbx34DrvDbms..$Dbx34drvdbms$TDBXOpenODBCMetaDataCommandFactoryMSSQL.GetMetaDataReaderClass$_eh1
 0002:00000388       Dbx34DrvDbms..$Dbx34drvdbms$TDBXOpenODBCMetaDataCommandFactoryMySQL.GetMetaDataReaderClass$_eh0
 0005:0000033C       Dbx34DrvDbms..$Dbx34drvdbms$TDBXOpenODBCMetaDataCommandFactoryMySQL.GetMetaDataReaderClass$_eh1
 0002:00000188       Dbx34DrvDbms..$Dbx34drvdbms$TDBXOpenODBCMetaDataCommandFactoryOracle.GetMetaDataReaderClass$_eh0
 0005:000001B0       Dbx34DrvDbms..$Dbx34drvdbms$TDBXOpenODBCMetaDataCommandFactoryOracle.GetMetaDataReaderClass$_eh1
 0002:00000AC8       Dbx34DrvDbms..$Dbx34drvdbms$TDBXOpenODBCMetaDataCommandFactoryPostgreSQL.GetMetaDataReaderClass$_eh0
 0005:00000924       Dbx34DrvDbms..$Dbx34drvdbms$TDBXOpenODBCMetaDataCommandFactoryPostgreSQL.GetMetaDataReaderClass$_eh1
 0002:00000ABC       Dbx34DrvDbms..$Dbx34drvdbms$TDBXOpenODBCMetaDataCommandFactorySQLite.GetMetaDataReaderClass$_eh0
 0005:0000090C       Dbx34DrvDbms..$Dbx34drvdbms$TDBXOpenODBCMetaDataCommandFactorySQLite.GetMetaDataReaderClass$_eh1
 0002:00000524       Dbx34DrvDbms..$Dbx34drvdbms$TDBXOpenODBCMetaDataCommandFactorySybaseASA.GetMetaDataReaderClass$_eh0
 0005:0000045C       Dbx34DrvDbms..$Dbx34drvdbms$TDBXOpenODBCMetaDataCommandFactorySybaseASA.GetMetaDataReaderClass$_eh1
 0002:00000650       Dbx34DrvDbms..$Dbx34drvdbms$TDBXOpenODBCMetaDataCommandFactorySybaseASE.GetMetaDataReaderClass$_eh0
 0005:00000534       Dbx34DrvDbms..$Dbx34drvdbms$TDBXOpenODBCMetaDataCommandFactorySybaseASE.GetMetaDataReaderClass$_eh1
 0002:0000089C       Dbx34DrvDbms..$Dbx34drvdbms$TDBXOpenODBCMetaDataReaderDataStorage.GetSqlForColumns$_eh0
 0005:00000768       Dbx34DrvDbms..$Dbx34drvdbms$TDBXOpenODBCMetaDataReaderDataStorage.GetSqlForColumns$_eh1
 0002:000008AC       Dbx34DrvDbms..$Dbx34drvdbms$TDBXOpenODBCMetaDataReaderDataStorage.GetSqlForIndexColumns$_eh0
 0005:00000780       Dbx34DrvDbms..$Dbx34drvdbms$TDBXOpenODBCMetaDataReaderDataStorage.GetSqlForIndexColumns$_eh1
 0002:000008A4       Dbx34DrvDbms..$Dbx34drvdbms$TDBXOpenODBCMetaDataReaderDataStorage.GetSqlForIndexes$_eh0
 0005:00000774       Dbx34DrvDbms..$Dbx34drvdbms$TDBXOpenODBCMetaDataReaderDataStorage.GetSqlForIndexes$_eh1
 0002:00000894       Dbx34DrvDbms..$Dbx34drvdbms$TDBXOpenODBCMetaDataReaderDataStorage.GetSqlForTables$_eh0
 0005:0000075C       Dbx34DrvDbms..$Dbx34drvdbms$TDBXOpenODBCMetaDataReaderDataStorage.GetSqlForTables$_eh1
 0002:00000770       Dbx34DrvDbms..$Dbx34drvdbms$TDBXOpenODBCMetaDataReaderDB2.GetDataTypeDescriptions$_eh0
 0005:00000660       Dbx34DrvDbms..$Dbx34drvdbms$TDBXOpenODBCMetaDataReaderDB2.GetDataTypeDescriptions$_eh1
 0002:000006F8       Dbx34DrvDbms..$Dbx34drvdbms$TDBXOpenODBCMetaDataReaderDB2.GetProductName$_eh0
 0005:000005DC       Dbx34DrvDbms..$Dbx34drvdbms$TDBXOpenODBCMetaDataReaderDB2.GetProductName$_eh1
 0002:00000720       Dbx34DrvDbms..$Dbx34drvdbms$TDBXOpenODBCMetaDataReaderDB2.GetReservedWords$_eh0
 0005:00000618       Dbx34DrvDbms..$Dbx34drvdbms$TDBXOpenODBCMetaDataReaderDB2.GetReservedWords$_eh1
 0002:00000708       Dbx34DrvDbms..$Dbx34drvdbms$TDBXOpenODBCMetaDataReaderDB2.GetSqlForColumns$_eh0
 0005:000005F4       Dbx34DrvDbms..$Dbx34drvdbms$TDBXOpenODBCMetaDataReaderDB2.GetSqlForColumns$_eh1
 0002:00000718       Dbx34DrvDbms..$Dbx34drvdbms$TDBXOpenODBCMetaDataReaderDB2.GetSqlForIndexColumns$_eh0
 0005:0000060C       Dbx34DrvDbms..$Dbx34drvdbms$TDBXOpenODBCMetaDataReaderDB2.GetSqlForIndexColumns$_eh1
 0002:00000710       Dbx34DrvDbms..$Dbx34drvdbms$TDBXOpenODBCMetaDataReaderDB2.GetSqlForIndexes$_eh0
 0005:00000600       Dbx34DrvDbms..$Dbx34drvdbms$TDBXOpenODBCMetaDataReaderDB2.GetSqlForIndexes$_eh1
 0002:00000700       Dbx34DrvDbms..$Dbx34drvdbms$TDBXOpenODBCMetaDataReaderDB2.GetSqlForTables$_eh0
 0005:000005E8       Dbx34DrvDbms..$Dbx34drvdbms$TDBXOpenODBCMetaDataReaderDB2.GetSqlForTables$_eh1
 0002:00000768       Dbx34DrvDbms..$Dbx34drvdbms$TDBXOpenODBCMetaDataReaderDB2.GetSqlProcedureQuoteChar$_eh0
 0005:00000654       Dbx34DrvDbms..$Dbx34drvdbms$TDBXOpenODBCMetaDataReaderDB2.GetSqlProcedureQuoteChar$_eh1
 0002:00000760       Dbx34DrvDbms..$Dbx34drvdbms$TDBXOpenODBCMetaDataReaderDB2.GetSystemTableType$_eh0
 0005:00000648       Dbx34DrvDbms..$Dbx34drvdbms$TDBXOpenODBCMetaDataReaderDB2.GetSystemTableType$_eh1
 0002:00000750       Dbx34DrvDbms..$Dbx34drvdbms$TDBXOpenODBCMetaDataReaderDB2.GetTableType$_eh0
 0005:00000630       Dbx34DrvDbms..$Dbx34drvdbms$TDBXOpenODBCMetaDataReaderDB2.GetTableType$_eh1
 0002:00000758       Dbx34DrvDbms..$Dbx34drvdbms$TDBXOpenODBCMetaDataReaderDB2.GetViewType$_eh0
 0005:0000063C       Dbx34DrvDbms..$Dbx34drvdbms$TDBXOpenODBCMetaDataReaderDB2.GetViewType$_eh1
 0002:000008C0       Dbx34DrvDbms..$Dbx34drvdbms$TDBXOpenODBCMetaDataReaderFirebird.Destroy$_eh0
 0005:000007A4       Dbx34DrvDbms..$Dbx34drvdbms$TDBXOpenODBCMetaDataReaderFirebird.Destroy$_eh1
 0002:00000950       Dbx34DrvDbms..$Dbx34drvdbms$TDBXOpenODBCMetaDataReaderFirebird.GetAllDataTypes$_eh0
 0005:0000081C       Dbx34DrvDbms..$Dbx34drvdbms$TDBXOpenODBCMetaDataReaderFirebird.GetAllDataTypes$_eh1
 0002:00000984       Dbx34DrvDbms..$Dbx34drvdbms$TDBXOpenODBCMetaDataReaderFirebird.GetDataTypeDescriptions$_eh0
 0005:00000834       Dbx34DrvDbms..$Dbx34drvdbms$TDBXOpenODBCMetaDataReaderFirebird.GetDataTypeDescriptions$_eh1
 0002:000008B8       Dbx34DrvDbms..$Dbx34drvdbms$TDBXOpenODBCMetaDataReaderFirebird.GetProductName$_eh0
 0005:00000798       Dbx34DrvDbms..$Dbx34drvdbms$TDBXOpenODBCMetaDataReaderFirebird.GetProductName$_eh1
 0002:000008EC       Dbx34DrvDbms..$Dbx34drvdbms$TDBXOpenODBCMetaDataReaderFirebird.GetReservedWords$_eh0
 0005:000007E0       Dbx34DrvDbms..$Dbx34drvdbms$TDBXOpenODBCMetaDataReaderFirebird.GetReservedWords$_eh1
 0002:000008D4       Dbx34DrvDbms..$Dbx34drvdbms$TDBXOpenODBCMetaDataReaderFirebird.GetSqlForColumns$_eh0
 0005:000007BC       Dbx34DrvDbms..$Dbx34drvdbms$TDBXOpenODBCMetaDataReaderFirebird.GetSqlForColumns$_eh1
 0002:000008E4       Dbx34DrvDbms..$Dbx34drvdbms$TDBXOpenODBCMetaDataReaderFirebird.GetSqlForIndexColumns$_eh0
 0005:000007D4       Dbx34DrvDbms..$Dbx34drvdbms$TDBXOpenODBCMetaDataReaderFirebird.GetSqlForIndexColumns$_eh1
 0002:000008DC       Dbx34DrvDbms..$Dbx34drvdbms$TDBXOpenODBCMetaDataReaderFirebird.GetSqlForIndexes$_eh0
 0005:000007C8       Dbx34DrvDbms..$Dbx34drvdbms$TDBXOpenODBCMetaDataReaderFirebird.GetSqlForIndexes$_eh1
 0002:000008CC       Dbx34DrvDbms..$Dbx34drvdbms$TDBXOpenODBCMetaDataReaderFirebird.GetSqlForTables$_eh0
 0005:000007B0       Dbx34DrvDbms..$Dbx34drvdbms$TDBXOpenODBCMetaDataReaderFirebird.GetSqlForTables$_eh1
 0002:0000091C       Dbx34DrvDbms..$Dbx34drvdbms$TDBXOpenODBCMetaDataReaderFirebird.IsDescendingIndexColumnsSupported$_eh0
 0005:000007F8       Dbx34DrvDbms..$Dbx34drvdbms$TDBXOpenODBCMetaDataReaderFirebird.IsDescendingIndexColumnsSupported$_eh1
 0002:00000920       Dbx34DrvDbms..$Dbx34drvdbms$TDBXOpenODBCMetaDataReaderFirebird.SetContext$_eh0
 0005:00000804       Dbx34DrvDbms..$Dbx34drvdbms$TDBXOpenODBCMetaDataReaderFirebird.SetContext$_eh1
 0002:000007AC       Dbx34DrvDbms..$Dbx34drvdbms$TDBXOpenODBCMetaDataReaderInformix.Destroy$_eh0
 0005:00000690       Dbx34DrvDbms..$Dbx34drvdbms$TDBXOpenODBCMetaDataReaderInformix.Destroy$_eh1
 0002:0000082C       Dbx34DrvDbms..$Dbx34drvdbms$TDBXOpenODBCMetaDataReaderInformix.GetAllDataTypes$_eh0
 0005:00000720       Dbx34DrvDbms..$Dbx34drvdbms$TDBXOpenODBCMetaDataReaderInformix.GetAllDataTypes$_eh1
 0002:0000085C       Dbx34DrvDbms..$Dbx34drvdbms$TDBXOpenODBCMetaDataReaderInformix.GetDataTypeDescriptions$_eh0
 0005:00000738       Dbx34DrvDbms..$Dbx34drvdbms$TDBXOpenODBCMetaDataReaderInformix.GetDataTypeDescriptions$_eh1
 0002:000007A4       Dbx34DrvDbms..$Dbx34drvdbms$TDBXOpenODBCMetaDataReaderInformix.GetProductName$_eh0
 0005:00000684       Dbx34DrvDbms..$Dbx34drvdbms$TDBXOpenODBCMetaDataReaderInformix.GetProductName$_eh1
 0002:000007D8       Dbx34DrvDbms..$Dbx34drvdbms$TDBXOpenODBCMetaDataReaderInformix.GetReservedWords$_eh0
 0005:000006CC       Dbx34DrvDbms..$Dbx34drvdbms$TDBXOpenODBCMetaDataReaderInformix.GetReservedWords$_eh1
 0002:000007C0       Dbx34DrvDbms..$Dbx34drvdbms$TDBXOpenODBCMetaDataReaderInformix.GetSqlForColumns$_eh0
 0005:000006A8       Dbx34DrvDbms..$Dbx34drvdbms$TDBXOpenODBCMetaDataReaderInformix.GetSqlForColumns$_eh1
 0002:000007D0       Dbx34DrvDbms..$Dbx34drvdbms$TDBXOpenODBCMetaDataReaderInformix.GetSqlForIndexColumns$_eh0
 0005:000006C0       Dbx34DrvDbms..$Dbx34drvdbms$TDBXOpenODBCMetaDataReaderInformix.GetSqlForIndexColumns$_eh1
 0002:000007C8       Dbx34DrvDbms..$Dbx34drvdbms$TDBXOpenODBCMetaDataReaderInformix.GetSqlForIndexes$_eh0
 0005:000006B4       Dbx34DrvDbms..$Dbx34drvdbms$TDBXOpenODBCMetaDataReaderInformix.GetSqlForIndexes$_eh1
 0002:000007B8       Dbx34DrvDbms..$Dbx34drvdbms$TDBXOpenODBCMetaDataReaderInformix.GetSqlForTables$_eh0
 0005:0000069C       Dbx34DrvDbms..$Dbx34drvdbms$TDBXOpenODBCMetaDataReaderInformix.GetSqlForTables$_eh1
 0002:00000820       Dbx34DrvDbms..$Dbx34drvdbms$TDBXOpenODBCMetaDataReaderInformix.GetSynonymType$_eh0
 0005:00000708       Dbx34DrvDbms..$Dbx34drvdbms$TDBXOpenODBCMetaDataReaderInformix.GetSynonymType$_eh1
 0002:00000818       Dbx34DrvDbms..$Dbx34drvdbms$TDBXOpenODBCMetaDataReaderInformix.GetSystemTableType$_eh0
 0005:000006FC       Dbx34DrvDbms..$Dbx34drvdbms$TDBXOpenODBCMetaDataReaderInformix.GetSystemTableType$_eh1
 0002:00000808       Dbx34DrvDbms..$Dbx34drvdbms$TDBXOpenODBCMetaDataReaderInformix.GetTableType$_eh0
 0005:000006E4       Dbx34DrvDbms..$Dbx34drvdbms$TDBXOpenODBCMetaDataReaderInformix.GetTableType$_eh1
 0002:00000810       Dbx34DrvDbms..$Dbx34drvdbms$TDBXOpenODBCMetaDataReaderInformix.GetViewType$_eh0
 0005:000006F0       Dbx34DrvDbms..$Dbx34drvdbms$TDBXOpenODBCMetaDataReaderInformix.GetViewType$_eh1
 0002:00000828       Dbx34DrvDbms..$Dbx34drvdbms$TDBXOpenODBCMetaDataReaderInformix.IsUpperCaseIdentifiersSupported$_eh0
 0005:00000714       Dbx34DrvDbms..$Dbx34drvdbms$TDBXOpenODBCMetaDataReaderInformix.IsUpperCaseIdentifiersSupported$_eh1
 0002:000009C4       Dbx34DrvDbms..$Dbx34drvdbms$TDBXOpenODBCMetaDataReaderInterbase.Destroy$_eh0
 0005:00000864       Dbx34DrvDbms..$Dbx34drvdbms$TDBXOpenODBCMetaDataReaderInterbase.Destroy$_eh1
 0002:00000A54       Dbx34DrvDbms..$Dbx34drvdbms$TDBXOpenODBCMetaDataReaderInterbase.GetAllDataTypes$_eh0
 0005:000008DC       Dbx34DrvDbms..$Dbx34drvdbms$TDBXOpenODBCMetaDataReaderInterbase.GetAllDataTypes$_eh1
 0002:00000A88       Dbx34DrvDbms..$Dbx34drvdbms$TDBXOpenODBCMetaDataReaderInterbase.GetDataTypeDescriptions$_eh0
 0005:000008F4       Dbx34DrvDbms..$Dbx34drvdbms$TDBXOpenODBCMetaDataReaderInterbase.GetDataTypeDescriptions$_eh1
 0002:000009BC       Dbx34DrvDbms..$Dbx34drvdbms$TDBXOpenODBCMetaDataReaderInterbase.GetProductName$_eh0
 0005:00000858       Dbx34DrvDbms..$Dbx34drvdbms$TDBXOpenODBCMetaDataReaderInterbase.GetProductName$_eh1
 0002:000009F0       Dbx34DrvDbms..$Dbx34drvdbms$TDBXOpenODBCMetaDataReaderInterbase.GetReservedWords$_eh0
 0005:000008A0       Dbx34DrvDbms..$Dbx34drvdbms$TDBXOpenODBCMetaDataReaderInterbase.GetReservedWords$_eh1
 0002:000009D8       Dbx34DrvDbms..$Dbx34drvdbms$TDBXOpenODBCMetaDataReaderInterbase.GetSqlForColumns$_eh0
 0005:0000087C       Dbx34DrvDbms..$Dbx34drvdbms$TDBXOpenODBCMetaDataReaderInterbase.GetSqlForColumns$_eh1
 0002:000009E8       Dbx34DrvDbms..$Dbx34drvdbms$TDBXOpenODBCMetaDataReaderInterbase.GetSqlForIndexColumns$_eh0
 0005:00000894       Dbx34DrvDbms..$Dbx34drvdbms$TDBXOpenODBCMetaDataReaderInterbase.GetSqlForIndexColumns$_eh1
 0002:000009E0       Dbx34DrvDbms..$Dbx34drvdbms$TDBXOpenODBCMetaDataReaderInterbase.GetSqlForIndexes$_eh0
 0005:00000888       Dbx34DrvDbms..$Dbx34drvdbms$TDBXOpenODBCMetaDataReaderInterbase.GetSqlForIndexes$_eh1
 0002:000009D0       Dbx34DrvDbms..$Dbx34drvdbms$TDBXOpenODBCMetaDataReaderInterbase.GetSqlForTables$_eh0
 0005:00000870       Dbx34DrvDbms..$Dbx34drvdbms$TDBXOpenODBCMetaDataReaderInterbase.GetSqlForTables$_eh1
 0002:00000A20       Dbx34DrvDbms..$Dbx34drvdbms$TDBXOpenODBCMetaDataReaderInterbase.IsDescendingIndexColumnsSupported$_eh0
 0005:000008B8       Dbx34DrvDbms..$Dbx34drvdbms$TDBXOpenODBCMetaDataReaderInterbase.IsDescendingIndexColumnsSupported$_eh1
 0002:00000A24       Dbx34DrvDbms..$Dbx34drvdbms$TDBXOpenODBCMetaDataReaderInterbase.SetContext$_eh0
 0005:000008C4       Dbx34DrvDbms..$Dbx34drvdbms$TDBXOpenODBCMetaDataReaderInterbase.SetContext$_eh1
 0002:00000358       Dbx34DrvDbms..$Dbx34drvdbms$TDBXOpenODBCMetaDataReaderMSSQL.GetDataTypeDescriptions$_eh0
 0005:00000324       Dbx34DrvDbms..$Dbx34drvdbms$TDBXOpenODBCMetaDataReaderMSSQL.GetDataTypeDescriptions$_eh1
 0002:00000228       Dbx34DrvDbms..$Dbx34drvdbms$TDBXOpenODBCMetaDataReaderMSSQL.GetProductName$_eh0
 0005:0000024C       Dbx34DrvDbms..$Dbx34drvdbms$TDBXOpenODBCMetaDataReaderMSSQL.GetProductName$_eh1
 0002:000002F0       Dbx34DrvDbms..$Dbx34drvdbms$TDBXOpenODBCMetaDataReaderMSSQL.GetReservedWords$_eh0
 0005:000002B8       Dbx34DrvDbms..$Dbx34drvdbms$TDBXOpenODBCMetaDataReaderMSSQL.GetReservedWords$_eh1
 0002:00000260       Dbx34DrvDbms..$Dbx34drvdbms$TDBXOpenODBCMetaDataReaderMSSQL.GetSqlForColumns$_eh0
 0005:00000270       Dbx34DrvDbms..$Dbx34drvdbms$TDBXOpenODBCMetaDataReaderMSSQL.GetSqlForColumns$_eh1
 0002:000002C0       Dbx34DrvDbms..$Dbx34drvdbms$TDBXOpenODBCMetaDataReaderMSSQL.GetSqlForIndexColumns$_eh0
 0005:000002A0       Dbx34DrvDbms..$Dbx34drvdbms$TDBXOpenODBCMetaDataReaderMSSQL.GetSqlForIndexColumns$_eh1
 0002:00000290       Dbx34DrvDbms..$Dbx34drvdbms$TDBXOpenODBCMetaDataReaderMSSQL.GetSqlForIndexes$_eh0
 0005:00000288       Dbx34DrvDbms..$Dbx34drvdbms$TDBXOpenODBCMetaDataReaderMSSQL.GetSqlForIndexes$_eh1
 0002:00000230       Dbx34DrvDbms..$Dbx34drvdbms$TDBXOpenODBCMetaDataReaderMSSQL.GetSqlForTables$_eh0
 0005:00000258       Dbx34DrvDbms..$Dbx34drvdbms$TDBXOpenODBCMetaDataReaderMSSQL.GetSqlForTables$_eh1
 0002:00000320       Dbx34DrvDbms..$Dbx34drvdbms$TDBXOpenODBCMetaDataReaderMSSQL.GetSqlIdentifierQuotePrefix$_eh0
 0005:000002D0       Dbx34DrvDbms..$Dbx34drvdbms$TDBXOpenODBCMetaDataReaderMSSQL.GetSqlIdentifierQuotePrefix$_eh1
 0002:00000328       Dbx34DrvDbms..$Dbx34drvdbms$TDBXOpenODBCMetaDataReaderMSSQL.GetSqlIdentifierQuoteSuffix$_eh0
 0005:000002DC       Dbx34DrvDbms..$Dbx34drvdbms$TDBXOpenODBCMetaDataReaderMSSQL.GetSqlIdentifierQuoteSuffix$_eh1
 0002:00000350       Dbx34DrvDbms..$Dbx34drvdbms$TDBXOpenODBCMetaDataReaderMSSQL.GetSynonymType$_eh0
 0005:00000318       Dbx34DrvDbms..$Dbx34drvdbms$TDBXOpenODBCMetaDataReaderMSSQL.GetSynonymType$_eh1
 0002:00000340       Dbx34DrvDbms..$Dbx34drvdbms$TDBXOpenODBCMetaDataReaderMSSQL.GetSystemTableType$_eh0
 0005:00000300       Dbx34DrvDbms..$Dbx34drvdbms$TDBXOpenODBCMetaDataReaderMSSQL.GetSystemTableType$_eh1
 0002:00000348       Dbx34DrvDbms..$Dbx34drvdbms$TDBXOpenODBCMetaDataReaderMSSQL.GetSystemViewType$_eh0
 0005:0000030C       Dbx34DrvDbms..$Dbx34drvdbms$TDBXOpenODBCMetaDataReaderMSSQL.GetSystemViewType$_eh1
 0002:00000330       Dbx34DrvDbms..$Dbx34drvdbms$TDBXOpenODBCMetaDataReaderMSSQL.GetTableType$_eh0
 0005:000002E8       Dbx34DrvDbms..$Dbx34drvdbms$TDBXOpenODBCMetaDataReaderMSSQL.GetTableType$_eh1
 0002:00000338       Dbx34DrvDbms..$Dbx34drvdbms$TDBXOpenODBCMetaDataReaderMSSQL.GetViewType$_eh0
 0005:000002F4       Dbx34DrvDbms..$Dbx34drvdbms$TDBXOpenODBCMetaDataReaderMSSQL.GetViewType$_eh1
 0002:000004F0       Dbx34DrvDbms..$Dbx34drvdbms$TDBXOpenODBCMetaDataReaderMySQL.GetDataTypeDescriptions$_eh0
 0005:00000444       Dbx34DrvDbms..$Dbx34drvdbms$TDBXOpenODBCMetaDataReaderMySQL.GetDataTypeDescriptions$_eh1
 0002:0000038C       Dbx34DrvDbms..$Dbx34drvdbms$TDBXOpenODBCMetaDataReaderMySQL.GetProductName$_eh0
 0005:00000348       Dbx34DrvDbms..$Dbx34drvdbms$TDBXOpenODBCMetaDataReaderMySQL.GetProductName$_eh1
 0002:00000454       Dbx34DrvDbms..$Dbx34drvdbms$TDBXOpenODBCMetaDataReaderMySQL.GetReservedWords$_eh0
 0005:000003B4       Dbx34DrvDbms..$Dbx34drvdbms$TDBXOpenODBCMetaDataReaderMySQL.GetReservedWords$_eh1
 0002:000003C4       Dbx34DrvDbms..$Dbx34drvdbms$TDBXOpenODBCMetaDataReaderMySQL.GetSqlForColumns$_eh0
 0005:0000036C       Dbx34DrvDbms..$Dbx34drvdbms$TDBXOpenODBCMetaDataReaderMySQL.GetSqlForColumns$_eh1
 0002:00000424       Dbx34DrvDbms..$Dbx34drvdbms$TDBXOpenODBCMetaDataReaderMySQL.GetSqlForIndexColumns$_eh0
 0005:0000039C       Dbx34DrvDbms..$Dbx34drvdbms$TDBXOpenODBCMetaDataReaderMySQL.GetSqlForIndexColumns$_eh1
 0002:000003F4       Dbx34DrvDbms..$Dbx34drvdbms$TDBXOpenODBCMetaDataReaderMySQL.GetSqlForIndexes$_eh0
 0005:00000384       Dbx34DrvDbms..$Dbx34drvdbms$TDBXOpenODBCMetaDataReaderMySQL.GetSqlForIndexes$_eh1
 0002:00000394       Dbx34DrvDbms..$Dbx34drvdbms$TDBXOpenODBCMetaDataReaderMySQL.GetSqlForTables$_eh0
 0005:00000354       Dbx34DrvDbms..$Dbx34drvdbms$TDBXOpenODBCMetaDataReaderMySQL.GetSqlForTables$_eh1
 0002:00000494       Dbx34DrvDbms..$Dbx34drvdbms$TDBXOpenODBCMetaDataReaderMySQL.GetSqlIdentifierQuoteChar$_eh0
 0005:000003E4       Dbx34DrvDbms..$Dbx34drvdbms$TDBXOpenODBCMetaDataReaderMySQL.GetSqlIdentifierQuoteChar$_eh1
 0002:00000484       Dbx34DrvDbms..$Dbx34drvdbms$TDBXOpenODBCMetaDataReaderMySQL.GetSqlIdentifierQuotePrefix$_eh0
 0005:000003CC       Dbx34DrvDbms..$Dbx34drvdbms$TDBXOpenODBCMetaDataReaderMySQL.GetSqlIdentifierQuotePrefix$_eh1
 0002:0000048C       Dbx34DrvDbms..$Dbx34drvdbms$TDBXOpenODBCMetaDataReaderMySQL.GetSqlIdentifierQuoteSuffix$_eh0
 0005:000003D8       Dbx34DrvDbms..$Dbx34drvdbms$TDBXOpenODBCMetaDataReaderMySQL.GetSqlIdentifierQuoteSuffix$_eh1
 0002:0000049C       Dbx34DrvDbms..$Dbx34drvdbms$TDBXOpenODBCMetaDataReaderMySQL.GetTableType$_eh0
 0005:000003F0       Dbx34DrvDbms..$Dbx34drvdbms$TDBXOpenODBCMetaDataReaderMySQL.GetTableType$_eh1
 0002:000004A4       Dbx34DrvDbms..$Dbx34drvdbms$TDBXOpenODBCMetaDataReaderMySQL.IsDescendingIndexColumnsSupported$_eh0
 0005:000003FC       Dbx34DrvDbms..$Dbx34drvdbms$TDBXOpenODBCMetaDataReaderMySQL.IsDescendingIndexColumnsSupported$_eh1
 0002:000004AC       Dbx34DrvDbms..$Dbx34drvdbms$TDBXOpenODBCMetaDataReaderMySQL.IsMultipleCommandsSupported$_eh0
 0005:00000414       Dbx34DrvDbms..$Dbx34drvdbms$TDBXOpenODBCMetaDataReaderMySQL.IsMultipleCommandsSupported$_eh1
 0002:000004A8       Dbx34DrvDbms..$Dbx34drvdbms$TDBXOpenODBCMetaDataReaderMySQL.IsUpperCaseIdentifiersSupported$_eh0
 0005:00000408       Dbx34DrvDbms..$Dbx34drvdbms$TDBXOpenODBCMetaDataReaderMySQL.IsUpperCaseIdentifiersSupported$_eh1
 0002:000004E0       Dbx34DrvDbms..$Dbx34drvdbms$TDBXOpenODBCMetaDataReaderMySQL.PopulateDataTypes$_eh0
 0005:00000438       Dbx34DrvDbms..$Dbx34drvdbms$TDBXOpenODBCMetaDataReaderMySQL.PopulateDataTypes$_eh1
 0002:000004B0       Dbx34DrvDbms..$Dbx34drvdbms$TDBXOpenODBCMetaDataReaderMySQL.SetContext$_eh0
 0005:00000420       Dbx34DrvDbms..$Dbx34drvdbms$TDBXOpenODBCMetaDataReaderMySQL.SetContext$_eh1
 0002:000001F4       Dbx34DrvDbms..$Dbx34drvdbms$TDBXOpenODBCMetaDataReaderOracle.GetDataTypeDescriptions$_eh0
 0005:00000228       Dbx34DrvDbms..$Dbx34drvdbms$TDBXOpenODBCMetaDataReaderOracle.GetDataTypeDescriptions$_eh1
 0002:0000018C       Dbx34DrvDbms..$Dbx34drvdbms$TDBXOpenODBCMetaDataReaderOracle.GetProductName$_eh0
 0005:000001BC       Dbx34DrvDbms..$Dbx34drvdbms$TDBXOpenODBCMetaDataReaderOracle.GetProductName$_eh1
 0002:000001BC       Dbx34DrvDbms..$Dbx34drvdbms$TDBXOpenODBCMetaDataReaderOracle.GetReservedWords$_eh0
 0005:00000204       Dbx34DrvDbms..$Dbx34drvdbms$TDBXOpenODBCMetaDataReaderOracle.GetReservedWords$_eh1
 0002:000001A4       Dbx34DrvDbms..$Dbx34drvdbms$TDBXOpenODBCMetaDataReaderOracle.GetSqlForColumns$_eh0
 0005:000001E0       Dbx34DrvDbms..$Dbx34drvdbms$TDBXOpenODBCMetaDataReaderOracle.GetSqlForColumns$_eh1
 0002:000001B4       Dbx34DrvDbms..$Dbx34drvdbms$TDBXOpenODBCMetaDataReaderOracle.GetSqlForIndexColumns$_eh0
 0005:000001F8       Dbx34DrvDbms..$Dbx34drvdbms$TDBXOpenODBCMetaDataReaderOracle.GetSqlForIndexColumns$_eh1
 0002:000001AC       Dbx34DrvDbms..$Dbx34drvdbms$TDBXOpenODBCMetaDataReaderOracle.GetSqlForIndexes$_eh0
 0005:000001EC       Dbx34DrvDbms..$Dbx34drvdbms$TDBXOpenODBCMetaDataReaderOracle.GetSqlForIndexes$_eh1
 0002:00000194       Dbx34DrvDbms..$Dbx34drvdbms$TDBXOpenODBCMetaDataReaderOracle.GetSqlForSchemas$_eh0
 0005:000001C8       Dbx34DrvDbms..$Dbx34drvdbms$TDBXOpenODBCMetaDataReaderOracle.GetSqlForSchemas$_eh1
 0002:0000019C       Dbx34DrvDbms..$Dbx34drvdbms$TDBXOpenODBCMetaDataReaderOracle.GetSqlForTables$_eh0
 0005:000001D4       Dbx34DrvDbms..$Dbx34drvdbms$TDBXOpenODBCMetaDataReaderOracle.GetSqlForTables$_eh1
 0002:000001EC       Dbx34DrvDbms..$Dbx34drvdbms$TDBXOpenODBCMetaDataReaderOracle.PopulateDataTypes$_eh0
 0005:0000021C       Dbx34DrvDbms..$Dbx34drvdbms$TDBXOpenODBCMetaDataReaderOracle.PopulateDataTypes$_eh1
 0002:00000B14       Dbx34DrvDbms..$Dbx34drvdbms$TDBXOpenODBCMetaDataReaderPostgreSQL.GetReservedWords$_eh0
 0005:0000096C       Dbx34DrvDbms..$Dbx34drvdbms$TDBXOpenODBCMetaDataReaderPostgreSQL.GetReservedWords$_eh1
 0002:00000AD4       Dbx34DrvDbms..$Dbx34drvdbms$TDBXOpenODBCMetaDataReaderPostgreSQL.GetSqlForColumns$_eh0
 0005:0000093C       Dbx34DrvDbms..$Dbx34drvdbms$TDBXOpenODBCMetaDataReaderPostgreSQL.GetSqlForColumns$_eh1
 0002:00000AE4       Dbx34DrvDbms..$Dbx34drvdbms$TDBXOpenODBCMetaDataReaderPostgreSQL.GetSqlForIndexColumns$_eh0
 0005:00000954       Dbx34DrvDbms..$Dbx34drvdbms$TDBXOpenODBCMetaDataReaderPostgreSQL.GetSqlForIndexColumns$_eh1
 0002:00000ADC       Dbx34DrvDbms..$Dbx34drvdbms$TDBXOpenODBCMetaDataReaderPostgreSQL.GetSqlForIndexes$_eh0
 0005:00000948       Dbx34DrvDbms..$Dbx34drvdbms$TDBXOpenODBCMetaDataReaderPostgreSQL.GetSqlForIndexes$_eh1
 0002:00000ACC       Dbx34DrvDbms..$Dbx34drvdbms$TDBXOpenODBCMetaDataReaderPostgreSQL.GetSqlForTables$_eh0
 0005:00000930       Dbx34DrvDbms..$Dbx34drvdbms$TDBXOpenODBCMetaDataReaderPostgreSQL.GetSqlForTables$_eh1
 0002:00000AC0       Dbx34DrvDbms..$Dbx34drvdbms$TDBXOpenODBCMetaDataReaderSQLite.GetSqlForTables$_eh0
 0005:00000918       Dbx34DrvDbms..$Dbx34drvdbms$TDBXOpenODBCMetaDataReaderSQLite.GetSqlForTables$_eh1
 0002:00000620       Dbx34DrvDbms..$Dbx34drvdbms$TDBXOpenODBCMetaDataReaderSybaseASA.GetDataTypeDescriptions$_eh0
 0005:0000051C       Dbx34DrvDbms..$Dbx34drvdbms$TDBXOpenODBCMetaDataReaderSybaseASA.GetDataTypeDescriptions$_eh1
 0002:00000528       Dbx34DrvDbms..$Dbx34drvdbms$TDBXOpenODBCMetaDataReaderSybaseASA.GetProductName$_eh0
 0005:00000468       Dbx34DrvDbms..$Dbx34drvdbms$TDBXOpenODBCMetaDataReaderSybaseASA.GetProductName$_eh1
 0002:000005D0       Dbx34DrvDbms..$Dbx34drvdbms$TDBXOpenODBCMetaDataReaderSybaseASA.GetReservedWords$_eh0
 0005:000004D4       Dbx34DrvDbms..$Dbx34drvdbms$TDBXOpenODBCMetaDataReaderSybaseASA.GetReservedWords$_eh1
 0002:00000568       Dbx34DrvDbms..$Dbx34drvdbms$TDBXOpenODBCMetaDataReaderSybaseASA.GetSqlForColumns$_eh0
 0005:00000498       Dbx34DrvDbms..$Dbx34drvdbms$TDBXOpenODBCMetaDataReaderSybaseASA.GetSqlForColumns$_eh1
 0002:000005A0       Dbx34DrvDbms..$Dbx34drvdbms$TDBXOpenODBCMetaDataReaderSybaseASA.GetSqlForIndexColumns$_eh0
 0005:000004BC       Dbx34DrvDbms..$Dbx34drvdbms$TDBXOpenODBCMetaDataReaderSybaseASA.GetSqlForIndexColumns$_eh1
 0002:00000570       Dbx34DrvDbms..$Dbx34drvdbms$TDBXOpenODBCMetaDataReaderSybaseASA.GetSqlForIndexes$_eh0
 0005:000004A4       Dbx34DrvDbms..$Dbx34drvdbms$TDBXOpenODBCMetaDataReaderSybaseASA.GetSqlForIndexes$_eh1
 0002:00000560       Dbx34DrvDbms..$Dbx34drvdbms$TDBXOpenODBCMetaDataReaderSybaseASA.GetSqlForTables$_eh0
 0005:0000048C       Dbx34DrvDbms..$Dbx34drvdbms$TDBXOpenODBCMetaDataReaderSybaseASA.GetSqlForTables$_eh1
 0002:00000610       Dbx34DrvDbms..$Dbx34drvdbms$TDBXOpenODBCMetaDataReaderSybaseASA.GetSystemTableType$_eh0
 0005:00000504       Dbx34DrvDbms..$Dbx34drvdbms$TDBXOpenODBCMetaDataReaderSybaseASA.GetSystemTableType$_eh1
 0002:00000618       Dbx34DrvDbms..$Dbx34drvdbms$TDBXOpenODBCMetaDataReaderSybaseASA.GetSystemViewType$_eh0
 0005:00000510       Dbx34DrvDbms..$Dbx34drvdbms$TDBXOpenODBCMetaDataReaderSybaseASA.GetSystemViewType$_eh1
 0002:00000600       Dbx34DrvDbms..$Dbx34drvdbms$TDBXOpenODBCMetaDataReaderSybaseASA.GetTableType$_eh0
 0005:000004EC       Dbx34DrvDbms..$Dbx34drvdbms$TDBXOpenODBCMetaDataReaderSybaseASA.GetTableType$_eh1
 0002:00000608       Dbx34DrvDbms..$Dbx34drvdbms$TDBXOpenODBCMetaDataReaderSybaseASA.GetViewType$_eh0
 0005:000004F8       Dbx34DrvDbms..$Dbx34drvdbms$TDBXOpenODBCMetaDataReaderSybaseASA.GetViewType$_eh1
 0002:00000530       Dbx34DrvDbms..$Dbx34drvdbms$TDBXOpenODBCMetaDataReaderSybaseASA.SetContext$_eh0
 0005:00000474       Dbx34DrvDbms..$Dbx34drvdbms$TDBXOpenODBCMetaDataReaderSybaseASA.SetContext$_eh1
 0002:000006C4       Dbx34DrvDbms..$Dbx34drvdbms$TDBXOpenODBCMetaDataReaderSybaseASE.GetDataTypeDescriptions$_eh0
 0005:000005B8       Dbx34DrvDbms..$Dbx34drvdbms$TDBXOpenODBCMetaDataReaderSybaseASE.GetDataTypeDescriptions$_eh1
 0002:00000654       Dbx34DrvDbms..$Dbx34drvdbms$TDBXOpenODBCMetaDataReaderSybaseASE.GetProductName$_eh0
 0005:00000540       Dbx34DrvDbms..$Dbx34drvdbms$TDBXOpenODBCMetaDataReaderSybaseASE.GetProductName$_eh1
 0002:0000067C       Dbx34DrvDbms..$Dbx34drvdbms$TDBXOpenODBCMetaDataReaderSybaseASE.GetReservedWords$_eh0
 0005:0000057C       Dbx34DrvDbms..$Dbx34drvdbms$TDBXOpenODBCMetaDataReaderSybaseASE.GetReservedWords$_eh1
 0002:00000664       Dbx34DrvDbms..$Dbx34drvdbms$TDBXOpenODBCMetaDataReaderSybaseASE.GetSqlForColumns$_eh0
 0005:00000558       Dbx34DrvDbms..$Dbx34drvdbms$TDBXOpenODBCMetaDataReaderSybaseASE.GetSqlForColumns$_eh1
 0002:00000674       Dbx34DrvDbms..$Dbx34drvdbms$TDBXOpenODBCMetaDataReaderSybaseASE.GetSqlForIndexColumns$_eh0
 0005:00000570       Dbx34DrvDbms..$Dbx34drvdbms$TDBXOpenODBCMetaDataReaderSybaseASE.GetSqlForIndexColumns$_eh1
 0002:0000066C       Dbx34DrvDbms..$Dbx34drvdbms$TDBXOpenODBCMetaDataReaderSybaseASE.GetSqlForIndexes$_eh0
 0005:00000564       Dbx34DrvDbms..$Dbx34drvdbms$TDBXOpenODBCMetaDataReaderSybaseASE.GetSqlForIndexes$_eh1
 0002:0000065C       Dbx34DrvDbms..$Dbx34drvdbms$TDBXOpenODBCMetaDataReaderSybaseASE.GetSqlForTables$_eh0
 0005:0000054C       Dbx34DrvDbms..$Dbx34drvdbms$TDBXOpenODBCMetaDataReaderSybaseASE.GetSqlForTables$_eh1
 0002:000006BC       Dbx34DrvDbms..$Dbx34drvdbms$TDBXOpenODBCMetaDataReaderSybaseASE.GetSystemTableType$_eh0
 0005:000005AC       Dbx34DrvDbms..$Dbx34drvdbms$TDBXOpenODBCMetaDataReaderSybaseASE.GetSystemTableType$_eh1
 0002:000006AC       Dbx34DrvDbms..$Dbx34drvdbms$TDBXOpenODBCMetaDataReaderSybaseASE.GetTableType$_eh0
 0005:00000594       Dbx34DrvDbms..$Dbx34drvdbms$TDBXOpenODBCMetaDataReaderSybaseASE.GetTableType$_eh1
 0002:000006B4       Dbx34DrvDbms..$Dbx34drvdbms$TDBXOpenODBCMetaDataReaderSybaseASE.GetViewType$_eh0
 0005:000005A0       Dbx34DrvDbms..$Dbx34drvdbms$TDBXOpenODBCMetaDataReaderSybaseASE.GetViewType$_eh1
 0003:00000058       Dbx34DrvDbms..52
 0001:00005368       Dbx34DrvDbms..TDBXOpenODBCMetaDataCommandFactoryDataStorage
 0001:00004940       Dbx34DrvDbms..TDBXOpenODBCMetaDataCommandFactoryDB2
 0001:00005880       Dbx34DrvDbms..TDBXOpenODBCMetaDataCommandFactoryFirebird
 0001:00004E38       Dbx34DrvDbms..TDBXOpenODBCMetaDataCommandFactoryInformix
 0001:00005DB0       Dbx34DrvDbms..TDBXOpenODBCMetaDataCommandFactoryInterbase
 0001:00003520       Dbx34DrvDbms..TDBXOpenODBCMetaDataCommandFactoryMSSQL
 0001:00003A18       Dbx34DrvDbms..TDBXOpenODBCMetaDataCommandFactoryMySQL
 0001:00003018       Dbx34DrvDbms..TDBXOpenODBCMetaDataCommandFactoryOracle
 0001:000067E8       Dbx34DrvDbms..TDBXOpenODBCMetaDataCommandFactoryPostgreSQL
 0001:000062E0       Dbx34DrvDbms..TDBXOpenODBCMetaDataCommandFactorySQLite
 0001:00003F10       Dbx34DrvDbms..TDBXOpenODBCMetaDataCommandFactorySybaseASA
 0001:00004428       Dbx34DrvDbms..TDBXOpenODBCMetaDataCommandFactorySybaseASE
 0001:000054D0       Dbx34DrvDbms..TDBXOpenODBCMetaDataReaderDataStorage
 0001:00004A98       Dbx34DrvDbms..TDBXOpenODBCMetaDataReaderDB2
 0001:000059E8       Dbx34DrvDbms..TDBXOpenODBCMetaDataReaderFirebird
 0001:00004FA0       Dbx34DrvDbms..TDBXOpenODBCMetaDataReaderInformix
 0001:00005F18       Dbx34DrvDbms..TDBXOpenODBCMetaDataReaderInterbase
 0001:00003678       Dbx34DrvDbms..TDBXOpenODBCMetaDataReaderMSSQL
 0001:00003B70       Dbx34DrvDbms..TDBXOpenODBCMetaDataReaderMySQL
 0001:00003178       Dbx34DrvDbms..TDBXOpenODBCMetaDataReaderOracle
 0001:00006950       Dbx34DrvDbms..TDBXOpenODBCMetaDataReaderPostgreSQL
 0001:00006440       Dbx34DrvDbms..TDBXOpenODBCMetaDataReaderSQLite
 0001:00004078       Dbx34DrvDbms..TDBXOpenODBCMetaDataReaderSybaseASA
 0001:00004590       Dbx34DrvDbms..TDBXOpenODBCMetaDataReaderSybaseASE
 0001:000442B0       Dbx34DrvDbms.Dbx34DrvDbms
 0001:00044200       Dbx34DrvDbms.Finalization
 0001:00035EC0       Dbx34DrvDbms.TDBXOpenODBCMetaDataCommandFactoryDataStorage.GetMetaDataReaderClass
 0001:00026B60       Dbx34DrvDbms.TDBXOpenODBCMetaDataCommandFactoryDB2.GetMetaDataReaderClass
 0001:00036250       Dbx34DrvDbms.TDBXOpenODBCMetaDataCommandFactoryFirebird.GetMetaDataReaderClass
 0001:0002C680       Dbx34DrvDbms.TDBXOpenODBCMetaDataCommandFactoryInformix.GetMetaDataReaderClass
 0001:0003BC40       Dbx34DrvDbms.TDBXOpenODBCMetaDataCommandFactoryInterbase.GetMetaDataReaderClass
 0001:0000A570       Dbx34DrvDbms.TDBXOpenODBCMetaDataCommandFactoryMSSQL.GetMetaDataReaderClass
 0001:00013EB0       Dbx34DrvDbms.TDBXOpenODBCMetaDataCommandFactoryMySQL.GetMetaDataReaderClass
 0001:00006D00       Dbx34DrvDbms.TDBXOpenODBCMetaDataCommandFactoryOracle.GetMetaDataReaderClass
 0001:00041660       Dbx34DrvDbms.TDBXOpenODBCMetaDataCommandFactoryPostgreSQL.GetMetaDataReaderClass
 0001:00041630       Dbx34DrvDbms.TDBXOpenODBCMetaDataCommandFactorySQLite.GetMetaDataReaderClass
 0001:000198A0       Dbx34DrvDbms.TDBXOpenODBCMetaDataCommandFactorySybaseASA.GetMetaDataReaderClass
 0001:00020250       Dbx34DrvDbms.TDBXOpenODBCMetaDataCommandFactorySybaseASE.GetMetaDataReaderClass
 0001:00036000       Dbx34DrvDbms.TDBXOpenODBCMetaDataReaderDataStorage.GetSqlForColumns
 0001:00036170       Dbx34DrvDbms.TDBXOpenODBCMetaDataReaderDataStorage.GetSqlForIndexColumns
 0001:000360C0       Dbx34DrvDbms.TDBXOpenODBCMetaDataReaderDataStorage.GetSqlForIndexes
 0001:00035ED0       Dbx34DrvDbms.TDBXOpenODBCMetaDataReaderDataStorage.GetSqlForTables
 0001:0002BC30       Dbx34DrvDbms.TDBXOpenODBCMetaDataReaderDB2.GetDataTypeDescriptions
 0001:00026B70       Dbx34DrvDbms.TDBXOpenODBCMetaDataReaderDB2.GetProductName
 0001:00027D20       Dbx34DrvDbms.TDBXOpenODBCMetaDataReaderDB2.GetReservedWords
 0001:00027170       Dbx34DrvDbms.TDBXOpenODBCMetaDataReaderDB2.GetSqlForColumns
 0001:000278B0       Dbx34DrvDbms.TDBXOpenODBCMetaDataReaderDB2.GetSqlForIndexColumns
 0001:00027500       Dbx34DrvDbms.TDBXOpenODBCMetaDataReaderDB2.GetSqlForIndexes
 0001:00026BB0       Dbx34DrvDbms.TDBXOpenODBCMetaDataReaderDB2.GetSqlForTables
 0001:0002BC10       Dbx34DrvDbms.TDBXOpenODBCMetaDataReaderDB2.GetSqlProcedureQuoteChar
 0001:0002BBD0       Dbx34DrvDbms.TDBXOpenODBCMetaDataReaderDB2.GetSystemTableType
 0001:0002BB50       Dbx34DrvDbms.TDBXOpenODBCMetaDataReaderDB2.GetTableType
 0001:0002BB90       Dbx34DrvDbms.TDBXOpenODBCMetaDataReaderDB2.GetViewType
 0001:000362A0       Dbx34DrvDbms.TDBXOpenODBCMetaDataReaderFirebird.Destroy
 0001:0003B0D0       Dbx34DrvDbms.TDBXOpenODBCMetaDataReaderFirebird.GetAllDataTypes
 0001:0003BB10       Dbx34DrvDbms.TDBXOpenODBCMetaDataReaderFirebird.GetDataTypeDescriptions
 0001:00036260       Dbx34DrvDbms.TDBXOpenODBCMetaDataReaderFirebird.GetProductName
 0001:00037590       Dbx34DrvDbms.TDBXOpenODBCMetaDataReaderFirebird.GetReservedWords
 0001:00036730       Dbx34DrvDbms.TDBXOpenODBCMetaDataReaderFirebird.GetSqlForColumns
 0001:00037060       Dbx34DrvDbms.TDBXOpenODBCMetaDataReaderFirebird.GetSqlForIndexColumns
 0001:00036BF0       Dbx34DrvDbms.TDBXOpenODBCMetaDataReaderFirebird.GetSqlForIndexes
 0001:000362F0       Dbx34DrvDbms.TDBXOpenODBCMetaDataReaderFirebird.GetSqlForTables
 0001:0003AFE0       Dbx34DrvDbms.TDBXOpenODBCMetaDataReaderFirebird.IsDescendingIndexColumnsSupported
 0001:0003AFF0       Dbx34DrvDbms.TDBXOpenODBCMetaDataReaderFirebird.SetContext
 0001:0002C6F0       Dbx34DrvDbms.TDBXOpenODBCMetaDataReaderInformix.Destroy
 0001:00034F00       Dbx34DrvDbms.TDBXOpenODBCMetaDataReaderInformix.GetAllDataTypes
 0001:00035D50       Dbx34DrvDbms.TDBXOpenODBCMetaDataReaderInformix.GetDataTypeDescriptions
 0001:0002C690       Dbx34DrvDbms.TDBXOpenODBCMetaDataReaderInformix.GetProductName
 0001:0002E800       Dbx34DrvDbms.TDBXOpenODBCMetaDataReaderInformix.GetReservedWords
 0001:0002CD20       Dbx34DrvDbms.TDBXOpenODBCMetaDataReaderInformix.GetSqlForColumns
 0001:0002D620       Dbx34DrvDbms.TDBXOpenODBCMetaDataReaderInformix.GetSqlForIndexColumns
 0001:0002D180       Dbx34DrvDbms.TDBXOpenODBCMetaDataReaderInformix.GetSqlForIndexes
 0001:0002C740       Dbx34DrvDbms.TDBXOpenODBCMetaDataReaderInformix.GetSqlForTables
 0001:00034EB0       Dbx34DrvDbms.TDBXOpenODBCMetaDataReaderInformix.GetSynonymType
 0001:00034E70       Dbx34DrvDbms.TDBXOpenODBCMetaDataReaderInformix.GetSystemTableType
 0001:00034DF0       Dbx34DrvDbms.TDBXOpenODBCMetaDataReaderInformix.GetTableType
 0001:00034E30       Dbx34DrvDbms.TDBXOpenODBCMetaDataReaderInformix.GetViewType
 0001:00034EF0       Dbx34DrvDbms.TDBXOpenODBCMetaDataReaderInformix.IsUpperCaseIdentifiersSupported
 0001:0003BC90       Dbx34DrvDbms.TDBXOpenODBCMetaDataReaderInterbase.Destroy
 0001:00040AC0       Dbx34DrvDbms.TDBXOpenODBCMetaDataReaderInterbase.GetAllDataTypes
 0001:00041500       Dbx34DrvDbms.TDBXOpenODBCMetaDataReaderInterbase.GetDataTypeDescriptions
 0001:0003BC50       Dbx34DrvDbms.TDBXOpenODBCMetaDataReaderInterbase.GetProductName
 0001:0003CF80       Dbx34DrvDbms.TDBXOpenODBCMetaDataReaderInterbase.GetReservedWords
 0001:0003C120       Dbx34DrvDbms.TDBXOpenODBCMetaDataReaderInterbase.GetSqlForColumns
 0001:0003CA50       Dbx34DrvDbms.TDBXOpenODBCMetaDataReaderInterbase.GetSqlForIndexColumns
 0001:0003C5E0       Dbx34DrvDbms.TDBXOpenODBCMetaDataReaderInterbase.GetSqlForIndexes
 0001:0003BCE0       Dbx34DrvDbms.TDBXOpenODBCMetaDataReaderInterbase.GetSqlForTables
 0001:000409D0       Dbx34DrvDbms.TDBXOpenODBCMetaDataReaderInterbase.IsDescendingIndexColumnsSupported
 0001:000409E0       Dbx34DrvDbms.TDBXOpenODBCMetaDataReaderInterbase.SetContext
 0001:00012370       Dbx34DrvDbms.TDBXOpenODBCMetaDataReaderMSSQL.GetDataTypeDescriptions
 0001:0000A580       Dbx34DrvDbms.TDBXOpenODBCMetaDataReaderMSSQL.GetProductName
 0001:0000D320       Dbx34DrvDbms.TDBXOpenODBCMetaDataReaderMSSQL.GetReservedWords
 0001:0000AF30       Dbx34DrvDbms.TDBXOpenODBCMetaDataReaderMSSQL.GetSqlForColumns
 0001:0000C870       Dbx34DrvDbms.TDBXOpenODBCMetaDataReaderMSSQL.GetSqlForIndexColumns
 0001:0000BD10       Dbx34DrvDbms.TDBXOpenODBCMetaDataReaderMSSQL.GetSqlForIndexes
 0001:0000A5E0       Dbx34DrvDbms.TDBXOpenODBCMetaDataReaderMSSQL.GetSqlForTables
 0001:000121C0       Dbx34DrvDbms.TDBXOpenODBCMetaDataReaderMSSQL.GetSqlIdentifierQuotePrefix
 0001:000121F0       Dbx34DrvDbms.TDBXOpenODBCMetaDataReaderMSSQL.GetSqlIdentifierQuoteSuffix
 0001:00012320       Dbx34DrvDbms.TDBXOpenODBCMetaDataReaderMSSQL.GetSynonymType
 0001:000122A0       Dbx34DrvDbms.TDBXOpenODBCMetaDataReaderMSSQL.GetSystemTableType
 0001:000122E0       Dbx34DrvDbms.TDBXOpenODBCMetaDataReaderMSSQL.GetSystemViewType
 0001:00012220       Dbx34DrvDbms.TDBXOpenODBCMetaDataReaderMSSQL.GetTableType
 0001:00012260       Dbx34DrvDbms.TDBXOpenODBCMetaDataReaderMSSQL.GetViewType
 0001:000181A0       Dbx34DrvDbms.TDBXOpenODBCMetaDataReaderMySQL.GetDataTypeDescriptions
 0001:00013EC0       Dbx34DrvDbms.TDBXOpenODBCMetaDataReaderMySQL.GetProductName
 0001:00015110       Dbx34DrvDbms.TDBXOpenODBCMetaDataReaderMySQL.GetReservedWords
 0001:000142D0       Dbx34DrvDbms.TDBXOpenODBCMetaDataReaderMySQL.GetSqlForColumns
 0001:00014D40       Dbx34DrvDbms.TDBXOpenODBCMetaDataReaderMySQL.GetSqlForIndexColumns
 0001:00014960       Dbx34DrvDbms.TDBXOpenODBCMetaDataReaderMySQL.GetSqlForIndexes
 0001:00013F00       Dbx34DrvDbms.TDBXOpenODBCMetaDataReaderMySQL.GetSqlForTables
 0001:00017F30       Dbx34DrvDbms.TDBXOpenODBCMetaDataReaderMySQL.GetSqlIdentifierQuoteChar
 0001:00017ED0       Dbx34DrvDbms.TDBXOpenODBCMetaDataReaderMySQL.GetSqlIdentifierQuotePrefix
 0001:00017F00       Dbx34DrvDbms.TDBXOpenODBCMetaDataReaderMySQL.GetSqlIdentifierQuoteSuffix
 0001:00017F60       Dbx34DrvDbms.TDBXOpenODBCMetaDataReaderMySQL.GetTableType
 0001:00017FC0       Dbx34DrvDbms.TDBXOpenODBCMetaDataReaderMySQL.IsDescendingIndexColumnsSupported
 0001:00017FE0       Dbx34DrvDbms.TDBXOpenODBCMetaDataReaderMySQL.IsMultipleCommandsSupported
 0001:00017FD0       Dbx34DrvDbms.TDBXOpenODBCMetaDataReaderMySQL.IsUpperCaseIdentifiersSupported
 0001:000180D0       Dbx34DrvDbms.TDBXOpenODBCMetaDataReaderMySQL.PopulateDataTypes
 0001:00017FF0       Dbx34DrvDbms.TDBXOpenODBCMetaDataReaderMySQL.SetContext
 0001:00009160       Dbx34DrvDbms.TDBXOpenODBCMetaDataReaderOracle.GetDataTypeDescriptions
 0001:00006D10       Dbx34DrvDbms.TDBXOpenODBCMetaDataReaderOracle.GetProductName
 0001:00007FC0       Dbx34DrvDbms.TDBXOpenODBCMetaDataReaderOracle.GetReservedWords
 0001:000073A0       Dbx34DrvDbms.TDBXOpenODBCMetaDataReaderOracle.GetSqlForColumns
 0001:00007AE0       Dbx34DrvDbms.TDBXOpenODBCMetaDataReaderOracle.GetSqlForIndexColumns
 0001:000076D0       Dbx34DrvDbms.TDBXOpenODBCMetaDataReaderOracle.GetSqlForIndexes
 0001:00006D50       Dbx34DrvDbms.TDBXOpenODBCMetaDataReaderOracle.GetSqlForSchemas
 0001:00006E40       Dbx34DrvDbms.TDBXOpenODBCMetaDataReaderOracle.GetSqlForTables
 0001:00008F40       Dbx34DrvDbms.TDBXOpenODBCMetaDataReaderOracle.PopulateDataTypes
 0001:00043960       Dbx34DrvDbms.TDBXOpenODBCMetaDataReaderPostgreSQL.GetReservedWords
 0001:00041C20       Dbx34DrvDbms.TDBXOpenODBCMetaDataReaderPostgreSQL.GetSqlForColumns
 0001:00042A40       Dbx34DrvDbms.TDBXOpenODBCMetaDataReaderPostgreSQL.GetSqlForIndexColumns
 0001:00042420       Dbx34DrvDbms.TDBXOpenODBCMetaDataReaderPostgreSQL.GetSqlForIndexes
 0001:00041670       Dbx34DrvDbms.TDBXOpenODBCMetaDataReaderPostgreSQL.GetSqlForTables
 0001:00041640       Dbx34DrvDbms.TDBXOpenODBCMetaDataReaderSQLite.GetSqlForTables
 0001:0001EEA0       Dbx34DrvDbms.TDBXOpenODBCMetaDataReaderSybaseASA.GetDataTypeDescriptions
 0001:000198B0       Dbx34DrvDbms.TDBXOpenODBCMetaDataReaderSybaseASA.GetProductName
 0001:0001C110       Dbx34DrvDbms.TDBXOpenODBCMetaDataReaderSybaseASA.GetReservedWords
 0001:0001A0B0       Dbx34DrvDbms.TDBXOpenODBCMetaDataReaderSybaseASA.GetSqlForColumns
 0001:0001B250       Dbx34DrvDbms.TDBXOpenODBCMetaDataReaderSybaseASA.GetSqlForIndexColumns
 0001:0001A5B0       Dbx34DrvDbms.TDBXOpenODBCMetaDataReaderSybaseASA.GetSqlForIndexes
 0001:00019AD0       Dbx34DrvDbms.TDBXOpenODBCMetaDataReaderSybaseASA.GetSqlForTables
 0001:0001EE00       Dbx34DrvDbms.TDBXOpenODBCMetaDataReaderSybaseASA.GetSystemTableType
 0001:0001EE50       Dbx34DrvDbms.TDBXOpenODBCMetaDataReaderSybaseASA.GetSystemViewType
 0001:0001ED60       Dbx34DrvDbms.TDBXOpenODBCMetaDataReaderSybaseASA.GetTableType
 0001:0001EDB0       Dbx34DrvDbms.TDBXOpenODBCMetaDataReaderSybaseASA.GetViewType
 0001:00019910       Dbx34DrvDbms.TDBXOpenODBCMetaDataReaderSybaseASA.SetContext
 0001:00025630       Dbx34DrvDbms.TDBXOpenODBCMetaDataReaderSybaseASE.GetDataTypeDescriptions
 0001:00020260       Dbx34DrvDbms.TDBXOpenODBCMetaDataReaderSybaseASE.GetProductName
 0001:00021480       Dbx34DrvDbms.TDBXOpenODBCMetaDataReaderSybaseASE.GetReservedWords
 0001:00020640       Dbx34DrvDbms.TDBXOpenODBCMetaDataReaderSybaseASE.GetSqlForColumns
 0001:00020F80       Dbx34DrvDbms.TDBXOpenODBCMetaDataReaderSybaseASE.GetSqlForIndexColumns
 0001:00020C00       Dbx34DrvDbms.TDBXOpenODBCMetaDataReaderSybaseASE.GetSqlForIndexes
 0001:000202B0       Dbx34DrvDbms.TDBXOpenODBCMetaDataReaderSybaseASE.GetSqlForTables
 0001:000255F0       Dbx34DrvDbms.TDBXOpenODBCMetaDataReaderSybaseASE.GetSystemTableType
 0001:00025570       Dbx34DrvDbms.TDBXOpenODBCMetaDataReaderSybaseASE.GetTableType
 0001:000255B0       Dbx34DrvDbms.TDBXOpenODBCMetaDataReaderSybaseASE.GetViewType
 0002:00001B2C       DbxDBFix..$Dbxdbfix$DbxDBFix$_eh0
 0005:00001338       DbxDBFix..$Dbxdbfix$DbxDBFix$_eh1
 0002:00001B28       DbxDBFix..$Dbxdbfix$Finalization$_eh0
 0005:0000132C       DbxDBFix..$Dbxdbfix$Finalization$_eh1
 0003:00000064       DbxDBFix..1
 0001:0004C7C0       DbxDBFix.DbxDBFix
 0001:0004C7B0       DbxDBFix.Finalization
 0002:00001B24       DbxXXDrv..$Dbxxxdrv$DbxXXDrv$_eh0
 0005:00001320       DbxXXDrv..$Dbxxxdrv$DbxXXDrv$_eh1
 0002:00001B20       DbxXXDrv..$Dbxxxdrv$Finalization$_eh0
 0005:00001314       DbxXXDrv..$Dbxxxdrv$Finalization$_eh1
 0002:00001B1C       DbxXXDrv..$Dbxxxdrv$IsDbxDrvFixed$_eh0
 0005:00001308       DbxXXDrv..$Dbxxxdrv$IsDbxDrvFixed$_eh1
 0003:00000060       DbxXXDrv..1
 0001:0004C7A0       DbxXXDrv.DbxXXDrv
 0001:0004C790       DbxXXDrv.Finalization
 0001:0004C780       DbxXXDrv.IsDbxDrvFixed
 0001:00000C66       SysInit..$HookBypass$29649
 0001:000010A0       SysInit..$LN11
 0001:00000D40       SysInit..$LN14
 0001:000011E0       SysInit..$LN3
 0001:00001250       SysInit..$LN3
 0001:000013F0       SysInit..$LN3
 0001:000006F0       SysInit..$LN3
 0001:000012C0       SysInit..$LN3
 0001:00000770       SysInit..$LN32
 0001:000012E0       SysInit..$LN4
 0001:00001380       SysInit..$LN5
 0001:00000710       SysInit..$LN5
 0001:000011F0       SysInit..$LN6
 0005:000000E4       SysInit..$pdata$??0ULI@@QEAA@PEBUImgDelayDescr@@@Z
 0005:00000108       SysInit..$pdata$??1ULI@@QEAA@XZ
 0005:0000012C       SysInit..$pdata$??2ULI@@SAPEAX_K@Z
 0005:00000120       SysInit..$pdata$??3ULI@@SAXPEAX@Z
 0005:000000F0       SysInit..$pdata$??_GULI@@QEAAPEAXI@Z
 0005:00000138       SysInit..$pdata$?CountOfImports@@YAIPEBU_IMAGE_THUNK_DATA64@@@Z
 0005:00000090       SysInit..$pdata$?FLoadedAtPreferredAddress@@YA_NPEAU_IMAGE_NT_HEADERS64@@PEAUHINSTANCE__@@@Z
 0005:000000B4       SysInit..$pdata$?OverlayIAT@@YAXPEAU_IMAGE_THUNK_DATA64@@PEBU1@@Z
 0005:00000114       SysInit..$pdata$?Unlink@ULI@@QEAAXXZ
 0005:000000C0       SysInit..$pdata$?__memcpy@@YAPEAXPEAXPEBX_K@Z
 0005:000000A8       SysInit..$pdata$?__strlen@@YA_KPEBD@Z
 0005:000000FC       SysInit..$pdata$HRESULT_FROM_WIN32
 0005:000000D8       SysInit..$pdata$ShutdownDelayHelp2
 0005:00000084       SysInit..$pdata$__delayLoadHelper2
 0005:0000009C       SysInit..$pdata$__FUnloadDelayLoadedDLL2
 0005:000000CC       SysInit..$pdata$__HrLoadAllImportsForDll
 0001:00000C56       SysInit..$SetEntryHookBypass$29673
 0002:00000010       SysInit..$Sysinit$AllocTlsBuffer$_eh0
 0005:00000000       SysInit..$Sysinit$AllocTlsBuffer$_eh1
 0002:0000008C       SysInit..$Sysinit$ExitProcessTLS$_eh0
 0005:0000003C       SysInit..$Sysinit$ExitProcessTLS$_eh1
 0002:00000084       SysInit..$Sysinit$ExitThreadTLS$_eh0
 0005:00000030       SysInit..$Sysinit$ExitThreadTLS$_eh1
 0002:00000148       SysInit..$Sysinit$Finalization$_eh0
 0005:00000144       SysInit..$Sysinit$Finalization$_eh1
 0002:00000070       SysInit..$Sysinit$GetTlsSize$_eh0
 0005:0000000C       SysInit..$Sysinit$GetTlsSize$_eh1
 0002:00000094       SysInit..$Sysinit$InitializeModule$_eh0
 0005:00000048       SysInit..$Sysinit$InitializeModule$_eh1
 0002:0000007C       SysInit..$Sysinit$InitProcessTLS$_eh0
 0005:00000024       SysInit..$Sysinit$InitProcessTLS$_eh1
 0002:00000074       SysInit..$Sysinit$InitThreadTLS$_eh0
 0005:00000018       SysInit..$Sysinit$InitThreadTLS$_eh1
 0002:00000150       SysInit..$Sysinit$SysInit$_eh0
 0005:00000150       SysInit..$Sysinit$SysInit$_eh1
 0002:0000009C       SysInit..$Sysinit$UninitializeModule$_eh0
 0005:00000054       SysInit..$Sysinit$UninitializeModule$_eh1
 0002:000000A4       SysInit..$Sysinit$_InitPkg$_eh0
 0005:00000060       SysInit..$Sysinit$_InitPkg$_eh1
 0002:000000B0       SysInit..$Sysinit$_PackageLoad$_eh0
 0005:0000006C       SysInit..$Sysinit$_PackageLoad$_eh1
 0002:000000B8       SysInit..$Sysinit$_PackageUnload$_eh0
 0005:00000078       SysInit..$Sysinit$_PackageUnload$_eh1
 0002:00000118       SysInit..$unwind$??0ULI@@QEAA@PEBUImgDelayDescr@@@Z
 0002:00000140       SysInit..$unwind$??1ULI@@QEAA@XZ
 0002:00000130       SysInit..$unwind$??2ULI@@SAPEAX_K@Z
 0002:00000128       SysInit..$unwind$??3ULI@@SAXPEAX@Z
 0002:00000110       SysInit..$unwind$??_GULI@@QEAAPEAXI@Z
 0002:00000138       SysInit..$unwind$?CountOfImports@@YAIPEBU_IMAGE_THUNK_DATA64@@@Z
 0002:000000D4       SysInit..$unwind$?FLoadedAtPreferredAddress@@YA_NPEAU_IMAGE_NT_HEADERS64@@PEAUHINSTANCE__@@@Z
 0002:000000F0       SysInit..$unwind$?OverlayIAT@@YAXPEAU_IMAGE_THUNK_DATA64@@PEBU1@@Z
 0002:00000120       SysInit..$unwind$?Unlink@ULI@@QEAAXXZ
 0002:000000F8       SysInit..$unwind$?__memcpy@@YAPEAXPEAXPEBX_K@Z
 0002:000000E8       SysInit..$unwind$?__strlen@@YA_KPEBD@Z
 0002:000000C0       SysInit..$unwind$HRESULT_FROM_WIN32
 0002:00000108       SysInit..$unwind$ShutdownDelayHelp2
 0002:000000C8       SysInit..$unwind$__delayLoadHelper2
 0002:000000DC       SysInit..$unwind$__FUnloadDelayLoadedDLL2
 0002:00000100       SysInit..$unwind$__HrLoadAllImportsForDll
 0003:00000028       SysInit..1
 0001:00000750       SysInit..??$PFromRva@PEAP6A_JXZ@@YAPEAP6A_JXZK@Z
 0001:000013D0       SysInit..??$PFromRva@PEAPEAUHINSTANCE__@@@@YAPEAPEAUHINSTANCE__@@K@Z
 0001:00001320       SysInit..??$PFromRva@PEAU_IMAGE_IMPORT_BY_NAME@@@@YAPEAU_IMAGE_IMPORT_BY_NAME@@K@Z
 0001:00001420       SysInit..??$PFromRva@PEAU_IMAGE_THUNK_DATA64@@@@YAPEAU_IMAGE_THUNK_DATA64@@K@Z
 0001:00001360       SysInit..??$PFromRva@PEBD@@YAPEBDK@Z
 0001:000012A0       SysInit..??$PFromRva@PEBUImgDelayDescr@@@@YAPEBUImgDelayDescr@@K@Z
 0001:00001340       SysInit..??$PFromRva@PEBU_IMAGE_THUNK_DATA64@@@@YAPEBU_IMAGE_THUNK_DATA64@@K@Z
 0001:000013F0       SysInit..??0ULI@@QEAA@PEBUImgDelayDescr@@@Z
 0001:000012C0       SysInit..??1ULI@@QEAA@XZ
 0001:00001250       SysInit..??2ULI@@SAPEAX_K@Z
 0001:000006F0       SysInit..??3ULI@@SAXPEAX@Z
 0001:000012E0       SysInit..??_GULI@@QEAAPEAXI@Z
 0001:00001380       SysInit..?CountOfImports@@YAIPEBU_IMAGE_THUNK_DATA64@@@Z
 0001:00000D00       SysInit..?FLoadedAtPreferredAddress@@YA_NPEAU_IMAGE_NT_HEADERS64@@PEAUHINSTANCE__@@@Z
 0001:00001440       SysInit..?IndexFromPImgThunkData@@YAIPEBU_IMAGE_THUNK_DATA64@@0@Z
 0001:00001270       SysInit..?Link@ULI@@QEAAXXZ
 0001:00000FF0       SysInit..?OverlayIAT@@YAXPEAU_IMAGE_THUNK_DATA64@@PEBU1@@Z
 0001:00000CC0       SysInit..?PinhFromImageBase@@YAPEAU_IMAGE_NT_HEADERS64@@PEAUHINSTANCE__@@@Z
 0001:00000CE0       SysInit..?TimeStampOfImage@@YAKPEAU_IMAGE_NT_HEADERS64@@@Z
 0001:000011F0       SysInit..?Unlink@ULI@@QEAAXXZ
 0001:00000F70       SysInit..?__memcmp@@YAHPEBX0_K@Z
 0001:00001030       SysInit..?__memcpy@@YAPEAXPEAXPEBX_K@Z
 0001:00000F20       SysInit..?__strlen@@YA_KPEBD@Z
 0001:00000710       SysInit..HRESULT_FROM_WIN32
 0003:00000038       SysInit..__puiHead
 0001:00000630       SysInit.@InitPkg
 0001:000006B0       SysInit.@PackageLoad
 0001:000006D0       SysInit.@PackageUnload
 0001:00000770       SysInit.@_delayLoadHelper2
 0001:00000D40       SysInit.@_FUnloadDelayLoadedDLL2
 0001:000010A0       SysInit.@_HrLoadAllImportsForDll
 0003:00000020       SysInit.@_pfnDliFailureHook2
 0003:00000018       SysInit.@_pfnDliNotifyHook2
 0001:00000480       SysInit.AllocTlsBuffer
 0001:000005A0       SysInit.ExitProcessTLS
 0001:00000550       SysInit.ExitThreadTLS
 0001:00001460       SysInit.Finalization
 0001:000003D0       SysInit.FreeLibrary
 0001:00000440       SysInit.GetLastError
 0001:00000470       SysInit.GetProcAddress
 0001:000004A0       SysInit.GetTlsSize
 0003:00000008       SysInit.HInstance
 0001:000005D0       SysInit.InitializeModule
 0001:00000510       SysInit.InitProcessTLS
 0001:000004B0       SysInit.InitThreadTLS
 0001:00000450       SysInit.LoadLibraryA
 0001:000003E0       SysInit.LocalAlloc
 0001:000003F0       SysInit.LocalFree
 0002:00000018       SysInit.Module
 0003:00000000       SysInit.ModuleIsLib
 0003:00000001       SysInit.ModuleIsPackage
 0002:00000008       SysInit.PtrToNil
 0001:00000460       SysInit.RaiseException
 0001:000011E0       SysInit.ShutdownDelayHelp2
 0001:00001480       SysInit.SysInit
 0001:00000400       SysInit.TlsAlloc
 0003:00000030       SysInit.tlsBuffer
 0001:00000410       SysInit.TlsFree
 0001:00000420       SysInit.TlsGetValue
 0002:00000000       SysInit.TlsIndex
 0004:00000000       SysInit.TlsLast
 0002:00000050       SysInit.TlsProc
 0001:00000430       SysInit.TlsSetValue
 0001:000005F0       SysInit.UninitializeModule
 0003:FFFB0000       SysInit.__ImageBase
 0001:00000320       System.@AddRefRecord
 0001:00000130       System.@AfterConstruction
 0001:00000140       System.@BeforeDestruction
 0001:00000110       System.@ClassCreate
 0001:00000120       System.@ClassDestroy
 0001:00000150       System.@DelphiExceptionHandler
 0001:00000180       System.@DestroyException
 0001:00000190       System.@DoneExcept
 0001:00000380       System.@DynArrayAddRef
 0001:00000370       System.@DynArrayAsg
 0001:00000360       System.@DynArrayClear
 0001:00000340       System.@DynArrayHigh
 0001:00000330       System.@DynArrayLength
 0001:00000350       System.@DynArraySetLength
 0001:00000310       System.@FinalizeArray
 0001:00000300       System.@FinalizeRecord
 0001:00000090       System.@IsClass
 0001:000001F0       System.@LStrArrayClr
 0001:00000260       System.@LStrFromUStr
 0001:00000230       System.@LStrLen
 0001:00000250       System.@LStrSetLength
 0001:00000240       System.@LStrToPChar
 0001:000001A0       System.@PackageLoad
 0001:000001B0       System.@PackageUnload
 0001:00000170       System.@RaiseAgain
 0001:00000160       System.@RaiseExcept
 0001:000001C0       System.@RunError
 0001:000001E0       System.@UStrArrayClr
 0001:00000200       System.@UStrAsg
 0001:000002A0       System.@UStrCat3
 0001:000002B0       System.@UStrCatN
 0001:000001D0       System.@UStrClr
 0001:000002C0       System.@UStrCmp
 0001:000002E0       System.@UStrCopy
 0001:000002D0       System.@UStrEqual
 0001:00000280       System.@UStrFromLStr
 0001:00000210       System.@UStrLAsg
 0001:00000220       System.@UStrLen
 0001:00000290       System.@UStrSetLength
 0001:00000270       System.@UStrToPWChar
 0001:000003B0       System.Finalization
 0001:000002F0       System.Pos
 0001:00000390       System.RegisterModule
 0001:000003C0       System.System
 0001:000000E0       System.TObject.AfterConstruction
 0001:000000F0       System.TObject.BeforeDestruction
 0001:00000010       System.TObject.ClassName
 0001:00000000       System.TObject.ClassType
 0001:00000040       System.TObject.Create
 0001:000000D0       System.TObject.DefaultHandler
 0001:00000050       System.TObject.Destroy
 0001:00000100       System.TObject.Dispatch
 0001:00000070       System.TObject.Equals
 0001:00000060       System.TObject.Free
 0001:00000030       System.TObject.FreeInstance
 0001:00000080       System.TObject.GetHashCode
 0001:000000A0       System.TObject.InheritsFrom
 0001:00000020       System.TObject.NewInstance
 0001:000000B0       System.TObject.SafeCallException
 0001:000000C0       System.TObject.ToString
 0001:000003A0       System.UnregisterModule
 0001:00001B70       System.AnsiStrings.Finalization
 0001:00001B80       System.AnsiStrings.System.AnsiStrings
 0001:00001660       System.Character.Finalization
 0001:00001670       System.Character.System.Character
 0001:00001990       System.Classes.Finalization
 0001:000019A0       System.Classes.System.Classes
 0001:000018F0       System.Classes.TBinaryWriter.Create@
 0001:00001950       System.Classes.TBinaryWriter.Destroy@
 0001:00001960       System.Classes.TLoginCredentialService.Create@
 0001:00001970       System.Classes.TLoginCredentialService.Destroy@
 0001:000018E0       System.Classes.TObserverMapping.Create@
 0001:00001980       System.Classes.TObserverMapping.Destroy@
 0001:00001900       System.Classes.TPersistent.Assign
 0001:00001910       System.Classes.TPersistent.AssignTo
 0001:00001920       System.Classes.TPersistent.DefineProperties
 0001:00001930       System.Classes.TThread.Create@
 0001:00001940       System.Classes.TThread.Destroy@
 0001:00001CB0       System.Contnrs.Finalization
 0001:00001CC0       System.Contnrs.System.Contnrs
 0001:00001BF0       System.DateUtils.Finalization
 0001:00001C00       System.DateUtils.System.DateUtils
 0001:00001BD0       System.DateUtils.TTimeZone.Create@
 0001:00001BE0       System.DateUtils.TTimeZone.Destroy@
 0001:00001B00       System.Diagnostics.Finalization
 0001:00001B10       System.Diagnostics.System.Diagnostics
 0001:00001BB0       System.Generics.Collections.Finalization
 0001:00001BC0       System.Generics.Collections.System.Generics.Collections
 0001:00001B90       System.Generics.Defaults.Finalization
 0001:00001BA0       System.Generics.Defaults.System.Generics.Defaults
 0001:00001DD0       System.IniFiles.Finalization
 0001:00001DE0       System.IniFiles.System.IniFiles
 0001:00001680       System.Internal.ExcUtils.Finalization
 0001:00001690       System.Internal.ExcUtils.System.Internal.ExcUtils
 0001:00001DB0       System.IOUtils.Finalization
 0001:00001DC0       System.IOUtils.System.IOUtils
 0001:00001DA0       System.IOUtils.TPath.Create@
 0001:00001D90       System.IOUtils.TPath.Destroy@
 0001:00001D70       System.Masks.Finalization
 0001:00001D80       System.Masks.System.Masks
 0001:00001A40       System.MaskUtils.Finalization
 0001:00001A50       System.MaskUtils.System.MaskUtils
 0001:00001A80       System.Math.Finalization
 0001:00001A90       System.Math.System.Math
 0001:00001CD0       System.ObjAuto.Finalization
 0001:00001CE0       System.ObjAuto.System.ObjAuto
 0001:00001640       System.RTLConsts.Finalization
 0001:00001650       System.RTLConsts.System.RTLConsts
 0001:00001B50       System.StrUtils.Finalization
 0001:00001B40       System.StrUtils.PosEx
 0001:00001B60       System.StrUtils.System.StrUtils
 0001:00001B20       System.SyncObjs.Finalization
 0001:00001B30       System.SyncObjs.System.SyncObjs
 0001:000015C0       System.SysConst.Finalization
 0001:000015D0       System.SysConst.System.SysConst
 0001:00001730       System.SysUtils.BoolToStr
 0001:00001770       System.SysUtils.Exception.Create
 0001:000017C0       System.SysUtils.Exception.Create@
 0001:00001780       System.SysUtils.Exception.Destroy
 0001:000017D0       System.SysUtils.Exception.Destroy@
 0001:00001790       System.SysUtils.Exception.GetBaseException
 0001:000017A0       System.SysUtils.Exception.RaisingException
 0001:000017B0       System.SysUtils.Exception.ToString
 0001:00001760       System.SysUtils.ExtractFileName
 0001:00001750       System.SysUtils.ExtractFilePath
 0001:00001740       System.SysUtils.FileExists
 0001:00001820       System.SysUtils.Finalization
 0001:000017E0       System.SysUtils.FreeAndNil
 0001:00001700       System.SysUtils.IntToStr
 0001:000016E0       System.SysUtils.SameText
 0001:00001720       System.SysUtils.StrToBoolDef
 0001:00001710       System.SysUtils.StrToIntDef
 0001:00001830       System.SysUtils.System.SysUtils
 0001:000016B0       System.SysUtils.TEncoding.Create@
 0001:00001800       System.SysUtils.TEncoding.Destroy@
 0001:000016A0       System.SysUtils.TLanguages.Create@
 0001:000017F0       System.SysUtils.TLanguages.Destroy@
 0001:00001810       System.SysUtils.TOSVersion.Create@
 0001:000016C0       System.SysUtils.TOSVersion.Destroy@
 0001:000016F0       System.SysUtils.Trim
 0001:000016D0       System.SysUtils.UpperCase
 0001:00001AE0       System.TimeSpan.Finalization
 0001:00001AF0       System.TimeSpan.System.TimeSpan
 0001:00001AD0       System.TimeSpan.TTimeSpan.Create@
 0001:00001AC0       System.TimeSpan.TTimeSpan.Destroy@
 0001:00001490       System.Types.Finalization
 0001:000014A0       System.Types.System.Types
 0001:000018C0       System.TypInfo.Finalization
 0001:000018D0       System.TypInfo.System.TypInfo
 0001:000014B0       System.UITypes.Finalization
 0001:000014C0       System.UITypes.System.UITypes
 0001:000018A0       System.Variants.Finalization
 0001:000018B0       System.Variants.System.Variants
 0001:00001880       System.VarUtils.Finalization
 0001:00001890       System.VarUtils.System.VarUtils
 0001:00001AA0       System.WideStrings.Finalization
 0001:00001AB0       System.WideStrings.System.WideStrings
 0001:00001A60       System.WideStrUtils.Finalization
 0001:00001A70       System.WideStrUtils.System.WideStrUtils
 0001:00001E30       System.Win.ComConst.Finalization
 0001:00001E40       System.Win.ComConst.System.Win.ComConst
 0001:00001E70       System.Win.ComObj.Finalization
 0001:00001E80       System.Win.ComObj.System.Win.ComObj
 0001:00001E60       System.Win.ComObj.TComServerObject.Create@
 0001:00001E50       System.Win.ComObj.TComServerObject.Destroy@
 0001:00001F90       System.Win.Registry.Finalization
 0001:00001FA0       System.Win.Registry.System.Win.Registry
 0001:00001F80       System.Win.Registry.TRegistry.Create@
 0001:00001F70       System.Win.Registry.TRegistry.Destroy@
 0001:00001860       Winapi.ActiveX.Finalization
 0001:00001870       Winapi.ActiveX.Winapi.ActiveX
 0001:000015E0       Winapi.ImageHlp.Finalization
 0001:000015F0       Winapi.ImageHlp.Winapi.ImageHlp
 0002:00000180       Winapi.Messages..$Winapi_Messages$Finalization$_eh0
 0005:00000198       Winapi.Messages..$Winapi_Messages$Finalization$_eh1
 0002:00000184       Winapi.Messages..$Winapi_Messages$Winapi.Messages$_eh0
 0005:000001A4       Winapi.Messages..$Winapi_Messages$Winapi.Messages$_eh1
 0003:00000054       Winapi.Messages..1
 0001:00001840       Winapi.Messages.Finalization
 0001:00001850       Winapi.Messages.Winapi.Messages
 0002:00000178       Winapi.PsAPI..$Winapi_Psapi$Finalization$_eh0
 0005:00000180       Winapi.PsAPI..$Winapi_Psapi$Finalization$_eh1
 0002:0000017C       Winapi.PsAPI..$Winapi_Psapi$Winapi.PsAPI$_eh0
 0005:0000018C       Winapi.PsAPI..$Winapi_Psapi$Winapi.PsAPI$_eh1
 0003:00000050       Winapi.PsAPI..1
 0001:00001620       Winapi.PsAPI.Finalization
 0001:00001630       Winapi.PsAPI.Winapi.PsAPI
 0001:00001600       Winapi.SHFolder.Finalization
 0001:00001610       Winapi.SHFolder.Winapi.SHFolder
 0002:00000168       Winapi.Windows..$Winapi_Windows$Finalization$_eh0
 0005:00000168       Winapi.Windows..$Winapi_Windows$Finalization$_eh1
 0002:00000160       Winapi.Windows..$Winapi_Windows$InitVersionInfo$_eh0
 0005:0000015C       Winapi.Windows..$Winapi_Windows$InitVersionInfo$_eh1
 0002:00000170       Winapi.Windows..$Winapi_Windows$Winapi.Windows$_eh0
 0005:00000174       Winapi.Windows..$Winapi_Windows$Winapi.Windows$_eh1
 0003:00000040       Winapi.Windows..2
 0001:00001560       Winapi.Windows.Finalization
 0001:000014D0       Winapi.Windows.FreeLibrary
 0001:000014E0       Winapi.Windows.GetEnvironmentVariableA
 0001:000014F0       Winapi.Windows.GetEnvironmentVariableW
 0001:00001500       Winapi.Windows.GetVersionEx
 0003:00000048       Winapi.Windows.HtmlHelpModule
 0001:00001510       Winapi.Windows.InitVersionInfo
 0002:00000154       Winapi.Windows.Win32MajorVersion
 0002:00000158       Winapi.Windows.Win32MinorVersion
 0002:0000015C       Winapi.Windows.Win32Platform
 0001:00001590       Winapi.Windows.Winapi.Windows


  Address             Publics by Value

 0001:00000000       System.TObject.ClassType
 0001:00000010       System.TObject.ClassName
 0001:00000020       System.TObject.NewInstance
 0001:00000030       System.TObject.FreeInstance
 0001:00000040       System.TObject.Create
 0001:00000050       System.TObject.Destroy
 0001:00000060       System.TObject.Free
 0001:00000070       System.TObject.Equals
 0001:00000080       System.TObject.GetHashCode
 0001:00000090       System.@IsClass
 0001:000000A0       System.TObject.InheritsFrom
 0001:000000B0       System.TObject.SafeCallException
 0001:000000C0       System.TObject.ToString
 0001:000000D0       System.TObject.DefaultHandler
 0001:000000E0       System.TObject.AfterConstruction
 0001:000000F0       System.TObject.BeforeDestruction
 0001:00000100       System.TObject.Dispatch
 0001:00000110       System.@ClassCreate
 0001:00000120       System.@ClassDestroy
 0001:00000130       System.@AfterConstruction
 0001:00000140       System.@BeforeDestruction
 0001:00000150       System.@DelphiExceptionHandler
 0001:00000160       System.@RaiseExcept
 0001:00000170       System.@RaiseAgain
 0001:00000180       System.@DestroyException
 0001:00000190       System.@DoneExcept
 0001:000001A0       System.@PackageLoad
 0001:000001B0       System.@PackageUnload
 0001:000001C0       System.@RunError
 0001:000001D0       System.@UStrClr
 0001:000001E0       System.@UStrArrayClr
 0001:000001F0       System.@LStrArrayClr
 0001:00000200       System.@UStrAsg
 0001:00000210       System.@UStrLAsg
 0001:00000220       System.@UStrLen
 0001:00000230       System.@LStrLen
 0001:00000240       System.@LStrToPChar
 0001:00000250       System.@LStrSetLength
 0001:00000260       System.@LStrFromUStr
 0001:00000270       System.@UStrToPWChar
 0001:00000280       System.@UStrFromLStr
 0001:00000290       System.@UStrSetLength
 0001:000002A0       System.@UStrCat3
 0001:000002B0       System.@UStrCatN
 0001:000002C0       System.@UStrCmp
 0001:000002D0       System.@UStrEqual
 0001:000002E0       System.@UStrCopy
 0001:000002F0       System.Pos
 0001:00000300       System.@FinalizeRecord
 0001:00000310       System.@FinalizeArray
 0001:00000320       System.@AddRefRecord
 0001:00000330       System.@DynArrayLength
 0001:00000340       System.@DynArrayHigh
 0001:00000350       System.@DynArraySetLength
 0001:00000360       System.@DynArrayClear
 0001:00000370       System.@DynArrayAsg
 0001:00000380       System.@DynArrayAddRef
 0001:00000390       System.RegisterModule
 0001:000003A0       System.UnregisterModule
 0001:000003B0       System.Finalization
 0001:000003C0       System.System
 0001:000003D0       SysInit.FreeLibrary
 0001:000003E0       SysInit.LocalAlloc
 0001:000003F0       SysInit.LocalFree
 0001:00000400       SysInit.TlsAlloc
 0001:00000410       SysInit.TlsFree
 0001:00000420       SysInit.TlsGetValue
 0001:00000430       SysInit.TlsSetValue
 0001:00000440       SysInit.GetLastError
 0001:00000450       SysInit.LoadLibraryA
 0001:00000460       SysInit.RaiseException
 0001:00000470       SysInit.GetProcAddress
 0001:00000480       SysInit.AllocTlsBuffer
 0001:000004A0       SysInit.GetTlsSize
 0001:000004B0       SysInit.InitThreadTLS
 0001:00000510       SysInit.InitProcessTLS
 0001:00000550       SysInit.ExitThreadTLS
 0001:000005A0       SysInit.ExitProcessTLS
 0001:000005D0       SysInit.InitializeModule
 0001:000005F0       SysInit.UninitializeModule
 0001:00000630       SysInit.@InitPkg
 0001:000006B0       SysInit.@PackageLoad
 0001:000006D0       SysInit.@PackageUnload
 0001:000006F0       SysInit..??3ULI@@SAXPEAX@Z
 0001:000006F0       SysInit..$LN3
 0001:00000710       SysInit..HRESULT_FROM_WIN32
 0001:00000710       SysInit..$LN5
 0001:00000750       SysInit..??$PFromRva@PEAP6A_JXZ@@YAPEAP6A_JXZK@Z
 0001:00000770       SysInit.@_delayLoadHelper2
 0001:00000770       SysInit..$LN32
 0001:00000C56       SysInit..$SetEntryHookBypass$29673
 0001:00000C66       SysInit..$HookBypass$29649
 0001:00000CC0       SysInit..?PinhFromImageBase@@YAPEAU_IMAGE_NT_HEADERS64@@PEAUHINSTANCE__@@@Z
 0001:00000CE0       SysInit..?TimeStampOfImage@@YAKPEAU_IMAGE_NT_HEADERS64@@@Z
 0001:00000D00       SysInit..?FLoadedAtPreferredAddress@@YA_NPEAU_IMAGE_NT_HEADERS64@@PEAUHINSTANCE__@@@Z
 0001:00000D40       SysInit..$LN14
 0001:00000D40       SysInit.@_FUnloadDelayLoadedDLL2
 0001:00000F20       SysInit..?__strlen@@YA_KPEBD@Z
 0001:00000F70       SysInit..?__memcmp@@YAHPEBX0_K@Z
 0001:00000FF0       SysInit..?OverlayIAT@@YAXPEAU_IMAGE_THUNK_DATA64@@PEBU1@@Z
 0001:00001030       SysInit..?__memcpy@@YAPEAXPEAXPEBX_K@Z
 0001:000010A0       SysInit..$LN11
 0001:000010A0       SysInit.@_HrLoadAllImportsForDll
 0001:000011E0       SysInit..$LN3
 0001:000011E0       SysInit.ShutdownDelayHelp2
 0001:000011F0       SysInit..?Unlink@ULI@@QEAAXXZ
 0001:000011F0       SysInit..$LN6
 0001:00001250       SysInit..$LN3
 0001:00001250       SysInit..??2ULI@@SAPEAX_K@Z
 0001:00001270       SysInit..?Link@ULI@@QEAAXXZ
 0001:000012A0       SysInit..??$PFromRva@PEBUImgDelayDescr@@@@YAPEBUImgDelayDescr@@K@Z
 0001:000012C0       SysInit..$LN3
 0001:000012C0       SysInit..??1ULI@@QEAA@XZ
 0001:000012E0       SysInit..??_GULI@@QEAAPEAXI@Z
 0001:000012E0       SysInit..$LN4
 0001:00001320       SysInit..??$PFromRva@PEAU_IMAGE_IMPORT_BY_NAME@@@@YAPEAU_IMAGE_IMPORT_BY_NAME@@K@Z
 0001:00001340       SysInit..??$PFromRva@PEBU_IMAGE_THUNK_DATA64@@@@YAPEBU_IMAGE_THUNK_DATA64@@K@Z
 0001:00001360       SysInit..??$PFromRva@PEBD@@YAPEBDK@Z
 0001:00001380       SysInit..?CountOfImports@@YAIPEBU_IMAGE_THUNK_DATA64@@@Z
 0001:00001380       SysInit..$LN5
 0001:000013D0       SysInit..??$PFromRva@PEAPEAUHINSTANCE__@@@@YAPEAPEAUHINSTANCE__@@K@Z
 0001:000013F0       SysInit..$LN3
 0001:000013F0       SysInit..??0ULI@@QEAA@PEBUImgDelayDescr@@@Z
 0001:00001420       SysInit..??$PFromRva@PEAU_IMAGE_THUNK_DATA64@@@@YAPEAU_IMAGE_THUNK_DATA64@@K@Z
 0001:00001440       SysInit..?IndexFromPImgThunkData@@YAIPEBU_IMAGE_THUNK_DATA64@@0@Z
 0001:00001460       SysInit.Finalization
 0001:00001480       SysInit.SysInit
 0001:00001490       System.Types.Finalization
 0001:000014A0       System.Types.System.Types
 0001:000014B0       System.UITypes.Finalization
 0001:000014C0       System.UITypes.System.UITypes
 0001:000014D0       Winapi.Windows.FreeLibrary
 0001:000014E0       Winapi.Windows.GetEnvironmentVariableA
 0001:000014F0       Winapi.Windows.GetEnvironmentVariableW
 0001:00001500       Winapi.Windows.GetVersionEx
 0001:00001510       Winapi.Windows.InitVersionInfo
 0001:00001560       Winapi.Windows.Finalization
 0001:00001590       Winapi.Windows.Winapi.Windows
 0001:000015C0       System.SysConst.Finalization
 0001:000015D0       System.SysConst.System.SysConst
 0001:000015E0       Winapi.ImageHlp.Finalization
 0001:000015F0       Winapi.ImageHlp.Winapi.ImageHlp
 0001:00001600       Winapi.SHFolder.Finalization
 0001:00001610       Winapi.SHFolder.Winapi.SHFolder
 0001:00001620       Winapi.PsAPI.Finalization
 0001:00001630       Winapi.PsAPI.Winapi.PsAPI
 0001:00001640       System.RTLConsts.Finalization
 0001:00001650       System.RTLConsts.System.RTLConsts
 0001:00001660       System.Character.Finalization
 0001:00001670       System.Character.System.Character
 0001:00001680       System.Internal.ExcUtils.Finalization
 0001:00001690       System.Internal.ExcUtils.System.Internal.ExcUtils
 0001:000016A0       System.SysUtils.TLanguages.Create@
 0001:000016B0       System.SysUtils.TEncoding.Create@
 0001:000016C0       System.SysUtils.TOSVersion.Destroy@
 0001:000016D0       System.SysUtils.UpperCase
 0001:000016E0       System.SysUtils.SameText
 0001:000016F0       System.SysUtils.Trim
 0001:00001700       System.SysUtils.IntToStr
 0001:00001710       System.SysUtils.StrToIntDef
 0001:00001720       System.SysUtils.StrToBoolDef
 0001:00001730       System.SysUtils.BoolToStr
 0001:00001740       System.SysUtils.FileExists
 0001:00001750       System.SysUtils.ExtractFilePath
 0001:00001760       System.SysUtils.ExtractFileName
 0001:00001770       System.SysUtils.Exception.Create
 0001:00001780       System.SysUtils.Exception.Destroy
 0001:00001790       System.SysUtils.Exception.GetBaseException
 0001:000017A0       System.SysUtils.Exception.RaisingException
 0001:000017B0       System.SysUtils.Exception.ToString
 0001:000017C0       System.SysUtils.Exception.Create@
 0001:000017D0       System.SysUtils.Exception.Destroy@
 0001:000017E0       System.SysUtils.FreeAndNil
 0001:000017F0       System.SysUtils.TLanguages.Destroy@
 0001:00001800       System.SysUtils.TEncoding.Destroy@
 0001:00001810       System.SysUtils.TOSVersion.Create@
 0001:00001820       System.SysUtils.Finalization
 0001:00001830       System.SysUtils.System.SysUtils
 0001:00001840       Winapi.Messages.Finalization
 0001:00001850       Winapi.Messages.Winapi.Messages
 0001:00001860       Winapi.ActiveX.Finalization
 0001:00001870       Winapi.ActiveX.Winapi.ActiveX
 0001:00001880       System.VarUtils.Finalization
 0001:00001890       System.VarUtils.System.VarUtils
 0001:000018A0       System.Variants.Finalization
 0001:000018B0       System.Variants.System.Variants
 0001:000018C0       System.TypInfo.Finalization
 0001:000018D0       System.TypInfo.System.TypInfo
 0001:000018E0       System.Classes.TObserverMapping.Create@
 0001:000018F0       System.Classes.TBinaryWriter.Create@
 0001:00001900       System.Classes.TPersistent.Assign
 0001:00001910       System.Classes.TPersistent.AssignTo
 0001:00001920       System.Classes.TPersistent.DefineProperties
 0001:00001930       System.Classes.TThread.Create@
 0001:00001940       System.Classes.TThread.Destroy@
 0001:00001950       System.Classes.TBinaryWriter.Destroy@
 0001:00001960       System.Classes.TLoginCredentialService.Create@
 0001:00001970       System.Classes.TLoginCredentialService.Destroy@
 0001:00001980       System.Classes.TObserverMapping.Destroy@
 0001:00001990       System.Classes.Finalization
 0001:000019A0       System.Classes.System.Classes
 0001:000019B0       Data.DBXCommonResStrs.Finalization
 0001:000019C0       Data.DBXCommonResStrs.Data.DBXCommonResStrs
 0001:000019D0       Data.DBXClassRegistry.TClassRegistry.CreateInstance
 0001:000019E0       Data.DBXClassRegistry.TClassRegistry.GetClassRegistry
 0001:000019F0       Data.DBXClassRegistry.TClassRegistry.HasClass
 0001:00001A00       Data.DBXClassRegistry.TClassRegistry.RegisterRegistryClass
 0001:00001A10       Data.DBXClassRegistry.TClassRegistry.UnregisterClass
 0001:00001A20       Data.DBXClassRegistry.Finalization
 0001:00001A30       Data.DBXClassRegistry.Data.DBXClassRegistry
 0001:00001A40       System.MaskUtils.Finalization
 0001:00001A50       System.MaskUtils.System.MaskUtils
 0001:00001A60       System.WideStrUtils.Finalization
 0001:00001A70       System.WideStrUtils.System.WideStrUtils
 0001:00001A80       System.Math.Finalization
 0001:00001A90       System.Math.System.Math
 0001:00001AA0       System.WideStrings.Finalization
 0001:00001AB0       System.WideStrings.System.WideStrings
 0001:00001AC0       System.TimeSpan.TTimeSpan.Destroy@
 0001:00001AD0       System.TimeSpan.TTimeSpan.Create@
 0001:00001AE0       System.TimeSpan.Finalization
 0001:00001AF0       System.TimeSpan.System.TimeSpan
 0001:00001B00       System.Diagnostics.Finalization
 0001:00001B10       System.Diagnostics.System.Diagnostics
 0001:00001B20       System.SyncObjs.Finalization
 0001:00001B30       System.SyncObjs.System.SyncObjs
 0001:00001B40       System.StrUtils.PosEx
 0001:00001B50       System.StrUtils.Finalization
 0001:00001B60       System.StrUtils.System.StrUtils
 0001:00001B70       System.AnsiStrings.Finalization
 0001:00001B80       System.AnsiStrings.System.AnsiStrings
 0001:00001B90       System.Generics.Defaults.Finalization
 0001:00001BA0       System.Generics.Defaults.System.Generics.Defaults
 0001:00001BB0       System.Generics.Collections.Finalization
 0001:00001BC0       System.Generics.Collections.System.Generics.Collections
 0001:00001BD0       System.DateUtils.TTimeZone.Create@
 0001:00001BE0       System.DateUtils.TTimeZone.Destroy@
 0001:00001BF0       System.DateUtils.Finalization
 0001:00001C00       System.DateUtils.System.DateUtils
 0001:00001C10       Data.DBConsts.Finalization
 0001:00001C20       Data.DBConsts.Data.DBConsts
 0001:00001C30       Data.SqlTimSt.Finalization
 0001:00001C40       Data.SqlTimSt.Data.SqlTimSt
 0001:00001C50       Data.FmtBcd.Finalization
 0001:00001C60       Data.FmtBcd.Data.FmtBcd
 0001:00001C70       Data.DBCommonTypes.Finalization
 0001:00001C80       Data.DBCommonTypes.Data.DBCommonTypes
 0001:00001C90       Data.DB.Finalization
 0001:00001CA0       Data.DB.Data.DB
 0001:00001CB0       System.Contnrs.Finalization
 0001:00001CC0       System.Contnrs.System.Contnrs
 0001:00001CD0       System.ObjAuto.Finalization
 0001:00001CE0       System.ObjAuto.System.ObjAuto
 0001:00001CF0       Data.DBXPlatform.IncrAfter
 0001:00001D00       Data.DBXPlatform.FreeObjectArray
 0001:00001D10       Data.DBXPlatform.TDBXObjectStore.SetObjectByName
 0001:00001D20       Data.DBXPlatform.TDBXPlatform.CreateWideStringBuilder
 0001:00001D30       Data.DBXPlatform.TDBXPlatform.CopyWideStringBuilder
 0001:00001D40       Data.DBXPlatform.TDBXPlatform.FreeAndNilWideStringBuilder
 0001:00001D50       Data.DBXPlatform.Finalization
 0001:00001D60       Data.DBXPlatform.Data.DBXPlatform
 0001:00001D70       System.Masks.Finalization
 0001:00001D80       System.Masks.System.Masks
 0001:00001D90       System.IOUtils.TPath.Destroy@
 0001:00001DA0       System.IOUtils.TPath.Create@
 0001:00001DB0       System.IOUtils.Finalization
 0001:00001DC0       System.IOUtils.System.IOUtils
 0001:00001DD0       System.IniFiles.Finalization
 0001:00001DE0       System.IniFiles.System.IniFiles
 0001:00001DF0       Data.DBXJSON.Finalization
 0001:00001E00       Data.DBXJSON.Data.DBXJSON
 0001:00001E10       Data.DBCommon.Finalization
 0001:00001E20       Data.DBCommon.Data.DBCommon
 0001:00001E30       System.Win.ComConst.Finalization
 0001:00001E40       System.Win.ComConst.System.Win.ComConst
 0001:00001E50       System.Win.ComObj.TComServerObject.Destroy@
 0001:00001E60       System.Win.ComObj.TComServerObject.Create@
 0001:00001E70       System.Win.ComObj.Finalization
 0001:00001E80       System.Win.ComObj.System.Win.ComObj
 0001:00001E90       Datasnap.MidConst.Finalization
 0001:00001EA0       Datasnap.MidConst.Datasnap.MidConst
 0001:00001EB0       Datasnap.DSIntf.Finalization
 0001:00001EC0       Datasnap.DSIntf.Datasnap.DSIntf
 0001:00001ED0       Datasnap.Midas.Finalization
 0001:00001EE0       Datasnap.Midas.Datasnap.Midas
 0001:00001EF0       Datasnap.DBClient.Finalization
 0001:00001F00       Datasnap.DBClient.Datasnap.DBClient
 0001:00001F10       Datasnap.DataBkr.Finalization
 0001:00001F20       Datasnap.DataBkr.Datasnap.DataBkr
 0001:00001F30       Datasnap.Provider.Finalization
 0001:00001F40       Datasnap.Provider.Datasnap.Provider
 0001:00001F50       Data.DSUtil.Finalization
 0001:00001F60       Data.DSUtil.Data.DSUtil
 0001:00001F70       System.Win.Registry.TRegistry.Destroy@
 0001:00001F80       System.Win.Registry.TRegistry.Create@
 0001:00001F90       System.Win.Registry.Finalization
 0001:00001FA0       System.Win.Registry.System.Win.Registry
 0001:00001FB0       Data.DBXCommon.TDBXProperties.Create
 0001:00001FC0       Data.DBXCommon.TDBXProperties.Create
 0001:00001FD0       Data.DBXCommon.TDBXProperties.Destroy
 0001:00001FE0       Data.DBXCommon.TDBXProperties.DoOnChange
 0001:00001FF0       Data.DBXCommon.TDBXProperties.GetLists
 0001:00002000       Data.DBXCommon.TDBXProperties.GetValue
 0001:00002010       Data.DBXCommon.TDBXProperties.SetValue
 0001:00002020       Data.DBXCommon.TDBXDriver.AddCommandFactory
 0001:00002030       Data.DBXCommon.TDBXDriver.CreateMorphCommand
 0001:00002040       Data.DBXCommon.TDBXDriver.GetDriverClass
 0001:00002050       Data.DBXCommon.TDBXDriver.GetDriverName
 0001:00002060       Data.DBXCommon.TDBXDriver.GetDriverProperties
 0001:00002070       Data.DBXCommon.TDBXDriver.GetDriverPropertyNames
 0001:00002080       Data.DBXCommon.TDBXDriver.SetDriverName
 0001:00002090       Data.DBXCommon.TDBXDriver.InitDriverProperties
 0001:000020A0       Data.DBXCommon.TDBXDriverRegistry.RegisterDriverClass
 0001:000020B0       Data.DBXCommon.TDBXDriverRegistry.UnregisterDriverClass
 0001:000020C0       Data.DBXCommon.TDBXConnection.Destroy
 0001:000020D0       Data.DBXCommon.TDBXConnection.CreateMorphCommand
 0001:000020E0       Data.DBXCommon.TDBXConnection.CreateCommand
 0001:000020F0       Data.DBXCommon.TDBXConnection.Open
 0001:00002100       Data.DBXCommon.TDBXConnection.GetDatabaseMetaData
 0001:00002110       Data.DBXCommon.TDBXConnection.GetTraceFlags
 0001:00002120       Data.DBXCommon.TDBXConnection.GetTraceInfoEvent
 0001:00002130       Data.DBXCommon.TDBXConnection.BeginTransaction
 0001:00002140       Data.DBXCommon.TDBXConnection.BeginTransaction
 0001:00002150       Data.DBXCommon.TDBXConnection.CommitFreeAndNil
 0001:00002160       Data.DBXCommon.TDBXConnection.RollbackFreeAndNil
 0001:00002170       Data.DBXCommon.TDBXConnection.RollbackIncompleteFreeAndNil
 0001:00002180       Data.DBXCommon.TDBXConnection.GetConnectionProperties
 0001:00002190       Data.DBXCommon.TDBXConnection.GetErrorEvent
 0001:000021A0       Data.DBXCommon.TDBXConnection.GetIsOpen
 0001:000021B0       Data.DBXCommon.TDBXConnection.GetConnectionProperty
 0001:000021C0       Data.DBXCommon.TDBXConnection.SetErrorEvent
 0001:000021D0       Data.DBXCommon.TDBXConnection.SetConnectionProperties
 0001:000021E0       Data.DBXCommon.TDBXConnection.GetDBXFormatter
 0001:000021F0       Data.DBXCommon.TDBXConnection.SetDBXFormatter
 0001:00002200       Data.DBXCommon.TDBXConnection.SetTraceFlags
 0001:00002210       Data.DBXCommon.TDBXCommand.CreateParameter
 0001:00002220       Data.DBXCommon.TDBXCommand.CreateParameterRow
 0001:00002230       Data.DBXCommon.TDBXCommand.CreateParameters
 0001:00002240       Data.DBXCommon.TDBXCommand.SetCommandType
 0001:00002250       Data.DBXCommon.TDBXCommand.ExecuteQuery
 0001:00002260       Data.DBXCommon.TDBXCommand.ExecuteUpdate
 0001:00002270       Data.DBXCommon.TDBXCommand.FreeOnExecute
 0001:00002280       Data.DBXCommon.TDBXCommand.CloseReader
 0001:00002290       Data.DBXCommon.TDBXCommand.GetCommandType
 0001:000022A0       Data.DBXCommon.TDBXCommand.GetErrorEvent
 0001:000022B0       Data.DBXCommon.TDBXCommand.GetNextReader
 0001:000022C0       Data.DBXCommon.TDBXCommand.GetParameters
 0001:000022D0       Data.DBXCommon.TDBXCommand.GetText
 0001:000022E0       Data.DBXCommon.TDBXCommand.Prepare
 0001:000022F0       Data.DBXCommon.TDBXCommand.SetText
 0001:00002300       Data.DBXCommon.TDBXCommand.Open
 0001:00002310       Data.DBXCommon.TDBXCommand.DerivedClearParameters
 0001:00002320       Data.DBXCommon.TDBXCommand.Close
 0001:00002330       Data.DBXCommon.TDBXMorphicCommand.Create
 0001:00002340       Data.DBXCommon.TDBXMorphicCommand.CreateParameters
 0001:00002350       Data.DBXCommon.TDBXMorphicCommand.Destroy
 0001:00002360       Data.DBXCommon.TDBXMorphicCommand.ExecuteQuery
 0001:00002370       Data.DBXCommon.TDBXMorphicCommand.ExecuteUpdate
 0001:00002380       Data.DBXCommon.TDBXMorphicCommand.GetParameters
 0001:00002390       Data.DBXCommon.TDBXMorphicCommand.CreateParameterRow
 0001:000023A0       Data.DBXCommon.TDBXMorphicCommand.GetRowsAffected
 0001:000023B0       Data.DBXCommon.TDBXMorphicCommand.FreeOnExecute
 0001:000023C0       Data.DBXCommon.TDBXMorphicCommand.Prepare
 0001:000023D0       Data.DBXCommon.TDBXMorphicCommand.GetNextReader
 0001:000023E0       Data.DBXCommon.TDBXMorphicCommand.DerivedClose
 0001:000023F0       Data.DBXCommon.TDBXMorphicCommand.DerivedExecuteQuery
 0001:00002400       Data.DBXCommon.TDBXMorphicCommand.DerivedExecuteUpdate
 0001:00002410       Data.DBXCommon.TDBXMorphicCommand.DerivedGetNextReader
 0001:00002420       Data.DBXCommon.TDBXMorphicCommand.DerivedOpen
 0001:00002430       Data.DBXCommon.TDBXMorphicCommand.DerivedPrepare
 0001:00002440       Data.DBXCommon.TDBXMorphicCommand.SetMaxBlobSize
 0001:00002450       Data.DBXCommon.TDBXMorphicCommand.SetRowSetSize
 0001:00002460       Data.DBXCommon.TDBXMorphicCommand.SetCommandType
 0001:00002470       Data.DBXCommon.TDBXMorphicCommand.SetText
 0001:00002480       Data.DBXCommon.TDBXMorphicCommand.CloseReader
 0001:00002490       Data.DBXCommon.TDBXContext.Error
 0001:000024A0       Data.DBXCommon.TDBXConnectionBuilder.GetConnectionProperties
 0001:000024B0       Data.DBXCommon.TDBXDriverHelp.GetMetaDataReader
 0001:000024C0       Data.DBXCommon.TDBXDriverHelp.SetMetaDataReader
 0001:000024D0       Data.DBXCommon.TDBXCommand.GetCommandTimeout
 0001:000024E0       Data.DBXCommon.TDBXCommand.SetCommandTimeout
 0001:000024F0       Data.DBXCommon.Finalization
 0001:00002500       Data.DBXCommon.Data.DBXCommon
 0001:00002510       Data.DBXDynalinkNative.TDBXDynalinkDriverNative.Create
 0001:00002520       Data.DBXDynalinkNative.TDBXDynalinkDriverLoader.CreateDynalinkDriver
 0001:00002530       Data.DBXDynalinkNative.TDBXDynalinkDriverLoader.CreateMethodTable
 0001:00002540       Data.DBXDynalinkNative.Finalization
 0001:00002550       Data.DBXDynalinkNative.Data.DBXDynalinkNative
 0001:00002560       Data.DBXDynalink.TDBXDynalinkDriver.CheckResult
 0001:00002570       Data.DBXDynalink.TDBXDynalinkDriver.Close
 0001:00002580       Data.DBXDynalink.TDBXDynalinkDriver.Destroy
 0001:00002590       Data.DBXDynalink.TDBXDynalinkDriver.GetDriverVersion
 0001:000025A0       Data.DBXDynalink.TDBXDynalinkDriverCommonLoader.Create
 0001:000025B0       Data.DBXDynalink.TDBXDynalinkDriverCommonLoader.Load
 0001:000025C0       Data.DBXDynalink.TDBXDynalinkDriverCommonLoader.LoadDriverLibrary
 0001:000025D0       Data.DBXDynalink.TDBXDynalinkConnection.CreateAndBeginTransaction
 0001:000025E0       Data.DBXDynalink.TDBXDynalinkConnection.Close
 0001:000025F0       Data.DBXDynalink.TDBXDynalinkConnection.Commit
 0001:00002600       Data.DBXDynalink.TDBXDynalinkConnection.Rollback
 0001:00002610       Data.DBXDynalink.TDBXDynalinkConnection.SetTraceInfoEvent
 0001:00002620       Data.DBXDynalink.TDBXDynalinkConnection.Create
 0001:00002630       Data.DBXDynalink.TDBXDynalinkConnection.DerivedOpen
 0001:00002640       Data.DBXDynalink.TDBXDynalinkConnection.GetVendorProperty
 0001:00002650       Data.DBXDynalink.Finalization
 0001:00002660       Data.DBXDynalink.Data.DBXDynalink
 0001:00002670       Data.DBXDelegate.Finalization
 0001:00002680       Data.DBXDelegate.Data.DBXDelegate
 0001:00002690       Data.DBXJSONCommon.Finalization
 0001:000026A0       Data.DBXJSONCommon.Data.DBXJSONCommon
 0001:000026B0       Data.DBXCommonTable.Finalization
 0001:000026C0       Data.DBXCommonTable.Data.DBXCommonTable
 0001:000026D0       Data.DBXMetaDataUtil.Finalization
 0001:000026E0       Data.DBXMetaDataUtil.Data.DBXMetaDataUtil
 0001:000026F0       Data.DBXSqlScanner.Finalization
 0001:00002700       Data.DBXSqlScanner.Data.DBXSqlScanner
 0001:00002710       Data.DBXMetaDataError.Finalization
 0001:00002720       Data.DBXMetaDataError.Data.DBXMetaDataError
 0001:00002730       Data.DBXMetaDataNames.Finalization
 0001:00002740       Data.DBXMetaDataNames.Data.DBXMetaDataNames
 0001:00002750       Data.DBXMetaDataWriter.Finalization
 0001:00002760       Data.DBXMetaDataWriter.Data.DBXMetaDataWriter
 0001:00002770       Data.DBXDBReaders.Finalization
 0001:00002780       Data.DBXDBReaders.Data.DBXDBReaders
 0001:00002790       Data.DBXTableFactory.Finalization
 0001:000027A0       Data.DBXTableFactory.Data.DBXTableFactory
 0001:000027B0       Data.DBXTypedTableStorage.Finalization
 0001:000027C0       Data.DBXTypedTableStorage.Data.DBXTypedTableStorage
 0001:000027D0       Data.DBXMetaDataProvider.Finalization
 0001:000027E0       Data.DBXMetaDataProvider.Data.DBXMetaDataProvider
 0001:000027F0       Data.DBXMetaDataReader.TDBXCustomMetaDataTable.Create
 0001:00002800       Data.DBXMetaDataReader.TDBXDataTypeCursor.Create
 0001:00002810       Data.DBXMetaDataReader.TDBXDataTypeDescription.Create
 0001:00002820       Data.DBXMetaDataReader.TDBXDataTypeDescription.Create
 0001:00002830       Data.DBXMetaDataReader.TDBXDataTypeDescription.SetUnicodeOptionSupported
 0001:00002840       Data.DBXMetaDataReader.TDBXEmptyTableCursor.Create
 0001:00002850       Data.DBXMetaDataReader.TDBXMetaDataCollectionColumns.CreateDataTypesColumns
 0001:00002860       Data.DBXMetaDataReader.TDBXMetaDataCollectionColumns.CreateCatalogsColumns
 0001:00002870       Data.DBXMetaDataReader.TDBXMetaDataCollectionColumns.CreateSchemasColumns
 0001:00002880       Data.DBXMetaDataReader.TDBXMetaDataCollectionColumns.CreateTablesColumns
 0001:00002890       Data.DBXMetaDataReader.TDBXMetaDataCollectionColumns.CreateViewsColumns
 0001:000028A0       Data.DBXMetaDataReader.TDBXMetaDataCollectionColumns.CreateSynonymsColumns
 0001:000028B0       Data.DBXMetaDataReader.TDBXMetaDataCollectionColumns.CreateColumnsColumns
 0001:000028C0       Data.DBXMetaDataReader.TDBXMetaDataCollectionColumns.CreateColumnConstraintsColumns
 0001:000028D0       Data.DBXMetaDataReader.TDBXMetaDataCollectionColumns.CreateIndexesColumns
 0001:000028E0       Data.DBXMetaDataReader.TDBXMetaDataCollectionColumns.CreateIndexColumnsColumns
 0001:000028F0       Data.DBXMetaDataReader.TDBXMetaDataCollectionColumns.CreateForeignKeysColumns
 0001:00002900       Data.DBXMetaDataReader.TDBXMetaDataCollectionColumns.CreateForeignKeyColumnsColumns
 0001:00002910       Data.DBXMetaDataReader.TDBXMetaDataCollectionColumns.CreateProceduresColumns
 0001:00002920       Data.DBXMetaDataReader.TDBXMetaDataCollectionColumns.CreateProcedureSourcesColumns
 0001:00002930       Data.DBXMetaDataReader.TDBXMetaDataCollectionColumns.CreateProcedureParametersColumns
 0001:00002940       Data.DBXMetaDataReader.TDBXMetaDataCollectionColumns.CreatePackagesColumns
 0001:00002950       Data.DBXMetaDataReader.TDBXMetaDataCollectionColumns.CreatePackageProceduresColumns
 0001:00002960       Data.DBXMetaDataReader.TDBXMetaDataCollectionColumns.CreatePackageProcedureParametersColumns
 0001:00002970       Data.DBXMetaDataReader.TDBXMetaDataCollectionColumns.CreatePackageSourcesColumns
 0001:00002980       Data.DBXMetaDataReader.TDBXMetaDataCollectionColumns.CreateUsersColumns
 0001:00002990       Data.DBXMetaDataReader.TDBXMetaDataCollectionColumns.CreateRolesColumns
 0001:000029A0       Data.DBXMetaDataReader.TDBXMetaDataCollectionColumns.CreateReservedWordsColumns
 0001:000029B0       Data.DBXMetaDataReader.TDBXBaseMetaDataReader.Destroy
 0001:000029C0       Data.DBXMetaDataReader.TDBXBaseMetaDataReader.SetContext
 0001:000029D0       Data.DBXMetaDataReader.TDBXBaseMetaDataReader.GetContext
 0001:000029E0       Data.DBXMetaDataReader.TDBXBaseMetaDataReader.GetProductName
 0001:000029F0       Data.DBXMetaDataReader.TDBXBaseMetaDataReader.GetVersion
 0001:00002A00       Data.DBXMetaDataReader.TDBXBaseMetaDataReader.SetVersion
 0001:00002A10       Data.DBXMetaDataReader.TDBXBaseMetaDataReader.GetSqlDefaultParameterMarker
 0001:00002A20       Data.DBXMetaDataReader.TDBXBaseMetaDataReader.CompareVersion
 0001:00002A30       Data.DBXMetaDataReader.TDBXBaseMetaDataReader.IsQuotedIdentifiersSupported
 0001:00002A40       Data.DBXMetaDataReader.TDBXBaseMetaDataReader.IsSPReturnCodeSupported
 0001:00002A50       Data.DBXMetaDataReader.TDBXBaseMetaDataReader.AreCatalogFunctionsSupported
 0001:00002A60       Data.DBXMetaDataReader.TDBXBaseMetaDataReader.GetTableType
 0001:00002A70       Data.DBXMetaDataReader.TDBXBaseMetaDataReader.GetViewType
 0001:00002A80       Data.DBXMetaDataReader.TDBXBaseMetaDataReader.GetSystemTableType
 0001:00002A90       Data.DBXMetaDataReader.TDBXBaseMetaDataReader.GetSystemViewType
 0001:00002AA0       Data.DBXMetaDataReader.TDBXBaseMetaDataReader.GetSynonymType
 0001:00002AB0       Data.DBXMetaDataReader.TDBXBaseMetaDataReader.MakeTableTypeString
 0001:00002AC0       Data.DBXMetaDataReader.TDBXBaseMetaDataReader.GetDataTypeHash
 0001:00002AD0       Data.DBXMetaDataReader.TDBXBaseMetaDataReader.GetDataTypes
 0001:00002AE0       Data.DBXMetaDataReader.TDBXBaseMetaDataReader.PopulateDataTypes
 0001:00002AF0       Data.DBXMetaDataReader.TDBXBaseMetaDataReader.FetchCollection
 0001:00002B00       Data.DBXMetaDataReader.TDBXBaseMetaDataReader.MakeStorage
 0001:00002B10       Data.DBXMetaDataReader.TDBXBaseMetaDataReader.FetchCollectionWithStorage
 0001:00002B20       Data.DBXMetaDataReader.TDBXBaseMetaDataReader.FetchDataTypes
 0001:00002B30       Data.DBXMetaDataReader.TDBXBaseMetaDataReader.FetchCatalogs
 0001:00002B40       Data.DBXMetaDataReader.TDBXBaseMetaDataReader.FetchSchemas
 0001:00002B50       Data.DBXMetaDataReader.TDBXBaseMetaDataReader.FetchTables
 0001:00002B60       Data.DBXMetaDataReader.TDBXBaseMetaDataReader.FetchViews
 0001:00002B70       Data.DBXMetaDataReader.TDBXBaseMetaDataReader.FetchColumns
 0001:00002B80       Data.DBXMetaDataReader.TDBXBaseMetaDataReader.FetchColumnConstraints
 0001:00002B90       Data.DBXMetaDataReader.TDBXBaseMetaDataReader.FetchIndexes
 0001:00002BA0       Data.DBXMetaDataReader.TDBXBaseMetaDataReader.FetchIndexColumns
 0001:00002BB0       Data.DBXMetaDataReader.TDBXBaseMetaDataReader.FetchForeignKeys
 0001:00002BC0       Data.DBXMetaDataReader.TDBXBaseMetaDataReader.FetchForeignKeyColumns
 0001:00002BD0       Data.DBXMetaDataReader.TDBXBaseMetaDataReader.FetchSynonyms
 0001:00002BE0       Data.DBXMetaDataReader.TDBXBaseMetaDataReader.FetchProcedures
 0001:00002BF0       Data.DBXMetaDataReader.TDBXBaseMetaDataReader.FetchProcedureSources
 0001:00002C00       Data.DBXMetaDataReader.TDBXBaseMetaDataReader.FetchProcedureParameters
 0001:00002C10       Data.DBXMetaDataReader.TDBXBaseMetaDataReader.FetchPackages
 0001:00002C20       Data.DBXMetaDataReader.TDBXBaseMetaDataReader.FetchPackageProcedures
 0001:00002C30       Data.DBXMetaDataReader.TDBXBaseMetaDataReader.FetchPackageProcedureParameters
 0001:00002C40       Data.DBXMetaDataReader.TDBXBaseMetaDataReader.FetchPackageSources
 0001:00002C50       Data.DBXMetaDataReader.TDBXBaseMetaDataReader.FetchUsers
 0001:00002C60       Data.DBXMetaDataReader.TDBXBaseMetaDataReader.FetchRoles
 0001:00002C70       Data.DBXMetaDataReader.TDBXBaseMetaDataReader.FetchReservedWords
 0001:00002C80       Data.DBXMetaDataReader.TDBXBaseMetaDataReader.GetDataTypeDescriptions
 0001:00002C90       Data.DBXMetaDataReader.TDBXBaseMetaDataReader.GetReservedWords
 0001:00002CA0       Data.DBXMetaDataReader.TDBXBaseMetaDataReader.GetSqlForDataTypes
 0001:00002CB0       Data.DBXMetaDataReader.TDBXBaseMetaDataReader.GetSqlForCatalogs
 0001:00002CC0       Data.DBXMetaDataReader.TDBXBaseMetaDataReader.GetSqlForSchemas
 0001:00002CD0       Data.DBXMetaDataReader.TDBXBaseMetaDataReader.GetSqlForTables
 0001:00002CE0       Data.DBXMetaDataReader.TDBXBaseMetaDataReader.GetSqlForViews
 0001:00002CF0       Data.DBXMetaDataReader.TDBXBaseMetaDataReader.GetSqlForColumns
 0001:00002D00       Data.DBXMetaDataReader.TDBXBaseMetaDataReader.GetSqlForColumnConstraints
 0001:00002D10       Data.DBXMetaDataReader.TDBXBaseMetaDataReader.GetSqlForIndexes
 0001:00002D20       Data.DBXMetaDataReader.TDBXBaseMetaDataReader.GetSqlForIndexColumns
 0001:00002D30       Data.DBXMetaDataReader.TDBXBaseMetaDataReader.GetSqlForForeignKeys
 0001:00002D40       Data.DBXMetaDataReader.TDBXBaseMetaDataReader.GetSqlForForeignKeyColumns
 0001:00002D50       Data.DBXMetaDataReader.TDBXBaseMetaDataReader.GetSqlForSynonyms
 0001:00002D60       Data.DBXMetaDataReader.TDBXBaseMetaDataReader.GetSqlForProcedures
 0001:00002D70       Data.DBXMetaDataReader.TDBXBaseMetaDataReader.GetSqlForProcedureSources
 0001:00002D80       Data.DBXMetaDataReader.TDBXBaseMetaDataReader.GetSqlForProcedureParameters
 0001:00002D90       Data.DBXMetaDataReader.TDBXBaseMetaDataReader.GetSqlForPackages
 0001:00002DA0       Data.DBXMetaDataReader.TDBXBaseMetaDataReader.GetSqlForPackageProcedures
 0001:00002DB0       Data.DBXMetaDataReader.TDBXBaseMetaDataReader.GetSqlForPackageProcedureParameters
 0001:00002DC0       Data.DBXMetaDataReader.TDBXBaseMetaDataReader.GetSqlForPackageSources
 0001:00002DD0       Data.DBXMetaDataReader.TDBXBaseMetaDataReader.GetSqlForUsers
 0001:00002DE0       Data.DBXMetaDataReader.TDBXBaseMetaDataReader.GetSqlForRoles
 0001:00002DF0       Data.DBXMetaDataReader.TDBXBaseMetaDataReader.GetSqlForReservedWords
 0001:00002E00       Data.DBXMetaDataReader.TDBXReservedWordsCursor.Create
 0001:00002E10       Data.DBXMetaDataReader.TDBXTableTypeParser.ParseTableTypes
 0001:00002E20       Data.DBXMetaDataReader.Finalization
 0001:00002E30       Data.DBXMetaDataReader.Data.DBXMetaDataReader
 0001:00002E40       Data.DBXMetaDataCommand.TDBXMetaDataCommand.Create
 0001:00002E50       Data.DBXMetaDataCommand.TDBXMetaDataCommand.Destroy
 0001:00002E60       Data.DBXMetaDataCommand.TDBXMetaDataCommand.SetRowSetSize
 0001:00002E70       Data.DBXMetaDataCommand.TDBXMetaDataCommand.SetMaxBlobSize
 0001:00002E80       Data.DBXMetaDataCommand.TDBXMetaDataCommand.GetRowsAffected
 0001:00002E90       Data.DBXMetaDataCommand.TDBXMetaDataCommand.DerivedGetNextReader
 0001:00002EA0       Data.DBXMetaDataCommand.TDBXMetaDataCommand.DerivedOpen
 0001:00002EB0       Data.DBXMetaDataCommand.TDBXMetaDataCommand.DerivedClose
 0001:00002EC0       Data.DBXMetaDataCommand.TDBXMetaDataCommand.DerivedPrepare
 0001:00002ED0       Data.DBXMetaDataCommand.TDBXMetaDataCommand.DerivedExecuteQuery
 0001:00002EE0       Data.DBXMetaDataCommand.TDBXMetaDataCommand.DerivedExecuteUpdate
 0001:00002EF0       Data.DBXMetaDataCommand.Finalization
 0001:00002F00       Data.DBXMetaDataCommand.Data.DBXMetaDataCommand
 0001:00002F10       Data.DBXReaderTableStorage.Finalization
 0001:00002F20       Data.DBXReaderTableStorage.Data.DBXReaderTableStorage
 0001:00002F30       Data.DBXMetaDataCommandFactory.TDBXMetaDataCommandFactory.RegisterMetaDataCommandFactory
 0001:00002F40       Data.DBXMetaDataCommandFactory.TDBXMetaDataCommandFactory.UnRegisterMetaDataCommandFactory
 0001:00002F50       Data.DBXMetaDataCommandFactory.TDBXDataExpressProviderContext.Create
 0001:00002F60       Data.DBXMetaDataCommandFactory.TDBXDataExpressProviderContext.Destroy
 0001:00002F70       Data.DBXMetaDataCommandFactory.TDBXDataExpressProviderContext.GetPlatformTypeName
 0001:00002F80       Data.DBXMetaDataCommandFactory.TDBXDataExpressProviderContext.ExecuteQuery
 0001:00002F90       Data.DBXMetaDataCommandFactory.TDBXDataExpressProviderContext.CreateTableStorage
 0001:00002FA0       Data.DBXMetaDataCommandFactory.TDBXDataExpressProviderContext.CreateRowStorage
 0001:00002FB0       Data.DBXMetaDataCommandFactory.TDBXDataExpressProviderContext.StartTransaction
 0001:00002FC0       Data.DBXMetaDataCommandFactory.TDBXDataExpressProviderContext.StartSerializedTransaction
 0001:00002FD0       Data.DBXMetaDataCommandFactory.TDBXDataExpressProviderContext.Commit
 0001:00002FE0       Data.DBXMetaDataCommandFactory.TDBXDataExpressProviderContext.Rollback
 0001:00002FF0       Data.DBXMetaDataCommandFactory.TDBXDataExpressProviderContext.GetVendorProperty
 0001:00003000       Data.DBXMetaDataCommandFactory.Finalization
 0001:00003010       Data.DBXMetaDataCommandFactory.Data.DBXMetaDataCommandFactory
 0001:00003018       Dbx34DrvDbms..TDBXOpenODBCMetaDataCommandFactoryOracle
 0001:00003178       Dbx34DrvDbms..TDBXOpenODBCMetaDataReaderOracle
 0001:00003520       Dbx34DrvDbms..TDBXOpenODBCMetaDataCommandFactoryMSSQL
 0001:00003678       Dbx34DrvDbms..TDBXOpenODBCMetaDataReaderMSSQL
 0001:00003A18       Dbx34DrvDbms..TDBXOpenODBCMetaDataCommandFactoryMySQL
 0001:00003B70       Dbx34DrvDbms..TDBXOpenODBCMetaDataReaderMySQL
 0001:00003F10       Dbx34DrvDbms..TDBXOpenODBCMetaDataCommandFactorySybaseASA
 0001:00004078       Dbx34DrvDbms..TDBXOpenODBCMetaDataReaderSybaseASA
 0001:00004428       Dbx34DrvDbms..TDBXOpenODBCMetaDataCommandFactorySybaseASE
 0001:00004590       Dbx34DrvDbms..TDBXOpenODBCMetaDataReaderSybaseASE
 0001:00004940       Dbx34DrvDbms..TDBXOpenODBCMetaDataCommandFactoryDB2
 0001:00004A98       Dbx34DrvDbms..TDBXOpenODBCMetaDataReaderDB2
 0001:00004E38       Dbx34DrvDbms..TDBXOpenODBCMetaDataCommandFactoryInformix
 0001:00004FA0       Dbx34DrvDbms..TDBXOpenODBCMetaDataReaderInformix
 0001:00005368       Dbx34DrvDbms..TDBXOpenODBCMetaDataCommandFactoryDataStorage
 0001:000054D0       Dbx34DrvDbms..TDBXOpenODBCMetaDataReaderDataStorage
 0001:00005880       Dbx34DrvDbms..TDBXOpenODBCMetaDataCommandFactoryFirebird
 0001:000059E8       Dbx34DrvDbms..TDBXOpenODBCMetaDataReaderFirebird
 0001:00005DB0       Dbx34DrvDbms..TDBXOpenODBCMetaDataCommandFactoryInterbase
 0001:00005F18       Dbx34DrvDbms..TDBXOpenODBCMetaDataReaderInterbase
 0001:000062E0       Dbx34DrvDbms..TDBXOpenODBCMetaDataCommandFactorySQLite
 0001:00006440       Dbx34DrvDbms..TDBXOpenODBCMetaDataReaderSQLite
 0001:000067E8       Dbx34DrvDbms..TDBXOpenODBCMetaDataCommandFactoryPostgreSQL
 0001:00006950       Dbx34DrvDbms..TDBXOpenODBCMetaDataReaderPostgreSQL
 0001:00006D00       Dbx34DrvDbms.TDBXOpenODBCMetaDataCommandFactoryOracle.GetMetaDataReaderClass
 0001:00006D10       Dbx34DrvDbms.TDBXOpenODBCMetaDataReaderOracle.GetProductName
 0001:00006D50       Dbx34DrvDbms.TDBXOpenODBCMetaDataReaderOracle.GetSqlForSchemas
 0001:00006E40       Dbx34DrvDbms.TDBXOpenODBCMetaDataReaderOracle.GetSqlForTables
 0001:000073A0       Dbx34DrvDbms.TDBXOpenODBCMetaDataReaderOracle.GetSqlForColumns
 0001:000076D0       Dbx34DrvDbms.TDBXOpenODBCMetaDataReaderOracle.GetSqlForIndexes
 0001:00007AE0       Dbx34DrvDbms.TDBXOpenODBCMetaDataReaderOracle.GetSqlForIndexColumns
 0001:00007FC0       Dbx34DrvDbms.TDBXOpenODBCMetaDataReaderOracle.GetReservedWords
 0001:00008F40       Dbx34DrvDbms.TDBXOpenODBCMetaDataReaderOracle.PopulateDataTypes
 0001:00009160       Dbx34DrvDbms.TDBXOpenODBCMetaDataReaderOracle.GetDataTypeDescriptions
 0001:0000A570       Dbx34DrvDbms.TDBXOpenODBCMetaDataCommandFactoryMSSQL.GetMetaDataReaderClass
 0001:0000A580       Dbx34DrvDbms.TDBXOpenODBCMetaDataReaderMSSQL.GetProductName
 0001:0000A5E0       Dbx34DrvDbms.TDBXOpenODBCMetaDataReaderMSSQL.GetSqlForTables
 0001:0000AF30       Dbx34DrvDbms.TDBXOpenODBCMetaDataReaderMSSQL.GetSqlForColumns
 0001:0000BD10       Dbx34DrvDbms.TDBXOpenODBCMetaDataReaderMSSQL.GetSqlForIndexes
 0001:0000C870       Dbx34DrvDbms.TDBXOpenODBCMetaDataReaderMSSQL.GetSqlForIndexColumns
 0001:0000D320       Dbx34DrvDbms.TDBXOpenODBCMetaDataReaderMSSQL.GetReservedWords
 0001:000121C0       Dbx34DrvDbms.TDBXOpenODBCMetaDataReaderMSSQL.GetSqlIdentifierQuotePrefix
 0001:000121F0       Dbx34DrvDbms.TDBXOpenODBCMetaDataReaderMSSQL.GetSqlIdentifierQuoteSuffix
 0001:00012220       Dbx34DrvDbms.TDBXOpenODBCMetaDataReaderMSSQL.GetTableType
 0001:00012260       Dbx34DrvDbms.TDBXOpenODBCMetaDataReaderMSSQL.GetViewType
 0001:000122A0       Dbx34DrvDbms.TDBXOpenODBCMetaDataReaderMSSQL.GetSystemTableType
 0001:000122E0       Dbx34DrvDbms.TDBXOpenODBCMetaDataReaderMSSQL.GetSystemViewType
 0001:00012320       Dbx34DrvDbms.TDBXOpenODBCMetaDataReaderMSSQL.GetSynonymType
 0001:00012370       Dbx34DrvDbms.TDBXOpenODBCMetaDataReaderMSSQL.GetDataTypeDescriptions
 0001:00013EB0       Dbx34DrvDbms.TDBXOpenODBCMetaDataCommandFactoryMySQL.GetMetaDataReaderClass
 0001:00013EC0       Dbx34DrvDbms.TDBXOpenODBCMetaDataReaderMySQL.GetProductName
 0001:00013F00       Dbx34DrvDbms.TDBXOpenODBCMetaDataReaderMySQL.GetSqlForTables
 0001:000142D0       Dbx34DrvDbms.TDBXOpenODBCMetaDataReaderMySQL.GetSqlForColumns
 0001:00014960       Dbx34DrvDbms.TDBXOpenODBCMetaDataReaderMySQL.GetSqlForIndexes
 0001:00014D40       Dbx34DrvDbms.TDBXOpenODBCMetaDataReaderMySQL.GetSqlForIndexColumns
 0001:00015110       Dbx34DrvDbms.TDBXOpenODBCMetaDataReaderMySQL.GetReservedWords
 0001:00017ED0       Dbx34DrvDbms.TDBXOpenODBCMetaDataReaderMySQL.GetSqlIdentifierQuotePrefix
 0001:00017F00       Dbx34DrvDbms.TDBXOpenODBCMetaDataReaderMySQL.GetSqlIdentifierQuoteSuffix
 0001:00017F30       Dbx34DrvDbms.TDBXOpenODBCMetaDataReaderMySQL.GetSqlIdentifierQuoteChar
 0001:00017F60       Dbx34DrvDbms.TDBXOpenODBCMetaDataReaderMySQL.GetTableType
 0001:00017FC0       Dbx34DrvDbms.TDBXOpenODBCMetaDataReaderMySQL.IsDescendingIndexColumnsSupported
 0001:00017FD0       Dbx34DrvDbms.TDBXOpenODBCMetaDataReaderMySQL.IsUpperCaseIdentifiersSupported
 0001:00017FE0       Dbx34DrvDbms.TDBXOpenODBCMetaDataReaderMySQL.IsMultipleCommandsSupported
 0001:00017FF0       Dbx34DrvDbms.TDBXOpenODBCMetaDataReaderMySQL.SetContext
 0001:000180D0       Dbx34DrvDbms.TDBXOpenODBCMetaDataReaderMySQL.PopulateDataTypes
 0001:000181A0       Dbx34DrvDbms.TDBXOpenODBCMetaDataReaderMySQL.GetDataTypeDescriptions
 0001:000198A0       Dbx34DrvDbms.TDBXOpenODBCMetaDataCommandFactorySybaseASA.GetMetaDataReaderClass
 0001:000198B0       Dbx34DrvDbms.TDBXOpenODBCMetaDataReaderSybaseASA.GetProductName
 0001:00019910       Dbx34DrvDbms.TDBXOpenODBCMetaDataReaderSybaseASA.SetContext
 0001:00019AD0       Dbx34DrvDbms.TDBXOpenODBCMetaDataReaderSybaseASA.GetSqlForTables
 0001:0001A0B0       Dbx34DrvDbms.TDBXOpenODBCMetaDataReaderSybaseASA.GetSqlForColumns
 0001:0001A5B0       Dbx34DrvDbms.TDBXOpenODBCMetaDataReaderSybaseASA.GetSqlForIndexes
 0001:0001B250       Dbx34DrvDbms.TDBXOpenODBCMetaDataReaderSybaseASA.GetSqlForIndexColumns
 0001:0001C110       Dbx34DrvDbms.TDBXOpenODBCMetaDataReaderSybaseASA.GetReservedWords
 0001:0001ED60       Dbx34DrvDbms.TDBXOpenODBCMetaDataReaderSybaseASA.GetTableType
 0001:0001EDB0       Dbx34DrvDbms.TDBXOpenODBCMetaDataReaderSybaseASA.GetViewType
 0001:0001EE00       Dbx34DrvDbms.TDBXOpenODBCMetaDataReaderSybaseASA.GetSystemTableType
 0001:0001EE50       Dbx34DrvDbms.TDBXOpenODBCMetaDataReaderSybaseASA.GetSystemViewType
 0001:0001EEA0       Dbx34DrvDbms.TDBXOpenODBCMetaDataReaderSybaseASA.GetDataTypeDescriptions
 0001:00020250       Dbx34DrvDbms.TDBXOpenODBCMetaDataCommandFactorySybaseASE.GetMetaDataReaderClass
 0001:00020260       Dbx34DrvDbms.TDBXOpenODBCMetaDataReaderSybaseASE.GetProductName
 0001:000202B0       Dbx34DrvDbms.TDBXOpenODBCMetaDataReaderSybaseASE.GetSqlForTables
 0001:00020640       Dbx34DrvDbms.TDBXOpenODBCMetaDataReaderSybaseASE.GetSqlForColumns
 0001:00020C00       Dbx34DrvDbms.TDBXOpenODBCMetaDataReaderSybaseASE.GetSqlForIndexes
 0001:00020F80       Dbx34DrvDbms.TDBXOpenODBCMetaDataReaderSybaseASE.GetSqlForIndexColumns
 0001:00021480       Dbx34DrvDbms.TDBXOpenODBCMetaDataReaderSybaseASE.GetReservedWords
 0001:00025570       Dbx34DrvDbms.TDBXOpenODBCMetaDataReaderSybaseASE.GetTableType
 0001:000255B0       Dbx34DrvDbms.TDBXOpenODBCMetaDataReaderSybaseASE.GetViewType
 0001:000255F0       Dbx34DrvDbms.TDBXOpenODBCMetaDataReaderSybaseASE.GetSystemTableType
 0001:00025630       Dbx34DrvDbms.TDBXOpenODBCMetaDataReaderSybaseASE.GetDataTypeDescriptions
 0001:00026B60       Dbx34DrvDbms.TDBXOpenODBCMetaDataCommandFactoryDB2.GetMetaDataReaderClass
 0001:00026B70       Dbx34DrvDbms.TDBXOpenODBCMetaDataReaderDB2.GetProductName
 0001:00026BB0       Dbx34DrvDbms.TDBXOpenODBCMetaDataReaderDB2.GetSqlForTables
 0001:00027170       Dbx34DrvDbms.TDBXOpenODBCMetaDataReaderDB2.GetSqlForColumns
 0001:00027500       Dbx34DrvDbms.TDBXOpenODBCMetaDataReaderDB2.GetSqlForIndexes
 0001:000278B0       Dbx34DrvDbms.TDBXOpenODBCMetaDataReaderDB2.GetSqlForIndexColumns
 0001:00027D20       Dbx34DrvDbms.TDBXOpenODBCMetaDataReaderDB2.GetReservedWords
 0001:0002BB50       Dbx34DrvDbms.TDBXOpenODBCMetaDataReaderDB2.GetTableType
 0001:0002BB90       Dbx34DrvDbms.TDBXOpenODBCMetaDataReaderDB2.GetViewType
 0001:0002BBD0       Dbx34DrvDbms.TDBXOpenODBCMetaDataReaderDB2.GetSystemTableType
 0001:0002BC10       Dbx34DrvDbms.TDBXOpenODBCMetaDataReaderDB2.GetSqlProcedureQuoteChar
 0001:0002BC30       Dbx34DrvDbms.TDBXOpenODBCMetaDataReaderDB2.GetDataTypeDescriptions
 0001:0002C680       Dbx34DrvDbms.TDBXOpenODBCMetaDataCommandFactoryInformix.GetMetaDataReaderClass
 0001:0002C690       Dbx34DrvDbms.TDBXOpenODBCMetaDataReaderInformix.GetProductName
 0001:0002C6F0       Dbx34DrvDbms.TDBXOpenODBCMetaDataReaderInformix.Destroy
 0001:0002C740       Dbx34DrvDbms.TDBXOpenODBCMetaDataReaderInformix.GetSqlForTables
 0001:0002CD20       Dbx34DrvDbms.TDBXOpenODBCMetaDataReaderInformix.GetSqlForColumns
 0001:0002D180       Dbx34DrvDbms.TDBXOpenODBCMetaDataReaderInformix.GetSqlForIndexes
 0001:0002D620       Dbx34DrvDbms.TDBXOpenODBCMetaDataReaderInformix.GetSqlForIndexColumns
 0001:0002E800       Dbx34DrvDbms.TDBXOpenODBCMetaDataReaderInformix.GetReservedWords
 0001:00034DF0       Dbx34DrvDbms.TDBXOpenODBCMetaDataReaderInformix.GetTableType
 0001:00034E30       Dbx34DrvDbms.TDBXOpenODBCMetaDataReaderInformix.GetViewType
 0001:00034E70       Dbx34DrvDbms.TDBXOpenODBCMetaDataReaderInformix.GetSystemTableType
 0001:00034EB0       Dbx34DrvDbms.TDBXOpenODBCMetaDataReaderInformix.GetSynonymType
 0001:00034EF0       Dbx34DrvDbms.TDBXOpenODBCMetaDataReaderInformix.IsUpperCaseIdentifiersSupported
 0001:00034F00       Dbx34DrvDbms.TDBXOpenODBCMetaDataReaderInformix.GetAllDataTypes
 0001:00035D50       Dbx34DrvDbms.TDBXOpenODBCMetaDataReaderInformix.GetDataTypeDescriptions
 0001:00035EC0       Dbx34DrvDbms.TDBXOpenODBCMetaDataCommandFactoryDataStorage.GetMetaDataReaderClass
 0001:00035ED0       Dbx34DrvDbms.TDBXOpenODBCMetaDataReaderDataStorage.GetSqlForTables
 0001:00036000       Dbx34DrvDbms.TDBXOpenODBCMetaDataReaderDataStorage.GetSqlForColumns
 0001:000360C0       Dbx34DrvDbms.TDBXOpenODBCMetaDataReaderDataStorage.GetSqlForIndexes
 0001:00036170       Dbx34DrvDbms.TDBXOpenODBCMetaDataReaderDataStorage.GetSqlForIndexColumns
 0001:00036250       Dbx34DrvDbms.TDBXOpenODBCMetaDataCommandFactoryFirebird.GetMetaDataReaderClass
 0001:00036260       Dbx34DrvDbms.TDBXOpenODBCMetaDataReaderFirebird.GetProductName
 0001:000362A0       Dbx34DrvDbms.TDBXOpenODBCMetaDataReaderFirebird.Destroy
 0001:000362F0       Dbx34DrvDbms.TDBXOpenODBCMetaDataReaderFirebird.GetSqlForTables
 0001:00036730       Dbx34DrvDbms.TDBXOpenODBCMetaDataReaderFirebird.GetSqlForColumns
 0001:00036BF0       Dbx34DrvDbms.TDBXOpenODBCMetaDataReaderFirebird.GetSqlForIndexes
 0001:00037060       Dbx34DrvDbms.TDBXOpenODBCMetaDataReaderFirebird.GetSqlForIndexColumns
 0001:00037590       Dbx34DrvDbms.TDBXOpenODBCMetaDataReaderFirebird.GetReservedWords
 0001:0003AFE0       Dbx34DrvDbms.TDBXOpenODBCMetaDataReaderFirebird.IsDescendingIndexColumnsSupported
 0001:0003AFF0       Dbx34DrvDbms.TDBXOpenODBCMetaDataReaderFirebird.SetContext
 0001:0003B0D0       Dbx34DrvDbms.TDBXOpenODBCMetaDataReaderFirebird.GetAllDataTypes
 0001:0003BB10       Dbx34DrvDbms.TDBXOpenODBCMetaDataReaderFirebird.GetDataTypeDescriptions
 0001:0003BC40       Dbx34DrvDbms.TDBXOpenODBCMetaDataCommandFactoryInterbase.GetMetaDataReaderClass
 0001:0003BC50       Dbx34DrvDbms.TDBXOpenODBCMetaDataReaderInterbase.GetProductName
 0001:0003BC90       Dbx34DrvDbms.TDBXOpenODBCMetaDataReaderInterbase.Destroy
 0001:0003BCE0       Dbx34DrvDbms.TDBXOpenODBCMetaDataReaderInterbase.GetSqlForTables
 0001:0003C120       Dbx34DrvDbms.TDBXOpenODBCMetaDataReaderInterbase.GetSqlForColumns
 0001:0003C5E0       Dbx34DrvDbms.TDBXOpenODBCMetaDataReaderInterbase.GetSqlForIndexes
 0001:0003CA50       Dbx34DrvDbms.TDBXOpenODBCMetaDataReaderInterbase.GetSqlForIndexColumns
 0001:0003CF80       Dbx34DrvDbms.TDBXOpenODBCMetaDataReaderInterbase.GetReservedWords
 0001:000409D0       Dbx34DrvDbms.TDBXOpenODBCMetaDataReaderInterbase.IsDescendingIndexColumnsSupported
 0001:000409E0       Dbx34DrvDbms.TDBXOpenODBCMetaDataReaderInterbase.SetContext
 0001:00040AC0       Dbx34DrvDbms.TDBXOpenODBCMetaDataReaderInterbase.GetAllDataTypes
 0001:00041500       Dbx34DrvDbms.TDBXOpenODBCMetaDataReaderInterbase.GetDataTypeDescriptions
 0001:00041630       Dbx34DrvDbms.TDBXOpenODBCMetaDataCommandFactorySQLite.GetMetaDataReaderClass
 0001:00041640       Dbx34DrvDbms.TDBXOpenODBCMetaDataReaderSQLite.GetSqlForTables
 0001:00041660       Dbx34DrvDbms.TDBXOpenODBCMetaDataCommandFactoryPostgreSQL.GetMetaDataReaderClass
 0001:00041670       Dbx34DrvDbms.TDBXOpenODBCMetaDataReaderPostgreSQL.GetSqlForTables
 0001:00041C20       Dbx34DrvDbms.TDBXOpenODBCMetaDataReaderPostgreSQL.GetSqlForColumns
 0001:00042420       Dbx34DrvDbms.TDBXOpenODBCMetaDataReaderPostgreSQL.GetSqlForIndexes
 0001:00042A40       Dbx34DrvDbms.TDBXOpenODBCMetaDataReaderPostgreSQL.GetSqlForIndexColumns
 0001:00043960       Dbx34DrvDbms.TDBXOpenODBCMetaDataReaderPostgreSQL.GetReservedWords
 0001:00044200       Dbx34DrvDbms.Finalization
 0001:000442B0       Dbx34DrvDbms.Dbx34DrvDbms
 0001:00044360       Dbx34Drv..EDBXError
 0001:00044468       Dbx34Drv..EDbxOODBCDriverError
 0001:00044590       Dbx34Drv..TDBXOpenOdbcPropertyNames
 0001:000446A8       Dbx34Drv..TDBXPropertyNames
 0001:000447B0       Dbx34Drv..TDbxOpenOdbcDriver
 0001:00044918       Dbx34Drv..TDBXOpenOdbcProperties
 0001:00044C48       Dbx34Drv..TDBXDynalinkDriverLoaderOpenOdbc
 0001:00044D98       Dbx34Drv..TDBXDynalinkConnectionOpenOdbc
 0001:00044FF0       Dbx34Drv..TDBXMorphicCommandOpenOdbc
 0001:000451F8       Dbx34Drv..TDBXDataExpressProviderContextOpenOdbc
 0001:00045378       Dbx34Drv..TDBXCustomOpenODBCMetaDataReader
 0001:00045730       Dbx34Drv..TDBXOpenODBCMetaDataCommand
 0001:000459D0       Dbx34Drv..TDBXOpenODBCMetaDataCommandFactory
 0001:00045B60       Dbx34Drv..TDBXOpenODBCMetaDataCommandFactoryCustom
 0001:00045CB8       Dbx34Drv..TDBXOpenODBCMetaDataReader
 0001:00046050       Dbx34Drv.DBXStringArrayToNamedQueryParams
 0001:000461F0       Dbx34Drv.DBXStringArrayToErrorInfo
 0001:00046400       Dbx34Drv.ErrorGetVendorPropertyCommand
 0001:000465E0       Dbx34Drv.CheckGetVendorPropertyCommand
 0001:000466B0       Dbx34Drv.CheckPathEnvironmet
 0001:00046950       Dbx34Drv.CheckLibraryPath
 0001:00046A40       Dbx34Drv.CheckLibraryName
 0001:00046A90       Dbx34Drv.CheckVendorLib
 0001:00046AE0       Dbx34Drv.TDbxOpenOdbcDriver.Create
 0001:00046C70       Dbx34Drv.TDbxOpenOdbcDriver.CreateCommandOpenOdbc
 0001:00046CA0       Dbx34Drv.TDbxOpenOdbcDriver.CreateConnection
 0001:00046D00       Dbx34Drv.TDbxOpenOdbcDriver.LoadDriverWithConnectionBuilder
 0001:00046DF0       Dbx34Drv.TDbxOpenOdbcDriver.GetDriverPropertyNames
 0001:00046E00       Dbx34Drv.TDbxOpenOdbcDriver.GetDriverVersion
 0001:00046E60       Dbx34Drv.TDBXOpenOdbcProperties.Create
 0001:00047090       Dbx34Drv.TDBXOpenOdbcProperties.GetConnectionString
 0001:000470E0       Dbx34Drv.TDBXOpenOdbcProperties.SetConnectionString
 0001:00047130       Dbx34Drv.TDBXOpenOdbcProperties.GetDatabase
 0001:00047170       Dbx34Drv.TDBXOpenOdbcProperties.SetDatabase
 0001:000471B0       Dbx34Drv.TDBXOpenOdbcProperties.GetUserName
 0001:000471F0       Dbx34Drv.TDBXOpenOdbcProperties.SetUserName
 0001:00047230       Dbx34Drv.TDBXOpenOdbcProperties.GetPassWord
 0001:00047270       Dbx34Drv.TDBXOpenOdbcProperties.SetPassWord
 0001:000472B0       Dbx34Drv.TDBXOpenOdbcProperties.GetBlobSize
 0001:00047350       Dbx34Drv.TDBXOpenOdbcProperties.SetBlobSize
 0001:000473F0       Dbx34Drv.TDBXOpenOdbcProperties.GetOdbcTransIsolation
 0001:00047460       Dbx34Drv.TDBXOpenOdbcProperties.SetOdbcTransIsolation
 0001:000474C0       Dbx34Drv.TDBXOpenOdbcProperties.GetDecimalSeparator
 0001:00047510       Dbx34Drv.TDBXOpenOdbcProperties.SetDecimalSeparator
 0001:00047560       Dbx34Drv.TDBXOpenOdbcProperties.GetTrimChar
 0001:000475F0       Dbx34Drv.TDBXOpenOdbcProperties.SetTrimChar
 0001:00047680       Dbx34Drv.TDBXOpenOdbcProperties.GetCustomString
 0001:000476D0       Dbx34Drv.TDBXOpenOdbcProperties.SetCustomString
 0001:00047720       Dbx34Drv.TDBXDynalinkDriverLoaderOpenOdbc.LoadDriverLibraryAndMethodTable
 0001:00047B10       Dbx34Drv.TDBXDynalinkDriverLoaderOpenOdbc.FreeOldLibrary
 0001:00047B40       Dbx34Drv.TDBXDynalinkConnectionOpenOdbc.GetProductVersion
 0001:00047B60       Dbx34Drv.TDBXDynalinkConnectionOpenOdbc.GetProductName
 0001:00047BB0       Dbx34Drv.TDBXDynalinkConnectionOpenOdbc.DerivedGetCommands
 0001:00047BC0       Dbx34Drv.TDBXDynalinkConnectionOpenOdbc.DerivedGetCommandTypes
 0001:00047BD0       Dbx34Drv.RaiseDriverVersionFailed
 0001:00047C70       Dbx34Drv.TDBXDynalinkConnectionOpenOdbc.DerivedOpen
 0001:00047E30       Dbx34Drv.TDBXDynalinkConnectionOpenOdbc.DoDerivedOpenBefore
 0001:00048330       Dbx34Drv.TDBXDynalinkConnectionOpenOdbc.DoDerivedOpenAfter
 0001:00048470       Dbx34Drv.TDBXDynalinkConnectionOpenOdbc.DerivedClose
 0001:00048480       Dbx34Drv.TDBXDynalinkConnectionOpenOdbc.GetDatabaseMetaData
 0001:00048490       Dbx34Drv.TDBXDynalinkConnectionOpenOdbc.Close
 0001:000484A0       Dbx34Drv.TDBXDynalinkConnectionOpenOdbc.DerivedCreateCommand
 0001:000484D0       Dbx34Drv.TDBXDynalinkConnectionOpenOdbc.GetVendorProperty
 0001:00048570       Dbx34Drv.TDBXMorphicCommandOpenOdbc.Create
 0001:00048620       Dbx34Drv.TDBXMorphicCommandOpenOdbc.DerivedExecuteQuery
 0001:00048630       Dbx34Drv.TDBXCustomOpenODBCMetaDataReader.InitMetadata
 0001:00048750       Dbx34Drv.TDBXCustomOpenODBCMetaDataReader.CheckMetadata
 0001:00048800       Dbx34Drv.TDBXCustomOpenODBCMetaDataReader.SetContext
 0001:00048830       Dbx34Drv.TDBXCustomOpenODBCMetaDataReader.GetProductName
 0001:00048880       Dbx34Drv.TDBXCustomOpenODBCMetaDataReader.GetSqlIdentifierQuotePrefix
 0001:000488A0       Dbx34Drv.TDBXCustomOpenODBCMetaDataReader.GetSqlIdentifierQuoteSuffix
 0001:000488C0       Dbx34Drv.TDBXCustomOpenODBCMetaDataReader.IsParameterMetadataSupported
 0001:000488D0       Dbx34Drv.TDBXCustomOpenODBCMetaDataReader.IsLowerCaseIdentifiersSupported
 0001:000488E0       Dbx34Drv.TDBXCustomOpenODBCMetaDataReader.IsUpperCaseIdentifiersSupported
 0001:000488F0       Dbx34Drv.TDBXCustomOpenODBCMetaDataReader.IsDescendingIndexSupported
 0001:00048900       Dbx34Drv.TDBXCustomOpenODBCMetaDataReader.IsDescendingIndexColumnsSupported
 0001:00048910       Dbx34Drv.TDBXCustomOpenODBCMetaDataReader.GetSqlIdentifierQuoteChar
 0001:00048930       Dbx34Drv.TDBXCustomOpenODBCMetaDataReader.GetSqlProcedureQuoteChar
 0001:00048950       Dbx34Drv.TDBXCustomOpenODBCMetaDataReader.IsMultipleCommandsSupported
 0001:00048960       Dbx34Drv.TDBXCustomOpenODBCMetaDataReader.IsTransactionsSupported
 0001:00048970       Dbx34Drv.TDBXCustomOpenODBCMetaDataReader.IsNestedTransactionsSupported
 0001:00048980       Dbx34Drv.TDBXCustomOpenODBCMetaDataReader.IsSetRowSizeSupported
 0001:00048990       Dbx34Drv.TDBXCustomOpenODBCMetaDataReader.GetUseAnsiStrings
 0001:000489A0       Dbx34Drv.TDBXOpenODBCMetaDataCommand.DerivedExecuteQuery
 0001:000489B0       Dbx34Drv.TDBXOpenODBCMetaDataCommandFactoryCustom.CreateMetaDataReader
 0001:000489D0       Dbx34Drv.TDBXOpenODBCMetaDataCommandFactory.GetMetaDataReaderClass
 0001:000489E0       Dbx34Drv.TDBXOpenODBCMetaDataCommandFactory.InitMetaDataReaderClass
 0001:00048CB0       Dbx34Drv.TDBXOpenODBCMetaDataCommandFactory.CreateCommand
 0001:00048DF0       Dbx34Drv.TDBXOpenODBCMetaDataCommandFactory.GetProductName
 0001:00048E40       Dbx34Drv.TDBXOpenODBCMetaDataCommandFactory.CreateMetaDataReader
 0001:000491A0       Dbx34Drv.TDBXOpenODBCMetaDataCommandFactory.CreateMetaDataReader
 0001:000491C0       Dbx34Drv.TDBXOpenODBCMetaDataCommandFactory.RegisterMetaDataCommandFactory
 0001:000491D0       Dbx34Drv.TDBXOpenODBCMetaDataCommandFactory.UnRegisterMetaDataCommandFactory
 0001:000491E0       Dbx34Drv.TDBXOpenODBCMetaDataReader.Create
 0001:00049280       Dbx34Drv.TDBXOpenODBCMetaDataReader.FetchDataTypes
 0001:00049320       Dbx34Drv.TDBXOpenODBCMetaDataReader.FetchCatalogs
 0001:000493D0       Dbx34Drv.TDBXOpenODBCMetaDataReader.FetchSchemas
 0001:00049570       Dbx34Drv.TDBXOpenODBCMetaDataReader.FetchTables
 0001:00049CC0       Dbx34Drv.TDBXOpenODBCMetaDataReader.FetchViews
 0001:00049E80       Dbx34Drv.TDBXOpenODBCMetaDataReader.FetchColumns
 0001:0004A030       Dbx34Drv.TDBXOpenODBCMetaDataReader.FetchColumnConstraints
 0001:0004A1F0       Dbx34Drv.TDBXOpenODBCMetaDataReader.FetchForeignKeyColumns
 0001:0004A400       Dbx34Drv.TDBXOpenODBCMetaDataReader.FetchForeignKeys
 0001:0004A5C0       Dbx34Drv.TDBXOpenODBCMetaDataReader.FetchIndexColumns
 0001:0004AB20       Dbx34Drv.TDBXOpenODBCMetaDataReader.FetchIndexes
 0001:0004B020       Dbx34Drv.TDBXOpenODBCMetaDataReader.FetchProcedures
 0001:0004B200       Dbx34Drv.TDBXOpenODBCMetaDataReader.FetchProcedureSources
 0001:0004B3C0       Dbx34Drv.TDBXOpenODBCMetaDataReader.FetchSynonyms
 0001:0004B570       Dbx34Drv.TDBXOpenODBCMetaDataReader.FetchProcedureParameters
 0001:0004B770       Dbx34Drv.TDBXOpenODBCMetaDataReader.FetchPackages
 0001:0004B920       Dbx34Drv.TDBXOpenODBCMetaDataReader.FetchPackageProcedures
 0001:0004BB10       Dbx34Drv.TDBXOpenODBCMetaDataReader.FetchPackageProcedureParameters
 0001:0004BD30       Dbx34Drv.TDBXOpenODBCMetaDataReader.FetchPackageSources
 0001:0004BEF0       Dbx34Drv.TDBXOpenODBCMetaDataReader.FetchUsers
 0001:0004C020       Dbx34Drv.TDBXOpenODBCMetaDataReader.FetchRoles
 0001:0004C150       Dbx34Drv.TDBXOpenODBCMetaDataReader.FetchReservedWords
 0001:0004C320       Dbx34Drv.TDBXOpenODBCMetaDataReader.GetProductName
 0001:0004C370       Dbx34Drv.TDBXOpenODBCMetaDataReader.GetReservedWords
 0001:0004C390       Dbx34Drv.TDBXOpenODBCMetaDataReader.GetSqlForColumns
 0001:0004C3B0       Dbx34Drv.TDBXOpenODBCMetaDataReader.GetSqlForForeignKeyColumns
 0001:0004C3D0       Dbx34Drv.TDBXOpenODBCMetaDataReader.GetSqlForForeignKeys
 0001:0004C3F0       Dbx34Drv.TDBXOpenODBCMetaDataReader.GetSqlForIndexColumns
 0001:0004C410       Dbx34Drv.TDBXOpenODBCMetaDataReader.GetSqlForIndexes
 0001:0004C430       Dbx34Drv.TDBXOpenODBCMetaDataReader.GetSqlForPackageProcedureParameters
 0001:0004C450       Dbx34Drv.TDBXOpenODBCMetaDataReader.GetSqlForPackageProcedures
 0001:0004C470       Dbx34Drv.TDBXOpenODBCMetaDataReader.GetSqlForPackages
 0001:0004C490       Dbx34Drv.TDBXOpenODBCMetaDataReader.GetSqlForPackageSources
 0001:0004C4B0       Dbx34Drv.TDBXOpenODBCMetaDataReader.GetSqlForProcedureParameters
 0001:0004C4D0       Dbx34Drv.TDBXOpenODBCMetaDataReader.GetSqlForProcedures
 0001:0004C4F0       Dbx34Drv.TDBXOpenODBCMetaDataReader.GetSqlForProcedureSources
 0001:0004C510       Dbx34Drv.TDBXOpenODBCMetaDataReader.GetSqlForRoles
 0001:0004C530       Dbx34Drv.TDBXOpenODBCMetaDataReader.GetSqlForSchemas
 0001:0004C550       Dbx34Drv.TDBXOpenODBCMetaDataReader.GetSqlForSynonyms
 0001:0004C570       Dbx34Drv.TDBXOpenODBCMetaDataReader.GetSqlForTables
 0001:0004C590       Dbx34Drv.TDBXOpenODBCMetaDataReader.GetSqlForUsers
 0001:0004C5B0       Dbx34Drv.TDBXOpenODBCMetaDataReader.GetSqlForViews
 0001:0004C5D0       Dbx34Drv.TDBXOpenODBCMetaDataReader.IsNestedTransactionsSupported
 0001:0004C5E0       Dbx34Drv.TDBXOpenODBCMetaDataReader.IsSetRowSizeSupported
 0001:0004C5F0       Dbx34Drv.Finalization
 0001:0004C6A0       Dbx34Drv.Dbx34Drv
 0001:0004C780       DbxXXDrv.IsDbxDrvFixed
 0001:0004C790       DbxXXDrv.Finalization
 0001:0004C7A0       DbxXXDrv.DbxXXDrv
 0001:0004C7B0       DbxDBFix.Finalization
 0001:0004C7C0       DbxDBFix.DbxDBFix
 0001:0004CFC0       .dbxoodbc.@GetPackageInfoTable
 0001:0004CFD0       .dbxoodbc.@PackageLoad
 0001:0004CFE0       .dbxoodbc.@PackageUnload
 0001:0004CFF0       .dbxoodbc..dbxoodbc
 0002:00000000       SysInit.TlsIndex
 0002:00000008       SysInit.PtrToNil
 0002:00000010       SysInit..$Sysinit$AllocTlsBuffer$_eh0
 0002:00000018       SysInit.Module
 0002:00000050       SysInit.TlsProc
 0002:00000070       SysInit..$Sysinit$GetTlsSize$_eh0
 0002:00000074       SysInit..$Sysinit$InitThreadTLS$_eh0
 0002:0000007C       SysInit..$Sysinit$InitProcessTLS$_eh0
 0002:00000084       SysInit..$Sysinit$ExitThreadTLS$_eh0
 0002:0000008C       SysInit..$Sysinit$ExitProcessTLS$_eh0
 0002:00000094       SysInit..$Sysinit$InitializeModule$_eh0
 0002:0000009C       SysInit..$Sysinit$UninitializeModule$_eh0
 0002:000000A4       SysInit..$Sysinit$_InitPkg$_eh0
 0002:000000B0       SysInit..$Sysinit$_PackageLoad$_eh0
 0002:000000B8       SysInit..$Sysinit$_PackageUnload$_eh0
 0002:000000C0       SysInit..$unwind$HRESULT_FROM_WIN32
 0002:000000C8       SysInit..$unwind$__delayLoadHelper2
 0002:000000D4       SysInit..$unwind$?FLoadedAtPreferredAddress@@YA_NPEAU_IMAGE_NT_HEADERS64@@PEAUHINSTANCE__@@@Z
 0002:000000DC       SysInit..$unwind$__FUnloadDelayLoadedDLL2
 0002:000000E8       SysInit..$unwind$?__strlen@@YA_KPEBD@Z
 0002:000000F0       SysInit..$unwind$?OverlayIAT@@YAXPEAU_IMAGE_THUNK_DATA64@@PEBU1@@Z
 0002:000000F8       SysInit..$unwind$?__memcpy@@YAPEAXPEAXPEBX_K@Z
 0002:00000100       SysInit..$unwind$__HrLoadAllImportsForDll
 0002:00000108       SysInit..$unwind$ShutdownDelayHelp2
 0002:00000110       SysInit..$unwind$??_GULI@@QEAAPEAXI@Z
 0002:00000118       SysInit..$unwind$??0ULI@@QEAA@PEBUImgDelayDescr@@@Z
 0002:00000120       SysInit..$unwind$?Unlink@ULI@@QEAAXXZ
 0002:00000128       SysInit..$unwind$??3ULI@@SAXPEAX@Z
 0002:00000130       SysInit..$unwind$??2ULI@@SAPEAX_K@Z
 0002:00000138       SysInit..$unwind$?CountOfImports@@YAIPEBU_IMAGE_THUNK_DATA64@@@Z
 0002:00000140       SysInit..$unwind$??1ULI@@QEAA@XZ
 0002:00000148       SysInit..$Sysinit$Finalization$_eh0
 0002:00000150       SysInit..$Sysinit$SysInit$_eh0
 0002:00000154       Winapi.Windows.Win32MajorVersion
 0002:00000158       Winapi.Windows.Win32MinorVersion
 0002:0000015C       Winapi.Windows.Win32Platform
 0002:00000160       Winapi.Windows..$Winapi_Windows$InitVersionInfo$_eh0
 0002:00000168       Winapi.Windows..$Winapi_Windows$Finalization$_eh0
 0002:00000170       Winapi.Windows..$Winapi_Windows$Winapi.Windows$_eh0
 0002:00000178       Winapi.PsAPI..$Winapi_Psapi$Finalization$_eh0
 0002:0000017C       Winapi.PsAPI..$Winapi_Psapi$Winapi.PsAPI$_eh0
 0002:00000180       Winapi.Messages..$Winapi_Messages$Finalization$_eh0
 0002:00000184       Winapi.Messages..$Winapi_Messages$Winapi.Messages$_eh0
 0002:00000188       Dbx34DrvDbms..$Dbx34drvdbms$TDBXOpenODBCMetaDataCommandFactoryOracle.GetMetaDataReaderClass$_eh0
 0002:0000018C       Dbx34DrvDbms..$Dbx34drvdbms$TDBXOpenODBCMetaDataReaderOracle.GetProductName$_eh0
 0002:00000194       Dbx34DrvDbms..$Dbx34drvdbms$TDBXOpenODBCMetaDataReaderOracle.GetSqlForSchemas$_eh0
 0002:0000019C       Dbx34DrvDbms..$Dbx34drvdbms$TDBXOpenODBCMetaDataReaderOracle.GetSqlForTables$_eh0
 0002:000001A4       Dbx34DrvDbms..$Dbx34drvdbms$TDBXOpenODBCMetaDataReaderOracle.GetSqlForColumns$_eh0
 0002:000001AC       Dbx34DrvDbms..$Dbx34drvdbms$TDBXOpenODBCMetaDataReaderOracle.GetSqlForIndexes$_eh0
 0002:000001B4       Dbx34DrvDbms..$Dbx34drvdbms$TDBXOpenODBCMetaDataReaderOracle.GetSqlForIndexColumns$_eh0
 0002:000001BC       Dbx34DrvDbms..$Dbx34drvdbms$TDBXOpenODBCMetaDataReaderOracle.GetReservedWords$_eh0
 0002:000001EC       Dbx34DrvDbms..$Dbx34drvdbms$TDBXOpenODBCMetaDataReaderOracle.PopulateDataTypes$_eh0
 0002:000001F4       Dbx34DrvDbms..$Dbx34drvdbms$TDBXOpenODBCMetaDataReaderOracle.GetDataTypeDescriptions$_eh0
 0002:00000224       Dbx34DrvDbms..$Dbx34drvdbms$TDBXOpenODBCMetaDataCommandFactoryMSSQL.GetMetaDataReaderClass$_eh0
 0002:00000228       Dbx34DrvDbms..$Dbx34drvdbms$TDBXOpenODBCMetaDataReaderMSSQL.GetProductName$_eh0
 0002:00000230       Dbx34DrvDbms..$Dbx34drvdbms$TDBXOpenODBCMetaDataReaderMSSQL.GetSqlForTables$_eh0
 0002:00000260       Dbx34DrvDbms..$Dbx34drvdbms$TDBXOpenODBCMetaDataReaderMSSQL.GetSqlForColumns$_eh0
 0002:00000290       Dbx34DrvDbms..$Dbx34drvdbms$TDBXOpenODBCMetaDataReaderMSSQL.GetSqlForIndexes$_eh0
 0002:000002C0       Dbx34DrvDbms..$Dbx34drvdbms$TDBXOpenODBCMetaDataReaderMSSQL.GetSqlForIndexColumns$_eh0
 0002:000002F0       Dbx34DrvDbms..$Dbx34drvdbms$TDBXOpenODBCMetaDataReaderMSSQL.GetReservedWords$_eh0
 0002:00000320       Dbx34DrvDbms..$Dbx34drvdbms$TDBXOpenODBCMetaDataReaderMSSQL.GetSqlIdentifierQuotePrefix$_eh0
 0002:00000328       Dbx34DrvDbms..$Dbx34drvdbms$TDBXOpenODBCMetaDataReaderMSSQL.GetSqlIdentifierQuoteSuffix$_eh0
 0002:00000330       Dbx34DrvDbms..$Dbx34drvdbms$TDBXOpenODBCMetaDataReaderMSSQL.GetTableType$_eh0
 0002:00000338       Dbx34DrvDbms..$Dbx34drvdbms$TDBXOpenODBCMetaDataReaderMSSQL.GetViewType$_eh0
 0002:00000340       Dbx34DrvDbms..$Dbx34drvdbms$TDBXOpenODBCMetaDataReaderMSSQL.GetSystemTableType$_eh0
 0002:00000348       Dbx34DrvDbms..$Dbx34drvdbms$TDBXOpenODBCMetaDataReaderMSSQL.GetSystemViewType$_eh0
 0002:00000350       Dbx34DrvDbms..$Dbx34drvdbms$TDBXOpenODBCMetaDataReaderMSSQL.GetSynonymType$_eh0
 0002:00000358       Dbx34DrvDbms..$Dbx34drvdbms$TDBXOpenODBCMetaDataReaderMSSQL.GetDataTypeDescriptions$_eh0
 0002:00000388       Dbx34DrvDbms..$Dbx34drvdbms$TDBXOpenODBCMetaDataCommandFactoryMySQL.GetMetaDataReaderClass$_eh0
 0002:0000038C       Dbx34DrvDbms..$Dbx34drvdbms$TDBXOpenODBCMetaDataReaderMySQL.GetProductName$_eh0
 0002:00000394       Dbx34DrvDbms..$Dbx34drvdbms$TDBXOpenODBCMetaDataReaderMySQL.GetSqlForTables$_eh0
 0002:000003C4       Dbx34DrvDbms..$Dbx34drvdbms$TDBXOpenODBCMetaDataReaderMySQL.GetSqlForColumns$_eh0
 0002:000003F4       Dbx34DrvDbms..$Dbx34drvdbms$TDBXOpenODBCMetaDataReaderMySQL.GetSqlForIndexes$_eh0
 0002:00000424       Dbx34DrvDbms..$Dbx34drvdbms$TDBXOpenODBCMetaDataReaderMySQL.GetSqlForIndexColumns$_eh0
 0002:00000454       Dbx34DrvDbms..$Dbx34drvdbms$TDBXOpenODBCMetaDataReaderMySQL.GetReservedWords$_eh0
 0002:00000484       Dbx34DrvDbms..$Dbx34drvdbms$TDBXOpenODBCMetaDataReaderMySQL.GetSqlIdentifierQuotePrefix$_eh0
 0002:0000048C       Dbx34DrvDbms..$Dbx34drvdbms$TDBXOpenODBCMetaDataReaderMySQL.GetSqlIdentifierQuoteSuffix$_eh0
 0002:00000494       Dbx34DrvDbms..$Dbx34drvdbms$TDBXOpenODBCMetaDataReaderMySQL.GetSqlIdentifierQuoteChar$_eh0
 0002:0000049C       Dbx34DrvDbms..$Dbx34drvdbms$TDBXOpenODBCMetaDataReaderMySQL.GetTableType$_eh0
 0002:000004A4       Dbx34DrvDbms..$Dbx34drvdbms$TDBXOpenODBCMetaDataReaderMySQL.IsDescendingIndexColumnsSupported$_eh0
 0002:000004A8       Dbx34DrvDbms..$Dbx34drvdbms$TDBXOpenODBCMetaDataReaderMySQL.IsUpperCaseIdentifiersSupported$_eh0
 0002:000004AC       Dbx34DrvDbms..$Dbx34drvdbms$TDBXOpenODBCMetaDataReaderMySQL.IsMultipleCommandsSupported$_eh0
 0002:000004B0       Dbx34DrvDbms..$Dbx34drvdbms$TDBXOpenODBCMetaDataReaderMySQL.SetContext$_eh0
 0002:000004E0       Dbx34DrvDbms..$Dbx34drvdbms$TDBXOpenODBCMetaDataReaderMySQL.PopulateDataTypes$_eh0
 0002:000004F0       Dbx34DrvDbms..$Dbx34drvdbms$TDBXOpenODBCMetaDataReaderMySQL.GetDataTypeDescriptions$_eh0
 0002:00000524       Dbx34DrvDbms..$Dbx34drvdbms$TDBXOpenODBCMetaDataCommandFactorySybaseASA.GetMetaDataReaderClass$_eh0
 0002:00000528       Dbx34DrvDbms..$Dbx34drvdbms$TDBXOpenODBCMetaDataReaderSybaseASA.GetProductName$_eh0
 0002:00000530       Dbx34DrvDbms..$Dbx34drvdbms$TDBXOpenODBCMetaDataReaderSybaseASA.SetContext$_eh0
 0002:00000560       Dbx34DrvDbms..$Dbx34drvdbms$TDBXOpenODBCMetaDataReaderSybaseASA.GetSqlForTables$_eh0
 0002:00000568       Dbx34DrvDbms..$Dbx34drvdbms$TDBXOpenODBCMetaDataReaderSybaseASA.GetSqlForColumns$_eh0
 0002:00000570       Dbx34DrvDbms..$Dbx34drvdbms$TDBXOpenODBCMetaDataReaderSybaseASA.GetSqlForIndexes$_eh0
 0002:000005A0       Dbx34DrvDbms..$Dbx34drvdbms$TDBXOpenODBCMetaDataReaderSybaseASA.GetSqlForIndexColumns$_eh0
 0002:000005D0       Dbx34DrvDbms..$Dbx34drvdbms$TDBXOpenODBCMetaDataReaderSybaseASA.GetReservedWords$_eh0
 0002:00000600       Dbx34DrvDbms..$Dbx34drvdbms$TDBXOpenODBCMetaDataReaderSybaseASA.GetTableType$_eh0
 0002:00000608       Dbx34DrvDbms..$Dbx34drvdbms$TDBXOpenODBCMetaDataReaderSybaseASA.GetViewType$_eh0
 0002:00000610       Dbx34DrvDbms..$Dbx34drvdbms$TDBXOpenODBCMetaDataReaderSybaseASA.GetSystemTableType$_eh0
 0002:00000618       Dbx34DrvDbms..$Dbx34drvdbms$TDBXOpenODBCMetaDataReaderSybaseASA.GetSystemViewType$_eh0
 0002:00000620       Dbx34DrvDbms..$Dbx34drvdbms$TDBXOpenODBCMetaDataReaderSybaseASA.GetDataTypeDescriptions$_eh0
 0002:00000650       Dbx34DrvDbms..$Dbx34drvdbms$TDBXOpenODBCMetaDataCommandFactorySybaseASE.GetMetaDataReaderClass$_eh0
 0002:00000654       Dbx34DrvDbms..$Dbx34drvdbms$TDBXOpenODBCMetaDataReaderSybaseASE.GetProductName$_eh0
 0002:0000065C       Dbx34DrvDbms..$Dbx34drvdbms$TDBXOpenODBCMetaDataReaderSybaseASE.GetSqlForTables$_eh0
 0002:00000664       Dbx34DrvDbms..$Dbx34drvdbms$TDBXOpenODBCMetaDataReaderSybaseASE.GetSqlForColumns$_eh0
 0002:0000066C       Dbx34DrvDbms..$Dbx34drvdbms$TDBXOpenODBCMetaDataReaderSybaseASE.GetSqlForIndexes$_eh0
 0002:00000674       Dbx34DrvDbms..$Dbx34drvdbms$TDBXOpenODBCMetaDataReaderSybaseASE.GetSqlForIndexColumns$_eh0
 0002:0000067C       Dbx34DrvDbms..$Dbx34drvdbms$TDBXOpenODBCMetaDataReaderSybaseASE.GetReservedWords$_eh0
 0002:000006AC       Dbx34DrvDbms..$Dbx34drvdbms$TDBXOpenODBCMetaDataReaderSybaseASE.GetTableType$_eh0
 0002:000006B4       Dbx34DrvDbms..$Dbx34drvdbms$TDBXOpenODBCMetaDataReaderSybaseASE.GetViewType$_eh0
 0002:000006BC       Dbx34DrvDbms..$Dbx34drvdbms$TDBXOpenODBCMetaDataReaderSybaseASE.GetSystemTableType$_eh0
 0002:000006C4       Dbx34DrvDbms..$Dbx34drvdbms$TDBXOpenODBCMetaDataReaderSybaseASE.GetDataTypeDescriptions$_eh0
 0002:000006F4       Dbx34DrvDbms..$Dbx34drvdbms$TDBXOpenODBCMetaDataCommandFactoryDB2.GetMetaDataReaderClass$_eh0
 0002:000006F8       Dbx34DrvDbms..$Dbx34drvdbms$TDBXOpenODBCMetaDataReaderDB2.GetProductName$_eh0
 0002:00000700       Dbx34DrvDbms..$Dbx34drvdbms$TDBXOpenODBCMetaDataReaderDB2.GetSqlForTables$_eh0
 0002:00000708       Dbx34DrvDbms..$Dbx34drvdbms$TDBXOpenODBCMetaDataReaderDB2.GetSqlForColumns$_eh0
 0002:00000710       Dbx34DrvDbms..$Dbx34drvdbms$TDBXOpenODBCMetaDataReaderDB2.GetSqlForIndexes$_eh0
 0002:00000718       Dbx34DrvDbms..$Dbx34drvdbms$TDBXOpenODBCMetaDataReaderDB2.GetSqlForIndexColumns$_eh0
 0002:00000720       Dbx34DrvDbms..$Dbx34drvdbms$TDBXOpenODBCMetaDataReaderDB2.GetReservedWords$_eh0
 0002:00000750       Dbx34DrvDbms..$Dbx34drvdbms$TDBXOpenODBCMetaDataReaderDB2.GetTableType$_eh0
 0002:00000758       Dbx34DrvDbms..$Dbx34drvdbms$TDBXOpenODBCMetaDataReaderDB2.GetViewType$_eh0
 0002:00000760       Dbx34DrvDbms..$Dbx34drvdbms$TDBXOpenODBCMetaDataReaderDB2.GetSystemTableType$_eh0
 0002:00000768       Dbx34DrvDbms..$Dbx34drvdbms$TDBXOpenODBCMetaDataReaderDB2.GetSqlProcedureQuoteChar$_eh0
 0002:00000770       Dbx34DrvDbms..$Dbx34drvdbms$TDBXOpenODBCMetaDataReaderDB2.GetDataTypeDescriptions$_eh0
 0002:000007A0       Dbx34DrvDbms..$Dbx34drvdbms$TDBXOpenODBCMetaDataCommandFactoryInformix.GetMetaDataReaderClass$_eh0
 0002:000007A4       Dbx34DrvDbms..$Dbx34drvdbms$TDBXOpenODBCMetaDataReaderInformix.GetProductName$_eh0
 0002:000007AC       Dbx34DrvDbms..$Dbx34drvdbms$TDBXOpenODBCMetaDataReaderInformix.Destroy$_eh0
 0002:000007B8       Dbx34DrvDbms..$Dbx34drvdbms$TDBXOpenODBCMetaDataReaderInformix.GetSqlForTables$_eh0
 0002:000007C0       Dbx34DrvDbms..$Dbx34drvdbms$TDBXOpenODBCMetaDataReaderInformix.GetSqlForColumns$_eh0
 0002:000007C8       Dbx34DrvDbms..$Dbx34drvdbms$TDBXOpenODBCMetaDataReaderInformix.GetSqlForIndexes$_eh0
 0002:000007D0       Dbx34DrvDbms..$Dbx34drvdbms$TDBXOpenODBCMetaDataReaderInformix.GetSqlForIndexColumns$_eh0
 0002:000007D8       Dbx34DrvDbms..$Dbx34drvdbms$TDBXOpenODBCMetaDataReaderInformix.GetReservedWords$_eh0
 0002:00000808       Dbx34DrvDbms..$Dbx34drvdbms$TDBXOpenODBCMetaDataReaderInformix.GetTableType$_eh0
 0002:00000810       Dbx34DrvDbms..$Dbx34drvdbms$TDBXOpenODBCMetaDataReaderInformix.GetViewType$_eh0
 0002:00000818       Dbx34DrvDbms..$Dbx34drvdbms$TDBXOpenODBCMetaDataReaderInformix.GetSystemTableType$_eh0
 0002:00000820       Dbx34DrvDbms..$Dbx34drvdbms$TDBXOpenODBCMetaDataReaderInformix.GetSynonymType$_eh0
 0002:00000828       Dbx34DrvDbms..$Dbx34drvdbms$TDBXOpenODBCMetaDataReaderInformix.IsUpperCaseIdentifiersSupported$_eh0
 0002:0000082C       Dbx34DrvDbms..$Dbx34drvdbms$TDBXOpenODBCMetaDataReaderInformix.GetAllDataTypes$_eh0
 0002:0000085C       Dbx34DrvDbms..$Dbx34drvdbms$TDBXOpenODBCMetaDataReaderInformix.GetDataTypeDescriptions$_eh0
 0002:00000890       Dbx34DrvDbms..$Dbx34drvdbms$TDBXOpenODBCMetaDataCommandFactoryDataStorage.GetMetaDataReaderClass$_eh0
 0002:00000894       Dbx34DrvDbms..$Dbx34drvdbms$TDBXOpenODBCMetaDataReaderDataStorage.GetSqlForTables$_eh0
 0002:0000089C       Dbx34DrvDbms..$Dbx34drvdbms$TDBXOpenODBCMetaDataReaderDataStorage.GetSqlForColumns$_eh0
 0002:000008A4       Dbx34DrvDbms..$Dbx34drvdbms$TDBXOpenODBCMetaDataReaderDataStorage.GetSqlForIndexes$_eh0
 0002:000008AC       Dbx34DrvDbms..$Dbx34drvdbms$TDBXOpenODBCMetaDataReaderDataStorage.GetSqlForIndexColumns$_eh0
 0002:000008B4       Dbx34DrvDbms..$Dbx34drvdbms$TDBXOpenODBCMetaDataCommandFactoryFirebird.GetMetaDataReaderClass$_eh0
 0002:000008B8       Dbx34DrvDbms..$Dbx34drvdbms$TDBXOpenODBCMetaDataReaderFirebird.GetProductName$_eh0
 0002:000008C0       Dbx34DrvDbms..$Dbx34drvdbms$TDBXOpenODBCMetaDataReaderFirebird.Destroy$_eh0
 0002:000008CC       Dbx34DrvDbms..$Dbx34drvdbms$TDBXOpenODBCMetaDataReaderFirebird.GetSqlForTables$_eh0
 0002:000008D4       Dbx34DrvDbms..$Dbx34drvdbms$TDBXOpenODBCMetaDataReaderFirebird.GetSqlForColumns$_eh0
 0002:000008DC       Dbx34DrvDbms..$Dbx34drvdbms$TDBXOpenODBCMetaDataReaderFirebird.GetSqlForIndexes$_eh0
 0002:000008E4       Dbx34DrvDbms..$Dbx34drvdbms$TDBXOpenODBCMetaDataReaderFirebird.GetSqlForIndexColumns$_eh0
 0002:000008EC       Dbx34DrvDbms..$Dbx34drvdbms$TDBXOpenODBCMetaDataReaderFirebird.GetReservedWords$_eh0
 0002:0000091C       Dbx34DrvDbms..$Dbx34drvdbms$TDBXOpenODBCMetaDataReaderFirebird.IsDescendingIndexColumnsSupported$_eh0
 0002:00000920       Dbx34DrvDbms..$Dbx34drvdbms$TDBXOpenODBCMetaDataReaderFirebird.SetContext$_eh0
 0002:00000950       Dbx34DrvDbms..$Dbx34drvdbms$TDBXOpenODBCMetaDataReaderFirebird.GetAllDataTypes$_eh0
 0002:00000984       Dbx34DrvDbms..$Dbx34drvdbms$TDBXOpenODBCMetaDataReaderFirebird.GetDataTypeDescriptions$_eh0
 0002:000009B8       Dbx34DrvDbms..$Dbx34drvdbms$TDBXOpenODBCMetaDataCommandFactoryInterbase.GetMetaDataReaderClass$_eh0
 0002:000009BC       Dbx34DrvDbms..$Dbx34drvdbms$TDBXOpenODBCMetaDataReaderInterbase.GetProductName$_eh0
 0002:000009C4       Dbx34DrvDbms..$Dbx34drvdbms$TDBXOpenODBCMetaDataReaderInterbase.Destroy$_eh0
 0002:000009D0       Dbx34DrvDbms..$Dbx34drvdbms$TDBXOpenODBCMetaDataReaderInterbase.GetSqlForTables$_eh0
 0002:000009D8       Dbx34DrvDbms..$Dbx34drvdbms$TDBXOpenODBCMetaDataReaderInterbase.GetSqlForColumns$_eh0
 0002:000009E0       Dbx34DrvDbms..$Dbx34drvdbms$TDBXOpenODBCMetaDataReaderInterbase.GetSqlForIndexes$_eh0
 0002:000009E8       Dbx34DrvDbms..$Dbx34drvdbms$TDBXOpenODBCMetaDataReaderInterbase.GetSqlForIndexColumns$_eh0
 0002:000009F0       Dbx34DrvDbms..$Dbx34drvdbms$TDBXOpenODBCMetaDataReaderInterbase.GetReservedWords$_eh0
 0002:00000A20       Dbx34DrvDbms..$Dbx34drvdbms$TDBXOpenODBCMetaDataReaderInterbase.IsDescendingIndexColumnsSupported$_eh0
 0002:00000A24       Dbx34DrvDbms..$Dbx34drvdbms$TDBXOpenODBCMetaDataReaderInterbase.SetContext$_eh0
 0002:00000A54       Dbx34DrvDbms..$Dbx34drvdbms$TDBXOpenODBCMetaDataReaderInterbase.GetAllDataTypes$_eh0
 0002:00000A88       Dbx34DrvDbms..$Dbx34drvdbms$TDBXOpenODBCMetaDataReaderInterbase.GetDataTypeDescriptions$_eh0
 0002:00000ABC       Dbx34DrvDbms..$Dbx34drvdbms$TDBXOpenODBCMetaDataCommandFactorySQLite.GetMetaDataReaderClass$_eh0
 0002:00000AC0       Dbx34DrvDbms..$Dbx34drvdbms$TDBXOpenODBCMetaDataReaderSQLite.GetSqlForTables$_eh0
 0002:00000AC8       Dbx34DrvDbms..$Dbx34drvdbms$TDBXOpenODBCMetaDataCommandFactoryPostgreSQL.GetMetaDataReaderClass$_eh0
 0002:00000ACC       Dbx34DrvDbms..$Dbx34drvdbms$TDBXOpenODBCMetaDataReaderPostgreSQL.GetSqlForTables$_eh0
 0002:00000AD4       Dbx34DrvDbms..$Dbx34drvdbms$TDBXOpenODBCMetaDataReaderPostgreSQL.GetSqlForColumns$_eh0
 0002:00000ADC       Dbx34DrvDbms..$Dbx34drvdbms$TDBXOpenODBCMetaDataReaderPostgreSQL.GetSqlForIndexes$_eh0
 0002:00000AE4       Dbx34DrvDbms..$Dbx34drvdbms$TDBXOpenODBCMetaDataReaderPostgreSQL.GetSqlForIndexColumns$_eh0
 0002:00000B14       Dbx34DrvDbms..$Dbx34drvdbms$TDBXOpenODBCMetaDataReaderPostgreSQL.GetReservedWords$_eh0
 0002:00000B44       Dbx34DrvDbms..$Dbx34drvdbms$Finalization$_eh0
 0002:00000B4C       Dbx34DrvDbms..$Dbx34drvdbms$Dbx34DrvDbms$_eh0
 0002:00000B54       Dbx34Drv.bIsDbx34Drv
 0002:00000B58       Dbx34Drv..$Dbx34drv$DBXStringArrayToNamedQueryParams$_eh0
 0002:00000B8C       Dbx34Drv..$Dbx34drv$DBXStringArrayToErrorInfo$_eh0
 0002:00000BC0       Dbx34Drv..$Dbx34drv$ErrorGetVendorPropertyCommand$_eh0
 0002:00000BF0       Dbx34Drv..$Dbx34drv$CheckGetVendorPropertyCommand$_eh0
 0002:00000C20       Dbx34Drv..$Dbx34drv$CheckPathEnvironmet$_eh0
 0002:00000C58       Dbx34Drv..$Dbx34drv$CheckLibraryPath$_eh0
 0002:00000C88       Dbx34Drv..$Dbx34drv$CheckLibraryName$_eh0
 0002:00000C90       Dbx34Drv..$Dbx34drv$CheckVendorLib$_eh0
 0002:00000C98       Dbx34Drv..$Dbx34drv$TDbxOpenOdbcDriver.Create$_eh0
 0002:00000CF4       Dbx34Drv..$Dbx34drv$TDbxOpenOdbcDriver.CreateCommandOpenOdbc$_eh0
 0002:00000CFC       Dbx34Drv..$Dbx34drv$TDbxOpenOdbcDriver.CreateConnection$_eh0
 0002:00000D0C       Dbx34Drv..$Dbx34drv$TDbxOpenOdbcDriver.LoadDriverWithConnectionBuilder$_eh0
 0002:00000D3C       Dbx34Drv..$Dbx34drv$TDbxOpenOdbcDriver.GetDriverPropertyNames$_eh0
 0002:00000D44       Dbx34Drv..$Dbx34drv$TDbxOpenOdbcDriver.GetDriverVersion$_eh0
 0002:00000D74       Dbx34Drv..$Dbx34drv$TDBXOpenOdbcProperties.Create$_eh0
 0002:00000DCC       Dbx34Drv..$Dbx34drv$TDBXOpenOdbcProperties.GetConnectionString$_eh0
 0002:00000DD4       Dbx34Drv..$Dbx34drv$TDBXOpenOdbcProperties.SetConnectionString$_eh0
 0002:00000DDC       Dbx34Drv..$Dbx34drv$TDBXOpenOdbcProperties.GetDatabase$_eh0
 0002:00000DE4       Dbx34Drv..$Dbx34drv$TDBXOpenOdbcProperties.SetDatabase$_eh0
 0002:00000DEC       Dbx34Drv..$Dbx34drv$TDBXOpenOdbcProperties.GetUserName$_eh0
 0002:00000DF4       Dbx34Drv..$Dbx34drv$TDBXOpenOdbcProperties.SetUserName$_eh0
 0002:00000DFC       Dbx34Drv..$Dbx34drv$TDBXOpenOdbcProperties.GetPassWord$_eh0
 0002:00000E04       Dbx34Drv..$Dbx34drv$TDBXOpenOdbcProperties.SetPassWord$_eh0
 0002:00000E0C       Dbx34Drv..$Dbx34drv$TDBXOpenOdbcProperties.GetBlobSize$_eh0
 0002:00000E3C       Dbx34Drv..$Dbx34drv$TDBXOpenOdbcProperties.SetBlobSize$_eh0
 0002:00000E6C       Dbx34Drv..$Dbx34drv$TDBXOpenOdbcProperties.GetOdbcTransIsolation$_eh0
 0002:00000E74       Dbx34Drv..$Dbx34drv$TDBXOpenOdbcProperties.SetOdbcTransIsolation$_eh0
 0002:00000E7C       Dbx34Drv..$Dbx34drv$TDBXOpenOdbcProperties.GetDecimalSeparator$_eh0
 0002:00000E84       Dbx34Drv..$Dbx34drv$TDBXOpenOdbcProperties.SetDecimalSeparator$_eh0
 0002:00000E8C       Dbx34Drv..$Dbx34drv$TDBXOpenOdbcProperties.GetTrimChar$_eh0
 0002:00000EBC       Dbx34Drv..$Dbx34drv$TDBXOpenOdbcProperties.SetTrimChar$_eh0
 0002:00000EEC       Dbx34Drv..$Dbx34drv$TDBXOpenOdbcProperties.GetCustomString$_eh0
 0002:00000EF4       Dbx34Drv..$Dbx34drv$TDBXOpenOdbcProperties.SetCustomString$_eh0
 0002:00000EFC       Dbx34Drv..$Dbx34drv$TDBXDynalinkDriverLoaderOpenOdbc.LoadDriverLibraryAndMethodTable$_eh0
 0002:00000F74       Dbx34Drv..$Dbx34drv$TDBXDynalinkDriverLoaderOpenOdbc.FreeOldLibrary$_eh0
 0002:00000F7C       Dbx34Drv..$Dbx34drv$TDBXDynalinkConnectionOpenOdbc.GetProductVersion$_eh0
 0002:00000F84       Dbx34Drv..$Dbx34drv$TDBXDynalinkConnectionOpenOdbc.GetProductName$_eh0
 0002:00000F8C       Dbx34Drv..$Dbx34drv$TDBXDynalinkConnectionOpenOdbc.DerivedGetCommands$_eh0
 0002:00000F90       Dbx34Drv..$Dbx34drv$TDBXDynalinkConnectionOpenOdbc.DerivedGetCommandTypes$_eh0
 0002:00000F94       Dbx34Drv..$Dbx34drv$RaiseDriverVersionFailed$_eh0
 0002:00000F9C       Dbx34Drv..$Dbx34drv$TDBXDynalinkConnectionOpenOdbc.DerivedOpen$_eh0
 0002:00000FCC       Dbx34Drv..$Dbx34drv$TDBXDynalinkConnectionOpenOdbc.DoDerivedOpenBefore$_eh0
 0002:00001000       Dbx34Drv..$Dbx34drv$TDBXDynalinkConnectionOpenOdbc.DoDerivedOpenAfter$_eh0
 0002:00001030       Dbx34Drv..$Dbx34drv$TDBXDynalinkConnectionOpenOdbc.DerivedClose$_eh0
 0002:00001034       Dbx34Drv..$Dbx34drv$TDBXDynalinkConnectionOpenOdbc.GetDatabaseMetaData$_eh0
 0002:0000103C       Dbx34Drv..$Dbx34drv$TDBXDynalinkConnectionOpenOdbc.Close$_eh0
 0002:00001044       Dbx34Drv..$Dbx34drv$TDBXDynalinkConnectionOpenOdbc.DerivedCreateCommand$_eh0
 0002:0000104C       Dbx34Drv..$Dbx34drv$TDBXDynalinkConnectionOpenOdbc.GetVendorProperty$_eh0
 0002:00001058       Dbx34Drv..$Dbx34drv$TDBXMorphicCommandOpenOdbc.Create$_eh0
 0002:00001094       Dbx34Drv..$Dbx34drv$TDBXMorphicCommandOpenOdbc.DerivedExecuteQuery$_eh0
 0002:0000109C       Dbx34Drv..$Dbx34drv$TDBXCustomOpenODBCMetaDataReader.InitMetadata$_eh0
 0002:000010CC       Dbx34Drv..$Dbx34drv$TDBXCustomOpenODBCMetaDataReader.CheckMetadata$_eh0
 0002:000010D8       Dbx34Drv..$Dbx34drv$TDBXCustomOpenODBCMetaDataReader.SetContext$_eh0
 0002:000010E0       Dbx34Drv..$Dbx34drv$TDBXCustomOpenODBCMetaDataReader.GetProductName$_eh0
 0002:000010E8       Dbx34Drv..$Dbx34drv$TDBXCustomOpenODBCMetaDataReader.GetSqlIdentifierQuotePrefix$_eh0
 0002:000010F0       Dbx34Drv..$Dbx34drv$TDBXCustomOpenODBCMetaDataReader.GetSqlIdentifierQuoteSuffix$_eh0
 0002:000010F8       Dbx34Drv..$Dbx34drv$TDBXCustomOpenODBCMetaDataReader.IsParameterMetadataSupported$_eh0
 0002:000010FC       Dbx34Drv..$Dbx34drv$TDBXCustomOpenODBCMetaDataReader.IsLowerCaseIdentifiersSupported$_eh0
 0002:00001100       Dbx34Drv..$Dbx34drv$TDBXCustomOpenODBCMetaDataReader.IsUpperCaseIdentifiersSupported$_eh0
 0002:00001104       Dbx34Drv..$Dbx34drv$TDBXCustomOpenODBCMetaDataReader.IsDescendingIndexSupported$_eh0
 0002:00001108       Dbx34Drv..$Dbx34drv$TDBXCustomOpenODBCMetaDataReader.IsDescendingIndexColumnsSupported$_eh0
 0002:0000110C       Dbx34Drv..$Dbx34drv$TDBXCustomOpenODBCMetaDataReader.GetSqlIdentifierQuoteChar$_eh0
 0002:00001114       Dbx34Drv..$Dbx34drv$TDBXCustomOpenODBCMetaDataReader.GetSqlProcedureQuoteChar$_eh0
 0002:0000111C       Dbx34Drv..$Dbx34drv$TDBXCustomOpenODBCMetaDataReader.IsMultipleCommandsSupported$_eh0
 0002:00001120       Dbx34Drv..$Dbx34drv$TDBXCustomOpenODBCMetaDataReader.IsTransactionsSupported$_eh0
 0002:00001124       Dbx34Drv..$Dbx34drv$TDBXCustomOpenODBCMetaDataReader.IsNestedTransactionsSupported$_eh0
 0002:00001128       Dbx34Drv..$Dbx34drv$TDBXCustomOpenODBCMetaDataReader.IsSetRowSizeSupported$_eh0
 0002:0000112C       Dbx34Drv..$Dbx34drv$TDBXCustomOpenODBCMetaDataReader.GetUseAnsiStrings$_eh0
 0002:00001130       Dbx34Drv..$Dbx34drv$TDBXOpenODBCMetaDataCommand.DerivedExecuteQuery$_eh0
 0002:00001138       Dbx34Drv..$Dbx34drv$TDBXOpenODBCMetaDataCommandFactoryCustom.CreateMetaDataReader$_eh0
 0002:00001140       Dbx34Drv..$Dbx34drv$TDBXOpenODBCMetaDataCommandFactory.GetMetaDataReaderClass$_eh0
 0002:00001144       Dbx34Drv..$Dbx34drv$TDBXOpenODBCMetaDataCommandFactory.InitMetaDataReaderClass$_eh0
 0002:00001190       Dbx34Drv..$Dbx34drv$TDBXOpenODBCMetaDataCommandFactory.CreateCommand$_eh0
 0002:000011C4       Dbx34Drv..$Dbx34drv$TDBXOpenODBCMetaDataCommandFactory.GetProductName$_eh0
 0002:000011CC       Dbx34Drv..$Dbx34drv$TDBXOpenODBCMetaDataCommandFactory.CreateMetaDataReader$_eh0
 0002:000011FC       Dbx34Drv..$Dbx34drv$TDBXOpenODBCMetaDataCommandFactory.CreateMetaDataReader$_eh0
 0002:00001204       Dbx34Drv..$Dbx34drv$TDBXOpenODBCMetaDataCommandFactory.RegisterMetaDataCommandFactory$_eh0
 0002:0000120C       Dbx34Drv..$Dbx34drv$TDBXOpenODBCMetaDataCommandFactory.UnRegisterMetaDataCommandFactory$_eh0
 0002:00001214       Dbx34Drv..$Dbx34drv$TDBXOpenODBCMetaDataReader.Create$_eh0
 0002:00001250       Dbx34Drv..$Dbx34drv$TDBXOpenODBCMetaDataReader.FetchDataTypes$_eh0
 0002:00001280       Dbx34Drv..$Dbx34drv$TDBXOpenODBCMetaDataReader.FetchCatalogs$_eh0
 0002:000012B0       Dbx34Drv..$Dbx34drv$TDBXOpenODBCMetaDataReader.FetchSchemas$_eh0
 0002:00001308       Dbx34Drv..$Dbx34drv$TDBXOpenODBCMetaDataReader.FetchTables$_eh0
 0002:0000138C       Dbx34Drv..$Dbx34drv$TDBXOpenODBCMetaDataReader.FetchViews$_eh0
 0002:000013E4       Dbx34Drv..$Dbx34drv$TDBXOpenODBCMetaDataReader.FetchColumns$_eh0
 0002:0000143C       Dbx34Drv..$Dbx34drv$TDBXOpenODBCMetaDataReader.FetchColumnConstraints$_eh0
 0002:00001494       Dbx34Drv..$Dbx34drv$TDBXOpenODBCMetaDataReader.FetchForeignKeyColumns$_eh0
 0002:000014F0       Dbx34Drv..$Dbx34drv$TDBXOpenODBCMetaDataReader.FetchForeignKeys$_eh0
 0002:00001548       Dbx34Drv..$Dbx34drv$TDBXOpenODBCMetaDataReader.FetchIndexColumns$_eh0
 0002:000015CC       Dbx34Drv..$Dbx34drv$TDBXOpenODBCMetaDataReader.FetchIndexes$_eh0
 0002:00001650       Dbx34Drv..$Dbx34drv$TDBXOpenODBCMetaDataReader.FetchProcedures$_eh0
 0002:000016A8       Dbx34Drv..$Dbx34drv$TDBXOpenODBCMetaDataReader.FetchProcedureSources$_eh0
 0002:00001700       Dbx34Drv..$Dbx34drv$TDBXOpenODBCMetaDataReader.FetchSynonyms$_eh0
 0002:00001758       Dbx34Drv..$Dbx34drv$TDBXOpenODBCMetaDataReader.FetchProcedureParameters$_eh0
 0002:000017B0       Dbx34Drv..$Dbx34drv$TDBXOpenODBCMetaDataReader.FetchPackages$_eh0
 0002:00001808       Dbx34Drv..$Dbx34drv$TDBXOpenODBCMetaDataReader.FetchPackageProcedures$_eh0
 0002:00001860       Dbx34Drv..$Dbx34drv$TDBXOpenODBCMetaDataReader.FetchPackageProcedureParameters$_eh0
 0002:000018B8       Dbx34Drv..$Dbx34drv$TDBXOpenODBCMetaDataReader.FetchPackageSources$_eh0
 0002:00001910       Dbx34Drv..$Dbx34drv$TDBXOpenODBCMetaDataReader.FetchUsers$_eh0
 0002:00001968       Dbx34Drv..$Dbx34drv$TDBXOpenODBCMetaDataReader.FetchRoles$_eh0
 0002:000019C0       Dbx34Drv..$Dbx34drv$TDBXOpenODBCMetaDataReader.FetchReservedWords$_eh0
 0002:00001A18       Dbx34Drv..$Dbx34drv$TDBXOpenODBCMetaDataReader.GetProductName$_eh0
 0002:00001A20       Dbx34Drv..$Dbx34drv$TDBXOpenODBCMetaDataReader.GetReservedWords$_eh0
 0002:00001A28       Dbx34Drv..$Dbx34drv$TDBXOpenODBCMetaDataReader.GetSqlForColumns$_eh0
 0002:00001A30       Dbx34Drv..$Dbx34drv$TDBXOpenODBCMetaDataReader.GetSqlForForeignKeyColumns$_eh0
 0002:00001A38       Dbx34Drv..$Dbx34drv$TDBXOpenODBCMetaDataReader.GetSqlForForeignKeys$_eh0
 0002:00001A40       Dbx34Drv..$Dbx34drv$TDBXOpenODBCMetaDataReader.GetSqlForIndexColumns$_eh0
 0002:00001A48       Dbx34Drv..$Dbx34drv$TDBXOpenODBCMetaDataReader.GetSqlForIndexes$_eh0
 0002:00001A50       Dbx34Drv..$Dbx34drv$TDBXOpenODBCMetaDataReader.GetSqlForPackageProcedureParameters$_eh0
 0002:00001A58       Dbx34Drv..$Dbx34drv$TDBXOpenODBCMetaDataReader.GetSqlForPackageProcedures$_eh0
 0002:00001A60       Dbx34Drv..$Dbx34drv$TDBXOpenODBCMetaDataReader.GetSqlForPackages$_eh0
 0002:00001A68       Dbx34Drv..$Dbx34drv$TDBXOpenODBCMetaDataReader.GetSqlForPackageSources$_eh0
 0002:00001A70       Dbx34Drv..$Dbx34drv$TDBXOpenODBCMetaDataReader.GetSqlForProcedureParameters$_eh0
 0002:00001A78       Dbx34Drv..$Dbx34drv$TDBXOpenODBCMetaDataReader.GetSqlForProcedures$_eh0
 0002:00001A80       Dbx34Drv..$Dbx34drv$TDBXOpenODBCMetaDataReader.GetSqlForProcedureSources$_eh0
 0002:00001A88       Dbx34Drv..$Dbx34drv$TDBXOpenODBCMetaDataReader.GetSqlForRoles$_eh0
 0002:00001A90       Dbx34Drv..$Dbx34drv$TDBXOpenODBCMetaDataReader.GetSqlForSchemas$_eh0
 0002:00001A98       Dbx34Drv..$Dbx34drv$TDBXOpenODBCMetaDataReader.GetSqlForSynonyms$_eh0
 0002:00001AA0       Dbx34Drv..$Dbx34drv$TDBXOpenODBCMetaDataReader.GetSqlForTables$_eh0
 0002:00001AA8       Dbx34Drv..$Dbx34drv$TDBXOpenODBCMetaDataReader.GetSqlForUsers$_eh0
 0002:00001AB0       Dbx34Drv..$Dbx34drv$TDBXOpenODBCMetaDataReader.GetSqlForViews$_eh0
 0002:00001AB8       Dbx34Drv..$Dbx34drv$TDBXOpenODBCMetaDataReader.IsNestedTransactionsSupported$_eh0
 0002:00001ABC       Dbx34Drv..$Dbx34drv$TDBXOpenODBCMetaDataReader.IsSetRowSizeSupported$_eh0
 0002:00001AC0       Dbx34Drv..$Dbx34drv$Finalization$_eh0
 0002:00001AEC       Dbx34Drv..$Dbx34drv$Dbx34Drv$_eh0
 0002:00001B1C       DbxXXDrv..$Dbxxxdrv$IsDbxDrvFixed$_eh0
 0002:00001B20       DbxXXDrv..$Dbxxxdrv$Finalization$_eh0
 0002:00001B24       DbxXXDrv..$Dbxxxdrv$DbxXXDrv$_eh0
 0002:00001B28       DbxDBFix..$Dbxdbfix$Finalization$_eh0
 0002:00001B2C       DbxDBFix..$Dbxdbfix$DbxDBFix$_eh0
 0003:FFFB0000       SysInit.__ImageBase
 0003:00000000       SysInit.ModuleIsLib
 0003:00000001       SysInit.ModuleIsPackage
 0003:00000008       SysInit.HInstance
 0003:00000018       SysInit.@_pfnDliNotifyHook2
 0003:00000020       SysInit.@_pfnDliFailureHook2
 0003:00000028       SysInit..1
 0003:00000030       SysInit.tlsBuffer
 0003:00000038       SysInit..__puiHead
 0003:00000040       Winapi.Windows..2
 0003:00000048       Winapi.Windows.HtmlHelpModule
 0003:00000050       Winapi.PsAPI..1
 0003:00000054       Winapi.Messages..1
 0003:00000058       Dbx34DrvDbms..52
 0003:0000005C       Dbx34Drv..71
 0003:00000060       DbxXXDrv..1
 0003:00000064       DbxDBFix..1
 0004:00000000       SysInit.TlsLast
 0005:00000000       SysInit..$Sysinit$AllocTlsBuffer$_eh1
 0005:0000000C       SysInit..$Sysinit$GetTlsSize$_eh1
 0005:00000018       SysInit..$Sysinit$InitThreadTLS$_eh1
 0005:00000024       SysInit..$Sysinit$InitProcessTLS$_eh1
 0005:00000030       SysInit..$Sysinit$ExitThreadTLS$_eh1
 0005:0000003C       SysInit..$Sysinit$ExitProcessTLS$_eh1
 0005:00000048       SysInit..$Sysinit$InitializeModule$_eh1
 0005:00000054       SysInit..$Sysinit$UninitializeModule$_eh1
 0005:00000060       SysInit..$Sysinit$_InitPkg$_eh1
 0005:0000006C       SysInit..$Sysinit$_PackageLoad$_eh1
 0005:00000078       SysInit..$Sysinit$_PackageUnload$_eh1
 0005:00000084       SysInit..$pdata$__delayLoadHelper2
 0005:00000090       SysInit..$pdata$?FLoadedAtPreferredAddress@@YA_NPEAU_IMAGE_NT_HEADERS64@@PEAUHINSTANCE__@@@Z
 0005:0000009C       SysInit..$pdata$__FUnloadDelayLoadedDLL2
 0005:000000A8       SysInit..$pdata$?__strlen@@YA_KPEBD@Z
 0005:000000B4       SysInit..$pdata$?OverlayIAT@@YAXPEAU_IMAGE_THUNK_DATA64@@PEBU1@@Z
 0005:000000C0       SysInit..$pdata$?__memcpy@@YAPEAXPEAXPEBX_K@Z
 0005:000000CC       SysInit..$pdata$__HrLoadAllImportsForDll
 0005:000000D8       SysInit..$pdata$ShutdownDelayHelp2
 0005:000000E4       SysInit..$pdata$??0ULI@@QEAA@PEBUImgDelayDescr@@@Z
 0005:000000F0       SysInit..$pdata$??_GULI@@QEAAPEAXI@Z
 0005:000000FC       SysInit..$pdata$HRESULT_FROM_WIN32
 0005:00000108       SysInit..$pdata$??1ULI@@QEAA@XZ
 0005:00000114       SysInit..$pdata$?Unlink@ULI@@QEAAXXZ
 0005:00000120       SysInit..$pdata$??3ULI@@SAXPEAX@Z
 0005:0000012C       SysInit..$pdata$??2ULI@@SAPEAX_K@Z
 0005:00000138       SysInit..$pdata$?CountOfImports@@YAIPEBU_IMAGE_THUNK_DATA64@@@Z
 0005:00000144       SysInit..$Sysinit$Finalization$_eh1
 0005:00000150       SysInit..$Sysinit$SysInit$_eh1
 0005:0000015C       Winapi.Windows..$Winapi_Windows$InitVersionInfo$_eh1
 0005:00000168       Winapi.Windows..$Winapi_Windows$Finalization$_eh1
 0005:00000174       Winapi.Windows..$Winapi_Windows$Winapi.Windows$_eh1
 0005:00000180       Winapi.PsAPI..$Winapi_Psapi$Finalization$_eh1
 0005:0000018C       Winapi.PsAPI..$Winapi_Psapi$Winapi.PsAPI$_eh1
 0005:00000198       Winapi.Messages..$Winapi_Messages$Finalization$_eh1
 0005:000001A4       Winapi.Messages..$Winapi_Messages$Winapi.Messages$_eh1
 0005:000001B0       Dbx34DrvDbms..$Dbx34drvdbms$TDBXOpenODBCMetaDataCommandFactoryOracle.GetMetaDataReaderClass$_eh1
 0005:000001BC       Dbx34DrvDbms..$Dbx34drvdbms$TDBXOpenODBCMetaDataReaderOracle.GetProductName$_eh1
 0005:000001C8       Dbx34DrvDbms..$Dbx34drvdbms$TDBXOpenODBCMetaDataReaderOracle.GetSqlForSchemas$_eh1
 0005:000001D4       Dbx34DrvDbms..$Dbx34drvdbms$TDBXOpenODBCMetaDataReaderOracle.GetSqlForTables$_eh1
 0005:000001E0       Dbx34DrvDbms..$Dbx34drvdbms$TDBXOpenODBCMetaDataReaderOracle.GetSqlForColumns$_eh1
 0005:000001EC       Dbx34DrvDbms..$Dbx34drvdbms$TDBXOpenODBCMetaDataReaderOracle.GetSqlForIndexes$_eh1
 0005:000001F8       Dbx34DrvDbms..$Dbx34drvdbms$TDBXOpenODBCMetaDataReaderOracle.GetSqlForIndexColumns$_eh1
 0005:00000204       Dbx34DrvDbms..$Dbx34drvdbms$TDBXOpenODBCMetaDataReaderOracle.GetReservedWords$_eh1
 0005:0000021C       Dbx34DrvDbms..$Dbx34drvdbms$TDBXOpenODBCMetaDataReaderOracle.PopulateDataTypes$_eh1
 0005:00000228       Dbx34DrvDbms..$Dbx34drvdbms$TDBXOpenODBCMetaDataReaderOracle.GetDataTypeDescriptions$_eh1
 0005:00000240       Dbx34DrvDbms..$Dbx34drvdbms$TDBXOpenODBCMetaDataCommandFactoryMSSQL.GetMetaDataReaderClass$_eh1
 0005:0000024C       Dbx34DrvDbms..$Dbx34drvdbms$TDBXOpenODBCMetaDataReaderMSSQL.GetProductName$_eh1
 0005:00000258       Dbx34DrvDbms..$Dbx34drvdbms$TDBXOpenODBCMetaDataReaderMSSQL.GetSqlForTables$_eh1
 0005:00000270       Dbx34DrvDbms..$Dbx34drvdbms$TDBXOpenODBCMetaDataReaderMSSQL.GetSqlForColumns$_eh1
 0005:00000288       Dbx34DrvDbms..$Dbx34drvdbms$TDBXOpenODBCMetaDataReaderMSSQL.GetSqlForIndexes$_eh1
 0005:000002A0       Dbx34DrvDbms..$Dbx34drvdbms$TDBXOpenODBCMetaDataReaderMSSQL.GetSqlForIndexColumns$_eh1
 0005:000002B8       Dbx34DrvDbms..$Dbx34drvdbms$TDBXOpenODBCMetaDataReaderMSSQL.GetReservedWords$_eh1
 0005:000002D0       Dbx34DrvDbms..$Dbx34drvdbms$TDBXOpenODBCMetaDataReaderMSSQL.GetSqlIdentifierQuotePrefix$_eh1
 0005:000002DC       Dbx34DrvDbms..$Dbx34drvdbms$TDBXOpenODBCMetaDataReaderMSSQL.GetSqlIdentifierQuoteSuffix$_eh1
 0005:000002E8       Dbx34DrvDbms..$Dbx34drvdbms$TDBXOpenODBCMetaDataReaderMSSQL.GetTableType$_eh1
 0005:000002F4       Dbx34DrvDbms..$Dbx34drvdbms$TDBXOpenODBCMetaDataReaderMSSQL.GetViewType$_eh1
 0005:00000300       Dbx34DrvDbms..$Dbx34drvdbms$TDBXOpenODBCMetaDataReaderMSSQL.GetSystemTableType$_eh1
 0005:0000030C       Dbx34DrvDbms..$Dbx34drvdbms$TDBXOpenODBCMetaDataReaderMSSQL.GetSystemViewType$_eh1
 0005:00000318       Dbx34DrvDbms..$Dbx34drvdbms$TDBXOpenODBCMetaDataReaderMSSQL.GetSynonymType$_eh1
 0005:00000324       Dbx34DrvDbms..$Dbx34drvdbms$TDBXOpenODBCMetaDataReaderMSSQL.GetDataTypeDescriptions$_eh1
 0005:0000033C       Dbx34DrvDbms..$Dbx34drvdbms$TDBXOpenODBCMetaDataCommandFactoryMySQL.GetMetaDataReaderClass$_eh1
 0005:00000348       Dbx34DrvDbms..$Dbx34drvdbms$TDBXOpenODBCMetaDataReaderMySQL.GetProductName$_eh1
 0005:00000354       Dbx34DrvDbms..$Dbx34drvdbms$TDBXOpenODBCMetaDataReaderMySQL.GetSqlForTables$_eh1
 0005:0000036C       Dbx34DrvDbms..$Dbx34drvdbms$TDBXOpenODBCMetaDataReaderMySQL.GetSqlForColumns$_eh1
 0005:00000384       Dbx34DrvDbms..$Dbx34drvdbms$TDBXOpenODBCMetaDataReaderMySQL.GetSqlForIndexes$_eh1
 0005:0000039C       Dbx34DrvDbms..$Dbx34drvdbms$TDBXOpenODBCMetaDataReaderMySQL.GetSqlForIndexColumns$_eh1
 0005:000003B4       Dbx34DrvDbms..$Dbx34drvdbms$TDBXOpenODBCMetaDataReaderMySQL.GetReservedWords$_eh1
 0005:000003CC       Dbx34DrvDbms..$Dbx34drvdbms$TDBXOpenODBCMetaDataReaderMySQL.GetSqlIdentifierQuotePrefix$_eh1
 0005:000003D8       Dbx34DrvDbms..$Dbx34drvdbms$TDBXOpenODBCMetaDataReaderMySQL.GetSqlIdentifierQuoteSuffix$_eh1
 0005:000003E4       Dbx34DrvDbms..$Dbx34drvdbms$TDBXOpenODBCMetaDataReaderMySQL.GetSqlIdentifierQuoteChar$_eh1
 0005:000003F0       Dbx34DrvDbms..$Dbx34drvdbms$TDBXOpenODBCMetaDataReaderMySQL.GetTableType$_eh1
 0005:000003FC       Dbx34DrvDbms..$Dbx34drvdbms$TDBXOpenODBCMetaDataReaderMySQL.IsDescendingIndexColumnsSupported$_eh1
 0005:00000408       Dbx34DrvDbms..$Dbx34drvdbms$TDBXOpenODBCMetaDataReaderMySQL.IsUpperCaseIdentifiersSupported$_eh1
 0005:00000414       Dbx34DrvDbms..$Dbx34drvdbms$TDBXOpenODBCMetaDataReaderMySQL.IsMultipleCommandsSupported$_eh1
 0005:00000420       Dbx34DrvDbms..$Dbx34drvdbms$TDBXOpenODBCMetaDataReaderMySQL.SetContext$_eh1
 0005:00000438       Dbx34DrvDbms..$Dbx34drvdbms$TDBXOpenODBCMetaDataReaderMySQL.PopulateDataTypes$_eh1
 0005:00000444       Dbx34DrvDbms..$Dbx34drvdbms$TDBXOpenODBCMetaDataReaderMySQL.GetDataTypeDescriptions$_eh1
 0005:0000045C       Dbx34DrvDbms..$Dbx34drvdbms$TDBXOpenODBCMetaDataCommandFactorySybaseASA.GetMetaDataReaderClass$_eh1
 0005:00000468       Dbx34DrvDbms..$Dbx34drvdbms$TDBXOpenODBCMetaDataReaderSybaseASA.GetProductName$_eh1
 0005:00000474       Dbx34DrvDbms..$Dbx34drvdbms$TDBXOpenODBCMetaDataReaderSybaseASA.SetContext$_eh1
 0005:0000048C       Dbx34DrvDbms..$Dbx34drvdbms$TDBXOpenODBCMetaDataReaderSybaseASA.GetSqlForTables$_eh1
 0005:00000498       Dbx34DrvDbms..$Dbx34drvdbms$TDBXOpenODBCMetaDataReaderSybaseASA.GetSqlForColumns$_eh1
 0005:000004A4       Dbx34DrvDbms..$Dbx34drvdbms$TDBXOpenODBCMetaDataReaderSybaseASA.GetSqlForIndexes$_eh1
 0005:000004BC       Dbx34DrvDbms..$Dbx34drvdbms$TDBXOpenODBCMetaDataReaderSybaseASA.GetSqlForIndexColumns$_eh1
 0005:000004D4       Dbx34DrvDbms..$Dbx34drvdbms$TDBXOpenODBCMetaDataReaderSybaseASA.GetReservedWords$_eh1
 0005:000004EC       Dbx34DrvDbms..$Dbx34drvdbms$TDBXOpenODBCMetaDataReaderSybaseASA.GetTableType$_eh1
 0005:000004F8       Dbx34DrvDbms..$Dbx34drvdbms$TDBXOpenODBCMetaDataReaderSybaseASA.GetViewType$_eh1
 0005:00000504       Dbx34DrvDbms..$Dbx34drvdbms$TDBXOpenODBCMetaDataReaderSybaseASA.GetSystemTableType$_eh1
 0005:00000510       Dbx34DrvDbms..$Dbx34drvdbms$TDBXOpenODBCMetaDataReaderSybaseASA.GetSystemViewType$_eh1
 0005:0000051C       Dbx34DrvDbms..$Dbx34drvdbms$TDBXOpenODBCMetaDataReaderSybaseASA.GetDataTypeDescriptions$_eh1
 0005:00000534       Dbx34DrvDbms..$Dbx34drvdbms$TDBXOpenODBCMetaDataCommandFactorySybaseASE.GetMetaDataReaderClass$_eh1
 0005:00000540       Dbx34DrvDbms..$Dbx34drvdbms$TDBXOpenODBCMetaDataReaderSybaseASE.GetProductName$_eh1
 0005:0000054C       Dbx34DrvDbms..$Dbx34drvdbms$TDBXOpenODBCMetaDataReaderSybaseASE.GetSqlForTables$_eh1
 0005:00000558       Dbx34DrvDbms..$Dbx34drvdbms$TDBXOpenODBCMetaDataReaderSybaseASE.GetSqlForColumns$_eh1
 0005:00000564       Dbx34DrvDbms..$Dbx34drvdbms$TDBXOpenODBCMetaDataReaderSybaseASE.GetSqlForIndexes$_eh1
 0005:00000570       Dbx34DrvDbms..$Dbx34drvdbms$TDBXOpenODBCMetaDataReaderSybaseASE.GetSqlForIndexColumns$_eh1
 0005:0000057C       Dbx34DrvDbms..$Dbx34drvdbms$TDBXOpenODBCMetaDataReaderSybaseASE.GetReservedWords$_eh1
 0005:00000594       Dbx34DrvDbms..$Dbx34drvdbms$TDBXOpenODBCMetaDataReaderSybaseASE.GetTableType$_eh1
 0005:000005A0       Dbx34DrvDbms..$Dbx34drvdbms$TDBXOpenODBCMetaDataReaderSybaseASE.GetViewType$_eh1
 0005:000005AC       Dbx34DrvDbms..$Dbx34drvdbms$TDBXOpenODBCMetaDataReaderSybaseASE.GetSystemTableType$_eh1
 0005:000005B8       Dbx34DrvDbms..$Dbx34drvdbms$TDBXOpenODBCMetaDataReaderSybaseASE.GetDataTypeDescriptions$_eh1
 0005:000005D0       Dbx34DrvDbms..$Dbx34drvdbms$TDBXOpenODBCMetaDataCommandFactoryDB2.GetMetaDataReaderClass$_eh1
 0005:000005DC       Dbx34DrvDbms..$Dbx34drvdbms$TDBXOpenODBCMetaDataReaderDB2.GetProductName$_eh1
 0005:000005E8       Dbx34DrvDbms..$Dbx34drvdbms$TDBXOpenODBCMetaDataReaderDB2.GetSqlForTables$_eh1
 0005:000005F4       Dbx34DrvDbms..$Dbx34drvdbms$TDBXOpenODBCMetaDataReaderDB2.GetSqlForColumns$_eh1
 0005:00000600       Dbx34DrvDbms..$Dbx34drvdbms$TDBXOpenODBCMetaDataReaderDB2.GetSqlForIndexes$_eh1
 0005:0000060C       Dbx34DrvDbms..$Dbx34drvdbms$TDBXOpenODBCMetaDataReaderDB2.GetSqlForIndexColumns$_eh1
 0005:00000618       Dbx34DrvDbms..$Dbx34drvdbms$TDBXOpenODBCMetaDataReaderDB2.GetReservedWords$_eh1
 0005:00000630       Dbx34DrvDbms..$Dbx34drvdbms$TDBXOpenODBCMetaDataReaderDB2.GetTableType$_eh1
 0005:0000063C       Dbx34DrvDbms..$Dbx34drvdbms$TDBXOpenODBCMetaDataReaderDB2.GetViewType$_eh1
 0005:00000648       Dbx34DrvDbms..$Dbx34drvdbms$TDBXOpenODBCMetaDataReaderDB2.GetSystemTableType$_eh1
 0005:00000654       Dbx34DrvDbms..$Dbx34drvdbms$TDBXOpenODBCMetaDataReaderDB2.GetSqlProcedureQuoteChar$_eh1
 0005:00000660       Dbx34DrvDbms..$Dbx34drvdbms$TDBXOpenODBCMetaDataReaderDB2.GetDataTypeDescriptions$_eh1
 0005:00000678       Dbx34DrvDbms..$Dbx34drvdbms$TDBXOpenODBCMetaDataCommandFactoryInformix.GetMetaDataReaderClass$_eh1
 0005:00000684       Dbx34DrvDbms..$Dbx34drvdbms$TDBXOpenODBCMetaDataReaderInformix.GetProductName$_eh1
 0005:00000690       Dbx34DrvDbms..$Dbx34drvdbms$TDBXOpenODBCMetaDataReaderInformix.Destroy$_eh1
 0005:0000069C       Dbx34DrvDbms..$Dbx34drvdbms$TDBXOpenODBCMetaDataReaderInformix.GetSqlForTables$_eh1
 0005:000006A8       Dbx34DrvDbms..$Dbx34drvdbms$TDBXOpenODBCMetaDataReaderInformix.GetSqlForColumns$_eh1
 0005:000006B4       Dbx34DrvDbms..$Dbx34drvdbms$TDBXOpenODBCMetaDataReaderInformix.GetSqlForIndexes$_eh1
 0005:000006C0       Dbx34DrvDbms..$Dbx34drvdbms$TDBXOpenODBCMetaDataReaderInformix.GetSqlForIndexColumns$_eh1
 0005:000006CC       Dbx34DrvDbms..$Dbx34drvdbms$TDBXOpenODBCMetaDataReaderInformix.GetReservedWords$_eh1
 0005:000006E4       Dbx34DrvDbms..$Dbx34drvdbms$TDBXOpenODBCMetaDataReaderInformix.GetTableType$_eh1
 0005:000006F0       Dbx34DrvDbms..$Dbx34drvdbms$TDBXOpenODBCMetaDataReaderInformix.GetViewType$_eh1
 0005:000006FC       Dbx34DrvDbms..$Dbx34drvdbms$TDBXOpenODBCMetaDataReaderInformix.GetSystemTableType$_eh1
 0005:00000708       Dbx34DrvDbms..$Dbx34drvdbms$TDBXOpenODBCMetaDataReaderInformix.GetSynonymType$_eh1
 0005:00000714       Dbx34DrvDbms..$Dbx34drvdbms$TDBXOpenODBCMetaDataReaderInformix.IsUpperCaseIdentifiersSupported$_eh1
 0005:00000720       Dbx34DrvDbms..$Dbx34drvdbms$TDBXOpenODBCMetaDataReaderInformix.GetAllDataTypes$_eh1
 0005:00000738       Dbx34DrvDbms..$Dbx34drvdbms$TDBXOpenODBCMetaDataReaderInformix.GetDataTypeDescriptions$_eh1
 0005:00000750       Dbx34DrvDbms..$Dbx34drvdbms$TDBXOpenODBCMetaDataCommandFactoryDataStorage.GetMetaDataReaderClass$_eh1
 0005:0000075C       Dbx34DrvDbms..$Dbx34drvdbms$TDBXOpenODBCMetaDataReaderDataStorage.GetSqlForTables$_eh1
 0005:00000768       Dbx34DrvDbms..$Dbx34drvdbms$TDBXOpenODBCMetaDataReaderDataStorage.GetSqlForColumns$_eh1
 0005:00000774       Dbx34DrvDbms..$Dbx34drvdbms$TDBXOpenODBCMetaDataReaderDataStorage.GetSqlForIndexes$_eh1
 0005:00000780       Dbx34DrvDbms..$Dbx34drvdbms$TDBXOpenODBCMetaDataReaderDataStorage.GetSqlForIndexColumns$_eh1
 0005:0000078C       Dbx34DrvDbms..$Dbx34drvdbms$TDBXOpenODBCMetaDataCommandFactoryFirebird.GetMetaDataReaderClass$_eh1
 0005:00000798       Dbx34DrvDbms..$Dbx34drvdbms$TDBXOpenODBCMetaDataReaderFirebird.GetProductName$_eh1
 0005:000007A4       Dbx34DrvDbms..$Dbx34drvdbms$TDBXOpenODBCMetaDataReaderFirebird.Destroy$_eh1
 0005:000007B0       Dbx34DrvDbms..$Dbx34drvdbms$TDBXOpenODBCMetaDataReaderFirebird.GetSqlForTables$_eh1
 0005:000007BC       Dbx34DrvDbms..$Dbx34drvdbms$TDBXOpenODBCMetaDataReaderFirebird.GetSqlForColumns$_eh1
 0005:000007C8       Dbx34DrvDbms..$Dbx34drvdbms$TDBXOpenODBCMetaDataReaderFirebird.GetSqlForIndexes$_eh1
 0005:000007D4       Dbx34DrvDbms..$Dbx34drvdbms$TDBXOpenODBCMetaDataReaderFirebird.GetSqlForIndexColumns$_eh1
 0005:000007E0       Dbx34DrvDbms..$Dbx34drvdbms$TDBXOpenODBCMetaDataReaderFirebird.GetReservedWords$_eh1
 0005:000007F8       Dbx34DrvDbms..$Dbx34drvdbms$TDBXOpenODBCMetaDataReaderFirebird.IsDescendingIndexColumnsSupported$_eh1
 0005:00000804       Dbx34DrvDbms..$Dbx34drvdbms$TDBXOpenODBCMetaDataReaderFirebird.SetContext$_eh1
 0005:0000081C       Dbx34DrvDbms..$Dbx34drvdbms$TDBXOpenODBCMetaDataReaderFirebird.GetAllDataTypes$_eh1
 0005:00000834       Dbx34DrvDbms..$Dbx34drvdbms$TDBXOpenODBCMetaDataReaderFirebird.GetDataTypeDescriptions$_eh1
 0005:0000084C       Dbx34DrvDbms..$Dbx34drvdbms$TDBXOpenODBCMetaDataCommandFactoryInterbase.GetMetaDataReaderClass$_eh1
 0005:00000858       Dbx34DrvDbms..$Dbx34drvdbms$TDBXOpenODBCMetaDataReaderInterbase.GetProductName$_eh1
 0005:00000864       Dbx34DrvDbms..$Dbx34drvdbms$TDBXOpenODBCMetaDataReaderInterbase.Destroy$_eh1
 0005:00000870       Dbx34DrvDbms..$Dbx34drvdbms$TDBXOpenODBCMetaDataReaderInterbase.GetSqlForTables$_eh1
 0005:0000087C       Dbx34DrvDbms..$Dbx34drvdbms$TDBXOpenODBCMetaDataReaderInterbase.GetSqlForColumns$_eh1
 0005:00000888       Dbx34DrvDbms..$Dbx34drvdbms$TDBXOpenODBCMetaDataReaderInterbase.GetSqlForIndexes$_eh1
 0005:00000894       Dbx34DrvDbms..$Dbx34drvdbms$TDBXOpenODBCMetaDataReaderInterbase.GetSqlForIndexColumns$_eh1
 0005:000008A0       Dbx34DrvDbms..$Dbx34drvdbms$TDBXOpenODBCMetaDataReaderInterbase.GetReservedWords$_eh1
 0005:000008B8       Dbx34DrvDbms..$Dbx34drvdbms$TDBXOpenODBCMetaDataReaderInterbase.IsDescendingIndexColumnsSupported$_eh1
 0005:000008C4       Dbx34DrvDbms..$Dbx34drvdbms$TDBXOpenODBCMetaDataReaderInterbase.SetContext$_eh1
 0005:000008DC       Dbx34DrvDbms..$Dbx34drvdbms$TDBXOpenODBCMetaDataReaderInterbase.GetAllDataTypes$_eh1
 0005:000008F4       Dbx34DrvDbms..$Dbx34drvdbms$TDBXOpenODBCMetaDataReaderInterbase.GetDataTypeDescriptions$_eh1
 0005:0000090C       Dbx34DrvDbms..$Dbx34drvdbms$TDBXOpenODBCMetaDataCommandFactorySQLite.GetMetaDataReaderClass$_eh1
 0005:00000918       Dbx34DrvDbms..$Dbx34drvdbms$TDBXOpenODBCMetaDataReaderSQLite.GetSqlForTables$_eh1
 0005:00000924       Dbx34DrvDbms..$Dbx34drvdbms$TDBXOpenODBCMetaDataCommandFactoryPostgreSQL.GetMetaDataReaderClass$_eh1
 0005:00000930       Dbx34DrvDbms..$Dbx34drvdbms$TDBXOpenODBCMetaDataReaderPostgreSQL.GetSqlForTables$_eh1
 0005:0000093C       Dbx34DrvDbms..$Dbx34drvdbms$TDBXOpenODBCMetaDataReaderPostgreSQL.GetSqlForColumns$_eh1
 0005:00000948       Dbx34DrvDbms..$Dbx34drvdbms$TDBXOpenODBCMetaDataReaderPostgreSQL.GetSqlForIndexes$_eh1
 0005:00000954       Dbx34DrvDbms..$Dbx34drvdbms$TDBXOpenODBCMetaDataReaderPostgreSQL.GetSqlForIndexColumns$_eh1
 0005:0000096C       Dbx34DrvDbms..$Dbx34drvdbms$TDBXOpenODBCMetaDataReaderPostgreSQL.GetReservedWords$_eh1
 0005:00000984       Dbx34DrvDbms..$Dbx34drvdbms$Finalization$_eh1
 0005:00000990       Dbx34DrvDbms..$Dbx34drvdbms$Dbx34DrvDbms$_eh1
 0005:0000099C       Dbx34Drv..$Dbx34drv$DBXStringArrayToNamedQueryParams$_eh1
 0005:000009B4       Dbx34Drv..$Dbx34drv$DBXStringArrayToErrorInfo$_eh1
 0005:000009CC       Dbx34Drv..$Dbx34drv$ErrorGetVendorPropertyCommand$_eh1
 0005:000009E4       Dbx34Drv..$Dbx34drv$CheckGetVendorPropertyCommand$_eh1
 0005:000009FC       Dbx34Drv..$Dbx34drv$CheckPathEnvironmet$_eh1
 0005:00000A14       Dbx34Drv..$Dbx34drv$CheckLibraryPath$_eh1
 0005:00000A2C       Dbx34Drv..$Dbx34drv$CheckLibraryName$_eh1
 0005:00000A38       Dbx34Drv..$Dbx34drv$CheckVendorLib$_eh1
 0005:00000A44       Dbx34Drv..$Dbx34drv$TDbxOpenOdbcDriver.Create$_eh1
 0005:00000A68       Dbx34Drv..$Dbx34drv$TDbxOpenOdbcDriver.CreateCommandOpenOdbc$_eh1
 0005:00000A74       Dbx34Drv..$Dbx34drv$TDbxOpenOdbcDriver.CreateConnection$_eh1
 0005:00000A80       Dbx34Drv..$Dbx34drv$TDbxOpenOdbcDriver.LoadDriverWithConnectionBuilder$_eh1
 0005:00000A98       Dbx34Drv..$Dbx34drv$TDbxOpenOdbcDriver.GetDriverPropertyNames$_eh1
 0005:00000AA4       Dbx34Drv..$Dbx34drv$TDbxOpenOdbcDriver.GetDriverVersion$_eh1
 0005:00000ABC       Dbx34Drv..$Dbx34drv$TDBXOpenOdbcProperties.Create$_eh1
 0005:00000AE0       Dbx34Drv..$Dbx34drv$TDBXOpenOdbcProperties.GetConnectionString$_eh1
 0005:00000AEC       Dbx34Drv..$Dbx34drv$TDBXOpenOdbcProperties.SetConnectionString$_eh1
 0005:00000AF8       Dbx34Drv..$Dbx34drv$TDBXOpenOdbcProperties.GetDatabase$_eh1
 0005:00000B04       Dbx34Drv..$Dbx34drv$TDBXOpenOdbcProperties.SetDatabase$_eh1
 0005:00000B10       Dbx34Drv..$Dbx34drv$TDBXOpenOdbcProperties.GetUserName$_eh1
 0005:00000B1C       Dbx34Drv..$Dbx34drv$TDBXOpenOdbcProperties.SetUserName$_eh1
 0005:00000B28       Dbx34Drv..$Dbx34drv$TDBXOpenOdbcProperties.GetPassWord$_eh1
 0005:00000B34       Dbx34Drv..$Dbx34drv$TDBXOpenOdbcProperties.SetPassWord$_eh1
 0005:00000B40       Dbx34Drv..$Dbx34drv$TDBXOpenOdbcProperties.GetBlobSize$_eh1
 0005:00000B58       Dbx34Drv..$Dbx34drv$TDBXOpenOdbcProperties.SetBlobSize$_eh1
 0005:00000B70       Dbx34Drv..$Dbx34drv$TDBXOpenOdbcProperties.GetOdbcTransIsolation$_eh1
 0005:00000B7C       Dbx34Drv..$Dbx34drv$TDBXOpenOdbcProperties.SetOdbcTransIsolation$_eh1
 0005:00000B88       Dbx34Drv..$Dbx34drv$TDBXOpenOdbcProperties.GetDecimalSeparator$_eh1
 0005:00000B94       Dbx34Drv..$Dbx34drv$TDBXOpenOdbcProperties.SetDecimalSeparator$_eh1
 0005:00000BA0       Dbx34Drv..$Dbx34drv$TDBXOpenOdbcProperties.GetTrimChar$_eh1
 0005:00000BB8       Dbx34Drv..$Dbx34drv$TDBXOpenOdbcProperties.SetTrimChar$_eh1
 0005:00000BD0       Dbx34Drv..$Dbx34drv$TDBXOpenOdbcProperties.GetCustomString$_eh1
 0005:00000BDC       Dbx34Drv..$Dbx34drv$TDBXOpenOdbcProperties.SetCustomString$_eh1
 0005:00000BE8       Dbx34Drv..$Dbx34drv$TDBXDynalinkDriverLoaderOpenOdbc.LoadDriverLibraryAndMethodTable$_eh1
 0005:00000C18       Dbx34Drv..$Dbx34drv$TDBXDynalinkDriverLoaderOpenOdbc.FreeOldLibrary$_eh1
 0005:00000C24       Dbx34Drv..$Dbx34drv$TDBXDynalinkConnectionOpenOdbc.GetProductVersion$_eh1
 0005:00000C30       Dbx34Drv..$Dbx34drv$TDBXDynalinkConnectionOpenOdbc.GetProductName$_eh1
 0005:00000C3C       Dbx34Drv..$Dbx34drv$TDBXDynalinkConnectionOpenOdbc.DerivedGetCommands$_eh1
 0005:00000C48       Dbx34Drv..$Dbx34drv$TDBXDynalinkConnectionOpenOdbc.DerivedGetCommandTypes$_eh1
 0005:00000C54       Dbx34Drv..$Dbx34drv$RaiseDriverVersionFailed$_eh1
 0005:00000C60       Dbx34Drv..$Dbx34drv$TDBXDynalinkConnectionOpenOdbc.DerivedOpen$_eh1
 0005:00000C78       Dbx34Drv..$Dbx34drv$TDBXDynalinkConnectionOpenOdbc.DoDerivedOpenBefore$_eh1
 0005:00000C90       Dbx34Drv..$Dbx34drv$TDBXDynalinkConnectionOpenOdbc.DoDerivedOpenAfter$_eh1
 0005:00000CA8       Dbx34Drv..$Dbx34drv$TDBXDynalinkConnectionOpenOdbc.DerivedClose$_eh1
 0005:00000CB4       Dbx34Drv..$Dbx34drv$TDBXDynalinkConnectionOpenOdbc.GetDatabaseMetaData$_eh1
 0005:00000CC0       Dbx34Drv..$Dbx34drv$TDBXDynalinkConnectionOpenOdbc.Close$_eh1
 0005:00000CCC       Dbx34Drv..$Dbx34drv$TDBXDynalinkConnectionOpenOdbc.DerivedCreateCommand$_eh1
 0005:00000CD8       Dbx34Drv..$Dbx34drv$TDBXDynalinkConnectionOpenOdbc.GetVendorProperty$_eh1
 0005:00000CE4       Dbx34Drv..$Dbx34drv$TDBXMorphicCommandOpenOdbc.Create$_eh1
 0005:00000CFC       Dbx34Drv..$Dbx34drv$TDBXMorphicCommandOpenOdbc.DerivedExecuteQuery$_eh1
 0005:00000D08       Dbx34Drv..$Dbx34drv$TDBXCustomOpenODBCMetaDataReader.InitMetadata$_eh1
 0005:00000D20       Dbx34Drv..$Dbx34drv$TDBXCustomOpenODBCMetaDataReader.CheckMetadata$_eh1
 0005:00000D2C       Dbx34Drv..$Dbx34drv$TDBXCustomOpenODBCMetaDataReader.SetContext$_eh1
 0005:00000D38       Dbx34Drv..$Dbx34drv$TDBXCustomOpenODBCMetaDataReader.GetProductName$_eh1
 0005:00000D44       Dbx34Drv..$Dbx34drv$TDBXCustomOpenODBCMetaDataReader.GetSqlIdentifierQuotePrefix$_eh1
 0005:00000D50       Dbx34Drv..$Dbx34drv$TDBXCustomOpenODBCMetaDataReader.GetSqlIdentifierQuoteSuffix$_eh1
 0005:00000D5C       Dbx34Drv..$Dbx34drv$TDBXCustomOpenODBCMetaDataReader.IsParameterMetadataSupported$_eh1
 0005:00000D68       Dbx34Drv..$Dbx34drv$TDBXCustomOpenODBCMetaDataReader.IsLowerCaseIdentifiersSupported$_eh1
 0005:00000D74       Dbx34Drv..$Dbx34drv$TDBXCustomOpenODBCMetaDataReader.IsUpperCaseIdentifiersSupported$_eh1
 0005:00000D80       Dbx34Drv..$Dbx34drv$TDBXCustomOpenODBCMetaDataReader.IsDescendingIndexSupported$_eh1
 0005:00000D8C       Dbx34Drv..$Dbx34drv$TDBXCustomOpenODBCMetaDataReader.IsDescendingIndexColumnsSupported$_eh1
 0005:00000D98       Dbx34Drv..$Dbx34drv$TDBXCustomOpenODBCMetaDataReader.GetSqlIdentifierQuoteChar$_eh1
 0005:00000DA4       Dbx34Drv..$Dbx34drv$TDBXCustomOpenODBCMetaDataReader.GetSqlProcedureQuoteChar$_eh1
 0005:00000DB0       Dbx34Drv..$Dbx34drv$TDBXCustomOpenODBCMetaDataReader.IsMultipleCommandsSupported$_eh1
 0005:00000DBC       Dbx34Drv..$Dbx34drv$TDBXCustomOpenODBCMetaDataReader.IsTransactionsSupported$_eh1
 0005:00000DC8       Dbx34Drv..$Dbx34drv$TDBXCustomOpenODBCMetaDataReader.IsNestedTransactionsSupported$_eh1
 0005:00000DD4       Dbx34Drv..$Dbx34drv$TDBXCustomOpenODBCMetaDataReader.IsSetRowSizeSupported$_eh1
 0005:00000DE0       Dbx34Drv..$Dbx34drv$TDBXCustomOpenODBCMetaDataReader.GetUseAnsiStrings$_eh1
 0005:00000DEC       Dbx34Drv..$Dbx34drv$TDBXOpenODBCMetaDataCommand.DerivedExecuteQuery$_eh1
 0005:00000DF8       Dbx34Drv..$Dbx34drv$TDBXOpenODBCMetaDataCommandFactoryCustom.CreateMetaDataReader$_eh1
 0005:00000E04       Dbx34Drv..$Dbx34drv$TDBXOpenODBCMetaDataCommandFactory.GetMetaDataReaderClass$_eh1
 0005:00000E10       Dbx34Drv..$Dbx34drv$TDBXOpenODBCMetaDataCommandFactory.InitMetaDataReaderClass$_eh1
 0005:00000E34       Dbx34Drv..$Dbx34drv$TDBXOpenODBCMetaDataCommandFactory.CreateCommand$_eh1
 0005:00000E4C       Dbx34Drv..$Dbx34drv$TDBXOpenODBCMetaDataCommandFactory.GetProductName$_eh1
 0005:00000E58       Dbx34Drv..$Dbx34drv$TDBXOpenODBCMetaDataCommandFactory.CreateMetaDataReader$_eh1
 0005:00000E70       Dbx34Drv..$Dbx34drv$TDBXOpenODBCMetaDataCommandFactory.CreateMetaDataReader$_eh1
 0005:00000E7C       Dbx34Drv..$Dbx34drv$TDBXOpenODBCMetaDataCommandFactory.RegisterMetaDataCommandFactory$_eh1
 0005:00000E88       Dbx34Drv..$Dbx34drv$TDBXOpenODBCMetaDataCommandFactory.UnRegisterMetaDataCommandFactory$_eh1
 0005:00000E94       Dbx34Drv..$Dbx34drv$TDBXOpenODBCMetaDataReader.Create$_eh1
 0005:00000EAC       Dbx34Drv..$Dbx34drv$TDBXOpenODBCMetaDataReader.FetchDataTypes$_eh1
 0005:00000EC4       Dbx34Drv..$Dbx34drv$TDBXOpenODBCMetaDataReader.FetchCatalogs$_eh1
 0005:00000EDC       Dbx34Drv..$Dbx34drv$TDBXOpenODBCMetaDataReader.FetchSchemas$_eh1
 0005:00000F00       Dbx34Drv..$Dbx34drv$TDBXOpenODBCMetaDataReader.FetchTables$_eh1
 0005:00000F30       Dbx34Drv..$Dbx34drv$TDBXOpenODBCMetaDataReader.FetchViews$_eh1
 0005:00000F54       Dbx34Drv..$Dbx34drv$TDBXOpenODBCMetaDataReader.FetchColumns$_eh1
 0005:00000F78       Dbx34Drv..$Dbx34drv$TDBXOpenODBCMetaDataReader.FetchColumnConstraints$_eh1
 0005:00000F9C       Dbx34Drv..$Dbx34drv$TDBXOpenODBCMetaDataReader.FetchForeignKeyColumns$_eh1
 0005:00000FC0       Dbx34Drv..$Dbx34drv$TDBXOpenODBCMetaDataReader.FetchForeignKeys$_eh1
 0005:00000FE4       Dbx34Drv..$Dbx34drv$TDBXOpenODBCMetaDataReader.FetchIndexColumns$_eh1
 0005:00001014       Dbx34Drv..$Dbx34drv$TDBXOpenODBCMetaDataReader.FetchIndexes$_eh1
 0005:00001044       Dbx34Drv..$Dbx34drv$TDBXOpenODBCMetaDataReader.FetchProcedures$_eh1
 0005:00001068       Dbx34Drv..$Dbx34drv$TDBXOpenODBCMetaDataReader.FetchProcedureSources$_eh1
 0005:0000108C       Dbx34Drv..$Dbx34drv$TDBXOpenODBCMetaDataReader.FetchSynonyms$_eh1
 0005:000010B0       Dbx34Drv..$Dbx34drv$TDBXOpenODBCMetaDataReader.FetchProcedureParameters$_eh1
 0005:000010D4       Dbx34Drv..$Dbx34drv$TDBXOpenODBCMetaDataReader.FetchPackages$_eh1
 0005:000010F8       Dbx34Drv..$Dbx34drv$TDBXOpenODBCMetaDataReader.FetchPackageProcedures$_eh1
 0005:0000111C       Dbx34Drv..$Dbx34drv$TDBXOpenODBCMetaDataReader.FetchPackageProcedureParameters$_eh1
 0005:00001140       Dbx34Drv..$Dbx34drv$TDBXOpenODBCMetaDataReader.FetchPackageSources$_eh1
 0005:00001164       Dbx34Drv..$Dbx34drv$TDBXOpenODBCMetaDataReader.FetchUsers$_eh1
 0005:00001188       Dbx34Drv..$Dbx34drv$TDBXOpenODBCMetaDataReader.FetchRoles$_eh1
 0005:000011AC       Dbx34Drv..$Dbx34drv$TDBXOpenODBCMetaDataReader.FetchReservedWords$_eh1
 0005:000011D0       Dbx34Drv..$Dbx34drv$TDBXOpenODBCMetaDataReader.GetProductName$_eh1
 0005:000011DC       Dbx34Drv..$Dbx34drv$TDBXOpenODBCMetaDataReader.GetReservedWords$_eh1
 0005:000011E8       Dbx34Drv..$Dbx34drv$TDBXOpenODBCMetaDataReader.GetSqlForColumns$_eh1
 0005:000011F4       Dbx34Drv..$Dbx34drv$TDBXOpenODBCMetaDataReader.GetSqlForForeignKeyColumns$_eh1
 0005:00001200       Dbx34Drv..$Dbx34drv$TDBXOpenODBCMetaDataReader.GetSqlForForeignKeys$_eh1
 0005:0000120C       Dbx34Drv..$Dbx34drv$TDBXOpenODBCMetaDataReader.GetSqlForIndexColumns$_eh1
 0005:00001218       Dbx34Drv..$Dbx34drv$TDBXOpenODBCMetaDataReader.GetSqlForIndexes$_eh1
 0005:00001224       Dbx34Drv..$Dbx34drv$TDBXOpenODBCMetaDataReader.GetSqlForPackageProcedureParameters$_eh1
 0005:00001230       Dbx34Drv..$Dbx34drv$TDBXOpenODBCMetaDataReader.GetSqlForPackageProcedures$_eh1
 0005:0000123C       Dbx34Drv..$Dbx34drv$TDBXOpenODBCMetaDataReader.GetSqlForPackages$_eh1
 0005:00001248       Dbx34Drv..$Dbx34drv$TDBXOpenODBCMetaDataReader.GetSqlForPackageSources$_eh1
 0005:00001254       Dbx34Drv..$Dbx34drv$TDBXOpenODBCMetaDataReader.GetSqlForProcedureParameters$_eh1
 0005:00001260       Dbx34Drv..$Dbx34drv$TDBXOpenODBCMetaDataReader.GetSqlForProcedures$_eh1
 0005:0000126C       Dbx34Drv..$Dbx34drv$TDBXOpenODBCMetaDataReader.GetSqlForProcedureSources$_eh1
 0005:00001278       Dbx34Drv..$Dbx34drv$TDBXOpenODBCMetaDataReader.GetSqlForRoles$_eh1
 0005:00001284       Dbx34Drv..$Dbx34drv$TDBXOpenODBCMetaDataReader.GetSqlForSchemas$_eh1
 0005:00001290       Dbx34Drv..$Dbx34drv$TDBXOpenODBCMetaDataReader.GetSqlForSynonyms$_eh1
 0005:0000129C       Dbx34Drv..$Dbx34drv$TDBXOpenODBCMetaDataReader.GetSqlForTables$_eh1
 0005:000012A8       Dbx34Drv..$Dbx34drv$TDBXOpenODBCMetaDataReader.GetSqlForUsers$_eh1
 0005:000012B4       Dbx34Drv..$Dbx34drv$TDBXOpenODBCMetaDataReader.GetSqlForViews$_eh1
 0005:000012C0       Dbx34Drv..$Dbx34drv$TDBXOpenODBCMetaDataReader.IsNestedTransactionsSupported$_eh1
 0005:000012CC       Dbx34Drv..$Dbx34drv$TDBXOpenODBCMetaDataReader.IsSetRowSizeSupported$_eh1
 0005:000012D8       Dbx34Drv..$Dbx34drv$Finalization$_eh1
 0005:000012F0       Dbx34Drv..$Dbx34drv$Dbx34Drv$_eh1
 0005:00001308       DbxXXDrv..$Dbxxxdrv$IsDbxDrvFixed$_eh1
 0005:00001314       DbxXXDrv..$Dbxxxdrv$Finalization$_eh1
 0005:00001320       DbxXXDrv..$Dbxxxdrv$DbxXXDrv$_eh1
 0005:0000132C       DbxDBFix..$Dbxdbfix$Finalization$_eh1
 0005:00001338       DbxDBFix..$Dbxdbfix$DbxDBFix$_eh1


Line numbers for SysInit(SysInit.pas) segment .text

   332 0001:000003D0   359 0001:000003E0   362 0001:000003F0   365 0001:00000400
   368 0001:00000410   371 0001:00000420   374 0001:00000430   389 0001:00000440
   404 0001:00000450   406 0001:00000460   407 0001:00000470   484 0001:00000480
   485 0001:00000484   486 0001:00000493   597 0001:000004A0   598 0001:000004A8
   605 0001:000004B0   610 0001:000004B5   611 0001:000004BC   615 0001:000004C0
   616 0001:000004D4   617 0001:000004DB   618 0001:000004E0   620 0001:000004ED
   621 0001:000004FB   625 0001:00000510   626 0001:00000514   628 0001:00000521
   629 0001:0000052C   630 0001:00000531   631 0001:00000543   636 0001:00000550
   637 0001:00000554   639 0001:00000561   640 0001:0000056A   641 0001:00000575
   642 0001:0000057A   643 0001:00000582   646 0001:00000590   649 0001:000005A0
   650 0001:000005A4   652 0001:000005B1   653 0001:000005B6   654 0001:000005BF
   655 0001:000005CA   766 0001:000005D0   767 0001:000005D4   768 0001:000005E0
   778 0001:000005F0   779 0001:000005F4   780 0001:00000600   781 0001:0000061A
   782 0001:00000626   857 0001:00000630   858 0001:00000639   859 0001:00000640
   860 0001:00000647   861 0001:0000064E   862 0001:00000659   863 0001:00000664
   864 0001:0000066B   865 0001:00000678   866 0001:00000685   867 0001:0000068A
   868 0001:00000691   869 0001:00000695   870 0001:0000069A   871 0001:0000069D
   902 0001:000006B0   903 0001:000006B4   904 0001:000006C0   907 0001:000006D0
   908 0001:000006D4   909 0001:000006E0

Line numbers for SysInit(SysInit.pas) segment .text

  1333 0001:00001460  1335 0001:00001479  1331 0001:00001480  1332 0001:0000148E

Line numbers for Dbx34DrvDbms(Dbx34DrvDbms.pas) segment .text

   563 0001:00006D00   564 0001:00006D07   569 0001:00006D10   570 0001:00006D18
   571 0001:00006D27   574 0001:00006D50   575 0001:00006D58   579 0001:00006D67
   582 0001:00006E40   583 0001:00006E48   590 0001:00006E57   593 0001:000073A0
   594 0001:000073A8   599 0001:000073B7   602 0001:000076D0   603 0001:000076D8
   609 0001:000076E7   612 0001:00007AE0   613 0001:00007AE8   619 0001:00007AF7
   624 0001:00007FC0   625 0001:00007FD5   626 0001:00007FF3   627 0001:00008003
   628 0001:00008017   629 0001:0000802B   630 0001:0000803F   631 0001:00008053
   632 0001:00008067   633 0001:0000807B   634 0001:0000808F   635 0001:000080A3
   636 0001:000080B7   637 0001:000080CB   638 0001:000080DF   639 0001:000080F3
   640 0001:00008107   641 0001:0000811B   642 0001:0000812F   643 0001:00008146
   644 0001:0000815D   645 0001:00008174   646 0001:0000818B   647 0001:000081A2
   648 0001:000081B9   649 0001:000081D0   650 0001:000081E7   651 0001:000081FE
   652 0001:00008215   653 0001:0000822C   654 0001:00008243   655 0001:0000825A
   656 0001:00008271   657 0001:00008288   658 0001:0000829F   659 0001:000082B6
   660 0001:000082CD   661 0001:000082E4   662 0001:000082FB   663 0001:00008312
   664 0001:00008329   665 0001:00008340   666 0001:00008357   667 0001:0000836E
   668 0001:00008385   669 0001:0000839C   670 0001:000083B3   671 0001:000083CA
   672 0001:000083E1   673 0001:000083F8   674 0001:0000840F   675 0001:00008426
   676 0001:0000843D   677 0001:00008454   678 0001:0000846B   679 0001:00008482
   680 0001:00008499   681 0001:000084B0   682 0001:000084C7   683 0001:000084DE
   684 0001:000084F5   685 0001:0000850C   686 0001:00008523   687 0001:0000853A
   688 0001:00008551   689 0001:00008568   690 0001:0000857F   691 0001:00008596
   692 0001:000085AD   693 0001:000085C4   694 0001:000085DB   695 0001:000085F2
   696 0001:00008609   697 0001:00008620   698 0001:00008637   699 0001:0000864E
   700 0001:00008665   701 0001:0000867C   702 0001:00008693   703 0001:000086AA
   704 0001:000086C1   705 0001:000086D8   706 0001:000086EF   707 0001:00008704
   717 0001:00008F40   718 0001:00008F48   719 0001:00008F50   720 0001:00008FC3
   721 0001:00008FD2   722 0001:00009045   723 0001:00009054   724 0001:000090C7
   725 0001:000090D6   730 0001:00009160   731 0001:0000917B   732 0001:0000919C
   733 0001:00009222   734 0001:000092A9   735 0001:00009333   736 0001:000093BA
   737 0001:00009441   738 0001:000094C5   739 0001:00009546   740 0001:000095C7
   741 0001:00009651   742 0001:000096DB   743 0001:0000975C   744 0001:000097DD
   745 0001:00009867   746 0001:000098EE   747 0001:00009972   748 0001:000099FC
   749 0001:00009A89   750 0001:00009B16   751 0001:00009BA3   752 0001:00009C30
   753 0001:00009CBD   754 0001:00009D41   755 0001:00009D59   765 0001:0000A570
   766 0001:0000A577   771 0001:0000A580   772 0001:0000A588   773 0001:0000A597
   778 0001:0000A5E0   779 0001:0000A5FA   780 0001:0000A60C   781 0001:0000A620
   787 0001:0000A632   792 0001:0000A643   797 0001:0000AF30   798 0001:0000AF4A
   799 0001:0000AF5C   800 0001:0000AF70   805 0001:0000AF82   809 0001:0000AF93
   814 0001:0000BD10   815 0001:0000BD2A   816 0001:0000BD3C   817 0001:0000BD50
   823 0001:0000BD62   828 0001:0000BD73   833 0001:0000C870   834 0001:0000C88A
   835 0001:0000C89C   836 0001:0000C8B0   842 0001:0000C8C2   847 0001:0000C8D3
   852 0001:0000D320   853 0001:0000D335   854 0001:0000D353   855 0001:0000D363
   856 0001:0000D377   857 0001:0000D38B   858 0001:0000D39F   859 0001:0000D3B3
   860 0001:0000D3C7   861 0001:0000D3DB   862 0001:0000D3EF   863 0001:0000D403
   864 0001:0000D417   865 0001:0000D42B   866 0001:0000D43F   867 0001:0000D453
   868 0001:0000D467   869 0001:0000D47B   870 0001:0000D48F   871 0001:0000D4A6
   872 0001:0000D4BD   873 0001:0000D4D4   874 0001:0000D4EB   875 0001:0000D502
   876 0001:0000D519   877 0001:0000D530   878 0001:0000D547   879 0001:0000D55E
   880 0001:0000D575   881 0001:0000D58C   882 0001:0000D5A3   883 0001:0000D5BA
   884 0001:0000D5D1   885 0001:0000D5E8   886 0001:0000D5FF   887 0001:0000D616
   888 0001:0000D62D   889 0001:0000D644   890 0001:0000D65B   891 0001:0000D672
   892 0001:0000D689   893 0001:0000D6A0   894 0001:0000D6B7   895 0001:0000D6CE
   896 0001:0000D6E5   897 0001:0000D6FC   898 0001:0000D713   899 0001:0000D72A
   900 0001:0000D741   901 0001:0000D758   902 0001:0000D76F   903 0001:0000D786
   904 0001:0000D79D   905 0001:0000D7B4   906 0001:0000D7CB   907 0001:0000D7E2
   908 0001:0000D7F9   909 0001:0000D810   910 0001:0000D827   911 0001:0000D83E
   912 0001:0000D855   913 0001:0000D86C   914 0001:0000D883   915 0001:0000D89A
   916 0001:0000D8B1   917 0001:0000D8C8   918 0001:0000D8DF   919 0001:0000D8F6
   920 0001:0000D90D   921 0001:0000D924   922 0001:0000D93B   923 0001:0000D952
   924 0001:0000D969   925 0001:0000D980   926 0001:0000D997   927 0001:0000D9AE
   928 0001:0000D9C5   929 0001:0000D9DC   930 0001:0000D9F3   931 0001:0000DA0A
   932 0001:0000DA21   933 0001:0000DA38   934 0001:0000DA4F   935 0001:0000DA66
   936 0001:0000DA7D   937 0001:0000DA94   938 0001:0000DAAB   939 0001:0000DAC2
   940 0001:0000DAD9   941 0001:0000DAF0   942 0001:0000DB07   943 0001:0000DB1E
   944 0001:0000DB35   945 0001:0000DB4C   946 0001:0000DB63   947 0001:0000DB7A
   948 0001:0000DB91   949 0001:0000DBA8   950 0001:0000DBBF   951 0001:0000DBD6
   952 0001:0000DBED   953 0001:0000DC04   954 0001:0000DC1B   955 0001:0000DC32
   956 0001:0000DC49   957 0001:0000DC60   958 0001:0000DC77   959 0001:0000DC8E
   960 0001:0000DCA5   961 0001:0000DCBC   962 0001:0000DCD3   963 0001:0000DCEA
   964 0001:0000DD01   965 0001:0000DD18   966 0001:0000DD2F   967 0001:0000DD46
   968 0001:0000DD5D   969 0001:0000DD74   970 0001:0000DD8B   971 0001:0000DDA2
   972 0001:0000DDB9   973 0001:0000DDD0   974 0001:0000DDE7   975 0001:0000DDFE
   976 0001:0000DE15   977 0001:0000DE2C   978 0001:0000DE43   979 0001:0000DE5A
   980 0001:0000DE71   981 0001:0000DE88   982 0001:0000DE9F   983 0001:0000DEB6
   984 0001:0000DECD   985 0001:0000DEE4   986 0001:0000DEFB   987 0001:0000DF12
   988 0001:0000DF29   989 0001:0000DF40   990 0001:0000DF57   991 0001:0000DF6E
   992 0001:0000DF85   993 0001:0000DF9C   994 0001:0000DFB3   995 0001:0000DFCA
   996 0001:0000DFE1   997 0001:0000DFF8   998 0001:0000E00F   999 0001:0000E026
  1000 0001:0000E03D  1001 0001:0000E054  1002 0001:0000E06B  1003 0001:0000E082
  1004 0001:0000E099  1005 0001:0000E0B0  1006 0001:0000E0C7  1007 0001:0000E0DE
  1008 0001:0000E0F5  1009 0001:0000E10C  1010 0001:0000E123  1011 0001:0000E13A
  1012 0001:0000E151  1013 0001:0000E168  1014 0001:0000E17F  1015 0001:0000E196
  1016 0001:0000E1AD  1017 0001:0000E1C4  1018 0001:0000E1DB  1019 0001:0000E1F2
  1020 0001:0000E209  1021 0001:0000E220  1022 0001:0000E237  1023 0001:0000E24E
  1024 0001:0000E265  1025 0001:0000E27C  1026 0001:0000E293  1027 0001:0000E2AA
  1028 0001:0000E2C1  1029 0001:0000E2D8  1030 0001:0000E2EF  1031 0001:0000E306
  1032 0001:0000E31D  1033 0001:0000E334  1034 0001:0000E34B  1035 0001:0000E362
  1036 0001:0000E379  1037 0001:0000E390  1038 0001:0000E3A7  1039 0001:0000E3BE
  1040 0001:0000E3D5  1041 0001:0000E3EC  1042 0001:0000E403  1043 0001:0000E41A
  1044 0001:0000E431  1045 0001:0000E448  1046 0001:0000E45F  1047 0001:0000E476
  1048 0001:0000E48D  1049 0001:0000E4A4  1050 0001:0000E4BB  1051 0001:0000E4D2
  1052 0001:0000E4E9  1053 0001:0000E500  1054 0001:0000E517  1055 0001:0000E52E
  1056 0001:0000E545  1057 0001:0000E55C  1058 0001:0000E573  1059 0001:0000E58A
  1060 0001:0000E5A1  1061 0001:0000E5B8  1062 0001:0000E5CF  1063 0001:0000E5E6
  1064 0001:0000E5FD  1065 0001:0000E614  1066 0001:0000E62B  1067 0001:0000E642
  1068 0001:0000E659  1069 0001:0000E670  1070 0001:0000E687  1071 0001:0000E69E
  1072 0001:0000E6B5  1073 0001:0000E6CC  1074 0001:0000E6E3  1075 0001:0000E6FA
  1076 0001:0000E711  1077 0001:0000E728  1078 0001:0000E73F  1079 0001:0000E756
  1080 0001:0000E76D  1081 0001:0000E784  1082 0001:0000E79B  1083 0001:0000E7B2
  1084 0001:0000E7C9  1085 0001:0000E7E0  1086 0001:0000E7F7  1087 0001:0000E80E
  1088 0001:0000E825  1089 0001:0000E83C  1090 0001:0000E853  1091 0001:0000E86A
  1092 0001:0000E881  1093 0001:0000E898  1094 0001:0000E8AF  1095 0001:0000E8C6
  1096 0001:0000E8DD  1097 0001:0000E8F4  1098 0001:0000E90B  1099 0001:0000E922
  1100 0001:0000E939  1101 0001:0000E950  1102 0001:0000E967  1103 0001:0000E97E
  1104 0001:0000E995  1105 0001:0000E9AC  1106 0001:0000E9C3  1107 0001:0000E9DA
  1108 0001:0000E9F1  1109 0001:0000EA08  1110 0001:0000EA1F  1111 0001:0000EA36
  1112 0001:0000EA4D  1113 0001:0000EA64  1114 0001:0000EA7B  1115 0001:0000EA92
  1116 0001:0000EAA9  1117 0001:0000EAC0  1118 0001:0000EAD7  1119 0001:0000EAEE
  1120 0001:0000EB05  1121 0001:0000EB1C  1122 0001:0000EB33  1123 0001:0000EB4A
  1124 0001:0000EB61  1125 0001:0000EB78  1126 0001:0000EB8F  1127 0001:0000EBA6
  1128 0001:0000EBBD  1129 0001:0000EBD4  1130 0001:0000EBEB  1131 0001:0000EC02
  1132 0001:0000EC19  1133 0001:0000EC30  1134 0001:0000EC47  1135 0001:0000EC5E
  1136 0001:0000EC75  1137 0001:0000EC8C  1138 0001:0000ECA3  1139 0001:0000ECBA
  1140 0001:0000ECD1  1141 0001:0000ECE8  1142 0001:0000ECFF  1143 0001:0000ED16
  1144 0001:0000ED2D  1145 0001:0000ED44  1146 0001:0000ED5B  1147 0001:0000ED72
  1148 0001:0000ED89  1149 0001:0000EDA0  1150 0001:0000EDB7  1151 0001:0000EDCE
  1152 0001:0000EDE5  1153 0001:0000EDFC  1154 0001:0000EE13  1155 0001:0000EE2A
  1156 0001:0000EE41  1157 0001:0000EE58  1158 0001:0000EE6F  1159 0001:0000EE86
  1160 0001:0000EE9D  1161 0001:0000EEB4  1162 0001:0000EECB  1163 0001:0000EEE2
  1164 0001:0000EEF9  1165 0001:0000EF10  1166 0001:0000EF27  1167 0001:0000EF3E
  1168 0001:0000EF55  1169 0001:0000EF6C  1170 0001:0000EF83  1171 0001:0000EF9A
  1172 0001:0000EFB1  1173 0001:0000EFC8  1174 0001:0000EFDF  1175 0001:0000EFF6
  1176 0001:0000F00D  1177 0001:0000F024  1178 0001:0000F03B  1179 0001:0000F052
  1180 0001:0000F069  1181 0001:0000F080  1182 0001:0000F097  1183 0001:0000F0AE
  1184 0001:0000F0C5  1185 0001:0000F0DC  1186 0001:0000F0F3  1187 0001:0000F10A
  1188 0001:0000F121  1189 0001:0000F138  1190 0001:0000F14F  1191 0001:0000F166
  1192 0001:0000F17D  1193 0001:0000F194  1194 0001:0000F1AB  1195 0001:0000F1C2
  1196 0001:0000F1D9  1197 0001:0000F1F0  1198 0001:0000F207  1199 0001:0000F21E
  1200 0001:0000F235  1201 0001:0000F24C  1202 0001:0000F263  1203 0001:0000F27A
  1204 0001:0000F291  1205 0001:0000F2A8  1206 0001:0000F2BF  1207 0001:0000F2D6
  1208 0001:0000F2ED  1209 0001:0000F304  1210 0001:0000F31B  1211 0001:0000F332
  1212 0001:0000F349  1213 0001:0000F360  1214 0001:0000F377  1215 0001:0000F38E
  1216 0001:0000F3A5  1217 0001:0000F3BC  1218 0001:0000F3D3  1219 0001:0000F3EA
  1220 0001:0000F401  1221 0001:0000F418  1222 0001:0000F42F  1223 0001:0000F446
  1224 0001:0000F45D  1225 0001:0000F474  1226 0001:0000F48B  1227 0001:0000F4A2
  1228 0001:0000F4B9  1229 0001:0000F4D0  1230 0001:0000F4E7  1231 0001:0000F4FE
  1232 0001:0000F515  1233 0001:0000F52C  1234 0001:0000F543  1235 0001:0000F55A
  1236 0001:0000F571  1237 0001:0000F588  1238 0001:0000F59F  1239 0001:0000F5B6
  1240 0001:0000F5CD  1241 0001:0000F5E4  1242 0001:0000F5FB  1243 0001:0000F612
  1244 0001:0000F629  1245 0001:0000F640  1246 0001:0000F657  1247 0001:0000F66E
  1248 0001:0000F683  1256 0001:000121C0  1257 0001:000121C8  1258 0001:000121D7
  1261 0001:000121F0  1262 0001:000121F8  1263 0001:00012207  1266 0001:00012220
  1267 0001:00012228  1268 0001:0001222E  1270 0001:0001223F  1271 0001:00012247
  1274 0001:00012260  1275 0001:00012268  1276 0001:0001226E  1278 0001:0001227F
  1279 0001:00012287  1282 0001:000122A0  1283 0001:000122A8  1284 0001:000122AE
  1286 0001:000122BF  1287 0001:000122C7  1290 0001:000122E0  1291 0001:000122E8
  1292 0001:000122EE  1294 0001:000122FF  1295 0001:00012307  1298 0001:00012320
  1299 0001:00012328  1300 0001:0001232E  1302 0001:0001233F  1303 0001:00012347
  1308 0001:00012370  1309 0001:0001238B  1310 0001:000123AC  1311 0001:0001242C
  1312 0001:000124AD  1313 0001:0001252E  1314 0001:000125B2  1315 0001:00012633
  1316 0001:000126B4  1317 0001:00012735  1318 0001:000127B6  1319 0001:00012837
  1320 0001:000128BB  1321 0001:00012942  1322 0001:000129C6  1323 0001:00012A4D
  1324 0001:00012AD4  1325 0001:00012B58  1326 0001:00012BDC  1327 0001:00012C66
  1328 0001:00012CF0  1329 0001:00012D74  1330 0001:00012DFB  1331 0001:00012E8B
  1332 0001:00012F1B  1333 0001:00012FAB  1334 0001:0001303B  1335 0001:000130CB
  1336 0001:0001315B  1337 0001:000131EB  1338 0001:0001327B  1339 0001:00013308
  1340 0001:00013395  1341 0001:0001341F  1342 0001:000134AC  1343 0001:00013539
  1344 0001:000135C6  1345 0001:00013653  1346 0001:000136DD  1347 0001:00013767
  1348 0001:000137F1  1349 0001:00013809  1359 0001:00013EB0  1360 0001:00013EB7
  1365 0001:00013EC0  1366 0001:00013EC8  1367 0001:00013ED7  1372 0001:00013F00
  1373 0001:00013F1A  1374 0001:00013F2C  1375 0001:00013F40  1381 0001:00013F52
  1382 0001:00013F5C  1387 0001:000142D0  1388 0001:000142EA  1389 0001:000142FC
  1390 0001:00014310  1396 0001:00014322  1397 0001:0001432C  1402 0001:00014960
  1403 0001:0001497A  1404 0001:0001498C  1405 0001:000149A0  1412 0001:000149B2
  1413 0001:000149BC  1418 0001:00014D40  1419 0001:00014D5A  1420 0001:00014D6C
  1421 0001:00014D80  1427 0001:00014D92  1428 0001:00014D9C  1433 0001:00015110
  1434 0001:00015125  1435 0001:00015143  1436 0001:00015153  1437 0001:00015167
  1438 0001:0001517B  1439 0001:0001518F  1440 0001:000151A3  1441 0001:000151B7
  1442 0001:000151CB  1443 0001:000151DF  1444 0001:000151F3  1445 0001:00015207
  1446 0001:0001521B  1447 0001:0001522F  1448 0001:00015243  1449 0001:00015257
  1450 0001:0001526B  1451 0001:0001527F  1452 0001:00015296  1453 0001:000152AD
  1454 0001:000152C4  1455 0001:000152DB  1456 0001:000152F2  1457 0001:00015309
  1458 0001:00015320  1459 0001:00015337  1460 0001:0001534E  1461 0001:00015365
  1462 0001:0001537C  1463 0001:00015393  1464 0001:000153AA  1465 0001:000153C1
  1466 0001:000153D8  1467 0001:000153EF  1468 0001:00015406  1469 0001:0001541D
  1470 0001:00015434  1471 0001:0001544B  1472 0001:00015462  1473 0001:00015479
  1474 0001:00015490  1475 0001:000154A7  1476 0001:000154BE  1477 0001:000154D5
  1478 0001:000154EC  1479 0001:00015503  1480 0001:0001551A  1481 0001:00015531
  1482 0001:00015548  1483 0001:0001555F  1484 0001:00015576  1485 0001:0001558D
  1486 0001:000155A4  1487 0001:000155BB  1488 0001:000155D2  1489 0001:000155E9
  1490 0001:00015600  1491 0001:00015617  1492 0001:0001562E  1493 0001:00015645
  1494 0001:0001565C  1495 0001:00015673  1496 0001:0001568A  1497 0001:000156A1
  1498 0001:000156B8  1499 0001:000156CF  1500 0001:000156E6  1501 0001:000156FD
  1502 0001:00015714  1503 0001:0001572B  1504 0001:00015742  1505 0001:00015759
  1506 0001:00015770  1507 0001:00015787  1508 0001:0001579E  1509 0001:000157B5
  1510 0001:000157CC  1511 0001:000157E3  1512 0001:000157FA  1513 0001:00015811
  1514 0001:00015828  1515 0001:0001583F  1516 0001:00015856  1517 0001:0001586D
  1518 0001:00015884  1519 0001:0001589B  1520 0001:000158B2  1521 0001:000158C9
  1522 0001:000158E0  1523 0001:000158F7  1524 0001:0001590E  1525 0001:00015925
  1526 0001:0001593C  1527 0001:00015953  1528 0001:0001596A  1529 0001:00015981
  1530 0001:00015998  1531 0001:000159AF  1532 0001:000159C6  1533 0001:000159DD
  1534 0001:000159F4  1535 0001:00015A0B  1536 0001:00015A22  1537 0001:00015A39
  1538 0001:00015A50  1539 0001:00015A67  1540 0001:00015A7E  1541 0001:00015A95
  1542 0001:00015AAC  1543 0001:00015AC3  1544 0001:00015ADA  1545 0001:00015AF1
  1546 0001:00015B08  1547 0001:00015B1F  1548 0001:00015B36  1549 0001:00015B4D
  1550 0001:00015B64  1551 0001:00015B7B  1552 0001:00015B92  1553 0001:00015BA9
  1554 0001:00015BC0  1555 0001:00015BD7  1556 0001:00015BEE  1557 0001:00015C05
  1558 0001:00015C1C  1559 0001:00015C33  1560 0001:00015C4A  1561 0001:00015C61
  1562 0001:00015C78  1563 0001:00015C8F  1564 0001:00015CA6  1565 0001:00015CBD
  1566 0001:00015CD4  1567 0001:00015CEB  1568 0001:00015D02  1569 0001:00015D19
  1570 0001:00015D30  1571 0001:00015D47  1572 0001:00015D5E  1573 0001:00015D75
  1574 0001:00015D8C  1575 0001:00015DA3  1576 0001:00015DBA  1577 0001:00015DD1
  1578 0001:00015DE8  1579 0001:00015DFF  1580 0001:00015E16  1581 0001:00015E2D
  1582 0001:00015E44  1583 0001:00015E5B  1584 0001:00015E72  1585 0001:00015E89
  1586 0001:00015EA0  1587 0001:00015EB7  1588 0001:00015ECE  1589 0001:00015EE5
  1590 0001:00015EFC  1591 0001:00015F13  1592 0001:00015F2A  1593 0001:00015F41
  1594 0001:00015F58  1595 0001:00015F6F  1596 0001:00015F86  1597 0001:00015F9D
  1598 0001:00015FB4  1599 0001:00015FCB  1600 0001:00015FE2  1601 0001:00015FF9
  1602 0001:00016010  1603 0001:00016027  1604 0001:0001603E  1605 0001:00016055
  1606 0001:0001606C  1607 0001:00016083  1608 0001:0001609A  1609 0001:000160B1
  1610 0001:000160C8  1611 0001:000160DF  1612 0001:000160F6  1613 0001:0001610D
  1614 0001:00016124  1615 0001:0001613B  1616 0001:00016152  1617 0001:00016169
  1618 0001:00016180  1619 0001:00016197  1620 0001:000161AE  1621 0001:000161C5
  1622 0001:000161DC  1623 0001:000161F3  1624 0001:0001620A  1625 0001:00016221
  1626 0001:00016238  1627 0001:0001624F  1628 0001:00016266  1629 0001:0001627D
  1630 0001:00016294  1631 0001:000162AB  1632 0001:000162C2  1633 0001:000162D9
  1634 0001:000162F0  1635 0001:00016307  1636 0001:0001631E  1637 0001:00016335
  1638 0001:0001634C  1639 0001:00016363  1640 0001:0001637A  1641 0001:00016391
  1642 0001:000163A8  1643 0001:000163BF  1644 0001:000163D6  1645 0001:000163ED
  1646 0001:00016404  1647 0001:0001641B  1648 0001:00016432  1649 0001:00016449
  1650 0001:00016460  1651 0001:00016477  1652 0001:0001648E  1653 0001:000164A5
  1654 0001:000164BC  1655 0001:000164D3  1656 0001:000164EA  1657 0001:00016501
  1658 0001:00016518  1659 0001:0001652F  1660 0001:00016546  1661 0001:0001655B
  1664 0001:00017ED0  1665 0001:00017ED8  1666 0001:00017EE7  1669 0001:00017F00
  1670 0001:00017F08  1671 0001:00017F17  1674 0001:00017F30  1675 0001:00017F38
  1676 0001:00017F47  1679 0001:00017F60  1680 0001:00017F68  1681 0001:00017F6E
  1683 0001:00017F7F  1684 0001:00017F87  1688 0001:00017FC0  1689 0001:00017FC3
  1693 0001:00017FD0  1694 0001:00017FD3  1698 0001:00017FE0  1699 0001:00017FE3
  1702 0001:00017FF0  1703 0001:0001800A  1704 0001:00018017  1705 0001:0001804D
  1711 0001:000180D0  1712 0001:000180E9  1715 0001:0001812D  1716 0001:00018134
  1717 0001:00018140  1718 0001:0001814A  1719 0001:00018154  1720 0001:00018167
  1726 0001:000181A0  1727 0001:000181C0  1728 0001:000181C6  1729 0001:000181D0
  1730 0001:000181D6  1731 0001:000181F7  1732 0001:00018277  1733 0001:000182F8
  1734 0001:00018379  1735 0001:000183FA  1736 0001:0001847B  1737 0001:000184FC
  1738 0001:0001857D  1739 0001:00018601  1740 0001:00018685  1741 0001:0001870C
  1742 0001:00018793  1743 0001:0001881A  1744 0001:000188A1  1745 0001:00018928
  1746 0001:000189B2  1747 0001:00018A3C  1748 0001:00018AC9  1749 0001:00018B55
  1750 0001:00018BE1  1751 0001:00018C6D  1752 0001:00018CF3  1753 0001:00018D79
  1754 0001:00018DFF  1755 0001:00018E87  1756 0001:00018F11  1757 0001:00018F9B
  1758 0001:00019025  1759 0001:000190B1  1760 0001:0001913B  1761 0001:000191C4
  1762 0001:0001924D  1763 0001:000192D7  1764 0001:000192EF  1774 0001:000198A0
  1775 0001:000198A7  1780 0001:000198B0  1781 0001:000198B8  1782 0001:000198C7
  1785 0001:00019910  1786 0001:0001993A  1787 0001:00019947  1788 0001:0001997C
  1789 0001:000199B1  1790 0001:000199E7  1793 0001:00019AD0  1794 0001:00019AD8
  1800 0001:00019AE7  1803 0001:0001A0B0  1804 0001:0001A0B8  1809 0001:0001A0C7
  1814 0001:0001A5B0  1815 0001:0001A5CA  1816 0001:0001A5DC  1817 0001:0001A5F0
  1823 0001:0001A602  1833 0001:0001A613  1838 0001:0001B250  1839 0001:0001B26A
  1840 0001:0001B27C  1841 0001:0001B290  1847 0001:0001B2A2  1857 0001:0001B2B3
  1862 0001:0001C110  1863 0001:0001C125  1864 0001:0001C143  1865 0001:0001C153
  1866 0001:0001C167  1867 0001:0001C17B  1868 0001:0001C18F  1869 0001:0001C1A3
  1870 0001:0001C1B7  1871 0001:0001C1CB  1872 0001:0001C1DF  1873 0001:0001C1F3
  1874 0001:0001C207  1875 0001:0001C21B  1876 0001:0001C22F  1877 0001:0001C243
  1878 0001:0001C257  1879 0001:0001C26B  1880 0001:0001C27F  1881 0001:0001C296
  1882 0001:0001C2AD  1883 0001:0001C2C4  1884 0001:0001C2DB  1885 0001:0001C2F2
  1886 0001:0001C309  1887 0001:0001C320  1888 0001:0001C337  1889 0001:0001C34E
  1890 0001:0001C365  1891 0001:0001C37C  1892 0001:0001C393  1893 0001:0001C3AA
  1894 0001:0001C3C1  1895 0001:0001C3D8  1896 0001:0001C3EF  1897 0001:0001C406
  1898 0001:0001C41D  1899 0001:0001C434  1900 0001:0001C44B  1901 0001:0001C462
  1902 0001:0001C479  1903 0001:0001C490  1904 0001:0001C4A7  1905 0001:0001C4BE
  1906 0001:0001C4D5  1907 0001:0001C4EC  1908 0001:0001C503  1909 0001:0001C51A
  1910 0001:0001C531  1911 0001:0001C548  1912 0001:0001C55F  1913 0001:0001C576
  1914 0001:0001C58D  1915 0001:0001C5A4  1916 0001:0001C5BB  1917 0001:0001C5D2
  1918 0001:0001C5E9  1919 0001:0001C600  1920 0001:0001C617  1921 0001:0001C62E
  1922 0001:0001C645  1923 0001:0001C65C  1924 0001:0001C673  1925 0001:0001C68A
  1926 0001:0001C6A1  1927 0001:0001C6B8  1928 0001:0001C6CF  1929 0001:0001C6E6
  1930 0001:0001C6FD  1931 0001:0001C714  1932 0001:0001C72B  1933 0001:0001C742
  1934 0001:0001C759  1935 0001:0001C770  1936 0001:0001C787  1937 0001:0001C79E
  1938 0001:0001C7B5  1939 0001:0001C7CC  1940 0001:0001C7E3  1941 0001:0001C7FA
  1942 0001:0001C811  1943 0001:0001C828  1944 0001:0001C83F  1945 0001:0001C856
  1946 0001:0001C86D  1947 0001:0001C884  1948 0001:0001C89B  1949 0001:0001C8B2
  1950 0001:0001C8C9  1951 0001:0001C8E0  1952 0001:0001C8F7  1953 0001:0001C90E
  1954 0001:0001C925  1955 0001:0001C93C  1956 0001:0001C953  1957 0001:0001C96A
  1958 0001:0001C981  1959 0001:0001C998  1960 0001:0001C9AF  1961 0001:0001C9C6
  1962 0001:0001C9DD  1963 0001:0001C9F4  1964 0001:0001CA0B  1965 0001:0001CA22
  1966 0001:0001CA39  1967 0001:0001CA50  1968 0001:0001CA67  1969 0001:0001CA7E
  1970 0001:0001CA95  1971 0001:0001CAAC  1972 0001:0001CAC3  1973 0001:0001CADA
  1974 0001:0001CAF1  1975 0001:0001CB08  1976 0001:0001CB1F  1977 0001:0001CB36
  1978 0001:0001CB4D  1979 0001:0001CB64  1980 0001:0001CB7B  1981 0001:0001CB92
  1982 0001:0001CBA9  1983 0001:0001CBC0  1984 0001:0001CBD7  1985 0001:0001CBEE
  1986 0001:0001CC05  1987 0001:0001CC1C  1988 0001:0001CC33  1989 0001:0001CC4A
  1990 0001:0001CC61  1991 0001:0001CC78  1992 0001:0001CC8F  1993 0001:0001CCA6
  1994 0001:0001CCBD  1995 0001:0001CCD4  1996 0001:0001CCEB  1997 0001:0001CD02
  1998 0001:0001CD19  1999 0001:0001CD30  2000 0001:0001CD47  2001 0001:0001CD5E
  2002 0001:0001CD75  2003 0001:0001CD8C  2004 0001:0001CDA3  2005 0001:0001CDBA
  2006 0001:0001CDD1  2007 0001:0001CDE8  2008 0001:0001CDFF  2009 0001:0001CE16
  2010 0001:0001CE2D  2011 0001:0001CE44  2012 0001:0001CE5B  2013 0001:0001CE72
  2014 0001:0001CE89  2015 0001:0001CEA0  2016 0001:0001CEB7  2017 0001:0001CECE
  2018 0001:0001CEE5  2019 0001:0001CEFC  2020 0001:0001CF13  2021 0001:0001CF2A
  2022 0001:0001CF41  2023 0001:0001CF58  2024 0001:0001CF6F  2025 0001:0001CF86
  2026 0001:0001CF9D  2027 0001:0001CFB4  2028 0001:0001CFCB  2029 0001:0001CFE2
  2030 0001:0001CFF9  2031 0001:0001D010  2032 0001:0001D027  2033 0001:0001D03E
  2034 0001:0001D055  2035 0001:0001D06C  2036 0001:0001D083  2037 0001:0001D09A
  2038 0001:0001D0B1  2039 0001:0001D0C8  2040 0001:0001D0DF  2041 0001:0001D0F6
  2042 0001:0001D10D  2043 0001:0001D124  2044 0001:0001D13B  2045 0001:0001D152
  2046 0001:0001D169  2047 0001:0001D180  2048 0001:0001D197  2049 0001:0001D1AE
  2050 0001:0001D1C5  2051 0001:0001D1DC  2052 0001:0001D1F3  2053 0001:0001D20A
  2054 0001:0001D221  2055 0001:0001D238  2056 0001:0001D24F  2057 0001:0001D266
  2058 0001:0001D27D  2059 0001:0001D294  2060 0001:0001D2AB  2061 0001:0001D2C2
  2062 0001:0001D2D9  2063 0001:0001D2F0  2064 0001:0001D307  2065 0001:0001D31E
  2066 0001:0001D335  2067 0001:0001D34C  2068 0001:0001D363  2069 0001:0001D37A
  2070 0001:0001D391  2071 0001:0001D3A8  2072 0001:0001D3BF  2073 0001:0001D3D6
  2074 0001:0001D3ED  2075 0001:0001D404  2076 0001:0001D41B  2077 0001:0001D432
  2078 0001:0001D449  2079 0001:0001D460  2080 0001:0001D477  2081 0001:0001D48E
  2082 0001:0001D4A5  2083 0001:0001D4BC  2084 0001:0001D4D3  2085 0001:0001D4EA
  2086 0001:0001D501  2087 0001:0001D518  2088 0001:0001D52D  2091 0001:0001ED60
  2092 0001:0001ED68  2093 0001:0001ED6E  2095 0001:0001ED7F  2096 0001:0001ED87
  2099 0001:0001EDB0  2100 0001:0001EDB8  2101 0001:0001EDBE  2103 0001:0001EDCF
  2104 0001:0001EDD7  2107 0001:0001EE00  2108 0001:0001EE08  2109 0001:0001EE0E
  2111 0001:0001EE1F  2112 0001:0001EE27  2115 0001:0001EE50  2116 0001:0001EE58
  2117 0001:0001EE5E  2119 0001:0001EE6F  2120 0001:0001EE77  2125 0001:0001EEA0
  2126 0001:0001EEBF  2127 0001:0001EEE0  2128 0001:0001EF60  2129 0001:0001EFE7
  2130 0001:0001F068  2131 0001:0001F076  2133 0001:0001F105  2134 0001:0001F18F
  2135 0001:0001F21C  2136 0001:0001F2A3  2137 0001:0001F327  2138 0001:0001F3A8
  2139 0001:0001F42C  2140 0001:0001F4AD  2141 0001:0001F531  2142 0001:0001F53F
  2144 0001:0001F5C8  2145 0001:0001F64C  2146 0001:0001F6D3  2147 0001:0001F757
  2148 0001:0001F7D8  2149 0001:0001F85F  2150 0001:0001F8E9  2151 0001:0001F96D
  2152 0001:0001F9F7  2153 0001:0001FA05  2155 0001:0001FA97  2156 0001:0001FB24
  2157 0001:0001FBB4  2158 0001:0001FC3B  2159 0001:0001FCC8  2160 0001:0001FCE0
  2170 0001:00020250  2171 0001:00020257  2176 0001:00020260  2177 0001:00020268
  2178 0001:00020277  2181 0001:000202B0  2182 0001:000202B8  2188 0001:000202C7
  2191 0001:00020640  2192 0001:00020648  2197 0001:00020657  2200 0001:00020C00
  2201 0001:00020C08  2206 0001:00020C17  2209 0001:00020F80  2210 0001:00020F88
  2215 0001:00020F97  2220 0001:00021480  2221 0001:00021495  2222 0001:000214B3
  2223 0001:000214C3  2224 0001:000214D7  2225 0001:000214EB  2226 0001:000214FF
  2227 0001:00021513  2228 0001:00021527  2229 0001:0002153B  2230 0001:0002154F
  2231 0001:00021563  2232 0001:00021577  2233 0001:0002158B  2234 0001:0002159F
  2235 0001:000215B3  2236 0001:000215C7  2237 0001:000215DB  2238 0001:000215EF
  2239 0001:00021606  2240 0001:0002161D  2241 0001:00021634  2242 0001:0002164B
  2243 0001:00021662  2244 0001:00021679  2245 0001:00021690  2246 0001:000216A7
  2247 0001:000216BE  2248 0001:000216D5  2249 0001:000216EC  2250 0001:00021703
  2251 0001:0002171A  2252 0001:00021731  2253 0001:00021748  2254 0001:0002175F
  2255 0001:00021776  2256 0001:0002178D  2257 0001:000217A4  2258 0001:000217BB
  2259 0001:000217D2  2260 0001:000217E9  2261 0001:00021800  2262 0001:00021817
  2263 0001:0002182E  2264 0001:00021845  2265 0001:0002185C  2266 0001:00021873
  2267 0001:0002188A  2268 0001:000218A1  2269 0001:000218B8  2270 0001:000218CF
  2271 0001:000218E6  2272 0001:000218FD  2273 0001:00021914  2274 0001:0002192B
  2275 0001:00021942  2276 0001:00021959  2277 0001:00021970  2278 0001:00021987
  2279 0001:0002199E  2280 0001:000219B5  2281 0001:000219CC  2282 0001:000219E3
  2283 0001:000219FA  2284 0001:00021A11  2285 0001:00021A28  2286 0001:00021A3F
  2287 0001:00021A56  2288 0001:00021A6D  2289 0001:00021A84  2290 0001:00021A9B
  2291 0001:00021AB2  2292 0001:00021AC9  2293 0001:00021AE0  2294 0001:00021AF7
  2295 0001:00021B0E  2296 0001:00021B25  2297 0001:00021B3C  2298 0001:00021B53
  2299 0001:00021B6A  2300 0001:00021B81  2301 0001:00021B98  2302 0001:00021BAF
  2303 0001:00021BC6  2304 0001:00021BDD  2305 0001:00021BF4  2306 0001:00021C0B
  2307 0001:00021C22  2308 0001:00021C39  2309 0001:00021C50  2310 0001:00021C67
  2311 0001:00021C7E  2312 0001:00021C95  2313 0001:00021CAC  2314 0001:00021CC3
  2315 0001:00021CDA  2316 0001:00021CF1  2317 0001:00021D08  2318 0001:00021D1F
  2319 0001:00021D36  2320 0001:00021D4D  2321 0001:00021D64  2322 0001:00021D7B
  2323 0001:00021D92  2324 0001:00021DA9  2325 0001:00021DC0  2326 0001:00021DD7
  2327 0001:00021DEE  2328 0001:00021E05  2329 0001:00021E1C  2330 0001:00021E33
  2331 0001:00021E4A  2332 0001:00021E61  2333 0001:00021E78  2334 0001:00021E8F
  2335 0001:00021EA6  2336 0001:00021EBD  2337 0001:00021ED4  2338 0001:00021EEB
  2339 0001:00021F02  2340 0001:00021F19  2341 0001:00021F30  2342 0001:00021F47
  2343 0001:00021F5E  2344 0001:00021F75  2345 0001:00021F8C  2346 0001:00021FA3
  2347 0001:00021FBA  2348 0001:00021FD1  2349 0001:00021FE8  2350 0001:00021FFF
  2351 0001:00022016  2352 0001:0002202D  2353 0001:00022044  2354 0001:0002205B
  2355 0001:00022072  2356 0001:00022089  2357 0001:000220A0  2358 0001:000220B7
  2359 0001:000220CE  2360 0001:000220E5  2361 0001:000220FC  2362 0001:00022113
  2363 0001:0002212A  2364 0001:00022141  2365 0001:00022158  2366 0001:0002216F
  2367 0001:00022186  2368 0001:0002219D  2369 0001:000221B4  2370 0001:000221CB
  2371 0001:000221E2  2372 0001:000221F9  2373 0001:00022210  2374 0001:00022227
  2375 0001:0002223E  2376 0001:00022255  2377 0001:0002226C  2378 0001:00022283
  2379 0001:0002229A  2380 0001:000222B1  2381 0001:000222C8  2382 0001:000222DF
  2383 0001:000222F6  2384 0001:0002230D  2385 0001:00022324  2386 0001:0002233B
  2387 0001:00022352  2388 0001:00022369  2389 0001:00022380  2390 0001:00022397
  2391 0001:000223AE  2392 0001:000223C5  2393 0001:000223DC  2394 0001:000223F3
  2395 0001:0002240A  2396 0001:00022421  2397 0001:00022438  2398 0001:0002244F
  2399 0001:00022466  2400 0001:0002247D  2401 0001:00022494  2402 0001:000224AB
  2403 0001:000224C2  2404 0001:000224D9  2405 0001:000224F0  2406 0001:00022507
  2407 0001:0002251E  2408 0001:00022535  2409 0001:0002254C  2410 0001:00022563
  2411 0001:0002257A  2412 0001:00022591  2413 0001:000225A8  2414 0001:000225BF
  2415 0001:000225D6  2416 0001:000225ED  2417 0001:00022604  2418 0001:0002261B
  2419 0001:00022632  2420 0001:00022649  2421 0001:00022660  2422 0001:00022677
  2423 0001:0002268E  2424 0001:000226A5  2425 0001:000226BC  2426 0001:000226D3
  2427 0001:000226EA  2428 0001:00022701  2429 0001:00022718  2430 0001:0002272F
  2431 0001:00022746  2432 0001:0002275D  2433 0001:00022774  2434 0001:0002278B
  2435 0001:000227A2  2436 0001:000227B9  2437 0001:000227D0  2438 0001:000227E7
  2439 0001:000227FE  2440 0001:00022815  2441 0001:0002282C  2442 0001:00022843
  2443 0001:0002285A  2444 0001:00022871  2445 0001:00022888  2446 0001:0002289F
  2447 0001:000228B6  2448 0001:000228CD  2449 0001:000228E4  2450 0001:000228FB
  2451 0001:00022912  2452 0001:00022929  2453 0001:00022940  2454 0001:00022957
  2455 0001:0002296E  2456 0001:00022985  2457 0001:0002299C  2458 0001:000229B3
  2459 0001:000229CA  2460 0001:000229E1  2461 0001:000229F8  2462 0001:00022A0F
  2463 0001:00022A26  2464 0001:00022A3D  2465 0001:00022A54  2466 0001:00022A6B
  2467 0001:00022A82  2468 0001:00022A99  2469 0001:00022AB0  2470 0001:00022AC7
  2471 0001:00022ADE  2472 0001:00022AF5  2473 0001:00022B0C  2474 0001:00022B23
  2475 0001:00022B3A  2476 0001:00022B51  2477 0001:00022B68  2478 0001:00022B7F
  2479 0001:00022B96  2480 0001:00022BAD  2481 0001:00022BC4  2482 0001:00022BDB
  2483 0001:00022BF2  2484 0001:00022C09  2485 0001:00022C20  2486 0001:00022C37
  2487 0001:00022C4E  2488 0001:00022C65  2489 0001:00022C7C  2490 0001:00022C93
  2491 0001:00022CAA  2492 0001:00022CC1  2493 0001:00022CD8  2494 0001:00022CEF
  2495 0001:00022D06  2496 0001:00022D1D  2497 0001:00022D34  2498 0001:00022D4B
  2499 0001:00022D62  2500 0001:00022D79  2501 0001:00022D90  2502 0001:00022DA7
  2503 0001:00022DBE  2504 0001:00022DD5  2505 0001:00022DEC  2506 0001:00022E03
  2507 0001:00022E1A  2508 0001:00022E31  2509 0001:00022E48  2510 0001:00022E5F
  2511 0001:00022E76  2512 0001:00022E8D  2513 0001:00022EA4  2514 0001:00022EBB
  2515 0001:00022ED2  2516 0001:00022EE9  2517 0001:00022F00  2518 0001:00022F17
  2519 0001:00022F2E  2520 0001:00022F45  2521 0001:00022F5C  2522 0001:00022F73
  2523 0001:00022F8A  2524 0001:00022FA1  2525 0001:00022FB8  2526 0001:00022FCF
  2527 0001:00022FE6  2528 0001:00022FFD  2529 0001:00023014  2530 0001:0002302B
  2531 0001:00023042  2532 0001:00023059  2533 0001:00023070  2534 0001:00023087
  2535 0001:0002309E  2536 0001:000230B5  2537 0001:000230CC  2538 0001:000230E3
  2539 0001:000230FA  2540 0001:00023111  2541 0001:00023128  2542 0001:0002313F
  2543 0001:00023156  2544 0001:0002316D  2545 0001:00023182  2548 0001:00025570
  2549 0001:00025578  2550 0001:0002557E  2552 0001:0002558F  2553 0001:00025597
  2556 0001:000255B0  2557 0001:000255B8  2558 0001:000255BE  2560 0001:000255CF
  2561 0001:000255D7  2564 0001:000255F0  2565 0001:000255F8  2566 0001:000255FE
  2568 0001:0002560F  2569 0001:00025617  2579 0001:00025630  2580 0001:0002564B
  2581 0001:0002566C  2582 0001:000256F5  2583 0001:0002577F  2584 0001:00025800
  2585 0001:0002588D  2586 0001:0002591A  2587 0001:000259A1  2588 0001:00025A25
  2589 0001:00025AA6  2590 0001:00025B2A  2591 0001:00025BAB  2592 0001:00025C2C
  2593 0001:00025CB0  2594 0001:00025D3D  2595 0001:00025DCA  2596 0001:00025E57
  2597 0001:00025EE4  2598 0001:00025F68  2599 0001:00025FF2  2600 0001:00026076
  2601 0001:000260FA  2602 0001:00026184  2603 0001:0002620E  2604 0001:0002629B
  2605 0001:00026322  2606 0001:000263A6  2607 0001:00026433  2608 0001:000264C0
  2609 0001:00026550  2610 0001:000265E0  2611 0001:000265F8  2621 0001:00026B60
  2622 0001:00026B67  2627 0001:00026B70  2628 0001:00026B78  2629 0001:00026B87
  2632 0001:00026BB0  2633 0001:00026BB8  2639 0001:00026BC7  2642 0001:00027170
  2643 0001:00027178  2647 0001:00027187  2650 0001:00027500  2651 0001:00027508
  2655 0001:00027517  2658 0001:000278B0  2659 0001:000278B8  2664 0001:000278C7
  2669 0001:00027D20  2670 0001:00027D35  2671 0001:00027D53  2672 0001:00027D63
  2673 0001:00027D77  2674 0001:00027D8B  2675 0001:00027D9F  2676 0001:00027DB3
  2677 0001:00027DC7  2678 0001:00027DDB  2679 0001:00027DEF  2680 0001:00027E03
  2681 0001:00027E17  2682 0001:00027E2B  2683 0001:00027E3F  2684 0001:00027E53
  2685 0001:00027E67  2686 0001:00027E7B  2687 0001:00027E8F  2688 0001:00027EA6
  2689 0001:00027EBD  2690 0001:00027ED4  2691 0001:00027EEB  2692 0001:00027F02
  2693 0001:00027F19  2694 0001:00027F30  2695 0001:00027F47  2696 0001:00027F5E
  2697 0001:00027F75  2698 0001:00027F8C  2699 0001:00027FA3  2700 0001:00027FBA
  2701 0001:00027FD1  2702 0001:00027FE8  2703 0001:00027FFF  2704 0001:00028016
  2705 0001:0002802D  2706 0001:00028044  2707 0001:0002805B  2708 0001:00028072
  2709 0001:00028089  2710 0001:000280A0  2711 0001:000280B7  2712 0001:000280CE
  2713 0001:000280E5  2714 0001:000280FC  2715 0001:00028113  2716 0001:0002812A
  2717 0001:00028141  2718 0001:00028158  2719 0001:0002816F  2720 0001:00028186
  2721 0001:0002819D  2722 0001:000281B4  2723 0001:000281CB  2724 0001:000281E2
  2725 0001:000281F9  2726 0001:00028210  2727 0001:00028227  2728 0001:0002823E
  2729 0001:00028255  2730 0001:0002826C  2731 0001:00028283  2732 0001:0002829A
  2733 0001:000282B1  2734 0001:000282C8  2735 0001:000282DF  2736 0001:000282F6
  2737 0001:0002830D  2738 0001:00028324  2739 0001:0002833B  2740 0001:00028352
  2741 0001:00028369  2742 0001:00028380  2743 0001:00028397  2744 0001:000283AE
  2745 0001:000283C5  2746 0001:000283DC  2747 0001:000283F3  2748 0001:0002840A
  2749 0001:00028421  2750 0001:00028438  2751 0001:0002844F  2752 0001:00028466
  2753 0001:0002847D  2754 0001:00028494  2755 0001:000284AB  2756 0001:000284C2
  2757 0001:000284D9  2758 0001:000284F0  2759 0001:00028507  2760 0001:0002851E
  2761 0001:00028535  2762 0001:0002854C  2763 0001:00028563  2764 0001:0002857A
  2765 0001:00028591  2766 0001:000285A8  2767 0001:000285BF  2768 0001:000285D6
  2769 0001:000285ED  2770 0001:00028604  2771 0001:0002861B  2772 0001:00028632
  2773 0001:00028649  2774 0001:00028660  2775 0001:00028677  2776 0001:0002868E
  2777 0001:000286A5  2778 0001:000286BC  2779 0001:000286D3  2780 0001:000286EA
  2781 0001:00028701  2782 0001:00028718  2783 0001:0002872F  2784 0001:00028746
  2785 0001:0002875D  2786 0001:00028774  2787 0001:0002878B  2788 0001:000287A2
  2789 0001:000287B9  2790 0001:000287D0  2791 0001:000287E7  2792 0001:000287FE
  2793 0001:00028815  2794 0001:0002882C  2795 0001:00028843  2796 0001:0002885A
  2797 0001:00028871  2798 0001:00028888  2799 0001:0002889F  2800 0001:000288B6
  2801 0001:000288CD  2802 0001:000288E4  2803 0001:000288FB  2804 0001:00028912
  2805 0001:00028929  2806 0001:00028940  2807 0001:00028957  2808 0001:0002896E
  2809 0001:00028985  2810 0001:0002899C  2811 0001:000289B3  2812 0001:000289CA
  2813 0001:000289E1  2814 0001:000289F8  2815 0001:00028A0F  2816 0001:00028A26
  2817 0001:00028A3D  2818 0001:00028A54  2819 0001:00028A6B  2820 0001:00028A82
  2821 0001:00028A99  2822 0001:00028AB0  2823 0001:00028AC7  2824 0001:00028ADE
  2825 0001:00028AF5  2826 0001:00028B0C  2827 0001:00028B23  2828 0001:00028B3A
  2829 0001:00028B51  2830 0001:00028B68  2831 0001:00028B7F  2832 0001:00028B96
  2833 0001:00028BAD  2834 0001:00028BC4  2835 0001:00028BDB  2836 0001:00028BF2
  2837 0001:00028C09  2838 0001:00028C20  2839 0001:00028C37  2840 0001:00028C4E
  2841 0001:00028C65  2842 0001:00028C7C  2843 0001:00028C93  2844 0001:00028CAA
  2845 0001:00028CC1  2846 0001:00028CD8  2847 0001:00028CEF  2848 0001:00028D06
  2849 0001:00028D1D  2850 0001:00028D34  2851 0001:00028D4B  2852 0001:00028D62
  2853 0001:00028D79  2854 0001:00028D90  2855 0001:00028DA7  2856 0001:00028DBE
  2857 0001:00028DD5  2858 0001:00028DEC  2859 0001:00028E03  2860 0001:00028E1A
  2861 0001:00028E31  2862 0001:00028E48  2863 0001:00028E5F  2864 0001:00028E76
  2865 0001:00028E8D  2866 0001:00028EA4  2867 0001:00028EBB  2868 0001:00028ED2
  2869 0001:00028EE9  2870 0001:00028F00  2871 0001:00028F17  2872 0001:00028F2E
  2873 0001:00028F45  2874 0001:00028F5C  2875 0001:00028F73  2876 0001:00028F8A
  2877 0001:00028FA1  2878 0001:00028FB8  2879 0001:00028FCF  2880 0001:00028FE6
  2881 0001:00028FFD  2882 0001:00029014  2883 0001:0002902B  2884 0001:00029042
  2885 0001:00029059  2886 0001:00029070  2887 0001:00029087  2888 0001:0002909E
  2889 0001:000290B5  2890 0001:000290CC  2891 0001:000290E3  2892 0001:000290FA
  2893 0001:00029111  2894 0001:00029128  2895 0001:0002913F  2896 0001:00029156
  2897 0001:0002916D  2898 0001:00029184  2899 0001:0002919B  2900 0001:000291B2
  2901 0001:000291C9  2902 0001:000291E0  2903 0001:000291F7  2904 0001:0002920E
  2905 0001:00029225  2906 0001:0002923C  2907 0001:00029253  2908 0001:0002926A
  2909 0001:00029281  2910 0001:00029298  2911 0001:000292AF  2912 0001:000292C6
  2913 0001:000292DD  2914 0001:000292F4  2915 0001:0002930B  2916 0001:00029322
  2917 0001:00029339  2918 0001:00029350  2919 0001:00029367  2920 0001:0002937E
  2921 0001:00029395  2922 0001:000293AC  2923 0001:000293C3  2924 0001:000293DA
  2925 0001:000293F1  2926 0001:00029408  2927 0001:0002941F  2928 0001:00029436
  2929 0001:0002944D  2930 0001:00029464  2931 0001:0002947B  2932 0001:00029492
  2933 0001:000294A9  2934 0001:000294C0  2935 0001:000294D7  2936 0001:000294EE
  2937 0001:00029505  2938 0001:0002951C  2939 0001:00029533  2940 0001:0002954A
  2941 0001:00029561  2942 0001:00029578  2943 0001:0002958F  2944 0001:000295A6
  2945 0001:000295BD  2946 0001:000295D4  2947 0001:000295EB  2948 0001:00029602
  2949 0001:00029619  2950 0001:00029630  2951 0001:00029647  2952 0001:0002965E
  2953 0001:00029675  2954 0001:0002968C  2955 0001:000296A3  2956 0001:000296BA
  2957 0001:000296D1  2958 0001:000296E8  2959 0001:000296FF  2960 0001:00029716
  2961 0001:0002972D  2962 0001:00029744  2963 0001:0002975B  2964 0001:00029772
  2965 0001:00029789  2966 0001:000297A0  2967 0001:000297B7  2968 0001:000297CE
  2969 0001:000297E5  2970 0001:000297FC  2971 0001:00029813  2972 0001:0002982A
  2973 0001:00029841  2974 0001:00029858  2975 0001:0002986F  2976 0001:00029886
  2977 0001:0002989D  2978 0001:000298B4  2979 0001:000298CB  2980 0001:000298E2
  2981 0001:000298F9  2982 0001:0002990E  2985 0001:0002BB50  2986 0001:0002BB58
  2987 0001:0002BB5E  2989 0001:0002BB6F  2990 0001:0002BB77  2993 0001:0002BB90
  2994 0001:0002BB98  2995 0001:0002BB9E  2997 0001:0002BBAF  2998 0001:0002BBB7
  3001 0001:0002BBD0  3002 0001:0002BBD8  3003 0001:0002BBDE  3005 0001:0002BBEF
  3006 0001:0002BBF7  3009 0001:0002BC10  3010 0001:0002BC18  3011 0001:0002BC20
  3016 0001:0002BC30  3017 0001:0002BC4B  3018 0001:0002BC6C  3019 0001:0002BCEC
  3020 0001:0002BD6D  3021 0001:0002BDEE  3022 0001:0002BE6F  3023 0001:0002BEF0
  3024 0001:0002BF74  3025 0001:0002BFFE  3026 0001:0002C088  3027 0001:0002C10F
  3028 0001:0002C190  3029 0001:0002C211  3030 0001:0002C298  3031 0001:0002C31F
  3032 0001:0002C3A6  3033 0001:0002C3BE  3043 0001:0002C680  3044 0001:0002C687
  3049 0001:0002C690  3050 0001:0002C698  3051 0001:0002C6A7  3054 0001:0002C6F0
  3055 0001:0002C707  3056 0001:0002C710  3057 0001:0002C71E  3060 0001:0002C740
  3061 0001:0002C748  3067 0001:0002C757  3070 0001:0002CD20  3071 0001:0002CD28
  3076 0001:0002CD37  3079 0001:0002D180  3080 0001:0002D188  3085 0001:0002D197
  3088 0001:0002D620  3089 0001:0002D628  3126 0001:0002D637  3131 0001:0002E800
  3132 0001:0002E815  3133 0001:0002E833  3134 0001:0002E843  3135 0001:0002E857
  3136 0001:0002E86B  3137 0001:0002E87F  3138 0001:0002E893  3139 0001:0002E8A7
  3140 0001:0002E8BB  3141 0001:0002E8CF  3142 0001:0002E8E3  3143 0001:0002E8F7
  3144 0001:0002E90B  3145 0001:0002E91F  3146 0001:0002E933  3147 0001:0002E947
  3148 0001:0002E95B  3149 0001:0002E96F  3150 0001:0002E986  3151 0001:0002E99D
  3152 0001:0002E9B4  3153 0001:0002E9CB  3154 0001:0002E9E2  3155 0001:0002E9F9
  3156 0001:0002EA10  3157 0001:0002EA27  3158 0001:0002EA3E  3159 0001:0002EA55
  3160 0001:0002EA6C  3161 0001:0002EA83  3162 0001:0002EA9A  3163 0001:0002EAB1
  3164 0001:0002EAC8  3165 0001:0002EADF  3166 0001:0002EAF6  3167 0001:0002EB0D
  3168 0001:0002EB24  3169 0001:0002EB3B  3170 0001:0002EB52  3171 0001:0002EB69
  3172 0001:0002EB80  3173 0001:0002EB97  3174 0001:0002EBAE  3175 0001:0002EBC5
  3176 0001:0002EBDC  3177 0001:0002EBF3  3178 0001:0002EC0A  3179 0001:0002EC21
  3180 0001:0002EC38  3181 0001:0002EC4F  3182 0001:0002EC66  3183 0001:0002EC7D
  3184 0001:0002EC94  3185 0001:0002ECAB  3186 0001:0002ECC2  3187 0001:0002ECD9
  3188 0001:0002ECF0  3189 0001:0002ED07  3190 0001:0002ED1E  3191 0001:0002ED35
  3192 0001:0002ED4C  3193 0001:0002ED63  3194 0001:0002ED7A  3195 0001:0002ED91
  3196 0001:0002EDA8  3197 0001:0002EDBF  3198 0001:0002EDD6  3199 0001:0002EDED
  3200 0001:0002EE04  3201 0001:0002EE1B  3202 0001:0002EE32  3203 0001:0002EE49
  3204 0001:0002EE60  3205 0001:0002EE77  3206 0001:0002EE8E  3207 0001:0002EEA5
  3208 0001:0002EEBC  3209 0001:0002EED3  3210 0001:0002EEEA  3211 0001:0002EF01
  3212 0001:0002EF18  3213 0001:0002EF2F  3214 0001:0002EF46  3215 0001:0002EF5D
  3216 0001:0002EF74  3217 0001:0002EF8B  3218 0001:0002EFA2  3219 0001:0002EFB9
  3220 0001:0002EFD0  3221 0001:0002EFE7  3222 0001:0002EFFE  3223 0001:0002F015
  3224 0001:0002F02C  3225 0001:0002F043  3226 0001:0002F05A  3227 0001:0002F071
  3228 0001:0002F088  3229 0001:0002F09F  3230 0001:0002F0B6  3231 0001:0002F0CD
  3232 0001:0002F0E4  3233 0001:0002F0FB  3234 0001:0002F112  3235 0001:0002F129
  3236 0001:0002F140  3237 0001:0002F157  3238 0001:0002F16E  3239 0001:0002F185
  3240 0001:0002F19C  3241 0001:0002F1B3  3242 0001:0002F1CA  3243 0001:0002F1E1
  3244 0001:0002F1F8  3245 0001:0002F20F  3246 0001:0002F226  3247 0001:0002F23D
  3248 0001:0002F254  3249 0001:0002F26B  3250 0001:0002F282  3251 0001:0002F299
  3252 0001:0002F2B0  3253 0001:0002F2C7  3254 0001:0002F2DE  3255 0001:0002F2F5
  3256 0001:0002F30C  3257 0001:0002F323  3258 0001:0002F33A  3259 0001:0002F351
  3260 0001:0002F368  3261 0001:0002F37F  3262 0001:0002F396  3263 0001:0002F3AD
  3264 0001:0002F3C4  3265 0001:0002F3DB  3266 0001:0002F3F2  3267 0001:0002F409
  3268 0001:0002F420  3269 0001:0002F437  3270 0001:0002F44E  3271 0001:0002F465
  3272 0001:0002F47C  3273 0001:0002F493  3274 0001:0002F4AA  3275 0001:0002F4C1
  3276 0001:0002F4D8  3277 0001:0002F4EF  3278 0001:0002F506  3279 0001:0002F51D
  3280 0001:0002F534  3281 0001:0002F54B  3282 0001:0002F562  3283 0001:0002F579
  3284 0001:0002F590  3285 0001:0002F5A7  3286 0001:0002F5BE  3287 0001:0002F5D5
  3288 0001:0002F5EC  3289 0001:0002F603  3290 0001:0002F61A  3291 0001:0002F631
  3292 0001:0002F648  3293 0001:0002F65F  3294 0001:0002F676  3295 0001:0002F68D
  3296 0001:0002F6A4  3297 0001:0002F6BB  3298 0001:0002F6D2  3299 0001:0002F6E9
  3300 0001:0002F700  3301 0001:0002F717  3302 0001:0002F72E  3303 0001:0002F745
  3304 0001:0002F75C  3305 0001:0002F773  3306 0001:0002F78A  3307 0001:0002F7A1
  3308 0001:0002F7B8  3309 0001:0002F7CF  3310 0001:0002F7E6  3311 0001:0002F7FD
  3312 0001:0002F814  3313 0001:0002F82B  3314 0001:0002F842  3315 0001:0002F859
  3316 0001:0002F870  3317 0001:0002F887  3318 0001:0002F89E  3319 0001:0002F8B5
  3320 0001:0002F8CC  3321 0001:0002F8E3  3322 0001:0002F8FA  3323 0001:0002F911
  3324 0001:0002F928  3325 0001:0002F93F  3326 0001:0002F956  3327 0001:0002F96D
  3328 0001:0002F984  3329 0001:0002F99B  3330 0001:0002F9B2  3331 0001:0002F9C9
  3332 0001:0002F9E0  3333 0001:0002F9F7  3334 0001:0002FA0E  3335 0001:0002FA25
  3336 0001:0002FA3C  3337 0001:0002FA53  3338 0001:0002FA6A  3339 0001:0002FA81
  3340 0001:0002FA98  3341 0001:0002FAAF  3342 0001:0002FAC6  3343 0001:0002FADD
  3344 0001:0002FAF4  3345 0001:0002FB0B  3346 0001:0002FB22  3347 0001:0002FB39
  3348 0001:0002FB50  3349 0001:0002FB67  3350 0001:0002FB7E  3351 0001:0002FB95
  3352 0001:0002FBAC  3353 0001:0002FBC3  3354 0001:0002FBDA  3355 0001:0002FBF1
  3356 0001:0002FC08  3357 0001:0002FC1F  3358 0001:0002FC36  3359 0001:0002FC4D
  3360 0001:0002FC64  3361 0001:0002FC7B  3362 0001:0002FC92  3363 0001:0002FCA9
  3364 0001:0002FCC0  3365 0001:0002FCD7  3366 0001:0002FCEE  3367 0001:0002FD05
  3368 0001:0002FD1C  3369 0001:0002FD33  3370 0001:0002FD4A  3371 0001:0002FD61
  3372 0001:0002FD78  3373 0001:0002FD8F  3374 0001:0002FDA6  3375 0001:0002FDBD
  3376 0001:0002FDD4  3377 0001:0002FDEB  3378 0001:0002FE02  3379 0001:0002FE19
  3380 0001:0002FE30  3381 0001:0002FE47  3382 0001:0002FE5E  3383 0001:0002FE75
  3384 0001:0002FE8C  3385 0001:0002FEA3  3386 0001:0002FEBA  3387 0001:0002FED1
  3388 0001:0002FEE8  3389 0001:0002FEFF  3390 0001:0002FF16  3391 0001:0002FF2D
  3392 0001:0002FF44  3393 0001:0002FF5B  3394 0001:0002FF72  3395 0001:0002FF89
  3396 0001:0002FFA0  3397 0001:0002FFB7  3398 0001:0002FFCE  3399 0001:0002FFE5
  3400 0001:0002FFFC  3401 0001:00030013  3402 0001:0003002A  3403 0001:00030041
  3404 0001:00030058  3405 0001:0003006F  3406 0001:00030086  3407 0001:0003009D
  3408 0001:000300B4  3409 0001:000300CB  3410 0001:000300E2  3411 0001:000300F9
  3412 0001:00030110  3413 0001:00030127  3414 0001:0003013E  3415 0001:00030155
  3416 0001:0003016C  3417 0001:00030183  3418 0001:0003019A  3419 0001:000301B1
  3420 0001:000301C8  3421 0001:000301DF  3422 0001:000301F6  3423 0001:0003020D
  3424 0001:00030224  3425 0001:0003023B  3426 0001:00030252  3427 0001:00030269
  3428 0001:00030280  3429 0001:00030297  3430 0001:000302AE  3431 0001:000302C5
  3432 0001:000302DC  3433 0001:000302F3  3434 0001:0003030A  3435 0001:00030321
  3436 0001:00030338  3437 0001:0003034F  3438 0001:00030366  3439 0001:0003037D
  3440 0001:00030394  3441 0001:000303AB  3442 0001:000303C2  3443 0001:000303D9
  3444 0001:000303F0  3445 0001:00030407  3446 0001:0003041E  3447 0001:00030435
  3448 0001:0003044C  3449 0001:00030463  3450 0001:0003047A  3451 0001:00030491
  3452 0001:000304A8  3453 0001:000304BF  3454 0001:000304D6  3455 0001:000304ED
  3456 0001:00030504  3457 0001:0003051B  3458 0001:00030532  3459 0001:00030549
  3460 0001:00030560  3461 0001:00030577  3462 0001:0003058E  3463 0001:000305A5
  3464 0001:000305BC  3465 0001:000305D3  3466 0001:000305EA  3467 0001:00030601
  3468 0001:00030618  3469 0001:0003062F  3470 0001:00030646  3471 0001:0003065D
  3472 0001:00030674  3473 0001:0003068B  3474 0001:000306A2  3475 0001:000306B9
  3476 0001:000306D0  3477 0001:000306E7  3478 0001:000306FE  3479 0001:00030715
  3480 0001:0003072C  3481 0001:00030743  3482 0001:0003075A  3483 0001:00030771
  3484 0001:00030788  3485 0001:0003079F  3486 0001:000307B6  3487 0001:000307CD
  3488 0001:000307E4  3489 0001:000307FB  3490 0001:00030812  3491 0001:00030829
  3492 0001:00030840  3493 0001:00030857  3494 0001:0003086E  3495 0001:00030885
  3496 0001:0003089C  3497 0001:000308B3  3498 0001:000308CA  3499 0001:000308E1
  3500 0001:000308F8  3501 0001:0003090F  3502 0001:00030926  3503 0001:0003093D
  3504 0001:00030954  3505 0001:0003096B  3506 0001:00030982  3507 0001:00030999
  3508 0001:000309B0  3509 0001:000309C7  3510 0001:000309DE  3511 0001:000309F5
  3512 0001:00030A0C  3513 0001:00030A23  3514 0001:00030A3A  3515 0001:00030A51
  3516 0001:00030A68  3517 0001:00030A7F  3518 0001:00030A96  3519 0001:00030AAD
  3520 0001:00030AC4  3521 0001:00030ADB  3522 0001:00030AF2  3523 0001:00030B09
  3524 0001:00030B20  3525 0001:00030B37  3526 0001:00030B4E  3527 0001:00030B65
  3528 0001:00030B7C  3529 0001:00030B93  3530 0001:00030BAA  3531 0001:00030BC1
  3532 0001:00030BD8  3533 0001:00030BEF  3534 0001:00030C06  3535 0001:00030C1D
  3536 0001:00030C34  3537 0001:00030C4B  3538 0001:00030C62  3539 0001:00030C79
  3540 0001:00030C90  3541 0001:00030CA7  3542 0001:00030CBE  3543 0001:00030CD5
  3544 0001:00030CEC  3545 0001:00030D03  3546 0001:00030D1A  3547 0001:00030D31
  3548 0001:00030D48  3549 0001:00030D5F  3550 0001:00030D76  3551 0001:00030D8D
  3552 0001:00030DA4  3553 0001:00030DBB  3554 0001:00030DD2  3555 0001:00030DE9
  3556 0001:00030E00  3557 0001:00030E17  3558 0001:00030E2E  3559 0001:00030E45
  3560 0001:00030E5C  3561 0001:00030E73  3562 0001:00030E8A  3563 0001:00030EA1
  3564 0001:00030EB8  3565 0001:00030ECF  3566 0001:00030EE6  3567 0001:00030EFD
  3568 0001:00030F14  3569 0001:00030F2B  3570 0001:00030F42  3571 0001:00030F59
  3572 0001:00030F70  3573 0001:00030F87  3574 0001:00030F9E  3575 0001:00030FB5
  3576 0001:00030FCC  3577 0001:00030FE3  3578 0001:00030FFA  3579 0001:00031011
  3580 0001:00031028  3581 0001:0003103F  3582 0001:00031056  3583 0001:0003106D
  3584 0001:00031084  3585 0001:0003109B  3586 0001:000310B2  3587 0001:000310C9
  3588 0001:000310E0  3589 0001:000310F7  3590 0001:0003110E  3591 0001:00031125
  3592 0001:0003113C  3593 0001:00031153  3594 0001:0003116A  3595 0001:00031181
  3596 0001:00031198  3597 0001:000311AF  3598 0001:000311C6  3599 0001:000311DD
  3600 0001:000311F4  3601 0001:0003120B  3602 0001:00031222  3603 0001:00031239
  3604 0001:00031250  3605 0001:00031267  3606 0001:0003127E  3607 0001:00031295
  3608 0001:000312AC  3609 0001:000312C3  3610 0001:000312DA  3611 0001:000312F1
  3612 0001:00031308  3613 0001:0003131F  3614 0001:00031336  3615 0001:0003134D
  3616 0001:00031364  3617 0001:0003137B  3618 0001:00031392  3619 0001:000313A9
  3620 0001:000313C0  3621 0001:000313D7  3622 0001:000313EE  3623 0001:00031405
  3624 0001:0003141C  3625 0001:00031433  3626 0001:0003144A  3627 0001:00031461
  3628 0001:00031478  3629 0001:0003148F  3630 0001:000314A6  3631 0001:000314BD
  3632 0001:000314D4  3633 0001:000314EB  3634 0001:00031502  3635 0001:00031519
  3636 0001:00031530  3637 0001:00031547  3638 0001:0003155E  3639 0001:00031575
  3640 0001:0003158A  3643 0001:00034DF0  3644 0001:00034DF8  3645 0001:00034DFE
  3647 0001:00034E0F  3648 0001:00034E17  3651 0001:00034E30  3652 0001:00034E38
  3653 0001:00034E3E  3655 0001:00034E4F  3656 0001:00034E57  3659 0001:00034E70
  3660 0001:00034E78  3661 0001:00034E7E  3663 0001:00034E8F  3664 0001:00034E97
  3667 0001:00034EB0  3668 0001:00034EB8  3669 0001:00034EBE  3671 0001:00034ECF
  3672 0001:00034ED7  3676 0001:00034EF0  3677 0001:00034EF3  3682 0001:00034F00
  3683 0001:00034F1F  3685 0001:00034F2E  3686 0001:00034F4F  3687 0001:00034FD2
  3688 0001:00035056  3689 0001:000350DA  3690 0001:00035161  3691 0001:000351E2
  3692 0001:00035263  3693 0001:000352E7  3694 0001:00035368  3695 0001:000353E9
  3696 0001:0003546D  3697 0001:000354EE  3698 0001:00035572  3699 0001:000355F9
  3701 0001:0003567A  3702 0001:000356FE  3703 0001:0003577F  3704 0001:00035800
  3705 0001:00035887  3706 0001:0003590B  3708 0001:00035926  3709 0001:0003593F
  3716 0001:00035D50  3717 0001:00035D73  3718 0001:00035D80  3721 0001:00035DA3
  3722 0001:00035DB5  3723 0001:00035DBE  3724 0001:00035DC6  3725 0001:00035DE1
  3728 0001:00035E04  3730 0001:00035E16  3731 0001:00035E3F  3733 0001:00035E48
  3734 0001:00035E50  3735 0001:00035E65  3745 0001:00035EC0  3746 0001:00035EC7
  3751 0001:00035ED0  3752 0001:00035ED8  3753 0001:00035EE7  3756 0001:00036000
  3757 0001:00036008  3758 0001:00036017  3761 0001:000360C0  3762 0001:000360C8
  3763 0001:000360D7  3766 0001:00036170  3767 0001:00036178  3768 0001:00036187
  3778 0001:00036250  3779 0001:00036257  3784 0001:00036260  3785 0001:00036268
  3786 0001:00036277  3789 0001:000362A0  3790 0001:000362B7  3791 0001:000362C0
  3792 0001:000362CE  3795 0001:000362F0  3796 0001:000362F8  3801 0001:00036307
  3804 0001:00036730  3805 0001:00036738  3810 0001:00036747  3813 0001:00036BF0
  3814 0001:00036BF8  3818 0001:00036C07  3821 0001:00037060  3822 0001:00037068
  3827 0001:00037077  3832 0001:00037590  3833 0001:000375A5  3834 0001:000375C3
  3835 0001:000375D3  3836 0001:000375E7  3837 0001:000375FB  3838 0001:0003760F
  3839 0001:00037623  3840 0001:00037637  3841 0001:0003764B  3842 0001:0003765F
  3843 0001:00037673  3844 0001:00037687  3845 0001:0003769B  3846 0001:000376AF
  3847 0001:000376C3  3848 0001:000376D7  3849 0001:000376EB  3850 0001:000376FF
  3851 0001:00037716  3852 0001:0003772D  3853 0001:00037744  3854 0001:0003775B
  3855 0001:00037772  3856 0001:00037789  3857 0001:000377A0  3858 0001:000377B7
  3859 0001:000377CE  3860 0001:000377E5  3861 0001:000377FC  3862 0001:00037813
  3863 0001:0003782A  3864 0001:00037841  3865 0001:00037858  3866 0001:0003786F
  3867 0001:00037886  3868 0001:0003789D  3869 0001:000378B4  3870 0001:000378CB
  3871 0001:000378E2  3872 0001:000378F9  3873 0001:00037910  3874 0001:00037927
  3875 0001:0003793E  3876 0001:00037955  3877 0001:0003796C  3878 0001:00037983
  3879 0001:0003799A  3880 0001:000379B1  3881 0001:000379C8  3882 0001:000379DF
  3883 0001:000379F6  3884 0001:00037A0D  3885 0001:00037A24  3886 0001:00037A3B
  3887 0001:00037A52  3888 0001:00037A69  3889 0001:00037A80  3890 0001:00037A97
  3891 0001:00037AAE  3892 0001:00037AC5  3893 0001:00037ADC  3894 0001:00037AF3
  3895 0001:00037B0A  3896 0001:00037B21  3897 0001:00037B38  3898 0001:00037B4F
  3899 0001:00037B66  3900 0001:00037B7D  3901 0001:00037B94  3902 0001:00037BAB
  3903 0001:00037BC2  3904 0001:00037BD9  3905 0001:00037BF0  3906 0001:00037C07
  3907 0001:00037C1E  3908 0001:00037C35  3909 0001:00037C4C  3910 0001:00037C63
  3911 0001:00037C7A  3912 0001:00037C91  3913 0001:00037CA8  3914 0001:00037CBF
  3915 0001:00037CD6  3916 0001:00037CED  3917 0001:00037D04  3918 0001:00037D1B
  3919 0001:00037D32  3920 0001:00037D49  3921 0001:00037D60  3922 0001:00037D77
  3923 0001:00037D8E  3924 0001:00037DA5  3925 0001:00037DBC  3926 0001:00037DD3
  3927 0001:00037DEA  3928 0001:00037E01  3929 0001:00037E18  3930 0001:00037E2F
  3931 0001:00037E46  3932 0001:00037E5D  3933 0001:00037E74  3934 0001:00037E8B
  3935 0001:00037EA2  3936 0001:00037EB9  3937 0001:00037ED0  3938 0001:00037EE7
  3939 0001:00037EFE  3940 0001:00037F15  3941 0001:00037F2C  3942 0001:00037F43
  3943 0001:00037F5A  3944 0001:00037F71  3945 0001:00037F88  3946 0001:00037F9F
  3947 0001:00037FB6  3948 0001:00037FCD  3949 0001:00037FE4  3950 0001:00037FFB
  3951 0001:00038012  3952 0001:00038029  3953 0001:00038040  3954 0001:00038057
  3955 0001:0003806E  3956 0001:00038085  3957 0001:0003809C  3958 0001:000380B3
  3959 0001:000380CA  3960 0001:000380E1  3961 0001:000380F8  3962 0001:0003810F
  3963 0001:00038126  3964 0001:0003813D  3965 0001:00038154  3966 0001:0003816B
  3967 0001:00038182  3968 0001:00038199  3969 0001:000381B0  3970 0001:000381C7
  3971 0001:000381DE  3972 0001:000381F5  3973 0001:0003820C  3974 0001:00038223
  3975 0001:0003823A  3976 0001:00038251  3977 0001:00038268  3978 0001:0003827F
  3979 0001:00038296  3980 0001:000382AD  3981 0001:000382C4  3982 0001:000382DB
  3983 0001:000382F2  3984 0001:00038309  3985 0001:00038320  3986 0001:00038337
  3987 0001:0003834E  3988 0001:00038365  3989 0001:0003837C  3990 0001:00038393
  3991 0001:000383AA  3992 0001:000383C1  3993 0001:000383D8  3994 0001:000383EF
  3995 0001:00038406  3996 0001:0003841D  3997 0001:00038434  3998 0001:0003844B
  3999 0001:00038462  4000 0001:00038479  4001 0001:00038490  4002 0001:000384A7
  4003 0001:000384BE  4004 0001:000384D5  4005 0001:000384EC  4006 0001:00038503
  4007 0001:0003851A  4008 0001:00038531  4009 0001:00038548  4010 0001:0003855F
  4011 0001:00038576  4012 0001:0003858D  4013 0001:000385A4  4014 0001:000385BB
  4015 0001:000385D2  4016 0001:000385E9  4017 0001:00038600  4018 0001:00038617
  4019 0001:0003862E  4020 0001:00038645  4021 0001:0003865C  4022 0001:00038673
  4023 0001:0003868A  4024 0001:000386A1  4025 0001:000386B8  4026 0001:000386CF
  4027 0001:000386E6  4028 0001:000386FD  4029 0001:00038714  4030 0001:0003872B
  4031 0001:00038742  4032 0001:00038759  4033 0001:00038770  4034 0001:00038787
  4035 0001:0003879E  4036 0001:000387B5  4037 0001:000387CC  4038 0001:000387E3
  4039 0001:000387FA  4040 0001:00038811  4041 0001:00038828  4042 0001:0003883F
  4043 0001:00038856  4044 0001:0003886D  4045 0001:00038884  4046 0001:0003889B
  4047 0001:000388B2  4048 0001:000388C9  4049 0001:000388E0  4050 0001:000388F7
  4051 0001:0003890E  4052 0001:00038925  4053 0001:0003893C  4054 0001:00038953
  4055 0001:0003896A  4056 0001:00038981  4057 0001:00038998  4058 0001:000389AF
  4059 0001:000389C6  4060 0001:000389DD  4061 0001:000389F4  4062 0001:00038A0B
  4063 0001:00038A22  4064 0001:00038A39  4065 0001:00038A50  4066 0001:00038A67
  4067 0001:00038A7E  4068 0001:00038A95  4069 0001:00038AAC  4070 0001:00038AC3
  4071 0001:00038ADA  4072 0001:00038AF1  4073 0001:00038B08  4074 0001:00038B1F
  4075 0001:00038B36  4076 0001:00038B4D  4077 0001:00038B64  4078 0001:00038B7B
  4079 0001:00038B92  4080 0001:00038BA9  4081 0001:00038BC0  4082 0001:00038BD7
  4083 0001:00038BEE  4084 0001:00038C05  4085 0001:00038C1C  4086 0001:00038C33
  4087 0001:00038C4A  4088 0001:00038C61  4089 0001:00038C78  4090 0001:00038C8F
  4091 0001:00038CA6  4092 0001:00038CBD  4093 0001:00038CD4  4094 0001:00038CEB
  4095 0001:00038D02  4096 0001:00038D19  4097 0001:00038D30  4098 0001:00038D47
  4099 0001:00038D5E  4100 0001:00038D75  4101 0001:00038D8C  4102 0001:00038DA3
  4103 0001:00038DBA  4104 0001:00038DD1  4105 0001:00038DE8  4106 0001:00038DFF
  4107 0001:00038E16  4108 0001:00038E2D  4109 0001:00038E44  4110 0001:00038E5B
  4111 0001:00038E72  4112 0001:00038E89  4113 0001:00038EA0  4114 0001:00038EB7
  4115 0001:00038ECE  4116 0001:00038EE5  4117 0001:00038EFC  4118 0001:00038F13
  4119 0001:00038F2A  4120 0001:00038F41  4121 0001:00038F58  4122 0001:00038F6F
  4123 0001:00038F86  4124 0001:00038F9B  4128 0001:0003AFE0  4129 0001:0003AFE3
  4132 0001:0003AFF0  4133 0001:0003B00A  4134 0001:0003B017  4135 0001:0003B04D
  4141 0001:0003B0D0  4142 0001:0003B0F0  4144 0001:0003B0FF  4145 0001:0003B120
  4146 0001:0003B126  4147 0001:0003B130  4148 0001:0003B136  4149 0001:0003B1B5
  4150 0001:0003B235  4151 0001:0003B2B6  4152 0001:0003B337  4153 0001:0003B3BB
  4154 0001:0003B43C  4155 0001:0003B4C0  4156 0001:0003B544  4157 0001:0003B5CB
  4158 0001:0003B652  4159 0001:0003B6D9  4160 0001:0003B763  4161 0001:0003B7E4
  4163 0001:0003B7FF  4164 0001:0003B818  4170 0001:0003BB10  4171 0001:0003BB33
  4172 0001:0003BB40  4174 0001:0003BB7F  4175 0001:0003BBAF  4176 0001:0003BBC4
  4186 0001:0003BC40  4187 0001:0003BC47  4192 0001:0003BC50  4193 0001:0003BC58
  4194 0001:0003BC67  4197 0001:0003BC90  4198 0001:0003BCA7  4199 0001:0003BCB0
  4200 0001:0003BCBE  4203 0001:0003BCE0  4204 0001:0003BCE8  4209 0001:0003BCF7
  4212 0001:0003C120  4213 0001:0003C128  4218 0001:0003C137  4221 0001:0003C5E0
  4222 0001:0003C5E8  4226 0001:0003C5F7  4229 0001:0003CA50  4230 0001:0003CA58
  4235 0001:0003CA67  4240 0001:0003CF80  4241 0001:0003CF95  4242 0001:0003CFB3
  4243 0001:0003CFC3  4244 0001:0003CFD7  4245 0001:0003CFEB  4246 0001:0003CFFF
  4247 0001:0003D013  4248 0001:0003D027  4249 0001:0003D03B  4250 0001:0003D04F
  4251 0001:0003D063  4252 0001:0003D077  4253 0001:0003D08B  4254 0001:0003D09F
  4255 0001:0003D0B3  4256 0001:0003D0C7  4257 0001:0003D0DB  4258 0001:0003D0EF
  4259 0001:0003D106  4260 0001:0003D11D  4261 0001:0003D134  4262 0001:0003D14B
  4263 0001:0003D162  4264 0001:0003D179  4265 0001:0003D190  4266 0001:0003D1A7
  4267 0001:0003D1BE  4268 0001:0003D1D5  4269 0001:0003D1EC  4270 0001:0003D203
  4271 0001:0003D21A  4272 0001:0003D231  4273 0001:0003D248  4274 0001:0003D25F
  4275 0001:0003D276  4276 0001:0003D28D  4277 0001:0003D2A4  4278 0001:0003D2BB
  4279 0001:0003D2D2  4280 0001:0003D2E9  4281 0001:0003D300  4282 0001:0003D317
  4283 0001:0003D32E  4284 0001:0003D345  4285 0001:0003D35C  4286 0001:0003D373
  4287 0001:0003D38A  4288 0001:0003D3A1  4289 0001:0003D3B8  4290 0001:0003D3CF
  4291 0001:0003D3E6  4292 0001:0003D3FD  4293 0001:0003D414  4294 0001:0003D42B
  4295 0001:0003D442  4296 0001:0003D459  4297 0001:0003D470  4298 0001:0003D487
  4299 0001:0003D49E  4300 0001:0003D4B5  4301 0001:0003D4CC  4302 0001:0003D4E3
  4303 0001:0003D4FA  4304 0001:0003D511  4305 0001:0003D528  4306 0001:0003D53F
  4307 0001:0003D556  4308 0001:0003D56D  4309 0001:0003D584  4310 0001:0003D59B
  4311 0001:0003D5B2  4312 0001:0003D5C9  4313 0001:0003D5E0  4314 0001:0003D5F7
  4315 0001:0003D60E  4316 0001:0003D625  4317 0001:0003D63C  4318 0001:0003D653
  4319 0001:0003D66A  4320 0001:0003D681  4321 0001:0003D698  4322 0001:0003D6AF
  4323 0001:0003D6C6  4324 0001:0003D6DD  4325 0001:0003D6F4  4326 0001:0003D70B
  4327 0001:0003D722  4328 0001:0003D739  4329 0001:0003D750  4330 0001:0003D767
  4331 0001:0003D77E  4332 0001:0003D795  4333 0001:0003D7AC  4334 0001:0003D7C3
  4335 0001:0003D7DA  4336 0001:0003D7F1  4337 0001:0003D808  4338 0001:0003D81F
  4339 0001:0003D836  4340 0001:0003D84D  4341 0001:0003D864  4342 0001:0003D87B
  4343 0001:0003D892  4344 0001:0003D8A9  4345 0001:0003D8C0  4346 0001:0003D8D7
  4347 0001:0003D8EE  4348 0001:0003D905  4349 0001:0003D91C  4350 0001:0003D933
  4351 0001:0003D94A  4352 0001:0003D961  4353 0001:0003D978  4354 0001:0003D98F
  4355 0001:0003D9A6  4356 0001:0003D9BD  4357 0001:0003D9D4  4358 0001:0003D9EB
  4359 0001:0003DA02  4360 0001:0003DA19  4361 0001:0003DA30  4362 0001:0003DA47
  4363 0001:0003DA5E  4364 0001:0003DA75  4365 0001:0003DA8C  4366 0001:0003DAA3
  4367 0001:0003DABA  4368 0001:0003DAD1  4369 0001:0003DAE8  4370 0001:0003DAFF
  4371 0001:0003DB16  4372 0001:0003DB2D  4373 0001:0003DB44  4374 0001:0003DB5B
  4375 0001:0003DB72  4376 0001:0003DB89  4377 0001:0003DBA0  4378 0001:0003DBB7
  4379 0001:0003DBCE  4380 0001:0003DBE5  4381 0001:0003DBFC  4382 0001:0003DC13
  4383 0001:0003DC2A  4384 0001:0003DC41  4385 0001:0003DC58  4386 0001:0003DC6F
  4387 0001:0003DC86  4388 0001:0003DC9D  4389 0001:0003DCB4  4390 0001:0003DCCB
  4391 0001:0003DCE2  4392 0001:0003DCF9  4393 0001:0003DD10  4394 0001:0003DD27
  4395 0001:0003DD3E  4396 0001:0003DD55  4397 0001:0003DD6C  4398 0001:0003DD83
  4399 0001:0003DD9A  4400 0001:0003DDB1  4401 0001:0003DDC8  4402 0001:0003DDDF
  4403 0001:0003DDF6  4404 0001:0003DE0D  4405 0001:0003DE24  4406 0001:0003DE3B
  4407 0001:0003DE52  4408 0001:0003DE69  4409 0001:0003DE80  4410 0001:0003DE97
  4411 0001:0003DEAE  4412 0001:0003DEC5  4413 0001:0003DEDC  4414 0001:0003DEF3
  4415 0001:0003DF0A  4416 0001:0003DF21  4417 0001:0003DF38  4418 0001:0003DF4F
  4419 0001:0003DF66  4420 0001:0003DF7D  4421 0001:0003DF94  4422 0001:0003DFAB
  4423 0001:0003DFC2  4424 0001:0003DFD9  4425 0001:0003DFF0  4426 0001:0003E007
  4427 0001:0003E01E  4428 0001:0003E035  4429 0001:0003E04C  4430 0001:0003E063
  4431 0001:0003E07A  4432 0001:0003E091  4433 0001:0003E0A8  4434 0001:0003E0BF
  4435 0001:0003E0D6  4436 0001:0003E0ED  4437 0001:0003E104  4438 0001:0003E11B
  4439 0001:0003E132  4440 0001:0003E149  4441 0001:0003E160  4442 0001:0003E177
  4443 0001:0003E18E  4444 0001:0003E1A5  4445 0001:0003E1BC  4446 0001:0003E1D3
  4447 0001:0003E1EA  4448 0001:0003E201  4449 0001:0003E218  4450 0001:0003E22F
  4451 0001:0003E246  4452 0001:0003E25D  4453 0001:0003E274  4454 0001:0003E28B
  4455 0001:0003E2A2  4456 0001:0003E2B9  4457 0001:0003E2D0  4458 0001:0003E2E7
  4459 0001:0003E2FE  4460 0001:0003E315  4461 0001:0003E32C  4462 0001:0003E343
  4463 0001:0003E35A  4464 0001:0003E371  4465 0001:0003E388  4466 0001:0003E39F
  4467 0001:0003E3B6  4468 0001:0003E3CD  4469 0001:0003E3E4  4470 0001:0003E3FB
  4471 0001:0003E412  4472 0001:0003E429  4473 0001:0003E440  4474 0001:0003E457
  4475 0001:0003E46E  4476 0001:0003E485  4477 0001:0003E49C  4478 0001:0003E4B3
  4479 0001:0003E4CA  4480 0001:0003E4E1  4481 0001:0003E4F8  4482 0001:0003E50F
  4483 0001:0003E526  4484 0001:0003E53D  4485 0001:0003E554  4486 0001:0003E56B
  4487 0001:0003E582  4488 0001:0003E599  4489 0001:0003E5B0  4490 0001:0003E5C7
  4491 0001:0003E5DE  4492 0001:0003E5F5  4493 0001:0003E60C  4494 0001:0003E623
  4495 0001:0003E63A  4496 0001:0003E651  4497 0001:0003E668  4498 0001:0003E67F
  4499 0001:0003E696  4500 0001:0003E6AD  4501 0001:0003E6C4  4502 0001:0003E6DB
  4503 0001:0003E6F2  4504 0001:0003E709  4505 0001:0003E720  4506 0001:0003E737
  4507 0001:0003E74E  4508 0001:0003E765  4509 0001:0003E77C  4510 0001:0003E793
  4511 0001:0003E7AA  4512 0001:0003E7C1  4513 0001:0003E7D8  4514 0001:0003E7EF
  4515 0001:0003E806  4516 0001:0003E81D  4517 0001:0003E834  4518 0001:0003E84B
  4519 0001:0003E862  4520 0001:0003E879  4521 0001:0003E890  4522 0001:0003E8A7
  4523 0001:0003E8BE  4524 0001:0003E8D5  4525 0001:0003E8EC  4526 0001:0003E903
  4527 0001:0003E91A  4528 0001:0003E931  4529 0001:0003E948  4530 0001:0003E95F
  4531 0001:0003E976  4532 0001:0003E98B  4536 0001:000409D0  4537 0001:000409D3
  4540 0001:000409E0  4541 0001:000409FA  4542 0001:00040A07  4543 0001:00040A3D
  4549 0001:00040AC0  4550 0001:00040AE0  4552 0001:00040AEF  4553 0001:00040B10
  4554 0001:00040B16  4555 0001:00040B20  4556 0001:00040B26  4557 0001:00040BA5
  4558 0001:00040C25  4559 0001:00040CA6  4560 0001:00040D27  4561 0001:00040DAB
  4562 0001:00040E2C  4563 0001:00040EB0  4564 0001:00040F34  4565 0001:00040FBB
  4566 0001:00041042  4567 0001:000410C9  4568 0001:00041153  4569 0001:000411D4
  4571 0001:000411EF  4572 0001:00041208  4578 0001:00041500  4579 0001:00041523
  4580 0001:00041530  4582 0001:0004156F  4583 0001:0004159F  4584 0001:000415B4
  4594 0001:00041630  4595 0001:00041637  4600 0001:00041640  4612 0001:00041648
  4613 0001:00041650  4648 0001:00041660  4649 0001:00041667  4654 0001:00041670
  4655 0001:00041678  4684 0001:00041687  4687 0001:00041C20  4688 0001:00041C28
  4723 0001:00041C37  4726 0001:00042420  4727 0001:00042428  4752 0001:00042437
  4757 0001:00042A40  4758 0001:00042A5A  4759 0001:00042A6C  4760 0001:00042A80
  4788 0001:00042A92  4813 0001:00042AA3  4818 0001:00043960  4819 0001:00043975
  4820 0001:00043993  4821 0001:000439A3  4822 0001:000439B7  4823 0001:000439CB
  4824 0001:000439DF  4825 0001:000439F3  4826 0001:00043A07  4827 0001:00043A1B
  4828 0001:00043A2F  4829 0001:00043A43  4830 0001:00043A57  4831 0001:00043A6B
  4832 0001:00043A7F  4833 0001:00043A93  4834 0001:00043AA7  4835 0001:00043ABB
  4836 0001:00043ACF  4837 0001:00043AE6  4838 0001:00043AFD  4839 0001:00043B14
  4840 0001:00043B2B  4841 0001:00043B42  4842 0001:00043B59  4843 0001:00043B70
  4844 0001:00043B87  4845 0001:00043B9E  4846 0001:00043BB5  4847 0001:00043BCC
  4848 0001:00043BE3  4849 0001:00043BFA  4850 0001:00043C11  4851 0001:00043C28
  4852 0001:00043C3F  4853 0001:00043C56  4854 0001:00043C6D  4855 0001:00043C84
  4856 0001:00043C9B  4857 0001:00043CB2  4858 0001:00043CC9  4859 0001:00043CE0
  4860 0001:00043CF7  4861 0001:00043D0E  4862 0001:00043D25  4863 0001:00043D3C
  4864 0001:00043D53  4865 0001:00043D68  4920 0001:00044200  4924 0001:00044224
  4928 0001:00044230  4932 0001:0004423C  4936 0001:00044248  4940 0001:00044254
  4944 0001:00044260  4948 0001:0004426C  4952 0001:00044278  4956 0001:00044284
  4960 0001:00044290  4964 0001:0004429C  4968 0001:000442A8  4867 0001:000442B0
  4871 0001:000442C8  4875 0001:000442D4  4879 0001:000442E0  4883 0001:000442EC
  4887 0001:000442F8  4891 0001:00044304  4895 0001:00044310  4899 0001:0004431C
  4903 0001:00044328  4907 0001:00044334  4911 0001:00044340  4915 0001:0004434C
  4916 0001:00044358

Line numbers for Dbx34Drv(Dbx34Drv.pas) segment .text

   516 0001:00046050   517 0001:0004608D   518 0001:00046096   519 0001:000460A5
   520 0001:000460B9   523 0001:000460DA   524 0001:000460F1   525 0001:00046105
   526 0001:0004610E   529 0001:00046153   530 0001:0004615C   536 0001:000461F0
   537 0001:00046235   538 0001:0004623E   539 0001:0004624D   540 0001:00046261
   543 0001:00046282   544 0001:00046299   545 0001:000462AD   546 0001:000462B6
   549 0001:00046304   550 0001:00046310   551 0001:0004631E   611 0001:00046400
   612 0001:0004644F   614 0001:000464AB   615 0001:000464C6   618 0001:000465E0
   619 0001:0004660B   620 0001:0004661F   621 0001:00046635   634 0001:000466B0
   635 0001:000466F6   636 0001:000466FC   637 0001:0004670A   639 0001:00046724
   640 0001:00046740   642 0001:00046749   644 0001:00046767   646 0001:00046773
   647 0001:00046782   648 0001:000467B3   649 0001:000467B7   653 0001:000467C4
   654 0001:000467D4   655 0001:000467E6   656 0001:00046817   658 0001:0004681B
   659 0001:00046829   670 0001:00046836   672 0001:00046841   673 0001:0004686C
   674 0001:00046890   676 0001:00046896   681 0001:00046950   682 0001:0004696D
   683 0001:00046973   685 0001:0004697D   686 0001:0004698D   688 0001:00046994
   689 0001:000469A4   691 0001:000469B6   692 0001:000469D3   696 0001:000469D9
   699 0001:00046A40   700 0001:00046A44   702 0001:00046A4A   703 0001:00046A56
   706 0001:00046A5A   707 0001:00046A5F   710 0001:00046A90   711 0001:00046A94
   713 0001:00046A9A   714 0001:00046AA6   717 0001:00046AAA   718 0001:00046AAF
   725 0001:00046AE0   727 0001:00046B3F   728 0001:00046B59   730 0001:00046B82
   735 0001:00046BAC   743 0001:00046C70   744 0001:00046C74   745 0001:00046C90
   751 0001:00046CA0   752 0001:00046CB0   753 0001:00046CBB   754 0001:00046CCD
   755 0001:00046CD7   756 0001:00046CF5   761 0001:00046D00   762 0001:00046D14
   764 0001:00046D1F   766 0001:00046D32   767 0001:00046D33   769 0001:00046D50
   770 0001:00046D60   771 0001:00046D6C   777 0001:00046D7C   780 0001:00046D85
   788 0001:00046D93   791 0001:00046D9C   780 0001:00046DB0   788 0001:00046DD4
   794 0001:00046DF0   795 0001:00046DF4   797 0001:00046DF9   800 0001:00046E00
   801 0001:00046E19   803 0001:00046E27   812 0001:00046E60   813 0001:00046E9A
   817 0001:00046EAA   818 0001:00046EC1   832 0001:00046ED8   861 0001:00046EFD
   864 0001:00047090   865 0001:00047098   866 0001:000470A7   869 0001:000470E0
   870 0001:000470E4   871 0001:000470F6   874 0001:00047130   875 0001:00047138
   876 0001:00047147   879 0001:00047170   880 0001:00047174   881 0001:00047186
   884 0001:000471B0   885 0001:000471B8   886 0001:000471C7   889 0001:000471F0
   890 0001:000471F4   891 0001:00047206   894 0001:00047230   895 0001:00047238
   896 0001:00047247   899 0001:00047270   900 0001:00047274   901 0001:00047286
   904 0001:000472B0   905 0001:000472C5   906 0001:000472E9   909 0001:00047350
   910 0001:00047368   911 0001:00047389   914 0001:000473F0   915 0001:000473F8
   916 0001:00047407   919 0001:00047460   920 0001:00047464   921 0001:00047476
   924 0001:000474C0   925 0001:000474C8   926 0001:000474D7   929 0001:00047510
   930 0001:00047514   931 0001:00047526   934 0001:00047560   935 0001:00047575
   936 0001:00047599   939 0001:000475F0   940 0001:00047608   941 0001:0004762E
   944 0001:00047680   945 0001:00047688   946 0001:00047697   949 0001:000476D0
   950 0001:000476D4   951 0001:000476E6   970 0001:00047720   971 0001:0004777E
   972 0001:00047795   973 0001:000477A2   979 0001:000477B9   982 0001:000477DB
   983 0001:000477F2   986 0001:0004781A   987 0001:0004782A   990 0001:00047841
   991 0001:00047863   992 0001:00047882   993 0001:00047883   995 0001:0004789A
   997 0001:000478A2   998 0001:000478BA  1001 0001:000478C7  1002 0001:000478DE
  1004 0001:000478F2  1005 0001:00047904  1006 0001:00047905  1009 0001:00047938
  1011 0001:0004793E  1013 0001:0004794E  1016 0001:00047961  1019 0001:0004796F
   998 0001:000479C0  1016 0001:000479D0  1019 0001:00047A00  1022 0001:00047B10
  1023 0001:00047B18  1025 0001:00047B1F  1026 0001:00047B28  1028 0001:00047B30
  1089 0001:00047B40  1090 0001:00047B48  1091 0001:00047B57  1094 0001:00047B60
  1095 0001:00047B68  1096 0001:00047B77  1101 0001:00047BB0  1106 0001:00047BC0
  1114 0001:00047BD0  1115 0001:00047BD4  1116 0001:00047BF1  1118 0001:00047C70
  1119 0001:00047C86  1120 0001:00047CA2  1121 0001:00047CB6  1123 0001:00047CBE
  1124 0001:00047CDA  1125 0001:00047CEA  1126 0001:00047CEE  1127 0001:00047D09
  1128 0001:00047D1D  1130 0001:00047D25  1131 0001:00047D2E  1132 0001:00047D37
  1133 0001:00047D41  1139 0001:00047E30  1143 0001:00047E99  1144 0001:00047EB5
  1145 0001:00047EC2  1147 0001:00047EE2  1148 0001:00047EFE  1151 0001:00047F26
  1152 0001:00047F36  1155 0001:00047F56  1156 0001:00047F74  1157 0001:00047F92
  1158 0001:00047FA2  1159 0001:00047FAF  1160 0001:00047FC3  1162 0001:00047FD4
  1163 0001:00047FF9  1167 0001:0004802A  1168 0001:00048046  1170 0001:00048051
  1171 0001:0004806F  1172 0001:0004808D  1173 0001:0004809D  1174 0001:000480AA
  1175 0001:000480CF  1181 0001:00048101  1184 0001:00048330  1186 0001:0004834E
  1187 0001:0004837B  1188 0001:000483AC  1194 0001:00048470  1198 0001:00048480
  1199 0001:00048484  1208 0001:00048489  1211 0001:00048490  1212 0001:00048494
  1214 0001:00048499  1217 0001:000484A0  1219 0001:000484A4  1223 0001:000484BC
  1226 0001:000484D0  1227 0001:000484E0  1228 0001:000484F3  1230 0001:00048503
  1231 0001:00048512  1236 0001:00048570  1237 0001:000485A5  1238 0001:000485B9
  1241 0001:00048620  1242 0001:00048624  1243 0001:00048629  1314 0001:00048630
  1315 0001:00048652  1316 0001:0004865A  1320 0001:00048663  1340 0001:000486A4
  1342 0001:000486B9  1347 0001:00048750  1348 0001:0004875A  1350 0001:00048764
  1351 0001:00048767  1354 0001:000487AB  1356 0001:000487B7  1358 0001:000487D0
  1359 0001:000487E2  1363 0001:000487E6  1364 0001:000487F1  1367 0001:00048800
  1368 0001:00048808  1369 0001:00048810  1370 0001:00048814  1371 0001:0004881C
  1381 0001:00048830  1382 0001:00048838  1383 0001:00048840  1384 0001:0004884F
  1392 0001:00048880  1393 0001:00048888  1394 0001:00048897  1397 0001:000488A0
  1398 0001:000488A8  1399 0001:000488B7  1408 0001:000488C0  1409 0001:000488C2
  1413 0001:000488D0  1414 0001:000488D2  1418 0001:000488E0  1419 0001:000488E2
  1423 0001:000488F0  1424 0001:000488F2  1428 0001:00048900  1429 0001:00048902
  1432 0001:00048910  1433 0001:00048918  1434 0001:00048927  1437 0001:00048930
  1438 0001:00048938  1439 0001:00048947  1443 0001:00048950  1444 0001:00048952
  1448 0001:00048960  1449 0001:00048962  1453 0001:00048970  1454 0001:00048973
  1458 0001:00048980  1459 0001:00048982  1463 0001:00048990  1464 0001:00048997
  1469 0001:000489A0  1479 0001:000489A4  1480 0001:000489A9  1485 0001:000489B0
  1486 0001:000489B4  1487 0001:000489C8  1493 0001:000489D0  1494 0001:000489D7
  1503 0001:000489E0  1504 0001:00048A2B  1506 0001:00048A4B  1507 0001:00048A7F
  1509 0001:00048AAF  1510 0001:00048AC2  1511 0001:00048AC8  1512 0001:00048AFE
  1519 0001:00048B2A  1520 0001:00048B3A  1522 0001:00048B4B  1523 0001:00048B5C
  1524 0001:00048B5D  1525 0001:00048B6A  1527 0001:00048B85  1530 0001:00048B9B
  1536 0001:00048BA5  1537 0001:00048BB3  1539 0001:00048BC6  1530 0001:00048BF0
  1539 0001:00048C20  1557 0001:00048CB0  1558 0001:00048CD4  1559 0001:00048CE8
  1560 0001:00048CF5  1561 0001:00048CFF  1564 0001:00048D0B  1569 0001:00048D17
  1571 0001:00048D1C  1572 0001:00048D2C  1573 0001:00048D2F  1574 0001:00048D40
  1575 0001:00048D48  1576 0001:00048D53  1577 0001:00048D57  1579 0001:00048D63
  1580 0001:00048D85  1586 0001:00048D91  1587 0001:00048DB1  1590 0001:00048DF0
  1592 0001:00048DF8  1593 0001:00048E07  1598 0001:00048E40  1599 0001:00048E71
  1600 0001:00048E7C  1602 0001:00048E95  1604 0001:00048EB1  1606 0001:00048ECC
  1607 0001:00048F00  1609 0001:00048F0D  1611 0001:00048F18  1612 0001:00048F27
  1613 0001:00048F5B  1614 0001:00048F66  1615 0001:00048F9A  1617 0001:00048FA5
  1618 0001:00048FC5  1620 0001:00048FCC  1621 0001:00048FE0  1622 0001:00048FED
  1623 0001:00049001  1626 0001:0004900C  1628 0001:00049018  1629 0001:00049022
  1630 0001:0004902A  1631 0001:0004903A  1632 0001:00049044  1633 0001:00049053
  1636 0001:000491A0  1637 0001:000491A4  1638 0001:000491B3  1641 0001:000491C0
  1642 0001:000491C4  1643 0001:000491C9  1646 0001:000491D0  1648 0001:000491D4
  1652 0001:000491D9  1657 0001:000491E0  1658 0001:0004920D  1659 0001:00049215
  1660 0001:00049221  1682 0001:00049280  1683 0001:00049295  1684 0001:0004929D
  1685 0001:000492A6  1686 0001:000492CF  1695 0001:00049320  1696 0001:00049335
  1708 0001:0004933D  1709 0001:00049346  1711 0001:00049364  1723 0001:000493D0
  1724 0001:000493FE  1726 0001:00049416  1727 0001:00049423  1728 0001:00049437
  1729 0001:00049440  1730 0001:00049448  1731 0001:00049464  1732 0001:00049465
  1733 0001:00049476  1735 0001:00049479  1756 0001:00049480  1759 0001:00049489
  1762 0001:000494A7  1735 0001:000494E0  1762 0001:000494F0  1780 0001:00049570
  1781 0001:0004960F  1783 0001:00049635  1784 0001:00049640  1785 0001:00049653
  1786 0001:0004966A  1787 0001:00049676  1788 0001:00049698  1789 0001:00049699
  1790 0001:000496CD  1792 0001:000496D3  1796 0001:000496DA  1797 0001:00049700
  1798 0001:00049701  1799 0001:0004970C  1800 0001:0004971E  1801 0001:0004973F
  1802 0001:00049760  1803 0001:00049781  1804 0001:000497A2  1805 0001:000497C0
  1806 0001:000497DE  1807 0001:000497EE  1808 0001:00049802  1809 0001:00049816
  1810 0001:0004982A  1811 0001:0004983E  1812 0001:00049852  1813 0001:00049866
  1814 0001:0004987A  1815 0001:00049898  1816 0001:000498A8  1817 0001:000498BC
  1818 0001:000498D0  1819 0001:000498E4  1820 0001:000498F8  1821 0001:0004990C
  1822 0001:00049920  1824 0001:00049931  1826 0001:00049956  1827 0001:00049981
  1828 0001:0004998D  1830 0001:000499D5  1832 0001:000499D8  1837 0001:000499DF
  1840 0001:000499EB  1843 0001:00049A0F  1792 0001:00049A80  1832 0001:00049A90
  1843 0001:00049AA0  1856 0001:00049CC0  1857 0001:00049CFC  1859 0001:00049D18
  1860 0001:00049D20  1861 0001:00049D2D  1862 0001:00049D41  1863 0001:00049D4A
  1864 0001:00049D66  1865 0001:00049D67  1866 0001:00049D86  1868 0001:00049D89
  1893 0001:00049D90  1901 0001:00049D99  1904 0001:00049DB7  1868 0001:00049DF0
  1904 0001:00049E00  1917 0001:00049E80  1918 0001:00049EBC  1920 0001:00049EC6
  1921 0001:00049ECE  1922 0001:00049EDB  1923 0001:00049EEF  1924 0001:00049EF8
  1925 0001:00049F14  1926 0001:00049F15  1927 0001:00049F34  1929 0001:00049F37
  1931 0001:00049F3E  1955 0001:00049F47  1959 0001:00049F50  1962 0001:00049F6E
  1929 0001:00049FA0  1962 0001:00049FB0  1974 0001:0004A030  1975 0001:0004A06C
  1977 0001:0004A076  1978 0001:0004A07E  1979 0001:0004A08B  1980 0001:0004A09F
  1981 0001:0004A0A8  1982 0001:0004A0C4  1983 0001:0004A0C5  1984 0001:0004A0E4
  1986 0001:0004A0E7  2011 0001:0004A0EE  2014 0001:0004A0F7  2017 0001:0004A115
  1986 0001:0004A150  2017 0001:0004A160  2030 0001:0004A1F0  2031 0001:0004A235
  2033 0001:0004A246  2034 0001:0004A251  2035 0001:0004A261  2036 0001:0004A275
  2037 0001:0004A27E  2038 0001:0004A2A0  2039 0001:0004A2A1  2041 0001:0004A2FF
  2043 0001:0004A302  2078 0001:0004A309  2081 0001:0004A312  2084 0001:0004A330
  2043 0001:0004A360  2084 0001:0004A370  2096 0001:0004A400  2097 0001:0004A43C
  2099 0001:0004A446  2100 0001:0004A44E  2101 0001:0004A45B  2102 0001:0004A46F
  2103 0001:0004A478  2104 0001:0004A494  2105 0001:0004A495  2106 0001:0004A4B4
  2108 0001:0004A4B7  2133 0001:0004A4BE  2136 0001:0004A4C7  2139 0001:0004A4E5
  2108 0001:0004A520  2139 0001:0004A530  2151 0001:0004A5C0  2153 0001:0004A628
  2155 0001:0004A639  2156 0001:0004A644  2157 0001:0004A657  2158 0001:0004A66E
  2159 0001:0004A67A  2160 0001:0004A69C  2161 0001:0004A69D  2162 0001:0004A6D1
  2164 0001:0004A6D7  2168 0001:0004A6DE  2169 0001:0004A6EF  2170 0001:0004A6F0
  2171 0001:0004A6FB  2172 0001:0004A719  2173 0001:0004A729  2174 0001:0004A73D
  2175 0001:0004A751  2176 0001:0004A765  2177 0001:0004A783  2178 0001:0004A793
  2179 0001:0004A7A7  2180 0001:0004A7BB  2182 0001:0004A7CF  2184 0001:0004A7F4
  2185 0001:0004A81F  2186 0001:0004A828  2187 0001:0004A85D  2189 0001:0004A8A2
  2191 0001:0004A8A5  2196 0001:0004A8AC  2197 0001:0004A8B5  2200 0001:0004A8EA
  2203 0001:0004A90B  2164 0001:0004A970  2191 0001:0004A980  2203 0001:0004A990
  2215 0001:0004AB20  2216 0001:0004AB88  2218 0001:0004AB99  2219 0001:0004ABA4
  2220 0001:0004ABB7  2221 0001:0004ABCE  2222 0001:0004ABDA  2223 0001:0004ABFC
  2224 0001:0004ABFD  2225 0001:0004AC25  2227 0001:0004AC2B  2231 0001:0004AC32
  2232 0001:0004AC43  2233 0001:0004AC44  2234 0001:0004AC4F  2235 0001:0004AC6D
  2236 0001:0004AC7D  2237 0001:0004AC91  2238 0001:0004ACA5  2239 0001:0004ACC3
  2240 0001:0004ACD3  2241 0001:0004ACE7  2243 0001:0004ACFB  2245 0001:0004AD20
  2246 0001:0004AD4B  2247 0001:0004AD54  2248 0001:0004AD89  2250 0001:0004ADCE
  2252 0001:0004ADD1  2257 0001:0004ADD8  2258 0001:0004ADE1  2261 0001:0004AE16
  2264 0001:0004AE37  2227 0001:0004AEA0  2252 0001:0004AEB0  2264 0001:0004AEC0
  2277 0001:0004B020  2278 0001:0004B062  2280 0001:0004B073  2281 0001:0004B07E
  2282 0001:0004B08E  2283 0001:0004B0A2  2284 0001:0004B0AB  2285 0001:0004B0CD
  2286 0001:0004B0CE  2287 0001:0004B0FC  2289 0001:0004B0FF  2316 0001:0004B106
  2319 0001:0004B10F  2322 0001:0004B12D  2289 0001:0004B160  2322 0001:0004B170
  2336 0001:0004B200  2337 0001:0004B23C  2339 0001:0004B246  2340 0001:0004B24E
  2341 0001:0004B25B  2342 0001:0004B26F  2343 0001:0004B278  2344 0001:0004B294
  2345 0001:0004B295  2346 0001:0004B2B4  2348 0001:0004B2B7  2373 0001:0004B2BE
  2381 0001:0004B2C7  2384 0001:0004B2E5  2348 0001:0004B320  2384 0001:0004B330
  2396 0001:0004B3C0  2397 0001:0004B3FC  2399 0001:0004B406  2400 0001:0004B40E
  2401 0001:0004B41B  2402 0001:0004B42F  2403 0001:0004B438  2404 0001:0004B454
  2405 0001:0004B455  2406 0001:0004B474  2408 0001:0004B477  2432 0001:0004B47E
  2435 0001:0004B487  2438 0001:0004B4A5  2408 0001:0004B4E0  2438 0001:0004B4F0
  2451 0001:0004B570  2452 0001:0004B5B2  2454 0001:0004B5C3  2455 0001:0004B5CE
  2456 0001:0004B5DE  2457 0001:0004B5F2  2458 0001:0004B5FB  2459 0001:0004B61D
  2460 0001:0004B61E  2461 0001:0004B64C  2463 0001:0004B64F  2465 0001:0004B656
  2490 0001:0004B662  2494 0001:0004B66B  2497 0001:0004B689  2463 0001:0004B6C0
  2497 0001:0004B6D0  2510 0001:0004B770  2511 0001:0004B7AC  2513 0001:0004B7B6
  2514 0001:0004B7BE  2515 0001:0004B7CB  2516 0001:0004B7DF  2517 0001:0004B7E8
  2518 0001:0004B804  2519 0001:0004B805  2520 0001:0004B824  2522 0001:0004B827
  2547 0001:0004B82E  2550 0001:0004B837  2553 0001:0004B855  2522 0001:0004B890
  2553 0001:0004B8A0  2566 0001:0004B920  2567 0001:0004B962  2569 0001:0004B973
  2570 0001:0004B97E  2571 0001:0004B98E  2572 0001:0004B9A2  2573 0001:0004B9AB
  2574 0001:0004B9CD  2575 0001:0004B9CE  2576 0001:0004BA08  2578 0001:0004BA0B
  2607 0001:0004BA12  2610 0001:0004BA1B  2613 0001:0004BA39  2578 0001:0004BA70
  2613 0001:0004BA80  2626 0001:0004BB10  2627 0001:0004BB52  2629 0001:0004BB63
  2630 0001:0004BB6E  2631 0001:0004BB7E  2632 0001:0004BB92  2633 0001:0004BB9B
  2634 0001:0004BBBD  2635 0001:0004BBBE  2636 0001:0004BBF8  2638 0001:0004BBFB
  2640 0001:0004BC02  2668 0001:0004BC0E  2672 0001:0004BC17  2675 0001:0004BC35
  2638 0001:0004BC70  2675 0001:0004BC80  2687 0001:0004BD30  2688 0001:0004BD6C
  2690 0001:0004BD76  2691 0001:0004BD7E  2692 0001:0004BD8B  2693 0001:0004BD9F
  2694 0001:0004BDA8  2695 0001:0004BDC4  2696 0001:0004BDC5  2697 0001:0004BDE4
  2699 0001:0004BDE7  2724 0001:0004BDEE  2727 0001:0004BDF7  2730 0001:0004BE15
  2699 0001:0004BE50  2730 0001:0004BE60  2739 0001:0004BEF0  2740 0001:0004BF12
  2742 0001:0004BF1C  2743 0001:0004BF24  2744 0001:0004BF40  2745 0001:0004BF41
  2746 0001:0004BF4E  2748 0001:0004BF51  2765 0001:0004BF58  2768 0001:0004BF61
  2771 0001:0004BF7F  2748 0001:0004BFB0  2771 0001:0004BFC0  2780 0001:0004C020
  2781 0001:0004C042  2783 0001:0004C04C  2784 0001:0004C054  2785 0001:0004C070
  2786 0001:0004C071  2787 0001:0004C07E  2789 0001:0004C081  2806 0001:0004C088
  2809 0001:0004C091  2812 0001:0004C0AF  2789 0001:0004C0E0  2812 0001:0004C0F0
  2822 0001:0004C150  2823 0001:0004C17D  2825 0001:0004C18A  2826 0001:0004C195
  2827 0001:0004C1B7  2828 0001:0004C1B8  2829 0001:0004C1C8  2831 0001:0004C1CE
  2846 0001:0004C1D5  2847 0001:0004C1F0  2849 0001:0004C1F9  2854 0001:0004C200
  2858 0001:0004C21F  2860 0001:0004C256  2831 0001:0004C290  2860 0001:0004C2A0
  2863 0001:0004C320  2864 0001:0004C328  2865 0001:0004C337  2868 0001:0004C370
  2869 0001:0004C378  2872 0001:0004C387  2875 0001:0004C390  2876 0001:0004C398
  2877 0001:0004C3A0  2880 0001:0004C3B0  2881 0001:0004C3B8  2882 0001:0004C3C0
  2885 0001:0004C3D0  2886 0001:0004C3D8  2887 0001:0004C3E0  2890 0001:0004C3F0
  2891 0001:0004C3F8  2892 0001:0004C400  2895 0001:0004C410  2896 0001:0004C418
  2897 0001:0004C420  2900 0001:0004C430  2901 0001:0004C438  2902 0001:0004C440
  2905 0001:0004C450  2906 0001:0004C458  2907 0001:0004C460  2910 0001:0004C470
  2911 0001:0004C478  2912 0001:0004C480  2915 0001:0004C490  2916 0001:0004C498
  2917 0001:0004C4A0  2920 0001:0004C4B0  2921 0001:0004C4B8  2922 0001:0004C4C0
  2925 0001:0004C4D0  2926 0001:0004C4D8  2927 0001:0004C4E0  2930 0001:0004C4F0
  2931 0001:0004C4F8  2932 0001:0004C500  2935 0001:0004C510  2936 0001:0004C518
  2937 0001:0004C520  2940 0001:0004C530  2941 0001:0004C538  2942 0001:0004C540
  2945 0001:0004C550  2946 0001:0004C558  2947 0001:0004C560  2950 0001:0004C570
  2951 0001:0004C578  2952 0001:0004C580  2955 0001:0004C590  2956 0001:0004C598
  2957 0001:0004C5A0  2960 0001:0004C5B0  2961 0001:0004C5B8  2962 0001:0004C5C0
  2966 0001:0004C5D0  2967 0001:0004C5D3  2971 0001:0004C5E0  2972 0001:0004C5E2
  2995 0001:0004C5F0  2997 0001:0004C61E  2999 0001:0004C62A  3003 0001:0004C65F
  2983 0001:0004C6A0  2985 0001:0004C6C2  2987 0001:0004C6D5  2988 0001:0004C6DC
  2990 0001:0004C6E8  2993 0001:0004C71B

Line numbers for DbxXXDrv(DbxXXDrv.pas) segment .text

   132 0001:0004C780   140 0001:0004C782   143 0001:0004C7A0

Line numbers for DbxDBFix(DbxDBFix.pas) segment .text

   982 0001:0004C7C0

Line numbers for .dbxoodbc(.\..\..\..\source\packages\pkg\dbxoodbc.dpk) segment .text

    77 0001:0004CFF0

Bound resource files

dbxoodbc_man_icn.res
dbxoodbc_ver.res
C:\TEMP\dtfF55.tmp


Program entry point at 0001:0004CFF0
