
 Start         Length     Name                   Class
 0001:00000000 00058BDCH .text                   CODE
 0002:00000000 00000FA4H .data                   DATA
 0002:00000FA4 000001ADH .bss                    BSS


Detailed map of segments

 0001:00000000 000003BE C=CODE     S=.text    G=(none)   M=System   ACBP=A9
 0001:000003C0 0000022C C=CODE     S=.text    G=(none)   M=SysInit  ACBP=A9
 0001:000005EC 000001A8 C=CODE     S=.text    G=(none)   M=Windows  ACBP=A9
 0001:00000794 0000000E C=CODE     S=.text    G=(none)   M=Types    ACBP=A9
 0001:000007A4 000001EE C=CODE     S=.text    G=(none)   M=SysUtils ACBP=A9
 0001:00000994 0000000E C=CODE     S=.text    G=(none)   M=SysConst ACBP=A9
 0001:000009A4 0000016E C=CODE     S=.text    G=(none)   M=Classes  ACBP=A9
 0001:00000B14 0000000E C=CODE     S=.text    G=(none)   M=ActiveX  ACBP=A9
 0001:00000B24 00000038 C=CODE     S=.text    G=(none)   M=Messages ACBP=A9
 0001:00000B5C 0000001E C=CODE     S=.text    G=(none)   M=TypInfo  ACBP=A9
 0001:00000B7C 000000BE C=CODE     S=.text    G=(none)   M=Variants ACBP=A9
 0001:00000C3C 0000000E C=CODE     S=.text    G=(none)   M=VarUtils ACBP=A9
 0001:00000C4C 0000000E C=CODE     S=.text    G=(none)   M=RTLConsts ACBP=A9
 0001:00000C5C 0000000E C=CODE     S=.text    G=(none)   M=DBClient ACBP=A9
 0001:00000C6C 0000000E C=CODE     S=.text    G=(none)   M=SqlTimSt ACBP=A9
 0001:00000C7C 0000000E C=CODE     S=.text    G=(none)   M=DBConsts ACBP=A9
 0001:00000C8C 00000016 C=CODE     S=.text    G=(none)   M=DateUtils ACBP=A9
 0001:00000CA4 0000000E C=CODE     S=.text    G=(none)   M=Math     ACBP=A9
 0001:00000CB4 0000000E C=CODE     S=.text    G=(none)   M=Midas    ACBP=A9
 0001:00000CC4 00000036 C=CODE     S=.text    G=(none)   M=DBCommon ACBP=A9
 0001:00000CFC 00000616 C=CODE     S=.text    G=(none)   M=DB       ACBP=A9
 0001:00001314 0000003E C=CODE     S=.text    G=(none)   M=FMTBcd   ACBP=A9
 0001:00001354 0000000E C=CODE     S=.text    G=(none)   M=MaskUtils ACBP=A9
 0001:00001364 0000000E C=CODE     S=.text    G=(none)   M=ComObj   ACBP=A9
 0001:00001374 0000000E C=CODE     S=.text    G=(none)   M=ComConst ACBP=A9
 0001:00001384 0000000E C=CODE     S=.text    G=(none)   M=DSIntf   ACBP=A9
 0001:00001394 0000000E C=CODE     S=.text    G=(none)   M=MidConst ACBP=A9
 0001:000013A4 00000046 C=CODE     S=.text    G=(none)   M=Provider ACBP=A9
 0001:000013EC 0000000E C=CODE     S=.text    G=(none)   M=DataBkr  ACBP=A9
 0001:000013FC 0000000E C=CODE     S=.text    G=(none)   M=DBXpress ACBP=A9
 0001:0000140C 0000029E C=CODE     S=.text    G=(none)   M=SqlExpr  ACBP=A9
 0001:000016AC 0000000E C=CODE     S=.text    G=(none)   M=DBConnAdmin ACBP=A9
 0001:000016BC 0000000E C=CODE     S=.text    G=(none)   M=IniFiles ACBP=A9
 0001:000016CC 0000000E C=CODE     S=.text    G=(none)   M=SqlConst ACBP=A9
 0001:000016DC 00000046 C=CODE     S=.text    G=(none)   M=Registry ACBP=A9
 0001:00001724 000077D7 C=CODE     S=.text    G=(none)   M=Dbx23Fix ACBP=A9
 0001:00008EFC 00001970 C=CODE     S=.text    G=(none)   M=DbxOpenOdbcApiHook ACBP=A9
 0001:0000A86C 00000965 C=CODE     S=.text    G=(none)   M=DbxDBFix ACBP=A9
 0001:0000B1D4 0000004C C=CODE     S=.text    G=(none)   M=DbxXXDrv ACBP=A9
 0001:0000B220 00000038 C=CODE     S=.text    G=(none)   M=DbxOpenOdbcTypes ACBP=A9
 0001:0000B258 00000016 C=CODE     S=.text    G=(none)   M=SyncObjs ACBP=A9
 0001:0000B270 00000050 C=CODE     S=.text    G=(none)   M=ShlObj   ACBP=A9
 0001:0000B2C0 00000038 C=CODE     S=.text    G=(none)   M=UrlMon   ACBP=A9
 0001:0000B2F8 00000038 C=CODE     S=.text    G=(none)   M=WinInet  ACBP=A9
 0001:0000B330 00000038 C=CODE     S=.text    G=(none)   M=RegStr   ACBP=A9
 0001:0000B368 00000038 C=CODE     S=.text    G=(none)   M=ShellAPI ACBP=A9
 0001:0000B3A0 00000038 C=CODE     S=.text    G=(none)   M=CommCtrl ACBP=A9
 0001:0000B3D8 000033FC C=CODE     S=.text    G=(none)   M=DbxOpenOdbcFuncs ACBP=A9
 0001:0000E7D4 00008DE4 C=CODE     S=.text    G=(none)   M=OdbcApi  ACBP=A9
 0001:000175B8 00001260 C=CODE     S=.text    G=(none)   M=DbxOpenOdbcDbx3Types ACBP=A9
 0001:00018818 00001CC4 C=CODE     S=.text    G=(none)   M=DbxOpenOdbcInterface ACBP=A9
 0001:0001A4DC 0000000E C=CODE     S=.text    G=(none)   M=StrUtils ACBP=A9
 0001:0001A4EC 000026C4 C=CODE     S=.text    G=(none)   M=DbxOpenOdbcTrace ACBP=A9
 0001:0001CBB0 00001794 C=CODE     S=.text    G=(none)   M=DbxOpenOdbcUtils ACBP=A9
 0001:0001E344 00005804 C=CODE     S=.text    G=(none)   M=RegExpr  ACBP=A9
 0001:00023B48 00001344 C=CODE     S=.text    G=(none)   M=DbxObjectParser ACBP=A9
 0001:00024E8C 0000047C C=CODE     S=.text    G=(none)   M=DbxOpenOdbcCallback ACBP=A9
 0001:00025308 0000010C C=CODE     S=.text    G=(none)   M=DbxOpenOdbcASA ACBP=A9
 0001:00025414 00005D52 C=CODE     S=.text    G=(none)   M=DbxOpenOdbc3 ACBP=A9
 0001:0002B168 0002D0C3 C=CODE     S=.text    G=(none)   M=DbxOpenOdbc ACBP=A9
 0001:0005822C 00000790 C=CODE     S=.text    G=(none)   M=DbxOpenOdbcStatic ACBP=A9
 0001:000589BC 0000021D C=CODE     S=.text    G=(none)   M=dbxoodbc_emb ACBP=A9
 0002:00000000 00000030 C=DATA     S=.data    G=DGROUP   M=SysInit  ACBP=A9
 0002:00000030 000000CC C=DATA     S=.data    G=DGROUP   M=Dbx23Fix ACBP=A9
 0002:000000FC 00000540 C=DATA     S=.data    G=DGROUP   M=DbxOpenOdbcApiHook ACBP=A9
 0002:0000063C 00000006 C=DATA     S=.data    G=DGROUP   M=DbxOpenOdbcFuncs ACBP=A9
 0002:00000644 00000009 C=DATA     S=.data    G=DGROUP   M=OdbcApi  ACBP=A9
 0002:00000650 0000009F C=DATA     S=.data    G=DGROUP   M=DbxOpenOdbcDbx3Types ACBP=A9
 0002:000006F0 00000178 C=DATA     S=.data    G=DGROUP   M=DbxOpenOdbcInterface ACBP=A9
 0002:00000868 00000274 C=DATA     S=.data    G=DGROUP   M=DbxOpenOdbcTrace ACBP=A9
 0002:00000ADC 00000049 C=DATA     S=.data    G=DGROUP   M=RegExpr  ACBP=A9
 0002:00000B28 0000022C C=DATA     S=.data    G=DGROUP   M=DbxObjectParser ACBP=A9
 0002:00000D54 00000008 C=DATA     S=.data    G=DGROUP   M=DbxOpenOdbcASA ACBP=A9
 0002:00000D5C 00000004 C=DATA     S=.data    G=DGROUP   M=DbxOpenOdbc3 ACBP=A9
 0002:00000D60 0000019A C=DATA     S=.data    G=DGROUP   M=DbxOpenOdbc ACBP=A9
 0002:00000EFC 00000008 C=DATA     S=.data    G=DGROUP   M=DbxOpenOdbcStatic ACBP=A9
 0002:00001000 00000010 C=BSS      S=.bss     G=DGROUP   M=SysInit  ACBP=A9
 0002:00001010 00000004 C=BSS      S=.bss     G=DGROUP   M=Windows  ACBP=A9
 0002:00001014 00000004 C=BSS      S=.bss     G=DGROUP   M=Messages ACBP=A9
 0002:00001018 0000009C C=BSS      S=.bss     G=DGROUP   M=Dbx23Fix ACBP=A9
 0002:000010B4 00000004 C=BSS      S=.bss     G=DGROUP   M=DbxOpenOdbcApiHook ACBP=A9
 0002:000010B8 00000048 C=BSS      S=.bss     G=DGROUP   M=DbxDBFix ACBP=A9
 0002:00001100 00000004 C=BSS      S=.bss     G=DGROUP   M=DbxXXDrv ACBP=A9
 0002:00001104 00000004 C=BSS      S=.bss     G=DGROUP   M=DbxOpenOdbcTypes ACBP=A9
 0002:00001108 00000004 C=BSS      S=.bss     G=DGROUP   M=ShlObj   ACBP=A9
 0002:0000110C 00000004 C=BSS      S=.bss     G=DGROUP   M=UrlMon   ACBP=A9
 0002:00001110 00000004 C=BSS      S=.bss     G=DGROUP   M=WinInet  ACBP=A9
 0002:00001114 00000004 C=BSS      S=.bss     G=DGROUP   M=RegStr   ACBP=A9
 0002:00001118 00000004 C=BSS      S=.bss     G=DGROUP   M=ShellAPI ACBP=A9
 0002:0000111C 00000004 C=BSS      S=.bss     G=DGROUP   M=CommCtrl ACBP=A9
 0002:00001120 00000008 C=BSS      S=.bss     G=DGROUP   M=DbxOpenOdbcFuncs ACBP=A9
 0002:00001128 00000008 C=BSS      S=.bss     G=DGROUP   M=OdbcApi  ACBP=A9
 0002:00001130 00000004 C=BSS      S=.bss     G=DGROUP   M=DbxOpenOdbcDbx3Types ACBP=A9
 0002:00001134 00000014 C=BSS      S=.bss     G=DGROUP   M=DbxOpenOdbcInterface ACBP=A9
 0002:00001148 00000004 C=BSS      S=.bss     G=DGROUP   M=DbxOpenOdbcTrace ACBP=A9
 0002:0000114C 00000008 C=BSS      S=.bss     G=DGROUP   M=DbxOpenOdbcUtils ACBP=A9
 0002:00001154 00000004 C=BSS      S=.bss     G=DGROUP   M=RegExpr  ACBP=A9
 0002:00001158 00000004 C=BSS      S=.bss     G=DGROUP   M=DbxObjectParser ACBP=A9
 0002:0000115C 00000004 C=BSS      S=.bss     G=DGROUP   M=DbxOpenOdbcCallback ACBP=A9
 0002:00001160 00000008 C=BSS      S=.bss     G=DGROUP   M=DbxOpenOdbcASA ACBP=A9
 0002:00001168 0000002C C=BSS      S=.bss     G=DGROUP   M=DbxOpenOdbc3 ACBP=A9
 0002:00001194 00000004 C=BSS      S=.bss     G=DGROUP   M=DbxOpenOdbc ACBP=A9
 0002:00001198 00000014 C=BSS      S=.bss     G=DGROUP   M=DbxOpenOdbcStatic ACBP=A9


  Address         Publics by Name

 0002:00001164       .1
 0002:00001114       .1
 0002:00001108       .1
 0002:0000111C       .1
 0002:00001198       .1
 0002:00001100       .1
 0002:00001104       .1
 0002:00001130       .1
 0002:00001134       .1
 0002:0000115C       .1
 0002:0000110C       .1
 0002:000010B8       .1
 0002:00001110       .1
 0002:00001014       .1
 0002:00001150       .1
 0002:00001124       .1
 0002:00001118       .1
 0002:00001008       .1
 0002:00001018       .2
 0002:00001158       .2
 0002:000010B4       .2
 0002:00001194       .23
 0002:00001154       .3
 0002:00001010       .3
 0002:00001128       .5
 0002:00001190       .71
 0002:00001148       .9
 0001:00058BB4       @GetPackageInfoTable
 0001:000004C8       @GetTls
 0001:00000538       @InitPkg
 0001:00058BBC       @PackageLoad
 0001:0000059C       @PackageLoad
 0001:000005A8       @PackageUnload
 0001:00058BC8       @PackageUnload
 0001:00005EDC       AddExtraFieldProps
 0001:00006030       AddFieldDesc
 0001:00006190       AddMinMax
 0001:0002FE88       AllocateDbxHStmtNodes
 0001:000003F8       AllocTlsBuffer
 0001:0001E298       AnsiPos
 0001:0000B4B0       AnsiToOEM
 0001:0001E25C       ArgStrNull
 0001:0001BD64       ArrayToStr
 0001:0000DC64       ArrScanByte
 0001:0000DC9C       ArrScanDWord
 0001:0000DCB8       ArrScanPointer
 0001:0000DC80       ArrScanWord
 0002:00000D54       AsaCallbackMessage
 0001:00025340       ASA_MESSAGE_CALLBACK
 0001:00025320       ASA_MESSAGE_INIT
 0002:00000D58       aWindow
 0001:0001CC5C       BCD2Str
 0001:000278F8       BeginLock
 0002:00000030       bFixedSqlExpr
 0002:00000034       bFixedUnicode
 0002:000010D4       BlobField_SetVarValue
 0002:000006E0       BlobTypeMap
 0001:0001B880       BoolToStr
 0001:00005054       BufferToByteArray
 0001:00053818       BuildTableIndexKey
 0001:00005108       ByteArrayToBuffer
 0001:000538D0       CacheTableIndex
 0001:0004C18C       CalculateBlobFixSize
 0001:00003AF4       CalcUnits
 0001:0000893C       CalcUnits
 0002:00000DB4       cBindMapDateTimeOdbc2
 0002:00000DC0       cBindMapDateTimeOdbc3
 0002:00000AD4       cBoolean
 0002:00000ACC       cBoolean
 0002:00000EF8       cBoolOptionSwitches
 0002:00000D60       cConnectionOptionsDefault
 0002:00001168       cConnectionOptionsDefault3
 0002:000007B0       cConnectionOptionsDescs
 0002:000006F0       cConnectionOptionsNames
 0002:00000D88       cConnectionOptionsRestrictions
 0002:00000788       cConnectionOptionsTypes
 0002:00000A54       cDbmsType
 0002:00000EF0       cDbxDriverVersionString
 0002:00000EF4       cDbxProductVersionString
 0002:00000DCC       cDecimalSeparatorDefault
 0002:00000DD8       cGetOptionExceptionInfos
 0001:0001E1B8       ChangeFileExtW
 0001:00000714       CharLower
 0001:0000071C       CharToOemA
 0001:00000724       CharUpper
 0001:00049BC4       CheckAutoIncSubType
 0001:00002F08       CheckDetail
 0001:0002FDE8       CheckMaxLines
 0001:00053960       CheckTableIndexColumn
 0001:00042830       ChkDbxSQLParamDelim
 0001:00042820       ChkDbxSQLParamDelim
 0001:00022FF4       ClearMatchs
 0001:00031040       ClearNewErrors
 0002:00000648       cLibsSeparator
 0001:000005EC       CloseHandle
 0002:0000063C       cNullAnsiCharBuf
 0002:00000640       cNullWideCharBuf
 0002:000009E0       cOdbcDriverType
 0001:0000B3D0       CommCtrl
 0001:00035784       CompactNullConn
 0001:00035484       CompactNullConn
 0001:0000BA9C       CompareMemory
 0001:00006104       ComputeInfoCount
 0002:00000848       cOptionSwitchesNames
 0001:00000754       CopyMemory
 0001:000058FC       CopyWideString
 0001:000005FC       CreateMutex
 0002:00000D50       cRegExprSpesialSymbols
 0002:0000064C       cSqlAttrOdbcVerSeparator
 0002:00000974       cSQLCommandOption
 0002:00000880       cSQLConnectionOption
 0002:000009D4       cSQLCursorOption
 0002:00000868       cSQLDriverOption
 0002:0000092C       cSQLMetaDataOption
 0002:000009C0       cSTMTParamType
 0002:00000860       cXSQLCommandOptionStringTypes
 0002:00000858       cXSQLConnectionOptionStringTypes
 0002:00000854       cXSQLDriverOptionStringTypes
 0002:00000864       cXSQLMetaDataOptionStringTypes
 0002:000006C4       DataTypeMap
 0001:0000500C       DateTimeToNative
 0001:0000E748       dbg
 0001:0000E734       dbg
 0002:00000CD8       DbmsObjectNameTemplateInfo
 0001:00008EEC       Dbx23Fix
 0001:0000B1C0       DbxDBFix
 0001:00024E84       DbxObjectParser
 0001:00058BD4       dbxoodbc_emb
 0001:0005821C       DbxOpenOdbc
 0001:0002B124       DbxOpenOdbc3
 0001:0000A864       DbxOpenOdbcApiHook
 0001:000253F4       DbxOpenOdbcASA
 0001:00025300       DbxOpenOdbcCallback
 0001:00018810       DbxOpenOdbcDbx3Types
 0001:0000E7CC       DbxOpenOdbcFuncs
 0001:0001A4D4       DbxOpenOdbcInterface
 0001:00058908       DbxOpenOdbcStatic
 0001:0001CBA8       DbxOpenOdbcTrace
 0001:0000B250       DbxOpenOdbcTypes
 0001:0001E330       DbxOpenOdbcUtils
 0001:0000B218       DbxXXDrv
 0001:00025244       DecodeTraceInfo
 0002:00000B28       DefaultMathesIndexes
 0002:00000B50       DefaultObjectNameTemplateInfo
 0002:00001120       DefaultSystemCodePage
 0002:0000114C       DefaultSystemCodePage
 0001:0000061C       DeleteCriticalSection
 0001:000507AC       DirectoryExistsW
 0001:0002FE50       DisposeDbxConStmt
 0002:00000F00       DllHandle
 0001:0001A3FC       DoCallRegisterDbXpressLibProc
 0001:00042BE4       DoFetchColumns
 0001:00042F04       DoFetchIndexColumns
 0001:00042D68       DoFetchIndexes
 0001:00042844       DoFetchTables
 0001:0002EFC0       DoFormatParameter
 0001:0000F444       DoGetProcAddress
 0001:0000F45C       DoGetProcAddressEx
 0001:00057C8C       DoInitialzeUnit
 0001:000431E4       DoMetadataQuery
 0001:000430DC       DoMetadataQueryExecute
 0001:0004200C       DoPrepareNow
 0001:00041EBC       DoReBindParams
 0001:00057C74       DoRegisterDbXpressLibA
 0001:00057C80       DoRegisterDbXpressLibAW
 0001:0002B0DC       DoRegisterDbXpressLibW
 0001:0002B0E8       DoRegisterDbXpressLibWA
 0001:0003472C       DoRelaseDbxConStmt
 0001:00028060       DoSetCustomString
 0001:00027EA8       DoSetVendoLib
 0001:00012DD8       DoSQLFreeHandle
 0001:0000E274       DupeAnsiChar
 0001:0000E1D0       DupeString
 0001:0000E13C       DupeStringA
 0001:0000E09C       DupeStringW
 0001:0000E1E8       DupeWideChar
 0001:0002DB88       EmbeddedErrorTrack
 0001:00020558       EmitComplexBraces
 0001:00020BC4       EmitExactly
 0001:00020C7C       EmitRange
 0001:00020D80       EmitRangeC
 0001:00020D34       EmitRangeCPrim
 0001:000210AC       EmitRangeStr
 0001:00020650       EmitSimpleBraces
 0001:00021090       EmitSimpleRangeC
 0001:000279C8       EndLock
 0001:00000624       EnterCriticalSection
 0001:0001E56C       ExecRegExpr
 0001:000004A4       ExitProcessTLS
 0001:0000047C       ExitThreadTLS
 0001:0000D1DC       ExpandRegPathW
 0001:0002E240       ExtractCatalog
 0001:0000C04C       ExtractFilePathW
 0001:0000F390       ExtractNextLibName
 0002:000000D0       ExtraFieldProps
 0002:000010C4       FieldAccess_FindField
 0001:000030CC       FieldsInQuery
 0002:000010E4       Field_AssignValue
 0001:0000B220       Finalization
 0001:000253B8       Finalization
 0001:0000A834       Finalization
 0001:0000B288       Finalization
 0001:00017554       Finalization
 0001:0000B2C0       Finalization
 0001:0002B0F4       Finalization
 0001:0000B2F8       Finalization
 0001:0000B330       Finalization
 0001:0000B368       Finalization
 0001:000252D0       Finalization
 0001:0000B3A0       Finalization
 0001:00008E98       Finalization
 0001:00024DF8       Finalization
 0001:00023ADC       Finalization
 0001:0000E79C       Finalization
 0001:0000B1E8       Finalization
 0001:0001E300       Finalization
 0001:00000B24       Finalization
 0001:0000075C       Finalization
 0001:0001CAA0       Finalization
 0001:0001A464       Finalization
 0001:00058184       Finalization
 0001:000005B4       Finalization
 0001:000187E0       Finalization
 0001:000588D0       Finalization
 0001:0000B188       Finalization
 0001:0000062C       FindClose
 0001:00000634       FindFirstFileW
 0001:0000063C       FindNextFileW
 0001:0000A758       FindVirtualMethodIndex
 0001:00006D70       FixParams
 0001:00050858       fix_odbc_read_table_list_w_from_folder
 0001:0000ABE4       FIX_TBLOBFIELD_SETVARVALUE
 0001:0000A9B4       FIX_TFIELDS_FINDFIELD
 0001:0000AEF8       FIX_TFIELD_ASSIGNVALUE
 0001:0000AAF0       FIX_TINTEGERFIELD_GETISNULL
 0001:0000AD78       FIX_TSTRINGFIELD_GETVALUE
 0001:0000A86C       FIX_TSTRINGFIELD_SETASANSISTRING
 0001:0000B08C       FIX_TWIDESTRINGFIELD_GETASVARIANT
 0001:0000B020       FIX_TWIDESTRINGFIELD_GETASWIDESTRING
 0001:0000AFBC       FIX_TWIDESTRINGFIELD_GETDATASIZE
 0002:00000678       FldSubTypeMap
 0002:00000650       FldTypeMap
 0001:00000644       FlushInstructionCache
 0002:0000112C       fOdbcApiCache
 0001:0002EB6C       FormatDbxSubType
 0001:0002E5BC       FormatDbxType
 0001:0002FCF0       FormatParameter
 0001:0002FD08       FormatParameters
 0001:0000064C       FreeLibrary
 0001:000003C0       FreeLibrary
 0001:0001CBB0       FreeMemAndNil
 0001:0000A7F8       FxtGetStubAddress
 0002:00000D5C       gClientVersionOverload
 0001:00000654       GetACP
 0001:0000072C       GetActiveWindow
 0001:00004724       GetBlobSize
 0001:0000E75C       GetCompilerVersion
 0001:00030FCC       GetConnection
 0001:0003CB9C       GetConnectionCustomOptions
 0001:00006ED4       GetConnectionForStatement
 0001:0000065C       GetCurrentProcess
 0001:00000664       GetCurrentProcessId
 0001:0000066C       GetCurrentThreadId
 0001:0001B69C       GetCurThreadInfoStr
 0001:0003CDE0       GetDatabaseNameOption
 0001:00024058       GetDbmsObjectNameTemplateInfo
 0001:00000674       GetEnvironmentVariableA
 0001:0001C61C       GetExceptionInfoStr
 0001:0000067C       GetFileAttributesW
 0001:00050818       GetFileExt
 0001:00000684       GetLastError
 0001:0000068C       GetModuleHandle
 0001:000095FC       GetNativeAddr
 0001:000081DC       GetNativeAddr
 0001:0000B740       GetOptionValue
 0001:00001A34       GetParamData
 0001:00000694       GetProcAddress
 0001:0004DD90       GetRowStatus
 0001:0002DBD0       getSQLDriverODBC
 0001:0002DD04       getSQLDriverODBCAW
 0001:000276E8       getSQLDriverODBCW
 0001:000277F0       getSQLDriverODBCWA
 0001:000076A8       GetSQLToken
 0001:00030AAC       GetStringOptions
 0001:000081B4       GetTableNameFromSQLFix
 0001:00003810       GetTableScope
 0001:0000069C       GetTempFileName
 0001:0000BAE8       GetTemporaryFileName
 0001:0000BC0C       GetTemporaryFolder
 0001:000006A4       GetTempPath
 0001:00000404       GetTlsSize
 0001:00024E8C       GetTraceFlag
 0001:00024EA8       GetTraceFlagName
 0001:000251A8       GetTraceFlagName
 0001:000251C8       GetTraceMessage
 0001:0001C8DC       GetTransactionDescStr
 0001:0003D584       GetTransactionTypeName
 0001:0003F0F8       GetValueAsAnsiStr
 0001:0000D35C       GetValueAsRegistry
 0001:0000C224       GetValueAsShellFolderKey
 0001:0000CC28       GetValueAsSpecialWinFolder
 0001:0000C170       GetValueAsTempFolder
 0001:0000C0A8       GetValueAsWorkFolder
 0001:0003D018       GetVendorProperty
 0001:000006AC       GetVersion
 0001:0000A698       GetVirtualMethodAddress
 0001:0000A7D0       GetVirtualMethodOffset
 0002:00000DB0       gHostPlatform
 0001:00020C34       HexDig
 0001:00035BD0       HidePassword
 0002:00001004       HInstance
 0001:0000938C       HookCode
 0001:000586A8       HookIAT_LoadLibrary
 0001:000094BC       HookProc
 0001:000279E0       HostAppPlatformInitialize
 0002:00000EFC       IATPatch
 0002:00000C3C       InformixMathesIndexes
 0002:00000C58       InformixObjectNameTemplateInfo
 0001:000006B4       InitializeCriticalSection
 0001:00000508       InitializeModule
 0001:00000450       InitProcessTLS
 0001:0000040C       InitThreadTLS
 0001:0000839C       InstallFix
 0001:0000B134       INSTALL_FIXES
 0001:0000AD38       INSTALL_FIX_TBLOBFIELD_SETVARVALUE
 0001:0000AAB0       INSTALL_FIX_TFIELDS_FINDFIELD
 0001:0000AF84       INSTALL_FIX_TFIELD_ASSIGNVALUE
 0001:0000AB3C       INSTALL_FIX_TINTEGERFIELD_GETISNULL
 0001:0000AEB8       INSTALL_FIX_TSTRINGFIELD_GETVALUE
 0001:0000A970       INSTALL_FIX_TSTRINGFIELD_SETASANSISTRING
 0001:0000B0F4       INSTALL_FIX_TWIDESTRINGFIELD_GETASVARIANT
 0001:0000B04C       INSTALL_FIX_TWIDESTRINGFIELD_GETASWIDESTRING
 0001:0000AFE0       INSTALL_FIX_TWIDESTRINGFIELD_GETDATASIZE
 0002:000010CC       IntegerField_GetIsNull
 0001:000006BC       IsBadReadPtr
 0001:0003102C       IsConnection
 0001:0000B1D4       IsDbxDrvFixed
 0001:00007328       isDigit
 0002:00000DD0       IsDriverEmbedded
 0001:000537E8       IsFilteredIndex
 0001:000342F0       IsFreeDbxConStmt
 0001:0000981C       IsJumpFromCode
 0001:0000D264       IsLeftKey
 0001:00007228       IsLiteral
 0001:00007EB0       IsMultiTableQueryEx
 0001:00008164       IsMultiTableQueryFix
 0001:000071F4       IsNameDelimiter
 0001:0002DE04       IsRestrictedConnectionOptionValue
 0001:0005822C       IsStatic
 0001:0000BDD8       is_prepared_alias
 0001:0000BEE4       is_prepared_alias_word
 0002:00001064       jmp_GetTableNameFromSQL
 0002:0000105C       jmp_IsMultiTableQuery
 0002:00001054       jmp_NextSQLToken
 0002:00001074       jmp_TCustomSQLDataSet_AddFieldDesc
 0002:00001044       jmp_TCustomSQLDataSet_ExecuteStatement
 0002:0000107C       jmp_TCustomSQLDataSet_GetFieldData1
 0002:0000103C       jmp_TCustomSQLDataSet_OpenSchema
 0002:0000102C       jmp_TCustomSQLDataSet_PrepareStatement
 0002:00001034       jmp_TCustomSQLDataSet_PSGetDefaultOrder
 0002:000010AC       jmp_TDataPacketWriterFix_AddColumn
 0002:0000101C       jmp_TDataSetProvider_InternalGetRecords
 0002:00001084       jmp_TDataSet_DataConvert
 0002:0000108C       jmp_TDataSet_GetFieldData2
 0002:0000104C       jmp_TParams_ParseSQL
 0002:0000109C       jmp_TParam_GetData
 0002:00001094       jmp_TParam_GetDataSize
 0002:00001024       jmp_TSQLConnection_CloneConnection
 0002:0000106C       jmp_TSQLConnection_Execute
 0002:000010A4       jmp_TWideStringField_GetDataSize
 0001:00009640       JumpFromCode
 0001:00008200       JumpFromCode
 0001:000249E0       LDoCalculateTemplate
 0001:00033C50       LDoClearResult
 0001:000583B0       LDoGetProcAddress
 0001:000310F0       LDoMakeResult
 0001:00046240       LDo_PostgreSQL_Make_Buffer
 0001:000006C4       LeaveCriticalSection
 0001:0003CFB4       LGetISQLConnection2x
 0001:00027E48       LGetISQLConnection30
 0001:00004A74       LoadFieldDef
 0001:000006CC       LoadLibrary
 0001:0000F510       LoadOdbcDriverManager
 0001:0000B528       LoadStringFromFileA
 0001:0000B608       LoadStringFromFileW
 0001:000003C8       LocalAlloc
 0001:000003D0       LocalFree
 0001:0001C38C       LogEnterProc
 0001:0001C2C4       LogEnterProc
 0001:0001C86C       LogExceptProc
 0001:0001C734       LogExceptProc
 0001:0001C5B0       LogExitProc
 0001:0001C4D8       LogExitProc
 0001:0001C3F8       LogInfoProc
 0001:0001C474       LogInfoProc
 0001:00045568       MakeStoredProcParams
 0001:00030800       MakeStringExceptionFromInfo
 0001:00050BB8       MakeTableTypeString
 0001:0000B3E0       max
 0002:00000DD4       MaxCount
 0001:0001CBC4       MaxSet
 0001:0001CC3C       MaxSet
 0001:0001CC20       MaxSet
 0001:0001CC00       MaxSet
 0001:0001CBE4       MaxSet
 0001:0001CBCC       MaxSet
 0001:00035CC8       MergeAndSetConnOptions
 0001:00000B54       Messages
 0002:00000B18       META
 0001:0000B3D8       min
 0002:00000008       Module
 0002:00001000       ModuleIsLib
 0002:00001001       ModuleIsPackage
 0001:000006D4       MultiByteToWideChar
 0001:00007218       NameDelimiter
 0001:00004F80       NativeToDateTime
 0001:0002FE10       NewDbxConStmt
 0001:00058388       NewFreeLibrary
 0001:000585F0       NewGetProcAddress
 0001:00058238       NewLoadLibraryA
 0001:000582D4       NewLoadLibraryW
 0001:00006C6C       NextPiece
 0001:00007B00       NextSQLTokenFix
 0001:000075EC       NextTokenIs
 0001:00004654       NormalizeBcdData
 0001:00017598       OdbcApi
 0001:0002E2F8       OdbcDataTypeToDbxType
 0001:00049394       OdbcSqlCTypeToStr
 0001:000489C0       OdbcSqlTypeToStr
 0001:0000B4EC       OemToAnsi
 0001:00000734       OemToCharA
 0002:000000FC       Opcodes1
 0002:000002FC       Opcodes2
 0002:000004FC       Opcodes3
 0001:0004C0C0       OptimizeNextChunkSize
 0002:00000BEC       OracleMathesIndexes
 0002:00000C08       OracleObjectNameTemplateInfo
 0001:0001B76C       OutputDebugString
 0001:0001B7D0       OutputDebugString
 0001:000006DC       OutputDebugStringA
 0001:000006E4       OutputDebugStringW
 0002:00000038       PacketTypeMap
 0001:0001E144       PAnsiCharParam
 0001:0001E150       PAnsiCharParam
 0001:00035DA0       ParseConnectionOptions
 0001:000204F8       parsenum
 0001:000234A8       ParseVarName
 0001:0001E200       PIntToStr
 0001:0000BA94       PointerOffset
 0001:0000B3E8       Pos
 0001:0000DD88       PosChar
 0001:0000DD5C       PosChar
 0001:0000DE0C       PosChar
 0001:0000DE90       PosChar
 0001:0000DF00       PosCharEx
 0001:0000E04C       PosCharEx
 0001:0000DFA0       PosCharEx
 0001:0000DEB8       PosCharEx
 0001:0000B438       PosEx
 0001:0000D820       PrepareFileNameAliases
 0001:0000DBD8       PrepareFileNameAliases
 0001:00046090       ProcessVarDataLength
 0002:00000004       PtrToNil
 0001:0001E6C8       QuoteRegExprMetaChars
 0001:0000552C       ReadDataFromBlobField
 0001:000053AC       ReadDataFromBlobStream
 0001:00023B40       RegExpr
 0002:00000B04       RegExprInvertCaseFunction
 0002:00000B00       RegExprLinePairedSeparator
 0002:00000AFC       RegExprLineSeparators
 0002:00000B14       RegExprMetaSet
 0002:00000AE8       RegExprModifierG
 0002:00000ADC       RegExprModifierI
 0002:00000AEC       RegExprModifierM
 0002:00000AE0       RegExprModifierR
 0002:00000AE4       RegExprModifierS
 0002:00000AF0       RegExprModifierX
 0002:00000AF4       RegExprSpaceChars
 0001:0001E7C0       RegExprSubExpressions
 0002:00000AF8       RegExprWordChars
 0001:0001A424       RegisterDbXpressLibA
 0001:0001A42C       RegisterDbXpressLibAW
 0001:0001A444       RegisterDbXpressLibProc
 0001:0001A434       RegisterDbXpressLibW
 0001:0001A43C       RegisterDbXpressLibWA
 0001:0000073C       RegisterWindowMessageA
 0001:0002301C       RegMatch
 0001:0000B360       RegStr
 0001:000507DC       RemoveFileExt
 0001:0001E640       ReplaceRegExpr
 0001:00009730       RestoreSavedCode
 0001:000082C4       RestoreSavedCode
 0001:0005618C       RetrieveProcedureSchemaForSysNaming
 0001:000239E4       ReturnAddr
 0001:00009314       SaveOldFunction
 0001:00000744       SendMessage
 0001:0003F184       SetConnectionCustomOptions
 0001:0002DE90       SetConnectionOption
 0001:0000074C       SetCursor
 0001:000006EC       SetEnvironmentVariableA
 0001:00003C08       SetProcedureParams
 0001:000041FC       SetQueryParams
 0001:00003340       SetSchemaOption
 0001:00046120       SetVarData
 0001:0000A6C4       SetVirtualMethodAddress
 0001:0000B398       ShellAPI
 0001:0000B270       SHGetMalloc
 0001:0000B278       SHGetPathFromIDListW
 0001:0000B280       SHGetSpecialFolderLocation
 0001:0000B2B8       ShlObj
 0001:00008F84       SizeOfCode
 0001:000092D0       SizeOfProc
 0001:0001E5D4       SplitRegExpr
 0001:000187CC       SQLExpr_RegisterDbXpressLib
 0001:00031144       SQLGetDiagRecLevel2
 0002:00000B84       SQLServerMathesIndexes
 0002:00000BB8       SQLServerObjectNameTemplateInfo
 0001:0000F088       SQL_SUCCEEDED
 0001:00007AE4       StartToken
 0001:0001CE54       Str2BCD
 0001:0001E164       StrAnsiStringParam
 0001:0001E18C       StrAnsiStringParam
 0001:0001D37C       StrBuffCopy
 0001:0001D438       StrBuffCopy
 0001:0001D498       StrBuffCopy
 0001:0001D3D8       StrBuffCopy
 0001:0001D514       StrBuffCopy
 0001:0001D4FC       StrBuffCopy
 0001:0001D52C       StrClone
 0001:0001D5E4       StrClone
 0001:0001D638       StrClone
 0001:0001DA84       StrClone
 0001:0001DA0C       StrClone
 0001:0001D994       StrClone
 0001:0001D95C       StrClone
 0001:0001D910       StrClone
 0001:0001D884       StrClone
 0001:0001D7F4       StrClone
 0001:0001D768       StrClone
 0001:0001D710       StrClone
 0001:0001D658       StrClone
 0001:0001D584       StrClone
 0001:0001FFE4       strcspn
 0001:0000E654       StringCharModify
 0001:0000E5EC       StringCharModify
 0001:0000E588       StringCharModify
 0001:0000E6B8       StringCharModify
 0001:0000E3A4       StringCharReplace
 0001:0000E434       StringCharReplace
 0001:0000E4E8       StringCharReplace
 0001:0000E2F4       StringCharReplace
 0002:000010DC       StringField_GetValue
 0002:000010BC       StringField_SetAsAnsiString
 0001:0001D1C4       StringsToWStr
 0001:0001D0EC       StringToWideChar
 0001:0001D12C       StringToWStr
 0001:0001D170       StringToWStr
 0001:00007248       StripChar
 0001:000072B4       StripLiterals
 0001:0001DF60       StrISameText
 0001:0001DFE4       StrISameText
 0001:0001E064       StrISameText
 0001:0001DF30       StrISameText
 0001:0001DF00       StrISameText
 0001:0001E07C       StrISameText
 0001:0001E094       StrISameText
 0001:0001E0EC       StrISameText
 0001:0001DAB8       StrIsEmpty
 0001:0001DAC8       StrIsEmpty
 0001:0001DAD8       StrIsEmpty
 0001:0001DAF4       StrIsEmpty
 0001:0001D230       StrLenNil
 0001:0001DB10       StrNotEmpty
 0001:0001DB4C       StrNotEmpty
 0001:0001DB20       StrNotEmpty
 0001:0001DB30       StrNotEmpty
 0001:0001DBC8       StrPtrToString
 0001:0001DB68       StrPtrToString
 0001:0001DBF0       StrPtrToString
 0001:0001DE98       StrSameText
 0001:0001DEE8       StrSameText
 0001:0001DECC       StrSameText
 0001:0001DC54       StrSameText
 0001:0001DC84       StrSameText
 0001:0001DCB4       StrSameText
 0001:0001DD38       StrSameText
 0001:0001DDB8       StrSameText
 0001:0001DDD0       StrSameText
 0001:0001DDE8       StrSameText
 0001:0001DE40       StrSameText
 0001:0001DEB4       StrSameText
 0001:00053738       SyncPKSortOrder
 0001:000005E4       SysInit
 0002:00000644       sysodbclib
 0001:00057A70       TBlobChunkCollection.AddFragment
 0001:00057AB0       TBlobChunkCollection.Clear
 0001:00057AE8       TBlobChunkCollection.Destroy
 0001:00057B14       TBlobChunkCollection.GetSize
 0001:00057B38       TBlobChunkCollection.Read
 0001:00057BB8       TBlobChunkCollection.ReadBlobToStream
 0001:00057B70       TBlobChunkCollection.ReadBlobToVariant
 0001:0000AB7C       TBlobField_SetData
 0001:00004B14       TCustomSQLDataSetFixD7.AddFieldDesc
 0001:00002B8C       TCustomSQLDataSetFixD7.AddQuoteCharToObjectName
 0001:00006F6C       TCustomSQLDataSetFixD7.CheckStatement
 0001:00004514       TCustomSQLDataSetFixD7.ExecuteStatement
 0001:0000478C       TCustomSQLDataSetFixD7.GetFieldData
 0001:00002C5C       TCustomSQLDataSetFixD7.GetQueryFromType
 0001:00003840       TCustomSQLDataSetFixD7.OpenSchema
 0001:00002FAC       TCustomSQLDataSetFixD7.PrepareStatement
 0001:0000320C       TCustomSQLDataSetFixD7.PSGetDefaultOrder
 0001:00006450       TDataPacketWriterFix.AddColumn
 0001:00005198       TDataSetFix.DataConvert
 0001:0000557C       TDataSetFix.GetFieldData
 0001:000025E4       TDataSetProviderFix.CheckDataSet
 0001:000023F4       TDataSetProviderFix.InternalGetRecords
 0001:0000257C       TDataSetProviderFix.Reset
 0001:00029A90       TDbxCommandParser.Create
 0001:00029D78       TDbxCommandParser.GetParam
 0001:00029A44       TDbxCommandParser.IsDbxCommand
 0001:00029A20       TDbxCommandParser.IsDbxCommand
 0001:0002997C       TDbxCommandParser.IsDbxCommand
 0001:000299F8       TDbxCommandParser.IsDbxCommand
 0001:00030BEC       TDOSQLObject.SelfObj
 0002:00000C8C       TextMathesIndexes
 0002:00000CA4       TextObjectNameTemplateInfo
 0001:00009CD8       TIATPatch.BuildIATPatchList
 0001:0000A304       TIATPatch.Clear
 0001:000098FC       TIATPatch.CompareLibraryNames
 0001:0000A594       TIATPatch.Create
 0001:0000A218       TIATPatch.Delete
 0001:0000A5FC       TIATPatch.Destroy
 0001:00009AA8       TIATPatch.EnumIATList
 0001:0000A0D4       TIATPatch.Find
 0001:0000A53C       TIATPatch.GetCount
 0001:0000A434       TIATPatch.GetPatchRecord
 0001:0000A494       TIATPatch.GetUnpatchOnFree
 0001:000098B0       TIATPatch.ListContainsIAT
 0001:0000986C       TIATPatch.NextFunctionName
 0001:00009E9C       TIATPatch.Patch
 0001:0000A4E8       TIATPatch.SetUnpatchOnFree
 0001:00009D6C       TIATPatch.Unpatch
 0001:000099DC       TIATPatch.UpdateEntry
 0001:00009A50       TIATPatch.UpdatePatch
 0001:000003D8       TlsAlloc
 0002:0000100C       tlsBuffer
 0001:000003E0       TlsFree
 0001:000003E8       TlsGetValue
 0002:00000000       TlsIndex
 0002:FFBA6004       TlsLast
 0002:00000020       TlsProc
 0001:000003F0       TlsSetValue
 0001:0005005C       TMetaColumn.Create
 0001:000500F8       TMetaColumn.CreateW
 0001:00050194       TMetaColumn.Destroy
 0001:000501BC       TMetaIndexColumn.Create
 0001:00050274       TMetaIndexColumn.CreateW
 0001:0005032C       TMetaIndexColumn.Destroy
 0001:00050354       TMetaProcedure.Create
 0001:000503DC       TMetaProcedure.CreateW
 0001:00050464       TMetaProcedure.Destroy
 0001:0005048C       TMetaProcedureParam.Create
 0001:000504D8       TMetaProcedureParam.CreateW
 0001:00050524       TMetaProcedureParam.Destroy
 0001:0004FBAC       TMetaTable.Create
 0001:0004FDC4       TMetaTable.CreateW
 0001:0005002C       TMetaTable.Destroy
 0001:0000DD18       ToAnsiChar
 0001:0000DCD4       ToAnsiChar
 0001:000240A4       TObjectNameParser.Create
 0001:00024660       TObjectNameParser.DecodeObjectFullName
 0001:000245EC       TObjectNameParser.Destroy
 0001:000249F4       TObjectNameParser.EncodeObjectFullName
 0001:00024D64       TObjectNameParser.GetQuotedObjectName
 0001:00016270       TOdbcApiIntfImpl.CheckAvailableProxy
 0001:000162C0       TOdbcApiIntfImpl.FireVSDebugEvent
 0001:000162DC       TOdbcApiIntfImpl.ODBCGetTryWaitValue
 0001:000162F0       TOdbcApiIntfImpl.ODBCSetTryWaitValue
 0001:00016440       TOdbcApiIntfImpl.SQLAllocConnect
 0001:00016460       TOdbcApiIntfImpl.SQLAllocEnv
 0001:0001647C       TOdbcApiIntfImpl.SQLAllocHandle
 0001:000164A8       TOdbcApiIntfImpl.SQLAllocHandleStd
 0001:000164D4       TOdbcApiIntfImpl.SQLAllocStmt
 0001:000164F4       TOdbcApiIntfImpl.SQLBindCol
 0001:0001652C       TOdbcApiIntfImpl.SQLBindParam
 0001:00016570       TOdbcApiIntfImpl.SQLBindParameter
 0001:000165BC       TOdbcApiIntfImpl.SQLBrowseConnect
 0001:000165F4       TOdbcApiIntfImpl.SQLBulkOperations
 0001:00016614       TOdbcApiIntfImpl.SQLCancel
 0001:00016630       TOdbcApiIntfImpl.SQLCloseCursor
 0001:0001664C       TOdbcApiIntfImpl.SQLColAttribute
 0001:00016688       TOdbcApiIntfImpl.SQLColAttributeInt
 0001:000166C4       TOdbcApiIntfImpl.SQLColAttributes
 0001:00016700       TOdbcApiIntfImpl.SQLColAttributeString
 0001:0001673C       TOdbcApiIntfImpl.SQLColumnPrivileges
 0001:00016784       TOdbcApiIntfImpl.SQLColumns
 0001:000167CC       TOdbcApiIntfImpl.SQLConnect
 0001:0001680C       TOdbcApiIntfImpl.SQLCopyDesc
 0001:0001682C       TOdbcApiIntfImpl.SQLDataSources
 0001:0001686C       TOdbcApiIntfImpl.SQLDescribeCol
 0001:000168B0       TOdbcApiIntfImpl.SQLDescribeParam
 0001:000168E8       TOdbcApiIntfImpl.SQLDisconnect
 0001:00016904       TOdbcApiIntfImpl.SQLDriverConnect
 0001:00016948       TOdbcApiIntfImpl.SQLDrivers
 0001:00016988       TOdbcApiIntfImpl.SQLEndTran
 0001:000169B4       TOdbcApiIntfImpl.SQLError
 0001:000169F4       TOdbcApiIntfImpl.SQLExecDirect
 0001:00016A20       TOdbcApiIntfImpl.SQLExecute
 0001:00016A3C       TOdbcApiIntfImpl.SQLExtendedFetch
 0001:00016A70       TOdbcApiIntfImpl.SQLFetch
 0001:00016A8C       TOdbcApiIntfImpl.SQLFetchScroll
 0001:00016AB8       TOdbcApiIntfImpl.SQLForeignKeys
 0001:00016B10       TOdbcApiIntfImpl.SQLFreeConnect
 0001:00016B2C       TOdbcApiIntfImpl.SQLFreeEnv
 0001:00016B48       TOdbcApiIntfImpl.SQLFreeHandle
 0001:00016B68       TOdbcApiIntfImpl.SQLFreeStmt
 0001:00016B88       TOdbcApiIntfImpl.SQLFunctionSupported
 0001:00016BA8       TOdbcApiIntfImpl.SQLGetConnectAttr
 0001:00016BDC       TOdbcApiIntfImpl.SQLGetConnectOption
 0001:00016C08       TOdbcApiIntfImpl.SQLGetCursorName
 0001:00016C38       TOdbcApiIntfImpl.SQLGetData
 0001:00016C70       TOdbcApiIntfImpl.SQLGetDescField
 0001:00016CA8       TOdbcApiIntfImpl.SQLGetDescRec
 0001:00016CF4       TOdbcApiIntfImpl.SQLGetDiagField
 0001:00016D34       TOdbcApiIntfImpl.SQLGetDiagRec
 0001:00016D74       TOdbcApiIntfImpl.SQLGetEnvAttr
 0001:00016DA8       TOdbcApiIntfImpl.SQLGetFunctions
 0001:00016DD4       TOdbcApiIntfImpl.SQLGetInfo
 0001:00016E08       TOdbcApiIntfImpl.SQLGetInfoInt
 0001:00016E3C       TOdbcApiIntfImpl.SQLGetInfoSmallint
 0001:00016E70       TOdbcApiIntfImpl.SQLGetInfoString
 0001:00016EA4       TOdbcApiIntfImpl.SQLGetStmtAttr
 0001:00016ED8       TOdbcApiIntfImpl.SQLGetStmtOption
 0001:00016F04       TOdbcApiIntfImpl.SQLGetTypeInfo
 0001:00016F24       TOdbcApiIntfImpl.SQLMoreResults
 0001:00016F40       TOdbcApiIntfImpl.SQLNativeSql
 0001:00016F78       TOdbcApiIntfImpl.SQLNumParams
 0001:00016F98       TOdbcApiIntfImpl.SQLNumResultCols
 0001:00016FB8       TOdbcApiIntfImpl.SQLParamData
 0001:00016FD8       TOdbcApiIntfImpl.SQLParamOptions
 0001:00017004       TOdbcApiIntfImpl.SQLPrepare
 0001:00017030       TOdbcApiIntfImpl.SQLPrimaryKeys
 0001:00017070       TOdbcApiIntfImpl.SQLProcedureColumns
 0001:000170B8       TOdbcApiIntfImpl.SQLProcedures
 0001:000170F8       TOdbcApiIntfImpl.SQLPutData
 0001:00017124       TOdbcApiIntfImpl.SQLRowCount
 0001:00017144       TOdbcApiIntfImpl.SQLSetConnectAttr
 0001:00017174       TOdbcApiIntfImpl.SQLSetConnectOption
 0001:000171A0       TOdbcApiIntfImpl.SQLSetCursorName
 0001:000171CC       TOdbcApiIntfImpl.SQLSetDescField
 0001:00017200       TOdbcApiIntfImpl.SQLSetDescRec
 0001:0001724C       TOdbcApiIntfImpl.SQLSetEnvAttr
 0001:0001727C       TOdbcApiIntfImpl.SQLSetParam
 0001:000172C0       TOdbcApiIntfImpl.SQLSetPos
 0001:000172F0       TOdbcApiIntfImpl.SQLSetScrollOptions
 0001:00017320       TOdbcApiIntfImpl.SQLSetStmtAttr
 0001:00017350       TOdbcApiIntfImpl.SQLSetStmtOption
 0001:0001737C       TOdbcApiIntfImpl.SQLSpecialColumns
 0001:000173C8       TOdbcApiIntfImpl.SQLStatistics
 0001:00017410       TOdbcApiIntfImpl.SQLTablePrivileges
 0001:00017450       TOdbcApiIntfImpl.SQLTables
 0001:00017498       TOdbcApiIntfImpl.SQLTransact
 0001:0001630C       TOdbcApiIntfImpl.SQL_ADD_RECORD
 0001:0001632C       TOdbcApiIntfImpl.SQL_DELETE_RECORD
 0001:0001634C       TOdbcApiIntfImpl.SQL_FUNC_EXISTS
 0001:00016370       TOdbcApiIntfImpl.SQL_LEN_BINARY_ATTR
 0001:0001638C       TOdbcApiIntfImpl.SQL_LEN_DATA_AT_EXEC
 0001:000163A8       TOdbcApiIntfImpl.SQL_LOCK_RECORD
 0001:000163D4       TOdbcApiIntfImpl.SQL_POSITION_TO
 0001:000163F4       TOdbcApiIntfImpl.SQL_REFRESH_RECORD
 0001:00016420       TOdbcApiIntfImpl.SQL_UPDATE_RECORD
 0001:000174C4       TOdbcApiIntfImpl.TraceCloseLogFile
 0001:000174D8       TOdbcApiIntfImpl.TraceOpenLogFile
 0001:00017504       TOdbcApiIntfImpl.TraceReturn
 0001:00017524       TOdbcApiIntfImpl.TraceVersion
 0001:00017538       TOdbcApiIntfImpl.TraceVSControl
 0001:00011240       TOdbcApiProxy.BeginLock
 0001:000110C8       TOdbcApiProxy.Destroy
 0001:0001124C       TOdbcApiProxy.EndLock
 0001:00016004       TOdbcApiProxy.FireVSDebugEvent
 0001:00016230       TOdbcApiProxy.GetOdbcApiIntf
 0001:00011130       TOdbcApiProxy.NotImplemented
 0001:00016044       TOdbcApiProxy.ODBCGetTryWaitValue
 0001:00016090       TOdbcApiProxy.ODBCSetTryWaitValue
 0001:00016180       TOdbcApiProxy.SetOdbcDriverLevel
 0001:00011258       TOdbcApiProxy.SQLAllocConnect
 0001:00011274       TOdbcApiProxy.SQLAllocEnv
 0001:000112E8       TOdbcApiProxy.SQLAllocHandle
 0001:00011290       TOdbcApiProxy.SQLAllocHandleStd
 0001:00011384       TOdbcApiProxy.SQLAllocStmt
 0001:000113A0       TOdbcApiProxy.SQLBindCol
 0001:000113F8       TOdbcApiProxy.SQLBindParam
 0001:00011460       TOdbcApiProxy.SQLBindParameter
 0001:000114DC       TOdbcApiProxy.SQLBrowseConnect
 0001:00011658       TOdbcApiProxy.SQLBulkOperations
 0001:000116A0       TOdbcApiProxy.SQLCancel
 0001:000116D8       TOdbcApiProxy.SQLCloseCursor
 0001:00011728       TOdbcApiProxy.SQLColAttribute
 0001:00011908       TOdbcApiProxy.SQLColAttributeInt
 0001:00011950       TOdbcApiProxy.SQLColAttributes
 0001:0001192C       TOdbcApiProxy.SQLColAttributeString
 0001:00011ADC       TOdbcApiProxy.SQLColumnPrivileges
 0001:00011C54       TOdbcApiProxy.SQLColumns
 0001:00011E08       TOdbcApiProxy.SQLConnect
 0001:00011F78       TOdbcApiProxy.SQLCopyDesc
 0001:00011FB0       TOdbcApiProxy.SQLDataSources
 0001:0001216C       TOdbcApiProxy.SQLDescribeCol
 0001:000122E4       TOdbcApiProxy.SQLDescribeParam
 0001:0001234C       TOdbcApiProxy.SQLDisconnect
 0001:00012388       TOdbcApiProxy.SQLDriverConnect
 0001:00012554       TOdbcApiProxy.SQLDrivers
 0001:00012768       TOdbcApiProxy.SQLEndTran
 0001:000127FC       TOdbcApiProxy.SQLError
 0001:0001299C       TOdbcApiProxy.SQLExecDirect
 0001:00012A64       TOdbcApiProxy.SQLExecute
 0001:00012A9C       TOdbcApiProxy.SQLExtendedFetch
 0001:00012B00       TOdbcApiProxy.SQLFetch
 0001:00012B3C       TOdbcApiProxy.SQLFetchScroll
 0001:00012B90       TOdbcApiProxy.SQLForeignKeys
 0001:00012D5C       TOdbcApiProxy.SQLFreeConnect
 0001:00012D9C       TOdbcApiProxy.SQLFreeEnv
 0001:00012EA4       TOdbcApiProxy.SQLFreeHandle
 0001:00012F2C       TOdbcApiProxy.SQLFreeStmt
 0001:00013A78       TOdbcApiProxy.SQLFunctionSupported
 0001:00012F6C       TOdbcApiProxy.SQLGetConnectAttr
 0001:00013194       TOdbcApiProxy.SQLGetConnectOption
 0001:00013274       TOdbcApiProxy.SQLGetCursorName
 0001:000133C4       TOdbcApiProxy.SQLGetData
 0001:00013424       TOdbcApiProxy.SQLGetDescField
 0001:00013598       TOdbcApiProxy.SQLGetDescRec
 0001:00013710       TOdbcApiProxy.SQLGetDiagField
 0001:00013868       TOdbcApiProxy.SQLGetDiagRec
 0001:00013A1C       TOdbcApiProxy.SQLGetEnvAttr
 0001:00013AA4       TOdbcApiProxy.SQLGetFunctions
 0001:00014498       TOdbcApiProxy.SQLGetInfo
 0001:00014624       TOdbcApiProxy.SQLGetInfoInt
 0001:0001463C       TOdbcApiProxy.SQLGetInfoSmallint
 0001:00014654       TOdbcApiProxy.SQLGetInfoString
 0001:00014670       TOdbcApiProxy.SQLGetStmtAttr
 0001:000147EC       TOdbcApiProxy.SQLGetStmtOption
 0001:00014848       TOdbcApiProxy.SQLGetTypeInfo
 0001:000148A0       TOdbcApiProxy.SQLMoreResults
 0001:000148B8       TOdbcApiProxy.SQLNativeSql
 0001:00014A1C       TOdbcApiProxy.SQLNumParams
 0001:00014A60       TOdbcApiProxy.SQLNumResultCols
 0001:00014AA8       TOdbcApiProxy.SQLParamData
 0001:00014AEC       TOdbcApiProxy.SQLParamOptions
 0001:00014B40       TOdbcApiProxy.SQLPrepare
 0001:00014C0C       TOdbcApiProxy.SQLPrimaryKeys
 0001:00014D70       TOdbcApiProxy.SQLProcedureColumns
 0001:00014F14       TOdbcApiProxy.SQLProcedures
 0001:00015078       TOdbcApiProxy.SQLPutData
 0001:000150C8       TOdbcApiProxy.SQLRowCount
 0001:00015108       TOdbcApiProxy.SQLSetConnectAttr
 0001:00015230       TOdbcApiProxy.SQLSetConnectOption
 0001:000152A8       TOdbcApiProxy.SQLSetCursorName
 0001:00015384       TOdbcApiProxy.SQLSetDescField
 0001:00015478       TOdbcApiProxy.SQLSetDescRec
 0001:000154F0       TOdbcApiProxy.SQLSetEnvAttr
 0001:00015548       TOdbcApiProxy.SQLSetParam
 0001:000155B0       TOdbcApiProxy.SQLSetPos
 0001:00015608       TOdbcApiProxy.SQLSetScrollOptions
 0001:00015668       TOdbcApiProxy.SQLSetStmtAttr
 0001:0001578C       TOdbcApiProxy.SQLSetStmtOption
 0001:000157E8       TOdbcApiProxy.SQLSpecialColumns
 0001:00015974       TOdbcApiProxy.SQLStatistics
 0001:00015B14       TOdbcApiProxy.SQLTablePrivileges
 0001:00015C74       TOdbcApiProxy.SQLTables
 0001:00015E48       TOdbcApiProxy.SQLTransact
 0001:000160E4       TOdbcApiProxy.SQL_ADD_RECORD
 0001:000160F0       TOdbcApiProxy.SQL_DELETE_RECORD
 0001:000160FC       TOdbcApiProxy.SQL_FUNC_EXISTS
 0001:00016128       TOdbcApiProxy.SQL_LEN_BINARY_ATTR
 0001:00016130       TOdbcApiProxy.SQL_LEN_DATA_AT_EXEC
 0001:00016138       TOdbcApiProxy.SQL_LOCK_RECORD
 0001:00016150       TOdbcApiProxy.SQL_POSITION_TO
 0001:0001615C       TOdbcApiProxy.SQL_REFRESH_RECORD
 0001:00016174       TOdbcApiProxy.SQL_UPDATE_RECORD
 0001:00015E98       TOdbcApiProxy.TraceCloseLogFile
 0001:00015EE4       TOdbcApiProxy.TraceOpenLogFile
 0001:00015F40       TOdbcApiProxy.TraceReturn
 0001:00015F78       TOdbcApiProxy.TraceVersion
 0001:00015FC0       TOdbcApiProxy.TraceVSControl
 0001:0004FABC       TOdbcBindCol.Create
 0001:0004FAF8       TOdbcBindCol.Destroy
 0001:0004FB40       TOdbcBindParam.Create
 0001:0004FB7C       TOdbcBindParam.Destroy
 0001:0000597C       TParamFix.GetData
 0001:00005714       TParamFix.GetDataSize
 0001:0000738C       TParamsFix.ParseSQL
 0001:0001FDF4       TRegExpr.Compile
 0001:00020008       TRegExpr.CompileRegExpr
 0001:0001F604       TRegExpr.Create
 0001:0001F714       TRegExpr.Destroy
 0001:0001FF60       TRegExpr.EmitC
 0001:0001FF24       TRegExpr.EmitNode
 0001:000239E8       TRegExpr.Error
 0001:0001EAA0       TRegExpr.ErrorMsg
 0001:00022FD8       TRegExpr.Exec
 0001:00022FE4       TRegExpr.Exec
 0001:00022FC0       TRegExpr.Exec
 0001:00023248       TRegExpr.ExecNext
 0001:00022FEC       TRegExpr.ExecPos
 0001:00023070       TRegExpr.ExecPrim
 0001:00022B5C       TRegExpr.FillFirstCharSet
 0001:00021CEC       TRegExpr.GetCompilerErrorPos
 0001:0001F77C       TRegExpr.GetExpression
 0001:00023290       TRegExpr.GetInputString
 0001:00023444       TRegExpr.GetLinePairedSeparator
 0001:0001F8FC       TRegExpr.GetMatch
 0001:0001F8C4       TRegExpr.GetMatchLen
 0001:0001F88C       TRegExpr.GetMatchPos
 0001:0001FCEC       TRegExpr.GetModifier
 0001:0001F948       TRegExpr.GetModifierStr
 0001:0001F85C       TRegExpr.GetSubExprMatchCount
 0001:0001FF84       TRegExpr.InsertOperator
 0001:0001FDD8       TRegExpr.InvalidateProgramm
 0001:0001F75C       TRegExpr.InvertCaseFunction
 0001:0001FE14       TRegExpr.IsProgrammOk
 0001:0001F5E0       TRegExpr.LastError
 0001:00022018       TRegExpr.MatchPrim
 0001:0001FF04       TRegExpr.OpTail
 0001:00021230       TRegExpr.ParseAtom
 0001:00020470       TRegExpr.ParseBranch
 0001:0001FAE0       TRegExpr.ParseModifiersStr
 0001:000206C4       TRegExpr.ParsePiece
 0001:000202AC       TRegExpr.ParseReg
 0001:00021FFC       TRegExpr.regnext
 0001:00021D0C       TRegExpr.regrepeat
 0001:00023778       TRegExpr.Replace
 0001:00023980       TRegExpr.Replace
 0001:00023884       TRegExpr.ReplaceEx
 0001:0001F7A4       TRegExpr.SetExpression
 0001:000232C0       TRegExpr.SetInputString
 0001:000233AC       TRegExpr.SetLinePairedSeparator
 0001:00023380       TRegExpr.SetLineSeparators
 0001:0001FD60       TRegExpr.SetModifier
 0001:0001FCC4       TRegExpr.SetModifierStr
 0001:000236A0       TRegExpr.Split
 0001:00023528       TRegExpr.Substitute
 0001:0001FEC8       TRegExpr.Tail
 0001:0001F5F4       TRegExpr.VersionMajor
 0001:0001F5FC       TRegExpr.VersionMinor
 0002:00000B0C       TRegExprVersionMajor
 0002:00000B10       TRegExprVersionMinor
 0001:00041B20       TSqlCommandOdbc.AddError
 0001:00041BA4       TSqlCommandOdbc.BuildStoredProcSQL
 0001:00043B08       TSqlCommandOdbc.Cancel
 0001:00041AAC       TSqlCommandOdbc.ClearParams
 0001:00041B6C       TSqlCommandOdbc.close
 0001:0004190C       TSqlCommandOdbc.CloseStmt
 0001:00041704       TSqlCommandOdbc.Create
 0001:00041AF4       TSqlCommandOdbc.Destroy
 0001:0004501C       TSqlCommandOdbc.DoAllocateParams
 0001:00041798       TSqlCommandOdbc.DoAllocateStmt
 0001:000420C0       TSqlCommandOdbc.DoExecute
 0001:000432C4       TSqlCommandOdbc.DoExecuteImmediate
 0001:000450A8       TSqlCommandOdbc.DoExpandParams
 0001:00045108       TSqlCommandOdbc.DoPrepare
 0001:00041DD0       TSqlCommandOdbc.DoSQLMoreResults
 0001:000427F0       TSqlCommandOdbc.DoUnprepareStmt
 0001:0004275C       TSqlCommandOdbc.execute
 0001:00043A48       TSqlCommandOdbc.ExecuteImmediate
 0001:00043B4C       TSqlCommandOdbc.GetConnectionHandle
 0001:00043C68       TSqlCommandOdbc.getErrorMessage
 0001:00043CDC       TSqlCommandOdbc.getErrorMessageLen
 0001:00043BFC       TSqlCommandOdbc.GetLockTimeout
 0001:00043D38       TSqlCommandOdbc.getNextCursor
 0001:00043F50       TSqlCommandOdbc.GetOption
 0001:000449E4       TSqlCommandOdbc.getParameter
 0001:00045004       TSqlCommandOdbc.getRowsAffected
 0001:00041B44       TSqlCommandOdbc.OdbcCheck
 0001:00045480       TSqlCommandOdbc.prepare
 0001:00043B60       TSqlCommandOdbc.SetLockTimeout
 0001:000455E4       TSqlCommandOdbc.SetOption
 0001:000462E0       TSqlCommandOdbc.setParameter
 0001:00028998       TSqlCommandOdbc3.execute
 0001:00028A30       TSqlCommandOdbc3.executeImmediate
 0001:00028B4C       TSqlCommandOdbc3.getErrorMessage
 0001:00028B64       TSqlCommandOdbc3.getErrorMessageLen
 0001:00028B7C       TSqlCommandOdbc3.getNextCursor
 0001:00028B90       TSqlCommandOdbc3.GetOption
 0001:00028844       TSqlCommandOdbc3.prepare
 0001:00028C80       TSqlCommandOdbc3.SetOption
 0001:00002638       TSQLConnectionFix.CloneConnection
 0001:0000287C       TSQLConnectionFix.Execute
 0001:00002B24       TSQLConnectionFix.GetQuoteChar
 0001:00034508       TSqlConnectionOdbc.AllocHStmt
 0001:00034E84       TSqlConnectionOdbc.beginTransaction
 0001:0003B7B4       TSqlConnectionOdbc.CheckDbmsTransactionSupport
 0001:00035BBC       TSqlConnectionOdbc.CheckHCon
 0001:0003B650       TSqlConnectionOdbc.CheckTransactionSupport
 0001:00035A8C       TSqlConnectionOdbc.ClearConnectionOptions
 0001:00033240       TSqlConnectionOdbc.CloneOdbcConnection
 0001:000354BC       TSqlConnectionOdbc.commit
 0001:00035E80       TSqlConnectionOdbc.connect
 0001:00032BE4       TSqlConnectionOdbc.Create
 0001:00033BC4       TSqlConnectionOdbc.CreateRegExpObjectNameParser
 0001:00034058       TSqlConnectionOdbc.DbxCallBackSendMsg
 0001:00034270       TSqlConnectionOdbc.DbxCallBackSendMsgFmt
 0001:00033C78       TSqlConnectionOdbc.DecodeObjectFullName
 0001:00032C74       TSqlConnectionOdbc.Destroy
 0001:0003AE64       TSqlConnectionOdbc.disconnect
 0001:00032CA8       TSqlConnectionOdbc.DoDestroy
 0001:00033E48       TSqlConnectionOdbc.EncodeObjectFullName
 0001:00034434       TSqlConnectionOdbc.FindFreeConnection
 0001:00034A38       TSqlConnectionOdbc.FreeHStmt
 0001:00034D00       TSqlConnectionOdbc.GetCatalog
 0001:000416C8       TSqlConnectionOdbc.GetConnectionHandle
 0001:00034E14       TSqlConnectionOdbc.GetCurrentCatalog
 0001:00034CB0       TSqlConnectionOdbc.GetCurrentConnectionHandle
 0001:00034BD0       TSqlConnectionOdbc.GetCurrentDbxConStmt
 0001:00034C90       TSqlConnectionOdbc.GetCurrentDbxConStmt
 0001:00041664       TSqlConnectionOdbc.GetCursorPreserved
 0001:00041564       TSqlConnectionOdbc.GetDbmsName
 0001:00041460       TSqlConnectionOdbc.GetDbmsType
 0001:000415AC       TSqlConnectionOdbc.GetDbmsVersionBuild
 0001:0004157C       TSqlConnectionOdbc.GetDbmsVersionMajor
 0001:0004158C       TSqlConnectionOdbc.GetDbmsVersionMinor
 0001:0004159C       TSqlConnectionOdbc.GetDbmsVersionRelease
 0001:000415BC       TSqlConnectionOdbc.GetDbmsVersionString
 0001:000416F4       TSqlConnectionOdbc.GetDecimalSeparator
 0001:00033804       TSqlConnectionOdbc.GetDefaultConnectionOptions
 0001:000416B8       TSqlConnectionOdbc.GetEnvironmentHandle
 0001:0003B58C       TSqlConnectionOdbc.getErrorMessage
 0001:0003B5F8       TSqlConnectionOdbc.getErrorMessageLen
 0001:00041674       TSqlConnectionOdbc.GetIsSystemODBCManager
 0001:00041554       TSqlConnectionOdbc.GetLastOdbcSqlState
 0001:0003B7CC       TSqlConnectionOdbc.GetMetaDataOption
 0001:000416D8       TSqlConnectionOdbc.GetOdbcApiIntf
 0001:0004164C       TSqlConnectionOdbc.GetOdbcConnectString
 0001:00041480       TSqlConnectionOdbc.GetOdbcConnectStrings
 0001:00041688       TSqlConnectionOdbc.GetOdbcDriverLevel
 0001:000415D4       TSqlConnectionOdbc.GetOdbcDriverName
 0001:00041470       TSqlConnectionOdbc.GetOdbcDriverType
 0001:00041620       TSqlConnectionOdbc.GetOdbcDriverVersionBuild
 0001:000415F0       TSqlConnectionOdbc.GetOdbcDriverVersionMajor
 0001:00041600       TSqlConnectionOdbc.GetOdbcDriverVersionMinor
 0001:00041610       TSqlConnectionOdbc.GetOdbcDriverVersionRelease
 0001:00041630       TSqlConnectionOdbc.GetOdbcDriverVersionString
 0001:0003D664       TSqlConnectionOdbc.GetOption
 0001:00033FC0       TSqlConnectionOdbc.GetQuotedObjectName
 0001:0003EEFC       TSqlConnectionOdbc.getSQLCommand
 0001:0003EFF8       TSqlConnectionOdbc.getSQLMetaData
 0001:000416A8       TSqlConnectionOdbc.GetStatementsPerConnection
 0001:00041698       TSqlConnectionOdbc.GetSupportsSqlPrimaryKeys
 0001:00033998       TSqlConnectionOdbc.GetUnquotedName
 0001:000338A8       TSqlConnectionOdbc.GetUnquotedName
 0001:0003381C       TSqlConnectionOdbc.GetUnquotedNameLen
 0001:00033AA0       TSqlConnectionOdbc.ObjectIsStoredProc
 0001:00034CC8       TSqlConnectionOdbc.OdbcCheck
 0001:00033C24       TSqlConnectionOdbc.ReleaseRegExpObjectNameParser
 0001:00038710       TSqlConnectionOdbc.RetrieveDbmsOptions
 0001:00038B30       TSqlConnectionOdbc.RetrieveDriverName
 0001:000357BC       TSqlConnectionOdbc.rollback
 0001:000336A0       TSqlConnectionOdbc.SetCurrentDbxConStmt
 0001:000336C4       TSqlConnectionOdbc.SetLoginTimeout
 0001:00033764       TSqlConnectionOdbc.SetNetworkTimeout
 0001:0003F774       TSqlConnectionOdbc.SetOption
 0001:00032D94       TSqlConnectionOdbc.SetVendorLib
 0001:00032FC8       TSqlConnectionOdbc.SynchronizeInTransaction
 0001:000412BC       TSqlConnectionOdbc.TransactionCheck
 0001:00027C78       TSqlConnectionOdbc3.connect
 0001:00027D0C       TSqlConnectionOdbc3.connect
 0001:00027C10       TSqlConnectionOdbc3.Create
 0001:00027C48       TSqlConnectionOdbc3.Destroy
 0001:00027DCC       TSqlConnectionOdbc3.getErrorMessage
 0001:00027DF8       TSqlConnectionOdbc3.getErrorMessageLen
 0001:00027E1C       TSqlConnectionOdbc3.GetMetaDataReader
 0001:00028178       TSqlConnectionOdbc3.GetOption
 0001:00028704       TSqlConnectionOdbc3.getSQLCommand
 0001:000287A4       TSqlConnectionOdbc3.getSQLMetaData
 0001:00028660       TSqlConnectionOdbc3.SetOption
 0001:0004EF8C       TSqlCursorMetaData.BindInteger
 0001:0004EC7C       TSqlCursorMetaData.BindSmallint
 0001:0004E694       TSqlCursorMetaData.ClearMetaData
 0001:0004E5EC       TSqlCursorMetaData.Create
 0001:0004E76C       TSqlCursorMetaData.DbgColumnName
 0001:0004E7A4       TSqlCursorMetaData.DbgPhysColumnName
 0001:0004E968       TSqlCursorMetaData.DescribeAllocBindString
 0001:0004EAE4       TSqlCursorMetaData.DescribeAllocBindWString
 0001:0004E664       TSqlCursorMetaData.Destroy
 0001:0004F284       TSqlCursorMetaData.getBcd
 0001:0004F2B0       TSqlCursorMetaData.getBlob
 0001:0004F2C4       TSqlCursorMetaData.getBlobSize
 0001:0004F2E0       TSqlCursorMetaData.getBytes
 0001:0004F308       TSqlCursorMetaData.getColumnCount
 0001:0004F330       TSqlCursorMetaData.getColumnLength
 0001:0004F394       TSqlCursorMetaData.getColumnName
 0001:0004F3E4       TSqlCursorMetaData.getColumnNameLength
 0001:0004F42C       TSqlCursorMetaData.getColumnPrecision
 0001:0004F4C4       TSqlCursorMetaData.getColumnScale
 0001:0004F524       TSqlCursorMetaData.getColumnType
 0001:0004F574       TSqlCursorMetaData.getDate
 0001:0004F59C       TSqlCursorMetaData.getDouble
 0001:0004F5C8       TSqlCursorMetaData.getErrorMessage
 0001:0004F63C       TSqlCursorMetaData.getErrorMessageLen
 0001:0004F7BC       TSqlCursorMetaData.getInt64
 0001:0004F694       TSqlCursorMetaData.getLong
 0001:0004F6BC       TSqlCursorMetaData.GetOption
 0001:0004E760       TSqlCursorMetaData.GetPhysColumnAnsiString
 0001:0004E6B8       TSqlCursorMetaData.GetPhysColumnNumber
 0001:0004E764       TSqlCursorMetaData.GetPhysColumnWideString
 0001:0004F6C8       TSqlCursorMetaData.getShort
 0001:0004F6F0       TSqlCursorMetaData.getString
 0001:0004F7EC       TSqlCursorMetaData.getTime
 0001:0004F814       TSqlCursorMetaData.getTimeStamp
 0001:0004F754       TSqlCursorMetaData.getWideString
 0001:0004F848       TSqlCursorMetaData.isAutoIncrement
 0001:0004F858       TSqlCursorMetaData.isBlobSizeExact
 0001:0004F868       TSqlCursorMetaData.isNullable
 0001:0004E720       TSqlCursorMetaData.IsPhysColumnStringType
 0001:0004E744       TSqlCursorMetaData.IsPhysColumnWideStringType
 0001:0004F878       TSqlCursorMetaData.isReadOnly
 0001:0004F88C       TSqlCursorMetaData.isSearchable
 0001:0004F89C       TSqlCursorMetaData.next
 0001:0004F96C       TSqlCursorMetaData.OdbcCheck
 0001:0004E8EC       TSqlCursorMetaData.ParseTableName
 0001:0004E840       TSqlCursorMetaData.ParseTableNameBase
 0001:0004E7C4       TSqlCursorMetaData.remap
 0001:0004F8C0       TSqlCursorMetaData.SetOption
 0001:0005231C       TSqlCursorMetaDataColumns.Clear
 0001:00051EC0       TSqlCursorMetaDataColumns.Create
 0001:000522F0       TSqlCursorMetaDataColumns.Destroy
 0001:00052398       TSqlCursorMetaDataColumns.FetchColumns
 0001:00052DE0       TSqlCursorMetaDataColumns.getLong
 0001:000530D4       TSqlCursorMetaDataColumns.GetPhysColumnAnsiString
 0001:00053208       TSqlCursorMetaDataColumns.GetPhysColumnWideString
 0001:00052F48       TSqlCursorMetaDataColumns.getShort
 0001:0005333C       TSqlCursorMetaDataColumns.next
 0001:000295EC       TSqlCursorMetaDataColumns3.getColumnName
 0001:0002967C       TSqlCursorMetaDataColumns3.getErrorMessage
 0001:000296AC       TSqlCursorMetaDataColumns3.getErrorMessageLen
 0001:0002A824       TSqlCursorMetaDataColumnsDbx34.Create
 0001:0002AA98       TSqlCursorMetaDataColumnsDbx34.getLong
 0001:0002AB5C       TSqlCursorMetaDataColumnsDbx34.getShort
 0001:0002A198       TSqlCursorMetaDataEmpty.Create
 0001:0002A108       TSqlCursorMetaDataEmpty.Create
 0001:0002A32C       TSqlCursorMetaDataEmpty.Create
 0001:0002A47C       TSqlCursorMetaDataEmpty.getBcd
 0001:0002A490       TSqlCursorMetaDataEmpty.getBlob
 0001:0002A4A4       TSqlCursorMetaDataEmpty.getBlobSize
 0001:0002A4B8       TSqlCursorMetaDataEmpty.getBytes
 0001:0002A4CC       TSqlCursorMetaDataEmpty.getColumnCount
 0001:0002A6FC       TSqlCursorMetaDataEmpty.getColumnLength
 0001:0002A590       TSqlCursorMetaDataEmpty.getColumnName
 0001:0002A4F0       TSqlCursorMetaDataEmpty.getColumnNameLength
 0001:0002A710       TSqlCursorMetaDataEmpty.getColumnPrecision
 0001:0002A724       TSqlCursorMetaDataEmpty.getColumnScale
 0001:0002A678       TSqlCursorMetaDataEmpty.getColumnType
 0001:0002A6C0       TSqlCursorMetaDataEmpty.getDate
 0001:0002A6D4       TSqlCursorMetaDataEmpty.getDouble
 0001:0002A6E8       TSqlCursorMetaDataEmpty.getLong
 0001:0002A7D8       TSqlCursorMetaDataEmpty.getShort
 0001:0002A7B0       TSqlCursorMetaDataEmpty.getTime
 0001:0002A7C4       TSqlCursorMetaDataEmpty.getTimeStamp
 0001:0002A7F8       TSqlCursorMetaDataEmpty.getWideString
 0001:0002A79C       TSqlCursorMetaDataEmpty.isNullable
 0001:0002AE64       TSqlCursorMetaDataIndexColumnsDbx34.Create
 0001:0002AFF8       TSqlCursorMetaDataIndexColumnsDbx34.getLong
 0001:0002B068       TSqlCursorMetaDataIndexColumnsDbx34.getShort
 0001:000536BC       TSqlCursorMetaDataIndexes.Clear
 0001:00053380       TSqlCursorMetaDataIndexes.Create
 0001:00053690       TSqlCursorMetaDataIndexes.Destroy
 0001:00053974       TSqlCursorMetaDataIndexes.FetchIndexes
 0001:000550B4       TSqlCursorMetaDataIndexes.getLong
 0001:00054C6C       TSqlCursorMetaDataIndexes.GetPhysColumnAnsiString
 0001:00054E90       TSqlCursorMetaDataIndexes.GetPhysColumnWideString
 0001:00055214       TSqlCursorMetaDataIndexes.getShort
 0001:000553A0       TSqlCursorMetaDataIndexes.next
 0001:000296D0       TSqlCursorMetaDataIndexes3.getColumnName
 0001:00029760       TSqlCursorMetaDataIndexes3.getErrorMessage
 0001:00029790       TSqlCursorMetaDataIndexes3.getErrorMessageLen
 0001:0002ABE0       TSqlCursorMetaDataIndexesDbx34.Create
 0001:0002ADA4       TSqlCursorMetaDataIndexesDbx34.getShort
 0001:00055D50       TSqlCursorMetaDataProcedureParams.Create
 0001:000560F0       TSqlCursorMetaDataProcedureParams.Destroy
 0001:000562C0       TSqlCursorMetaDataProcedureParams.FetchProcedureParams
 0001:000575D0       TSqlCursorMetaDataProcedureParams.getLong
 0001:00057850       TSqlCursorMetaDataProcedureParams.GetPhysColumnAnsiString
 0001:00057944       TSqlCursorMetaDataProcedureParams.GetPhysColumnWideString
 0001:000576CC       TSqlCursorMetaDataProcedureParams.getShort
 0001:00057A38       TSqlCursorMetaDataProcedureParams.next
 0001:00029898       TSqlCursorMetaDataProcedureParams3.getColumnName
 0001:00029928       TSqlCursorMetaDataProcedureParams3.getErrorMessage
 0001:00029958       TSqlCursorMetaDataProcedureParams3.getErrorMessageLen
 0001:000553D8       TSqlCursorMetaDataProcedures.Create
 0001:000555F8       TSqlCursorMetaDataProcedures.Destroy
 0001:00055658       TSqlCursorMetaDataProcedures.FetchProcedures
 0001:00055A2C       TSqlCursorMetaDataProcedures.getLong
 0001:00055BD0       TSqlCursorMetaDataProcedures.GetPhysColumnAnsiString
 0001:00055C74       TSqlCursorMetaDataProcedures.GetPhysColumnWideString
 0001:00055B00       TSqlCursorMetaDataProcedures.getShort
 0001:00055D18       TSqlCursorMetaDataProcedures.next
 0001:000297B4       TSqlCursorMetaDataProcedures3.getColumnName
 0001:00029844       TSqlCursorMetaDataProcedures3.getErrorMessage
 0001:00029874       TSqlCursorMetaDataProcedures3.getErrorMessageLen
 0001:0005076C       TSqlCursorMetaDataTables.Clear
 0001:0005054C       TSqlCursorMetaDataTables.Create
 0001:00050740       TSqlCursorMetaDataTables.Destroy
 0001:00050D54       TSqlCursorMetaDataTables.FetchTables
 0001:00051DFC       TSqlCursorMetaDataTables.getColumnLength
 0001:00051A70       TSqlCursorMetaDataTables.getLong
 0001:00051BCC       TSqlCursorMetaDataTables.GetPhysColumnAnsiString
 0001:00051CD8       TSqlCursorMetaDataTables.GetPhysColumnWideString
 0001:00051E88       TSqlCursorMetaDataTables.next
 0001:0002955C       TSqlCursorMetaDataTables3.getColumnName
 0001:00029508       TSqlCursorMetaDataTables3.getErrorMessage
 0001:00029538       TSqlCursorMetaDataTables3.getErrorMessageLen
 0001:00029E68       TSqlCursorMetaDataTablesDbx34.Create
 0001:00029FA8       TSqlCursorMetaDataTablesDbx34.GetPhysColumnWideString
 0001:0004C0B4       TSqlCursorOdbc.AddError
 0001:00049C94       TSqlCursorOdbc.BindResultSet
 0001:0004BFF4       TSqlCursorOdbc.CheckFetchCacheColumns
 0001:000487D8       TSqlCursorOdbc.ClearCursor
 0001:0004872C       TSqlCursorOdbc.Create
 0001:00048844       TSqlCursorOdbc.Destroy
 0001:0004BE0C       TSqlCursorOdbc.DoFetchLateBoundData
 0001:0004C1F0       TSqlCursorOdbc.DoFetchLongData
 0001:0004BEDC       TSqlCursorOdbc.FetchLateBoundData
 0001:0004C868       TSqlCursorOdbc.FetchLongData
 0001:0004C8C8       TSqlCursorOdbc.getBcd
 0001:0004C954       TSqlCursorOdbc.getBlob
 0001:0004CB44       TSqlCursorOdbc.getBlobSize
 0001:0004CCD8       TSqlCursorOdbc.getBytes
 0001:0004CD7C       TSqlCursorOdbc.getColumnCount
 0001:0004CD94       TSqlCursorOdbc.getColumnLength
 0001:0004D1CC       TSqlCursorOdbc.getColumnName
 0001:0004D1F8       TSqlCursorOdbc.getColumnNameLength
 0001:0004D230       TSqlCursorOdbc.getColumnPrecision
 0001:0004D338       TSqlCursorOdbc.getColumnScale
 0001:0004D3C8       TSqlCursorOdbc.getColumnType
 0001:0004D41C       TSqlCursorOdbc.getDate
 0001:0004D4E4       TSqlCursorOdbc.getDouble
 0001:0004D560       TSqlCursorOdbc.getErrorMessage
 0001:0004D5E0       TSqlCursorOdbc.getErrorMessageLen
 0001:0004D640       TSqlCursorOdbc.getLong
 0001:0004D6B4       TSqlCursorOdbc.GetOption
 0001:0004D6C0       TSqlCursorOdbc.getShort
 0001:0004D748       TSqlCursorOdbc.getString
 0001:0004D94C       TSqlCursorOdbc.getTime
 0001:0004D9DC       TSqlCursorOdbc.getTimeStamp
 0001:0004DAB4       TSqlCursorOdbc.isAutoIncrement
 0001:0004DBF0       TSqlCursorOdbc.isBlobSizeExact
 0001:0004DC20       TSqlCursorOdbc.isNullable
 0001:0004DC50       TSqlCursorOdbc.isReadOnly
 0001:0004DCB0       TSqlCursorOdbc.isSearchable
 0001:0004DF74       TSqlCursorOdbc.next
 0001:00048994       TSqlCursorOdbc.OdbcCheck
 0001:0004E550       TSqlCursorOdbc.SetOption
 0001:00028DC4       TSqlCursorOdbc3.getColumnName
 0001:00028D50       TSqlCursorOdbc3.getColumnNameLength
 0001:00028D20       TSqlCursorOdbc3.getErrorMessage
 0001:00028D38       TSqlCursorOdbc3.getErrorMessageLen
 0001:00028DF4       TSqlCursorOdbc3.getInt64
 0001:00028E80       TSqlCursorOdbc3.getWideString
 0001:000322E0       TSqlDriverOdbc.AllocHCon
 0001:000323D8       TSqlDriverOdbc.AllocHEnv
 0001:00030D14       TSqlDriverOdbc.AssignFields
 0001:00030CE0       TSqlDriverOdbc.ClearFields
 0001:00030BF8       TSqlDriverOdbc.Create
 0001:00030C9C       TSqlDriverOdbc.Destroy
 0001:0003293C       TSqlDriverOdbc.Drivers
 0001:0003234C       TSqlDriverOdbc.FreeHCon
 0001:00032584       TSqlDriverOdbc.FreeHEnv
 0001:00032B20       TSqlDriverOdbc.GetOdbcDrivers
 0001:0003263C       TSqlDriverOdbc.GetOption
 0001:0003279C       TSqlDriverOdbc.getSQLConnection
 0001:00030D38       TSqlDriverOdbc.OdbcCheck
 0001:000311E4       TSqlDriverOdbc.RetrieveOdbcErrorInfo
 0001:0003281C       TSqlDriverOdbc.SetOption
 0001:00027B58       TSqlDriverOdbc3.Create
 0001:00027BCC       TSqlDriverOdbc3.getSQLConnection
 0001:0004767C       TSQLMetaDataOdbc.Create
 0001:000476D8       TSQLMetaDataOdbc.Destroy
 0001:00047E48       TSQLMetaDataOdbc.DoGetTables
 0001:00047708       TSQLMetaDataOdbc.getColumns
 0001:00047848       TSQLMetaDataOdbc.getErrorMessage
 0001:000478BC       TSQLMetaDataOdbc.getErrorMessageLen
 0001:00047914       TSQLMetaDataOdbc.getIndices
 0001:00047A5C       TSQLMetaDataOdbc.getObjectList
 0001:00047A7C       TSQLMetaDataOdbc.GetOption
 0001:00047BEC       TSQLMetaDataOdbc.getProcedureParams
 0001:00047D28       TSQLMetaDataOdbc.getProcedures
 0001:00047F60       TSQLMetaDataOdbc.getTables
 0001:00047F90       TSQLMetaDataOdbc.SetOption
 0001:000292F4       TSQLMetaDataOdbc3.getColumns
 0001:00028FF4       TSQLMetaDataOdbc3.getErrorMessage
 0001:00029020       TSQLMetaDataOdbc3.getErrorMessageLen
 0001:000293B8       TSQLMetaDataOdbc3.getIndices
 0001:000291D4       TSQLMetaDataOdbc3.getObjectList
 0001:00029044       TSQLMetaDataOdbc3.GetOption
 0001:00029448       TSQLMetaDataOdbc3.getProcedureParams
 0001:00029224       TSQLMetaDataOdbc3.getProcedures
 0001:000291F4       TSQLMetaDataOdbc3.getTables
 0001:00029134       TSQLMetaDataOdbc3.SetOption
 0001:00008A04       TSQLStoredProc.PrepareStatement
 0001:0000F27C       TStringHash.Add
 0001:0000F37C       TStringHash.BeginLock
 0001:0000F1D8       TStringHash.Clear
 0001:0000F140       TStringHash.Create
 0001:0000F1A0       TStringHash.Destroy
 0001:0000F384       TStringHash.EndLock
 0001:0000F334       TStringHash.Find
 0001:0000F248       TStringHash.HashOf
 0001:0000F2DC       TStringHash.Remove
 0001:0000F314       TStringHash.ValueOf
 0001:00005D28       TWideStringFieldFix.GetDataSize
 0001:00009524       UnhookCode
 0001:00058630       UnHookIAT_LoadLibrary
 0001:00000514       UninitializeModule
 0001:00008770       UnInstallFix
 0001:00011064       UnLoadOdbcDriverManager
 0001:000210E0       UnQuoteChar
 0001:0000B2F0       UrlMon
 0001:0001B8C4       ValueToStr
 0001:000389E0       VersionStringToNumeric
 0001:000006FC       VirtualProtect
 0001:000006F4       VirtualProtect
 0001:00000704       WaitForSingleObject
 0001:0001D0D0       WCharFromChar
 0001:0000070C       WideCharToMultiByte
 0001:000461E0       WideCharToUtf8
 0002:000010F8       WideStringField_GetAsVariant
 0002:000010F0       WideStringField_GetAsWideString
 0002:000010E8       WideStringField_GetDataSize
 0001:0001CFF8       WideStringLengthFromStr
 0001:0001D05C       WideStringLengthFromStrings
 0001:0000078C       Windows
 0001:0000B328       WinInet
 0002:00001160       WM_ASACALLBACK
 0002:00001162       WM_ASACALLBACK_SUPPORTED
 0001:00005EA0       WriteProp
 0001:0001D260       WStrComp
 0001:0001D338       WStrCopy
 0001:0001D310       WStrCopy
 0001:0001D28C       WStrIComp
 0001:0001D2D8       WStrLComp
 0001:0001D354       WStrLCopy
 0001:0001D240       WStrLen
 0001:000005F4       _CreateMutex
 0002:000011A4       _FreeLibrary
 0002:000011A8       _GetProcAddress
 0002:0000119C       _LoadLibraryA
 0002:000011A0       _LoadLibraryW
 0002:00001138       _RegisterDbXpressLibs


  Address         Publics by Value

 0002:FFBA6004       TlsLast
 0001:000003C0       FreeLibrary
 0001:000003C8       LocalAlloc
 0001:000003D0       LocalFree
 0001:000003D8       TlsAlloc
 0001:000003E0       TlsFree
 0001:000003E8       TlsGetValue
 0001:000003F0       TlsSetValue
 0001:000003F8       AllocTlsBuffer
 0001:00000404       GetTlsSize
 0001:0000040C       InitThreadTLS
 0001:00000450       InitProcessTLS
 0001:0000047C       ExitThreadTLS
 0001:000004A4       ExitProcessTLS
 0001:000004C8       @GetTls
 0001:00000508       InitializeModule
 0001:00000514       UninitializeModule
 0001:00000538       @InitPkg
 0001:0000059C       @PackageLoad
 0001:000005A8       @PackageUnload
 0001:000005B4       Finalization
 0001:000005E4       SysInit
 0001:000005EC       CloseHandle
 0001:000005F4       _CreateMutex
 0001:000005FC       CreateMutex
 0001:0000061C       DeleteCriticalSection
 0001:00000624       EnterCriticalSection
 0001:0000062C       FindClose
 0001:00000634       FindFirstFileW
 0001:0000063C       FindNextFileW
 0001:00000644       FlushInstructionCache
 0001:0000064C       FreeLibrary
 0001:00000654       GetACP
 0001:0000065C       GetCurrentProcess
 0001:00000664       GetCurrentProcessId
 0001:0000066C       GetCurrentThreadId
 0001:00000674       GetEnvironmentVariableA
 0001:0000067C       GetFileAttributesW
 0001:00000684       GetLastError
 0001:0000068C       GetModuleHandle
 0001:00000694       GetProcAddress
 0001:0000069C       GetTempFileName
 0001:000006A4       GetTempPath
 0001:000006AC       GetVersion
 0001:000006B4       InitializeCriticalSection
 0001:000006BC       IsBadReadPtr
 0001:000006C4       LeaveCriticalSection
 0001:000006CC       LoadLibrary
 0001:000006D4       MultiByteToWideChar
 0001:000006DC       OutputDebugStringA
 0001:000006E4       OutputDebugStringW
 0001:000006EC       SetEnvironmentVariableA
 0001:000006F4       VirtualProtect
 0001:000006FC       VirtualProtect
 0001:00000704       WaitForSingleObject
 0001:0000070C       WideCharToMultiByte
 0001:00000714       CharLower
 0001:0000071C       CharToOemA
 0001:00000724       CharUpper
 0001:0000072C       GetActiveWindow
 0001:00000734       OemToCharA
 0001:0000073C       RegisterWindowMessageA
 0001:00000744       SendMessage
 0001:0000074C       SetCursor
 0001:00000754       CopyMemory
 0001:0000075C       Finalization
 0001:0000078C       Windows
 0001:00000B24       Finalization
 0001:00000B54       Messages
 0001:00001A34       GetParamData
 0001:000023F4       TDataSetProviderFix.InternalGetRecords
 0001:0000257C       TDataSetProviderFix.Reset
 0001:000025E4       TDataSetProviderFix.CheckDataSet
 0001:00002638       TSQLConnectionFix.CloneConnection
 0001:0000287C       TSQLConnectionFix.Execute
 0001:00002B24       TSQLConnectionFix.GetQuoteChar
 0001:00002B8C       TCustomSQLDataSetFixD7.AddQuoteCharToObjectName
 0001:00002C5C       TCustomSQLDataSetFixD7.GetQueryFromType
 0001:00002F08       CheckDetail
 0001:00002FAC       TCustomSQLDataSetFixD7.PrepareStatement
 0001:000030CC       FieldsInQuery
 0001:0000320C       TCustomSQLDataSetFixD7.PSGetDefaultOrder
 0001:00003340       SetSchemaOption
 0001:00003810       GetTableScope
 0001:00003840       TCustomSQLDataSetFixD7.OpenSchema
 0001:00003AF4       CalcUnits
 0001:00003C08       SetProcedureParams
 0001:000041FC       SetQueryParams
 0001:00004514       TCustomSQLDataSetFixD7.ExecuteStatement
 0001:00004654       NormalizeBcdData
 0001:00004724       GetBlobSize
 0001:0000478C       TCustomSQLDataSetFixD7.GetFieldData
 0001:00004A74       LoadFieldDef
 0001:00004B14       TCustomSQLDataSetFixD7.AddFieldDesc
 0001:00004F80       NativeToDateTime
 0001:0000500C       DateTimeToNative
 0001:00005054       BufferToByteArray
 0001:00005108       ByteArrayToBuffer
 0001:00005198       TDataSetFix.DataConvert
 0001:000053AC       ReadDataFromBlobStream
 0001:0000552C       ReadDataFromBlobField
 0001:0000557C       TDataSetFix.GetFieldData
 0001:00005714       TParamFix.GetDataSize
 0001:000058FC       CopyWideString
 0001:0000597C       TParamFix.GetData
 0001:00005D28       TWideStringFieldFix.GetDataSize
 0001:00005EA0       WriteProp
 0001:00005EDC       AddExtraFieldProps
 0001:00006030       AddFieldDesc
 0001:00006104       ComputeInfoCount
 0001:00006190       AddMinMax
 0001:00006450       TDataPacketWriterFix.AddColumn
 0001:00006C6C       NextPiece
 0001:00006D70       FixParams
 0001:00006ED4       GetConnectionForStatement
 0001:00006F6C       TCustomSQLDataSetFixD7.CheckStatement
 0001:000071F4       IsNameDelimiter
 0001:00007218       NameDelimiter
 0001:00007228       IsLiteral
 0001:00007248       StripChar
 0001:000072B4       StripLiterals
 0001:00007328       isDigit
 0001:0000738C       TParamsFix.ParseSQL
 0001:000075EC       NextTokenIs
 0001:000076A8       GetSQLToken
 0001:00007AE4       StartToken
 0001:00007B00       NextSQLTokenFix
 0001:00007EB0       IsMultiTableQueryEx
 0001:00008164       IsMultiTableQueryFix
 0001:000081B4       GetTableNameFromSQLFix
 0001:000081DC       GetNativeAddr
 0001:00008200       JumpFromCode
 0001:000082C4       RestoreSavedCode
 0001:0000839C       InstallFix
 0001:00008770       UnInstallFix
 0001:0000893C       CalcUnits
 0001:00008A04       TSQLStoredProc.PrepareStatement
 0001:00008E98       Finalization
 0001:00008EEC       Dbx23Fix
 0001:00008F84       SizeOfCode
 0001:000092D0       SizeOfProc
 0001:00009314       SaveOldFunction
 0001:0000938C       HookCode
 0001:000094BC       HookProc
 0001:00009524       UnhookCode
 0001:000095FC       GetNativeAddr
 0001:00009640       JumpFromCode
 0001:00009730       RestoreSavedCode
 0001:0000981C       IsJumpFromCode
 0001:0000986C       TIATPatch.NextFunctionName
 0001:000098B0       TIATPatch.ListContainsIAT
 0001:000098FC       TIATPatch.CompareLibraryNames
 0001:000099DC       TIATPatch.UpdateEntry
 0001:00009A50       TIATPatch.UpdatePatch
 0001:00009AA8       TIATPatch.EnumIATList
 0001:00009CD8       TIATPatch.BuildIATPatchList
 0001:00009D6C       TIATPatch.Unpatch
 0001:00009E9C       TIATPatch.Patch
 0001:0000A0D4       TIATPatch.Find
 0001:0000A218       TIATPatch.Delete
 0001:0000A304       TIATPatch.Clear
 0001:0000A434       TIATPatch.GetPatchRecord
 0001:0000A494       TIATPatch.GetUnpatchOnFree
 0001:0000A4E8       TIATPatch.SetUnpatchOnFree
 0001:0000A53C       TIATPatch.GetCount
 0001:0000A594       TIATPatch.Create
 0001:0000A5FC       TIATPatch.Destroy
 0001:0000A698       GetVirtualMethodAddress
 0001:0000A6C4       SetVirtualMethodAddress
 0001:0000A758       FindVirtualMethodIndex
 0001:0000A7D0       GetVirtualMethodOffset
 0001:0000A7F8       FxtGetStubAddress
 0001:0000A834       Finalization
 0001:0000A864       DbxOpenOdbcApiHook
 0001:0000A86C       FIX_TSTRINGFIELD_SETASANSISTRING
 0001:0000A970       INSTALL_FIX_TSTRINGFIELD_SETASANSISTRING
 0001:0000A9B4       FIX_TFIELDS_FINDFIELD
 0001:0000AAB0       INSTALL_FIX_TFIELDS_FINDFIELD
 0001:0000AAF0       FIX_TINTEGERFIELD_GETISNULL
 0001:0000AB3C       INSTALL_FIX_TINTEGERFIELD_GETISNULL
 0001:0000AB7C       TBlobField_SetData
 0001:0000ABE4       FIX_TBLOBFIELD_SETVARVALUE
 0001:0000AD38       INSTALL_FIX_TBLOBFIELD_SETVARVALUE
 0001:0000AD78       FIX_TSTRINGFIELD_GETVALUE
 0001:0000AEB8       INSTALL_FIX_TSTRINGFIELD_GETVALUE
 0001:0000AEF8       FIX_TFIELD_ASSIGNVALUE
 0001:0000AF84       INSTALL_FIX_TFIELD_ASSIGNVALUE
 0001:0000AFBC       FIX_TWIDESTRINGFIELD_GETDATASIZE
 0001:0000AFE0       INSTALL_FIX_TWIDESTRINGFIELD_GETDATASIZE
 0001:0000B020       FIX_TWIDESTRINGFIELD_GETASWIDESTRING
 0001:0000B04C       INSTALL_FIX_TWIDESTRINGFIELD_GETASWIDESTRING
 0001:0000B08C       FIX_TWIDESTRINGFIELD_GETASVARIANT
 0001:0000B0F4       INSTALL_FIX_TWIDESTRINGFIELD_GETASVARIANT
 0001:0000B134       INSTALL_FIXES
 0001:0000B188       Finalization
 0001:0000B1C0       DbxDBFix
 0001:0000B1D4       IsDbxDrvFixed
 0001:0000B1E8       Finalization
 0001:0000B218       DbxXXDrv
 0001:0000B220       Finalization
 0001:0000B250       DbxOpenOdbcTypes
 0001:0000B270       SHGetMalloc
 0001:0000B278       SHGetPathFromIDListW
 0001:0000B280       SHGetSpecialFolderLocation
 0001:0000B288       Finalization
 0001:0000B2B8       ShlObj
 0001:0000B2C0       Finalization
 0001:0000B2F0       UrlMon
 0001:0000B2F8       Finalization
 0001:0000B328       WinInet
 0001:0000B330       Finalization
 0001:0000B360       RegStr
 0001:0000B368       Finalization
 0001:0000B398       ShellAPI
 0001:0000B3A0       Finalization
 0001:0000B3D0       CommCtrl
 0001:0000B3D8       min
 0001:0000B3E0       max
 0001:0000B3E8       Pos
 0001:0000B438       PosEx
 0001:0000B4B0       AnsiToOEM
 0001:0000B4EC       OemToAnsi
 0001:0000B528       LoadStringFromFileA
 0001:0000B608       LoadStringFromFileW
 0001:0000B740       GetOptionValue
 0001:0000BA94       PointerOffset
 0001:0000BA9C       CompareMemory
 0001:0000BAE8       GetTemporaryFileName
 0001:0000BC0C       GetTemporaryFolder
 0001:0000BDD8       is_prepared_alias
 0001:0000BEE4       is_prepared_alias_word
 0001:0000C04C       ExtractFilePathW
 0001:0000C0A8       GetValueAsWorkFolder
 0001:0000C170       GetValueAsTempFolder
 0001:0000C224       GetValueAsShellFolderKey
 0001:0000CC28       GetValueAsSpecialWinFolder
 0001:0000D1DC       ExpandRegPathW
 0001:0000D264       IsLeftKey
 0001:0000D35C       GetValueAsRegistry
 0001:0000D820       PrepareFileNameAliases
 0001:0000DBD8       PrepareFileNameAliases
 0001:0000DC64       ArrScanByte
 0001:0000DC80       ArrScanWord
 0001:0000DC9C       ArrScanDWord
 0001:0000DCB8       ArrScanPointer
 0001:0000DCD4       ToAnsiChar
 0001:0000DD18       ToAnsiChar
 0001:0000DD5C       PosChar
 0001:0000DD88       PosChar
 0001:0000DE0C       PosChar
 0001:0000DE90       PosChar
 0001:0000DEB8       PosCharEx
 0001:0000DF00       PosCharEx
 0001:0000DFA0       PosCharEx
 0001:0000E04C       PosCharEx
 0001:0000E09C       DupeStringW
 0001:0000E13C       DupeStringA
 0001:0000E1D0       DupeString
 0001:0000E1E8       DupeWideChar
 0001:0000E274       DupeAnsiChar
 0001:0000E2F4       StringCharReplace
 0001:0000E3A4       StringCharReplace
 0001:0000E434       StringCharReplace
 0001:0000E4E8       StringCharReplace
 0001:0000E588       StringCharModify
 0001:0000E5EC       StringCharModify
 0001:0000E654       StringCharModify
 0001:0000E6B8       StringCharModify
 0001:0000E734       dbg
 0001:0000E748       dbg
 0001:0000E75C       GetCompilerVersion
 0001:0000E79C       Finalization
 0001:0000E7CC       DbxOpenOdbcFuncs
 0001:0000F088       SQL_SUCCEEDED
 0001:0000F140       TStringHash.Create
 0001:0000F1A0       TStringHash.Destroy
 0001:0000F1D8       TStringHash.Clear
 0001:0000F248       TStringHash.HashOf
 0001:0000F27C       TStringHash.Add
 0001:0000F2DC       TStringHash.Remove
 0001:0000F314       TStringHash.ValueOf
 0001:0000F334       TStringHash.Find
 0001:0000F37C       TStringHash.BeginLock
 0001:0000F384       TStringHash.EndLock
 0001:0000F390       ExtractNextLibName
 0001:0000F444       DoGetProcAddress
 0001:0000F45C       DoGetProcAddressEx
 0001:0000F510       LoadOdbcDriverManager
 0001:00011064       UnLoadOdbcDriverManager
 0001:000110C8       TOdbcApiProxy.Destroy
 0001:00011130       TOdbcApiProxy.NotImplemented
 0001:00011240       TOdbcApiProxy.BeginLock
 0001:0001124C       TOdbcApiProxy.EndLock
 0001:00011258       TOdbcApiProxy.SQLAllocConnect
 0001:00011274       TOdbcApiProxy.SQLAllocEnv
 0001:00011290       TOdbcApiProxy.SQLAllocHandleStd
 0001:000112E8       TOdbcApiProxy.SQLAllocHandle
 0001:00011384       TOdbcApiProxy.SQLAllocStmt
 0001:000113A0       TOdbcApiProxy.SQLBindCol
 0001:000113F8       TOdbcApiProxy.SQLBindParam
 0001:00011460       TOdbcApiProxy.SQLBindParameter
 0001:000114DC       TOdbcApiProxy.SQLBrowseConnect
 0001:00011658       TOdbcApiProxy.SQLBulkOperations
 0001:000116A0       TOdbcApiProxy.SQLCancel
 0001:000116D8       TOdbcApiProxy.SQLCloseCursor
 0001:00011728       TOdbcApiProxy.SQLColAttribute
 0001:00011908       TOdbcApiProxy.SQLColAttributeInt
 0001:0001192C       TOdbcApiProxy.SQLColAttributeString
 0001:00011950       TOdbcApiProxy.SQLColAttributes
 0001:00011ADC       TOdbcApiProxy.SQLColumnPrivileges
 0001:00011C54       TOdbcApiProxy.SQLColumns
 0001:00011E08       TOdbcApiProxy.SQLConnect
 0001:00011F78       TOdbcApiProxy.SQLCopyDesc
 0001:00011FB0       TOdbcApiProxy.SQLDataSources
 0001:0001216C       TOdbcApiProxy.SQLDescribeCol
 0001:000122E4       TOdbcApiProxy.SQLDescribeParam
 0001:0001234C       TOdbcApiProxy.SQLDisconnect
 0001:00012388       TOdbcApiProxy.SQLDriverConnect
 0001:00012554       TOdbcApiProxy.SQLDrivers
 0001:00012768       TOdbcApiProxy.SQLEndTran
 0001:000127FC       TOdbcApiProxy.SQLError
 0001:0001299C       TOdbcApiProxy.SQLExecDirect
 0001:00012A64       TOdbcApiProxy.SQLExecute
 0001:00012A9C       TOdbcApiProxy.SQLExtendedFetch
 0001:00012B00       TOdbcApiProxy.SQLFetch
 0001:00012B3C       TOdbcApiProxy.SQLFetchScroll
 0001:00012B90       TOdbcApiProxy.SQLForeignKeys
 0001:00012D5C       TOdbcApiProxy.SQLFreeConnect
 0001:00012D9C       TOdbcApiProxy.SQLFreeEnv
 0001:00012DD8       DoSQLFreeHandle
 0001:00012EA4       TOdbcApiProxy.SQLFreeHandle
 0001:00012F2C       TOdbcApiProxy.SQLFreeStmt
 0001:00012F6C       TOdbcApiProxy.SQLGetConnectAttr
 0001:00013194       TOdbcApiProxy.SQLGetConnectOption
 0001:00013274       TOdbcApiProxy.SQLGetCursorName
 0001:000133C4       TOdbcApiProxy.SQLGetData
 0001:00013424       TOdbcApiProxy.SQLGetDescField
 0001:00013598       TOdbcApiProxy.SQLGetDescRec
 0001:00013710       TOdbcApiProxy.SQLGetDiagField
 0001:00013868       TOdbcApiProxy.SQLGetDiagRec
 0001:00013A1C       TOdbcApiProxy.SQLGetEnvAttr
 0001:00013A78       TOdbcApiProxy.SQLFunctionSupported
 0001:00013AA4       TOdbcApiProxy.SQLGetFunctions
 0001:00014498       TOdbcApiProxy.SQLGetInfo
 0001:00014624       TOdbcApiProxy.SQLGetInfoInt
 0001:0001463C       TOdbcApiProxy.SQLGetInfoSmallint
 0001:00014654       TOdbcApiProxy.SQLGetInfoString
 0001:00014670       TOdbcApiProxy.SQLGetStmtAttr
 0001:000147EC       TOdbcApiProxy.SQLGetStmtOption
 0001:00014848       TOdbcApiProxy.SQLGetTypeInfo
 0001:000148A0       TOdbcApiProxy.SQLMoreResults
 0001:000148B8       TOdbcApiProxy.SQLNativeSql
 0001:00014A1C       TOdbcApiProxy.SQLNumParams
 0001:00014A60       TOdbcApiProxy.SQLNumResultCols
 0001:00014AA8       TOdbcApiProxy.SQLParamData
 0001:00014AEC       TOdbcApiProxy.SQLParamOptions
 0001:00014B40       TOdbcApiProxy.SQLPrepare
 0001:00014C0C       TOdbcApiProxy.SQLPrimaryKeys
 0001:00014D70       TOdbcApiProxy.SQLProcedureColumns
 0001:00014F14       TOdbcApiProxy.SQLProcedures
 0001:00015078       TOdbcApiProxy.SQLPutData
 0001:000150C8       TOdbcApiProxy.SQLRowCount
 0001:00015108       TOdbcApiProxy.SQLSetConnectAttr
 0001:00015230       TOdbcApiProxy.SQLSetConnectOption
 0001:000152A8       TOdbcApiProxy.SQLSetCursorName
 0001:00015384       TOdbcApiProxy.SQLSetDescField
 0001:00015478       TOdbcApiProxy.SQLSetDescRec
 0001:000154F0       TOdbcApiProxy.SQLSetEnvAttr
 0001:00015548       TOdbcApiProxy.SQLSetParam
 0001:000155B0       TOdbcApiProxy.SQLSetPos
 0001:00015608       TOdbcApiProxy.SQLSetScrollOptions
 0001:00015668       TOdbcApiProxy.SQLSetStmtAttr
 0001:0001578C       TOdbcApiProxy.SQLSetStmtOption
 0001:000157E8       TOdbcApiProxy.SQLSpecialColumns
 0001:00015974       TOdbcApiProxy.SQLStatistics
 0001:00015B14       TOdbcApiProxy.SQLTablePrivileges
 0001:00015C74       TOdbcApiProxy.SQLTables
 0001:00015E48       TOdbcApiProxy.SQLTransact
 0001:00015E98       TOdbcApiProxy.TraceCloseLogFile
 0001:00015EE4       TOdbcApiProxy.TraceOpenLogFile
 0001:00015F40       TOdbcApiProxy.TraceReturn
 0001:00015F78       TOdbcApiProxy.TraceVersion
 0001:00015FC0       TOdbcApiProxy.TraceVSControl
 0001:00016004       TOdbcApiProxy.FireVSDebugEvent
 0001:00016044       TOdbcApiProxy.ODBCGetTryWaitValue
 0001:00016090       TOdbcApiProxy.ODBCSetTryWaitValue
 0001:000160E4       TOdbcApiProxy.SQL_ADD_RECORD
 0001:000160F0       TOdbcApiProxy.SQL_DELETE_RECORD
 0001:000160FC       TOdbcApiProxy.SQL_FUNC_EXISTS
 0001:00016128       TOdbcApiProxy.SQL_LEN_BINARY_ATTR
 0001:00016130       TOdbcApiProxy.SQL_LEN_DATA_AT_EXEC
 0001:00016138       TOdbcApiProxy.SQL_LOCK_RECORD
 0001:00016150       TOdbcApiProxy.SQL_POSITION_TO
 0001:0001615C       TOdbcApiProxy.SQL_REFRESH_RECORD
 0001:00016174       TOdbcApiProxy.SQL_UPDATE_RECORD
 0001:00016180       TOdbcApiProxy.SetOdbcDriverLevel
 0001:00016230       TOdbcApiProxy.GetOdbcApiIntf
 0001:00016270       TOdbcApiIntfImpl.CheckAvailableProxy
 0001:000162C0       TOdbcApiIntfImpl.FireVSDebugEvent
 0001:000162DC       TOdbcApiIntfImpl.ODBCGetTryWaitValue
 0001:000162F0       TOdbcApiIntfImpl.ODBCSetTryWaitValue
 0001:0001630C       TOdbcApiIntfImpl.SQL_ADD_RECORD
 0001:0001632C       TOdbcApiIntfImpl.SQL_DELETE_RECORD
 0001:0001634C       TOdbcApiIntfImpl.SQL_FUNC_EXISTS
 0001:00016370       TOdbcApiIntfImpl.SQL_LEN_BINARY_ATTR
 0001:0001638C       TOdbcApiIntfImpl.SQL_LEN_DATA_AT_EXEC
 0001:000163A8       TOdbcApiIntfImpl.SQL_LOCK_RECORD
 0001:000163D4       TOdbcApiIntfImpl.SQL_POSITION_TO
 0001:000163F4       TOdbcApiIntfImpl.SQL_REFRESH_RECORD
 0001:00016420       TOdbcApiIntfImpl.SQL_UPDATE_RECORD
 0001:00016440       TOdbcApiIntfImpl.SQLAllocConnect
 0001:00016460       TOdbcApiIntfImpl.SQLAllocEnv
 0001:0001647C       TOdbcApiIntfImpl.SQLAllocHandle
 0001:000164A8       TOdbcApiIntfImpl.SQLAllocHandleStd
 0001:000164D4       TOdbcApiIntfImpl.SQLAllocStmt
 0001:000164F4       TOdbcApiIntfImpl.SQLBindCol
 0001:0001652C       TOdbcApiIntfImpl.SQLBindParam
 0001:00016570       TOdbcApiIntfImpl.SQLBindParameter
 0001:000165BC       TOdbcApiIntfImpl.SQLBrowseConnect
 0001:000165F4       TOdbcApiIntfImpl.SQLBulkOperations
 0001:00016614       TOdbcApiIntfImpl.SQLCancel
 0001:00016630       TOdbcApiIntfImpl.SQLCloseCursor
 0001:0001664C       TOdbcApiIntfImpl.SQLColAttribute
 0001:00016688       TOdbcApiIntfImpl.SQLColAttributeInt
 0001:000166C4       TOdbcApiIntfImpl.SQLColAttributes
 0001:00016700       TOdbcApiIntfImpl.SQLColAttributeString
 0001:0001673C       TOdbcApiIntfImpl.SQLColumnPrivileges
 0001:00016784       TOdbcApiIntfImpl.SQLColumns
 0001:000167CC       TOdbcApiIntfImpl.SQLConnect
 0001:0001680C       TOdbcApiIntfImpl.SQLCopyDesc
 0001:0001682C       TOdbcApiIntfImpl.SQLDataSources
 0001:0001686C       TOdbcApiIntfImpl.SQLDescribeCol
 0001:000168B0       TOdbcApiIntfImpl.SQLDescribeParam
 0001:000168E8       TOdbcApiIntfImpl.SQLDisconnect
 0001:00016904       TOdbcApiIntfImpl.SQLDriverConnect
 0001:00016948       TOdbcApiIntfImpl.SQLDrivers
 0001:00016988       TOdbcApiIntfImpl.SQLEndTran
 0001:000169B4       TOdbcApiIntfImpl.SQLError
 0001:000169F4       TOdbcApiIntfImpl.SQLExecDirect
 0001:00016A20       TOdbcApiIntfImpl.SQLExecute
 0001:00016A3C       TOdbcApiIntfImpl.SQLExtendedFetch
 0001:00016A70       TOdbcApiIntfImpl.SQLFetch
 0001:00016A8C       TOdbcApiIntfImpl.SQLFetchScroll
 0001:00016AB8       TOdbcApiIntfImpl.SQLForeignKeys
 0001:00016B10       TOdbcApiIntfImpl.SQLFreeConnect
 0001:00016B2C       TOdbcApiIntfImpl.SQLFreeEnv
 0001:00016B48       TOdbcApiIntfImpl.SQLFreeHandle
 0001:00016B68       TOdbcApiIntfImpl.SQLFreeStmt
 0001:00016B88       TOdbcApiIntfImpl.SQLFunctionSupported
 0001:00016BA8       TOdbcApiIntfImpl.SQLGetConnectAttr
 0001:00016BDC       TOdbcApiIntfImpl.SQLGetConnectOption
 0001:00016C08       TOdbcApiIntfImpl.SQLGetCursorName
 0001:00016C38       TOdbcApiIntfImpl.SQLGetData
 0001:00016C70       TOdbcApiIntfImpl.SQLGetDescField
 0001:00016CA8       TOdbcApiIntfImpl.SQLGetDescRec
 0001:00016CF4       TOdbcApiIntfImpl.SQLGetDiagField
 0001:00016D34       TOdbcApiIntfImpl.SQLGetDiagRec
 0001:00016D74       TOdbcApiIntfImpl.SQLGetEnvAttr
 0001:00016DA8       TOdbcApiIntfImpl.SQLGetFunctions
 0001:00016DD4       TOdbcApiIntfImpl.SQLGetInfo
 0001:00016E08       TOdbcApiIntfImpl.SQLGetInfoInt
 0001:00016E3C       TOdbcApiIntfImpl.SQLGetInfoSmallint
 0001:00016E70       TOdbcApiIntfImpl.SQLGetInfoString
 0001:00016EA4       TOdbcApiIntfImpl.SQLGetStmtAttr
 0001:00016ED8       TOdbcApiIntfImpl.SQLGetStmtOption
 0001:00016F04       TOdbcApiIntfImpl.SQLGetTypeInfo
 0001:00016F24       TOdbcApiIntfImpl.SQLMoreResults
 0001:00016F40       TOdbcApiIntfImpl.SQLNativeSql
 0001:00016F78       TOdbcApiIntfImpl.SQLNumParams
 0001:00016F98       TOdbcApiIntfImpl.SQLNumResultCols
 0001:00016FB8       TOdbcApiIntfImpl.SQLParamData
 0001:00016FD8       TOdbcApiIntfImpl.SQLParamOptions
 0001:00017004       TOdbcApiIntfImpl.SQLPrepare
 0001:00017030       TOdbcApiIntfImpl.SQLPrimaryKeys
 0001:00017070       TOdbcApiIntfImpl.SQLProcedureColumns
 0001:000170B8       TOdbcApiIntfImpl.SQLProcedures
 0001:000170F8       TOdbcApiIntfImpl.SQLPutData
 0001:00017124       TOdbcApiIntfImpl.SQLRowCount
 0001:00017144       TOdbcApiIntfImpl.SQLSetConnectAttr
 0001:00017174       TOdbcApiIntfImpl.SQLSetConnectOption
 0001:000171A0       TOdbcApiIntfImpl.SQLSetCursorName
 0001:000171CC       TOdbcApiIntfImpl.SQLSetDescField
 0001:00017200       TOdbcApiIntfImpl.SQLSetDescRec
 0001:0001724C       TOdbcApiIntfImpl.SQLSetEnvAttr
 0001:0001727C       TOdbcApiIntfImpl.SQLSetParam
 0001:000172C0       TOdbcApiIntfImpl.SQLSetPos
 0001:000172F0       TOdbcApiIntfImpl.SQLSetScrollOptions
 0001:00017320       TOdbcApiIntfImpl.SQLSetStmtAttr
 0001:00017350       TOdbcApiIntfImpl.SQLSetStmtOption
 0001:0001737C       TOdbcApiIntfImpl.SQLSpecialColumns
 0001:000173C8       TOdbcApiIntfImpl.SQLStatistics
 0001:00017410       TOdbcApiIntfImpl.SQLTablePrivileges
 0001:00017450       TOdbcApiIntfImpl.SQLTables
 0001:00017498       TOdbcApiIntfImpl.SQLTransact
 0001:000174C4       TOdbcApiIntfImpl.TraceCloseLogFile
 0001:000174D8       TOdbcApiIntfImpl.TraceOpenLogFile
 0001:00017504       TOdbcApiIntfImpl.TraceReturn
 0001:00017524       TOdbcApiIntfImpl.TraceVersion
 0001:00017538       TOdbcApiIntfImpl.TraceVSControl
 0001:00017554       Finalization
 0001:00017598       OdbcApi
 0001:000187CC       SQLExpr_RegisterDbXpressLib
 0001:000187E0       Finalization
 0001:00018810       DbxOpenOdbcDbx3Types
 0001:0001A3FC       DoCallRegisterDbXpressLibProc
 0001:0001A424       RegisterDbXpressLibA
 0001:0001A42C       RegisterDbXpressLibAW
 0001:0001A434       RegisterDbXpressLibW
 0001:0001A43C       RegisterDbXpressLibWA
 0001:0001A444       RegisterDbXpressLibProc
 0001:0001A464       Finalization
 0001:0001A4D4       DbxOpenOdbcInterface
 0001:0001B69C       GetCurThreadInfoStr
 0001:0001B76C       OutputDebugString
 0001:0001B7D0       OutputDebugString
 0001:0001B880       BoolToStr
 0001:0001B8C4       ValueToStr
 0001:0001BD64       ArrayToStr
 0001:0001C2C4       LogEnterProc
 0001:0001C38C       LogEnterProc
 0001:0001C3F8       LogInfoProc
 0001:0001C474       LogInfoProc
 0001:0001C4D8       LogExitProc
 0001:0001C5B0       LogExitProc
 0001:0001C61C       GetExceptionInfoStr
 0001:0001C734       LogExceptProc
 0001:0001C86C       LogExceptProc
 0001:0001C8DC       GetTransactionDescStr
 0001:0001CAA0       Finalization
 0001:0001CBA8       DbxOpenOdbcTrace
 0001:0001CBB0       FreeMemAndNil
 0001:0001CBC4       MaxSet
 0001:0001CBCC       MaxSet
 0001:0001CBE4       MaxSet
 0001:0001CC00       MaxSet
 0001:0001CC20       MaxSet
 0001:0001CC3C       MaxSet
 0001:0001CC5C       BCD2Str
 0001:0001CE54       Str2BCD
 0001:0001CFF8       WideStringLengthFromStr
 0001:0001D05C       WideStringLengthFromStrings
 0001:0001D0D0       WCharFromChar
 0001:0001D0EC       StringToWideChar
 0001:0001D12C       StringToWStr
 0001:0001D170       StringToWStr
 0001:0001D1C4       StringsToWStr
 0001:0001D230       StrLenNil
 0001:0001D240       WStrLen
 0001:0001D260       WStrComp
 0001:0001D28C       WStrIComp
 0001:0001D2D8       WStrLComp
 0001:0001D310       WStrCopy
 0001:0001D338       WStrCopy
 0001:0001D354       WStrLCopy
 0001:0001D37C       StrBuffCopy
 0001:0001D3D8       StrBuffCopy
 0001:0001D438       StrBuffCopy
 0001:0001D498       StrBuffCopy
 0001:0001D4FC       StrBuffCopy
 0001:0001D514       StrBuffCopy
 0001:0001D52C       StrClone
 0001:0001D584       StrClone
 0001:0001D5E4       StrClone
 0001:0001D638       StrClone
 0001:0001D658       StrClone
 0001:0001D710       StrClone
 0001:0001D768       StrClone
 0001:0001D7F4       StrClone
 0001:0001D884       StrClone
 0001:0001D910       StrClone
 0001:0001D95C       StrClone
 0001:0001D994       StrClone
 0001:0001DA0C       StrClone
 0001:0001DA84       StrClone
 0001:0001DAB8       StrIsEmpty
 0001:0001DAC8       StrIsEmpty
 0001:0001DAD8       StrIsEmpty
 0001:0001DAF4       StrIsEmpty
 0001:0001DB10       StrNotEmpty
 0001:0001DB20       StrNotEmpty
 0001:0001DB30       StrNotEmpty
 0001:0001DB4C       StrNotEmpty
 0001:0001DB68       StrPtrToString
 0001:0001DBC8       StrPtrToString
 0001:0001DBF0       StrPtrToString
 0001:0001DC54       StrSameText
 0001:0001DC84       StrSameText
 0001:0001DCB4       StrSameText
 0001:0001DD38       StrSameText
 0001:0001DDB8       StrSameText
 0001:0001DDD0       StrSameText
 0001:0001DDE8       StrSameText
 0001:0001DE40       StrSameText
 0001:0001DE98       StrSameText
 0001:0001DEB4       StrSameText
 0001:0001DECC       StrSameText
 0001:0001DEE8       StrSameText
 0001:0001DF00       StrISameText
 0001:0001DF30       StrISameText
 0001:0001DF60       StrISameText
 0001:0001DFE4       StrISameText
 0001:0001E064       StrISameText
 0001:0001E07C       StrISameText
 0001:0001E094       StrISameText
 0001:0001E0EC       StrISameText
 0001:0001E144       PAnsiCharParam
 0001:0001E150       PAnsiCharParam
 0001:0001E164       StrAnsiStringParam
 0001:0001E18C       StrAnsiStringParam
 0001:0001E1B8       ChangeFileExtW
 0001:0001E200       PIntToStr
 0001:0001E25C       ArgStrNull
 0001:0001E298       AnsiPos
 0001:0001E300       Finalization
 0001:0001E330       DbxOpenOdbcUtils
 0001:0001E56C       ExecRegExpr
 0001:0001E5D4       SplitRegExpr
 0001:0001E640       ReplaceRegExpr
 0001:0001E6C8       QuoteRegExprMetaChars
 0001:0001E7C0       RegExprSubExpressions
 0001:0001EAA0       TRegExpr.ErrorMsg
 0001:0001F5E0       TRegExpr.LastError
 0001:0001F5F4       TRegExpr.VersionMajor
 0001:0001F5FC       TRegExpr.VersionMinor
 0001:0001F604       TRegExpr.Create
 0001:0001F714       TRegExpr.Destroy
 0001:0001F75C       TRegExpr.InvertCaseFunction
 0001:0001F77C       TRegExpr.GetExpression
 0001:0001F7A4       TRegExpr.SetExpression
 0001:0001F85C       TRegExpr.GetSubExprMatchCount
 0001:0001F88C       TRegExpr.GetMatchPos
 0001:0001F8C4       TRegExpr.GetMatchLen
 0001:0001F8FC       TRegExpr.GetMatch
 0001:0001F948       TRegExpr.GetModifierStr
 0001:0001FAE0       TRegExpr.ParseModifiersStr
 0001:0001FCC4       TRegExpr.SetModifierStr
 0001:0001FCEC       TRegExpr.GetModifier
 0001:0001FD60       TRegExpr.SetModifier
 0001:0001FDD8       TRegExpr.InvalidateProgramm
 0001:0001FDF4       TRegExpr.Compile
 0001:0001FE14       TRegExpr.IsProgrammOk
 0001:0001FEC8       TRegExpr.Tail
 0001:0001FF04       TRegExpr.OpTail
 0001:0001FF24       TRegExpr.EmitNode
 0001:0001FF60       TRegExpr.EmitC
 0001:0001FF84       TRegExpr.InsertOperator
 0001:0001FFE4       strcspn
 0001:00020008       TRegExpr.CompileRegExpr
 0001:000202AC       TRegExpr.ParseReg
 0001:00020470       TRegExpr.ParseBranch
 0001:000204F8       parsenum
 0001:00020558       EmitComplexBraces
 0001:00020650       EmitSimpleBraces
 0001:000206C4       TRegExpr.ParsePiece
 0001:00020BC4       EmitExactly
 0001:00020C34       HexDig
 0001:00020C7C       EmitRange
 0001:00020D34       EmitRangeCPrim
 0001:00020D80       EmitRangeC
 0001:00021090       EmitSimpleRangeC
 0001:000210AC       EmitRangeStr
 0001:000210E0       UnQuoteChar
 0001:00021230       TRegExpr.ParseAtom
 0001:00021CEC       TRegExpr.GetCompilerErrorPos
 0001:00021D0C       TRegExpr.regrepeat
 0001:00021FFC       TRegExpr.regnext
 0001:00022018       TRegExpr.MatchPrim
 0001:00022B5C       TRegExpr.FillFirstCharSet
 0001:00022FC0       TRegExpr.Exec
 0001:00022FD8       TRegExpr.Exec
 0001:00022FE4       TRegExpr.Exec
 0001:00022FEC       TRegExpr.ExecPos
 0001:00022FF4       ClearMatchs
 0001:0002301C       RegMatch
 0001:00023070       TRegExpr.ExecPrim
 0001:00023248       TRegExpr.ExecNext
 0001:00023290       TRegExpr.GetInputString
 0001:000232C0       TRegExpr.SetInputString
 0001:00023380       TRegExpr.SetLineSeparators
 0001:000233AC       TRegExpr.SetLinePairedSeparator
 0001:00023444       TRegExpr.GetLinePairedSeparator
 0001:000234A8       ParseVarName
 0001:00023528       TRegExpr.Substitute
 0001:000236A0       TRegExpr.Split
 0001:00023778       TRegExpr.Replace
 0001:00023884       TRegExpr.ReplaceEx
 0001:00023980       TRegExpr.Replace
 0001:000239E4       ReturnAddr
 0001:000239E8       TRegExpr.Error
 0001:00023ADC       Finalization
 0001:00023B40       RegExpr
 0001:00024058       GetDbmsObjectNameTemplateInfo
 0001:000240A4       TObjectNameParser.Create
 0001:000245EC       TObjectNameParser.Destroy
 0001:00024660       TObjectNameParser.DecodeObjectFullName
 0001:000249E0       LDoCalculateTemplate
 0001:000249F4       TObjectNameParser.EncodeObjectFullName
 0001:00024D64       TObjectNameParser.GetQuotedObjectName
 0001:00024DF8       Finalization
 0001:00024E84       DbxObjectParser
 0001:00024E8C       GetTraceFlag
 0001:00024EA8       GetTraceFlagName
 0001:000251A8       GetTraceFlagName
 0001:000251C8       GetTraceMessage
 0001:00025244       DecodeTraceInfo
 0001:000252D0       Finalization
 0001:00025300       DbxOpenOdbcCallback
 0001:00025320       ASA_MESSAGE_INIT
 0001:00025340       ASA_MESSAGE_CALLBACK
 0001:000253B8       Finalization
 0001:000253F4       DbxOpenOdbcASA
 0001:000276E8       getSQLDriverODBCW
 0001:000277F0       getSQLDriverODBCWA
 0001:000278F8       BeginLock
 0001:000279C8       EndLock
 0001:000279E0       HostAppPlatformInitialize
 0001:00027B58       TSqlDriverOdbc3.Create
 0001:00027BCC       TSqlDriverOdbc3.getSQLConnection
 0001:00027C10       TSqlConnectionOdbc3.Create
 0001:00027C48       TSqlConnectionOdbc3.Destroy
 0001:00027C78       TSqlConnectionOdbc3.connect
 0001:00027D0C       TSqlConnectionOdbc3.connect
 0001:00027DCC       TSqlConnectionOdbc3.getErrorMessage
 0001:00027DF8       TSqlConnectionOdbc3.getErrorMessageLen
 0001:00027E1C       TSqlConnectionOdbc3.GetMetaDataReader
 0001:00027E48       LGetISQLConnection30
 0001:00027EA8       DoSetVendoLib
 0001:00028060       DoSetCustomString
 0001:00028178       TSqlConnectionOdbc3.GetOption
 0001:00028660       TSqlConnectionOdbc3.SetOption
 0001:00028704       TSqlConnectionOdbc3.getSQLCommand
 0001:000287A4       TSqlConnectionOdbc3.getSQLMetaData
 0001:00028844       TSqlCommandOdbc3.prepare
 0001:00028998       TSqlCommandOdbc3.execute
 0001:00028A30       TSqlCommandOdbc3.executeImmediate
 0001:00028B4C       TSqlCommandOdbc3.getErrorMessage
 0001:00028B64       TSqlCommandOdbc3.getErrorMessageLen
 0001:00028B7C       TSqlCommandOdbc3.getNextCursor
 0001:00028B90       TSqlCommandOdbc3.GetOption
 0001:00028C80       TSqlCommandOdbc3.SetOption
 0001:00028D20       TSqlCursorOdbc3.getErrorMessage
 0001:00028D38       TSqlCursorOdbc3.getErrorMessageLen
 0001:00028D50       TSqlCursorOdbc3.getColumnNameLength
 0001:00028DC4       TSqlCursorOdbc3.getColumnName
 0001:00028DF4       TSqlCursorOdbc3.getInt64
 0001:00028E80       TSqlCursorOdbc3.getWideString
 0001:00028FF4       TSQLMetaDataOdbc3.getErrorMessage
 0001:00029020       TSQLMetaDataOdbc3.getErrorMessageLen
 0001:00029044       TSQLMetaDataOdbc3.GetOption
 0001:00029134       TSQLMetaDataOdbc3.SetOption
 0001:000291D4       TSQLMetaDataOdbc3.getObjectList
 0001:000291F4       TSQLMetaDataOdbc3.getTables
 0001:00029224       TSQLMetaDataOdbc3.getProcedures
 0001:000292F4       TSQLMetaDataOdbc3.getColumns
 0001:000293B8       TSQLMetaDataOdbc3.getIndices
 0001:00029448       TSQLMetaDataOdbc3.getProcedureParams
 0001:00029508       TSqlCursorMetaDataTables3.getErrorMessage
 0001:00029538       TSqlCursorMetaDataTables3.getErrorMessageLen
 0001:0002955C       TSqlCursorMetaDataTables3.getColumnName
 0001:000295EC       TSqlCursorMetaDataColumns3.getColumnName
 0001:0002967C       TSqlCursorMetaDataColumns3.getErrorMessage
 0001:000296AC       TSqlCursorMetaDataColumns3.getErrorMessageLen
 0001:000296D0       TSqlCursorMetaDataIndexes3.getColumnName
 0001:00029760       TSqlCursorMetaDataIndexes3.getErrorMessage
 0001:00029790       TSqlCursorMetaDataIndexes3.getErrorMessageLen
 0001:000297B4       TSqlCursorMetaDataProcedures3.getColumnName
 0001:00029844       TSqlCursorMetaDataProcedures3.getErrorMessage
 0001:00029874       TSqlCursorMetaDataProcedures3.getErrorMessageLen
 0001:00029898       TSqlCursorMetaDataProcedureParams3.getColumnName
 0001:00029928       TSqlCursorMetaDataProcedureParams3.getErrorMessage
 0001:00029958       TSqlCursorMetaDataProcedureParams3.getErrorMessageLen
 0001:0002997C       TDbxCommandParser.IsDbxCommand
 0001:000299F8       TDbxCommandParser.IsDbxCommand
 0001:00029A20       TDbxCommandParser.IsDbxCommand
 0001:00029A44       TDbxCommandParser.IsDbxCommand
 0001:00029A90       TDbxCommandParser.Create
 0001:00029D78       TDbxCommandParser.GetParam
 0001:00029E68       TSqlCursorMetaDataTablesDbx34.Create
 0001:00029FA8       TSqlCursorMetaDataTablesDbx34.GetPhysColumnWideString
 0001:0002A108       TSqlCursorMetaDataEmpty.Create
 0001:0002A198       TSqlCursorMetaDataEmpty.Create
 0001:0002A32C       TSqlCursorMetaDataEmpty.Create
 0001:0002A47C       TSqlCursorMetaDataEmpty.getBcd
 0001:0002A490       TSqlCursorMetaDataEmpty.getBlob
 0001:0002A4A4       TSqlCursorMetaDataEmpty.getBlobSize
 0001:0002A4B8       TSqlCursorMetaDataEmpty.getBytes
 0001:0002A4CC       TSqlCursorMetaDataEmpty.getColumnCount
 0001:0002A4F0       TSqlCursorMetaDataEmpty.getColumnNameLength
 0001:0002A590       TSqlCursorMetaDataEmpty.getColumnName
 0001:0002A678       TSqlCursorMetaDataEmpty.getColumnType
 0001:0002A6C0       TSqlCursorMetaDataEmpty.getDate
 0001:0002A6D4       TSqlCursorMetaDataEmpty.getDouble
 0001:0002A6E8       TSqlCursorMetaDataEmpty.getLong
 0001:0002A6FC       TSqlCursorMetaDataEmpty.getColumnLength
 0001:0002A710       TSqlCursorMetaDataEmpty.getColumnPrecision
 0001:0002A724       TSqlCursorMetaDataEmpty.getColumnScale
 0001:0002A79C       TSqlCursorMetaDataEmpty.isNullable
 0001:0002A7B0       TSqlCursorMetaDataEmpty.getTime
 0001:0002A7C4       TSqlCursorMetaDataEmpty.getTimeStamp
 0001:0002A7D8       TSqlCursorMetaDataEmpty.getShort
 0001:0002A7F8       TSqlCursorMetaDataEmpty.getWideString
 0001:0002A824       TSqlCursorMetaDataColumnsDbx34.Create
 0001:0002AA98       TSqlCursorMetaDataColumnsDbx34.getLong
 0001:0002AB5C       TSqlCursorMetaDataColumnsDbx34.getShort
 0001:0002ABE0       TSqlCursorMetaDataIndexesDbx34.Create
 0001:0002ADA4       TSqlCursorMetaDataIndexesDbx34.getShort
 0001:0002AE64       TSqlCursorMetaDataIndexColumnsDbx34.Create
 0001:0002AFF8       TSqlCursorMetaDataIndexColumnsDbx34.getLong
 0001:0002B068       TSqlCursorMetaDataIndexColumnsDbx34.getShort
 0001:0002B0DC       DoRegisterDbXpressLibW
 0001:0002B0E8       DoRegisterDbXpressLibWA
 0001:0002B0F4       Finalization
 0001:0002B124       DbxOpenOdbc3
 0001:0002DB88       EmbeddedErrorTrack
 0001:0002DBD0       getSQLDriverODBC
 0001:0002DD04       getSQLDriverODBCAW
 0001:0002DE04       IsRestrictedConnectionOptionValue
 0001:0002DE90       SetConnectionOption
 0001:0002E240       ExtractCatalog
 0001:0002E2F8       OdbcDataTypeToDbxType
 0001:0002E5BC       FormatDbxType
 0001:0002EB6C       FormatDbxSubType
 0001:0002EFC0       DoFormatParameter
 0001:0002FCF0       FormatParameter
 0001:0002FD08       FormatParameters
 0001:0002FDE8       CheckMaxLines
 0001:0002FE10       NewDbxConStmt
 0001:0002FE50       DisposeDbxConStmt
 0001:0002FE88       AllocateDbxHStmtNodes
 0001:00030800       MakeStringExceptionFromInfo
 0001:00030AAC       GetStringOptions
 0001:00030BEC       TDOSQLObject.SelfObj
 0001:00030BF8       TSqlDriverOdbc.Create
 0001:00030C9C       TSqlDriverOdbc.Destroy
 0001:00030CE0       TSqlDriverOdbc.ClearFields
 0001:00030D14       TSqlDriverOdbc.AssignFields
 0001:00030D38       TSqlDriverOdbc.OdbcCheck
 0001:00030FCC       GetConnection
 0001:0003102C       IsConnection
 0001:00031040       ClearNewErrors
 0001:000310F0       LDoMakeResult
 0001:00031144       SQLGetDiagRecLevel2
 0001:000311E4       TSqlDriverOdbc.RetrieveOdbcErrorInfo
 0001:000322E0       TSqlDriverOdbc.AllocHCon
 0001:0003234C       TSqlDriverOdbc.FreeHCon
 0001:000323D8       TSqlDriverOdbc.AllocHEnv
 0001:00032584       TSqlDriverOdbc.FreeHEnv
 0001:0003263C       TSqlDriverOdbc.GetOption
 0001:0003279C       TSqlDriverOdbc.getSQLConnection
 0001:0003281C       TSqlDriverOdbc.SetOption
 0001:0003293C       TSqlDriverOdbc.Drivers
 0001:00032B20       TSqlDriverOdbc.GetOdbcDrivers
 0001:00032BE4       TSqlConnectionOdbc.Create
 0001:00032C74       TSqlConnectionOdbc.Destroy
 0001:00032CA8       TSqlConnectionOdbc.DoDestroy
 0001:00032D94       TSqlConnectionOdbc.SetVendorLib
 0001:00032FC8       TSqlConnectionOdbc.SynchronizeInTransaction
 0001:00033240       TSqlConnectionOdbc.CloneOdbcConnection
 0001:000336A0       TSqlConnectionOdbc.SetCurrentDbxConStmt
 0001:000336C4       TSqlConnectionOdbc.SetLoginTimeout
 0001:00033764       TSqlConnectionOdbc.SetNetworkTimeout
 0001:00033804       TSqlConnectionOdbc.GetDefaultConnectionOptions
 0001:0003381C       TSqlConnectionOdbc.GetUnquotedNameLen
 0001:000338A8       TSqlConnectionOdbc.GetUnquotedName
 0001:00033998       TSqlConnectionOdbc.GetUnquotedName
 0001:00033AA0       TSqlConnectionOdbc.ObjectIsStoredProc
 0001:00033BC4       TSqlConnectionOdbc.CreateRegExpObjectNameParser
 0001:00033C24       TSqlConnectionOdbc.ReleaseRegExpObjectNameParser
 0001:00033C50       LDoClearResult
 0001:00033C78       TSqlConnectionOdbc.DecodeObjectFullName
 0001:00033E48       TSqlConnectionOdbc.EncodeObjectFullName
 0001:00033FC0       TSqlConnectionOdbc.GetQuotedObjectName
 0001:00034058       TSqlConnectionOdbc.DbxCallBackSendMsg
 0001:00034270       TSqlConnectionOdbc.DbxCallBackSendMsgFmt
 0001:000342F0       IsFreeDbxConStmt
 0001:00034434       TSqlConnectionOdbc.FindFreeConnection
 0001:00034508       TSqlConnectionOdbc.AllocHStmt
 0001:0003472C       DoRelaseDbxConStmt
 0001:00034A38       TSqlConnectionOdbc.FreeHStmt
 0001:00034BD0       TSqlConnectionOdbc.GetCurrentDbxConStmt
 0001:00034C90       TSqlConnectionOdbc.GetCurrentDbxConStmt
 0001:00034CB0       TSqlConnectionOdbc.GetCurrentConnectionHandle
 0001:00034CC8       TSqlConnectionOdbc.OdbcCheck
 0001:00034D00       TSqlConnectionOdbc.GetCatalog
 0001:00034E14       TSqlConnectionOdbc.GetCurrentCatalog
 0001:00034E84       TSqlConnectionOdbc.beginTransaction
 0001:00035484       CompactNullConn
 0001:000354BC       TSqlConnectionOdbc.commit
 0001:00035784       CompactNullConn
 0001:000357BC       TSqlConnectionOdbc.rollback
 0001:00035A8C       TSqlConnectionOdbc.ClearConnectionOptions
 0001:00035BBC       TSqlConnectionOdbc.CheckHCon
 0001:00035BD0       HidePassword
 0001:00035CC8       MergeAndSetConnOptions
 0001:00035DA0       ParseConnectionOptions
 0001:00035E80       TSqlConnectionOdbc.connect
 0001:00038710       TSqlConnectionOdbc.RetrieveDbmsOptions
 0001:000389E0       VersionStringToNumeric
 0001:00038B30       TSqlConnectionOdbc.RetrieveDriverName
 0001:0003AE64       TSqlConnectionOdbc.disconnect
 0001:0003B58C       TSqlConnectionOdbc.getErrorMessage
 0001:0003B5F8       TSqlConnectionOdbc.getErrorMessageLen
 0001:0003B650       TSqlConnectionOdbc.CheckTransactionSupport
 0001:0003B7B4       TSqlConnectionOdbc.CheckDbmsTransactionSupport
 0001:0003B7CC       TSqlConnectionOdbc.GetMetaDataOption
 0001:0003CB9C       GetConnectionCustomOptions
 0001:0003CDE0       GetDatabaseNameOption
 0001:0003CFB4       LGetISQLConnection2x
 0001:0003D018       GetVendorProperty
 0001:0003D584       GetTransactionTypeName
 0001:0003D664       TSqlConnectionOdbc.GetOption
 0001:0003EEFC       TSqlConnectionOdbc.getSQLCommand
 0001:0003EFF8       TSqlConnectionOdbc.getSQLMetaData
 0001:0003F0F8       GetValueAsAnsiStr
 0001:0003F184       SetConnectionCustomOptions
 0001:0003F774       TSqlConnectionOdbc.SetOption
 0001:000412BC       TSqlConnectionOdbc.TransactionCheck
 0001:00041460       TSqlConnectionOdbc.GetDbmsType
 0001:00041470       TSqlConnectionOdbc.GetOdbcDriverType
 0001:00041480       TSqlConnectionOdbc.GetOdbcConnectStrings
 0001:00041554       TSqlConnectionOdbc.GetLastOdbcSqlState
 0001:00041564       TSqlConnectionOdbc.GetDbmsName
 0001:0004157C       TSqlConnectionOdbc.GetDbmsVersionMajor
 0001:0004158C       TSqlConnectionOdbc.GetDbmsVersionMinor
 0001:0004159C       TSqlConnectionOdbc.GetDbmsVersionRelease
 0001:000415AC       TSqlConnectionOdbc.GetDbmsVersionBuild
 0001:000415BC       TSqlConnectionOdbc.GetDbmsVersionString
 0001:000415D4       TSqlConnectionOdbc.GetOdbcDriverName
 0001:000415F0       TSqlConnectionOdbc.GetOdbcDriverVersionMajor
 0001:00041600       TSqlConnectionOdbc.GetOdbcDriverVersionMinor
 0001:00041610       TSqlConnectionOdbc.GetOdbcDriverVersionRelease
 0001:00041620       TSqlConnectionOdbc.GetOdbcDriverVersionBuild
 0001:00041630       TSqlConnectionOdbc.GetOdbcDriverVersionString
 0001:0004164C       TSqlConnectionOdbc.GetOdbcConnectString
 0001:00041664       TSqlConnectionOdbc.GetCursorPreserved
 0001:00041674       TSqlConnectionOdbc.GetIsSystemODBCManager
 0001:00041688       TSqlConnectionOdbc.GetOdbcDriverLevel
 0001:00041698       TSqlConnectionOdbc.GetSupportsSqlPrimaryKeys
 0001:000416A8       TSqlConnectionOdbc.GetStatementsPerConnection
 0001:000416B8       TSqlConnectionOdbc.GetEnvironmentHandle
 0001:000416C8       TSqlConnectionOdbc.GetConnectionHandle
 0001:000416D8       TSqlConnectionOdbc.GetOdbcApiIntf
 0001:000416F4       TSqlConnectionOdbc.GetDecimalSeparator
 0001:00041704       TSqlCommandOdbc.Create
 0001:00041798       TSqlCommandOdbc.DoAllocateStmt
 0001:0004190C       TSqlCommandOdbc.CloseStmt
 0001:00041AAC       TSqlCommandOdbc.ClearParams
 0001:00041AF4       TSqlCommandOdbc.Destroy
 0001:00041B20       TSqlCommandOdbc.AddError
 0001:00041B44       TSqlCommandOdbc.OdbcCheck
 0001:00041B6C       TSqlCommandOdbc.close
 0001:00041BA4       TSqlCommandOdbc.BuildStoredProcSQL
 0001:00041DD0       TSqlCommandOdbc.DoSQLMoreResults
 0001:00041EBC       DoReBindParams
 0001:0004200C       DoPrepareNow
 0001:000420C0       TSqlCommandOdbc.DoExecute
 0001:0004275C       TSqlCommandOdbc.execute
 0001:000427F0       TSqlCommandOdbc.DoUnprepareStmt
 0001:00042820       ChkDbxSQLParamDelim
 0001:00042830       ChkDbxSQLParamDelim
 0001:00042844       DoFetchTables
 0001:00042BE4       DoFetchColumns
 0001:00042D68       DoFetchIndexes
 0001:00042F04       DoFetchIndexColumns
 0001:000430DC       DoMetadataQueryExecute
 0001:000431E4       DoMetadataQuery
 0001:000432C4       TSqlCommandOdbc.DoExecuteImmediate
 0001:00043A48       TSqlCommandOdbc.ExecuteImmediate
 0001:00043B08       TSqlCommandOdbc.Cancel
 0001:00043B4C       TSqlCommandOdbc.GetConnectionHandle
 0001:00043B60       TSqlCommandOdbc.SetLockTimeout
 0001:00043BFC       TSqlCommandOdbc.GetLockTimeout
 0001:00043C68       TSqlCommandOdbc.getErrorMessage
 0001:00043CDC       TSqlCommandOdbc.getErrorMessageLen
 0001:00043D38       TSqlCommandOdbc.getNextCursor
 0001:00043F50       TSqlCommandOdbc.GetOption
 0001:000449E4       TSqlCommandOdbc.getParameter
 0001:00045004       TSqlCommandOdbc.getRowsAffected
 0001:0004501C       TSqlCommandOdbc.DoAllocateParams
 0001:000450A8       TSqlCommandOdbc.DoExpandParams
 0001:00045108       TSqlCommandOdbc.DoPrepare
 0001:00045480       TSqlCommandOdbc.prepare
 0001:00045568       MakeStoredProcParams
 0001:000455E4       TSqlCommandOdbc.SetOption
 0001:00046090       ProcessVarDataLength
 0001:00046120       SetVarData
 0001:000461E0       WideCharToUtf8
 0001:00046240       LDo_PostgreSQL_Make_Buffer
 0001:000462E0       TSqlCommandOdbc.setParameter
 0001:0004767C       TSQLMetaDataOdbc.Create
 0001:000476D8       TSQLMetaDataOdbc.Destroy
 0001:00047708       TSQLMetaDataOdbc.getColumns
 0001:00047848       TSQLMetaDataOdbc.getErrorMessage
 0001:000478BC       TSQLMetaDataOdbc.getErrorMessageLen
 0001:00047914       TSQLMetaDataOdbc.getIndices
 0001:00047A5C       TSQLMetaDataOdbc.getObjectList
 0001:00047A7C       TSQLMetaDataOdbc.GetOption
 0001:00047BEC       TSQLMetaDataOdbc.getProcedureParams
 0001:00047D28       TSQLMetaDataOdbc.getProcedures
 0001:00047E48       TSQLMetaDataOdbc.DoGetTables
 0001:00047F60       TSQLMetaDataOdbc.getTables
 0001:00047F90       TSQLMetaDataOdbc.SetOption
 0001:0004872C       TSqlCursorOdbc.Create
 0001:000487D8       TSqlCursorOdbc.ClearCursor
 0001:00048844       TSqlCursorOdbc.Destroy
 0001:00048994       TSqlCursorOdbc.OdbcCheck
 0001:000489C0       OdbcSqlTypeToStr
 0001:00049394       OdbcSqlCTypeToStr
 0001:00049BC4       CheckAutoIncSubType
 0001:00049C94       TSqlCursorOdbc.BindResultSet
 0001:0004BE0C       TSqlCursorOdbc.DoFetchLateBoundData
 0001:0004BEDC       TSqlCursorOdbc.FetchLateBoundData
 0001:0004BFF4       TSqlCursorOdbc.CheckFetchCacheColumns
 0001:0004C0B4       TSqlCursorOdbc.AddError
 0001:0004C0C0       OptimizeNextChunkSize
 0001:0004C18C       CalculateBlobFixSize
 0001:0004C1F0       TSqlCursorOdbc.DoFetchLongData
 0001:0004C868       TSqlCursorOdbc.FetchLongData
 0001:0004C8C8       TSqlCursorOdbc.getBcd
 0001:0004C954       TSqlCursorOdbc.getBlob
 0001:0004CB44       TSqlCursorOdbc.getBlobSize
 0001:0004CCD8       TSqlCursorOdbc.getBytes
 0001:0004CD7C       TSqlCursorOdbc.getColumnCount
 0001:0004CD94       TSqlCursorOdbc.getColumnLength
 0001:0004D1CC       TSqlCursorOdbc.getColumnName
 0001:0004D1F8       TSqlCursorOdbc.getColumnNameLength
 0001:0004D230       TSqlCursorOdbc.getColumnPrecision
 0001:0004D338       TSqlCursorOdbc.getColumnScale
 0001:0004D3C8       TSqlCursorOdbc.getColumnType
 0001:0004D41C       TSqlCursorOdbc.getDate
 0001:0004D4E4       TSqlCursorOdbc.getDouble
 0001:0004D560       TSqlCursorOdbc.getErrorMessage
 0001:0004D5E0       TSqlCursorOdbc.getErrorMessageLen
 0001:0004D640       TSqlCursorOdbc.getLong
 0001:0004D6B4       TSqlCursorOdbc.GetOption
 0001:0004D6C0       TSqlCursorOdbc.getShort
 0001:0004D748       TSqlCursorOdbc.getString
 0001:0004D94C       TSqlCursorOdbc.getTime
 0001:0004D9DC       TSqlCursorOdbc.getTimeStamp
 0001:0004DAB4       TSqlCursorOdbc.isAutoIncrement
 0001:0004DBF0       TSqlCursorOdbc.isBlobSizeExact
 0001:0004DC20       TSqlCursorOdbc.isNullable
 0001:0004DC50       TSqlCursorOdbc.isReadOnly
 0001:0004DCB0       TSqlCursorOdbc.isSearchable
 0001:0004DD90       GetRowStatus
 0001:0004DF74       TSqlCursorOdbc.next
 0001:0004E550       TSqlCursorOdbc.SetOption
 0001:0004E5EC       TSqlCursorMetaData.Create
 0001:0004E664       TSqlCursorMetaData.Destroy
 0001:0004E694       TSqlCursorMetaData.ClearMetaData
 0001:0004E6B8       TSqlCursorMetaData.GetPhysColumnNumber
 0001:0004E720       TSqlCursorMetaData.IsPhysColumnStringType
 0001:0004E744       TSqlCursorMetaData.IsPhysColumnWideStringType
 0001:0004E760       TSqlCursorMetaData.GetPhysColumnAnsiString
 0001:0004E764       TSqlCursorMetaData.GetPhysColumnWideString
 0001:0004E76C       TSqlCursorMetaData.DbgColumnName
 0001:0004E7A4       TSqlCursorMetaData.DbgPhysColumnName
 0001:0004E7C4       TSqlCursorMetaData.remap
 0001:0004E840       TSqlCursorMetaData.ParseTableNameBase
 0001:0004E8EC       TSqlCursorMetaData.ParseTableName
 0001:0004E968       TSqlCursorMetaData.DescribeAllocBindString
 0001:0004EAE4       TSqlCursorMetaData.DescribeAllocBindWString
 0001:0004EC7C       TSqlCursorMetaData.BindSmallint
 0001:0004EF8C       TSqlCursorMetaData.BindInteger
 0001:0004F284       TSqlCursorMetaData.getBcd
 0001:0004F2B0       TSqlCursorMetaData.getBlob
 0001:0004F2C4       TSqlCursorMetaData.getBlobSize
 0001:0004F2E0       TSqlCursorMetaData.getBytes
 0001:0004F308       TSqlCursorMetaData.getColumnCount
 0001:0004F330       TSqlCursorMetaData.getColumnLength
 0001:0004F394       TSqlCursorMetaData.getColumnName
 0001:0004F3E4       TSqlCursorMetaData.getColumnNameLength
 0001:0004F42C       TSqlCursorMetaData.getColumnPrecision
 0001:0004F4C4       TSqlCursorMetaData.getColumnScale
 0001:0004F524       TSqlCursorMetaData.getColumnType
 0001:0004F574       TSqlCursorMetaData.getDate
 0001:0004F59C       TSqlCursorMetaData.getDouble
 0001:0004F5C8       TSqlCursorMetaData.getErrorMessage
 0001:0004F63C       TSqlCursorMetaData.getErrorMessageLen
 0001:0004F694       TSqlCursorMetaData.getLong
 0001:0004F6BC       TSqlCursorMetaData.GetOption
 0001:0004F6C8       TSqlCursorMetaData.getShort
 0001:0004F6F0       TSqlCursorMetaData.getString
 0001:0004F754       TSqlCursorMetaData.getWideString
 0001:0004F7BC       TSqlCursorMetaData.getInt64
 0001:0004F7EC       TSqlCursorMetaData.getTime
 0001:0004F814       TSqlCursorMetaData.getTimeStamp
 0001:0004F848       TSqlCursorMetaData.isAutoIncrement
 0001:0004F858       TSqlCursorMetaData.isBlobSizeExact
 0001:0004F868       TSqlCursorMetaData.isNullable
 0001:0004F878       TSqlCursorMetaData.isReadOnly
 0001:0004F88C       TSqlCursorMetaData.isSearchable
 0001:0004F89C       TSqlCursorMetaData.next
 0001:0004F8C0       TSqlCursorMetaData.SetOption
 0001:0004F96C       TSqlCursorMetaData.OdbcCheck
 0001:0004FABC       TOdbcBindCol.Create
 0001:0004FAF8       TOdbcBindCol.Destroy
 0001:0004FB40       TOdbcBindParam.Create
 0001:0004FB7C       TOdbcBindParam.Destroy
 0001:0004FBAC       TMetaTable.Create
 0001:0004FDC4       TMetaTable.CreateW
 0001:0005002C       TMetaTable.Destroy
 0001:0005005C       TMetaColumn.Create
 0001:000500F8       TMetaColumn.CreateW
 0001:00050194       TMetaColumn.Destroy
 0001:000501BC       TMetaIndexColumn.Create
 0001:00050274       TMetaIndexColumn.CreateW
 0001:0005032C       TMetaIndexColumn.Destroy
 0001:00050354       TMetaProcedure.Create
 0001:000503DC       TMetaProcedure.CreateW
 0001:00050464       TMetaProcedure.Destroy
 0001:0005048C       TMetaProcedureParam.Create
 0001:000504D8       TMetaProcedureParam.CreateW
 0001:00050524       TMetaProcedureParam.Destroy
 0001:0005054C       TSqlCursorMetaDataTables.Create
 0001:00050740       TSqlCursorMetaDataTables.Destroy
 0001:0005076C       TSqlCursorMetaDataTables.Clear
 0001:000507AC       DirectoryExistsW
 0001:000507DC       RemoveFileExt
 0001:00050818       GetFileExt
 0001:00050858       fix_odbc_read_table_list_w_from_folder
 0001:00050BB8       MakeTableTypeString
 0001:00050D54       TSqlCursorMetaDataTables.FetchTables
 0001:00051A70       TSqlCursorMetaDataTables.getLong
 0001:00051BCC       TSqlCursorMetaDataTables.GetPhysColumnAnsiString
 0001:00051CD8       TSqlCursorMetaDataTables.GetPhysColumnWideString
 0001:00051DFC       TSqlCursorMetaDataTables.getColumnLength
 0001:00051E88       TSqlCursorMetaDataTables.next
 0001:00051EC0       TSqlCursorMetaDataColumns.Create
 0001:000522F0       TSqlCursorMetaDataColumns.Destroy
 0001:0005231C       TSqlCursorMetaDataColumns.Clear
 0001:00052398       TSqlCursorMetaDataColumns.FetchColumns
 0001:00052DE0       TSqlCursorMetaDataColumns.getLong
 0001:00052F48       TSqlCursorMetaDataColumns.getShort
 0001:000530D4       TSqlCursorMetaDataColumns.GetPhysColumnAnsiString
 0001:00053208       TSqlCursorMetaDataColumns.GetPhysColumnWideString
 0001:0005333C       TSqlCursorMetaDataColumns.next
 0001:00053380       TSqlCursorMetaDataIndexes.Create
 0001:00053690       TSqlCursorMetaDataIndexes.Destroy
 0001:000536BC       TSqlCursorMetaDataIndexes.Clear
 0001:00053738       SyncPKSortOrder
 0001:000537E8       IsFilteredIndex
 0001:00053818       BuildTableIndexKey
 0001:000538D0       CacheTableIndex
 0001:00053960       CheckTableIndexColumn
 0001:00053974       TSqlCursorMetaDataIndexes.FetchIndexes
 0001:00054C6C       TSqlCursorMetaDataIndexes.GetPhysColumnAnsiString
 0001:00054E90       TSqlCursorMetaDataIndexes.GetPhysColumnWideString
 0001:000550B4       TSqlCursorMetaDataIndexes.getLong
 0001:00055214       TSqlCursorMetaDataIndexes.getShort
 0001:000553A0       TSqlCursorMetaDataIndexes.next
 0001:000553D8       TSqlCursorMetaDataProcedures.Create
 0001:000555F8       TSqlCursorMetaDataProcedures.Destroy
 0001:00055658       TSqlCursorMetaDataProcedures.FetchProcedures
 0001:00055A2C       TSqlCursorMetaDataProcedures.getLong
 0001:00055B00       TSqlCursorMetaDataProcedures.getShort
 0001:00055BD0       TSqlCursorMetaDataProcedures.GetPhysColumnAnsiString
 0001:00055C74       TSqlCursorMetaDataProcedures.GetPhysColumnWideString
 0001:00055D18       TSqlCursorMetaDataProcedures.next
 0001:00055D50       TSqlCursorMetaDataProcedureParams.Create
 0001:000560F0       TSqlCursorMetaDataProcedureParams.Destroy
 0001:0005618C       RetrieveProcedureSchemaForSysNaming
 0001:000562C0       TSqlCursorMetaDataProcedureParams.FetchProcedureParams
 0001:000575D0       TSqlCursorMetaDataProcedureParams.getLong
 0001:000576CC       TSqlCursorMetaDataProcedureParams.getShort
 0001:00057850       TSqlCursorMetaDataProcedureParams.GetPhysColumnAnsiString
 0001:00057944       TSqlCursorMetaDataProcedureParams.GetPhysColumnWideString
 0001:00057A38       TSqlCursorMetaDataProcedureParams.next
 0001:00057A70       TBlobChunkCollection.AddFragment
 0001:00057AB0       TBlobChunkCollection.Clear
 0001:00057AE8       TBlobChunkCollection.Destroy
 0001:00057B14       TBlobChunkCollection.GetSize
 0001:00057B38       TBlobChunkCollection.Read
 0001:00057B70       TBlobChunkCollection.ReadBlobToVariant
 0001:00057BB8       TBlobChunkCollection.ReadBlobToStream
 0001:00057C74       DoRegisterDbXpressLibA
 0001:00057C80       DoRegisterDbXpressLibAW
 0001:00057C8C       DoInitialzeUnit
 0001:00058184       Finalization
 0001:0005821C       DbxOpenOdbc
 0001:0005822C       IsStatic
 0001:00058238       NewLoadLibraryA
 0001:000582D4       NewLoadLibraryW
 0001:00058388       NewFreeLibrary
 0001:000583B0       LDoGetProcAddress
 0001:000585F0       NewGetProcAddress
 0001:00058630       UnHookIAT_LoadLibrary
 0001:000586A8       HookIAT_LoadLibrary
 0001:000588D0       Finalization
 0001:00058908       DbxOpenOdbcStatic
 0001:00058BB4       @GetPackageInfoTable
 0001:00058BBC       @PackageLoad
 0001:00058BC8       @PackageUnload
 0001:00058BD4       dbxoodbc_emb
 0002:00000000       TlsIndex
 0002:00000004       PtrToNil
 0002:00000008       Module
 0002:00000020       TlsProc
 0002:00000030       bFixedSqlExpr
 0002:00000034       bFixedUnicode
 0002:00000038       PacketTypeMap
 0002:000000D0       ExtraFieldProps
 0002:000000FC       Opcodes1
 0002:000002FC       Opcodes2
 0002:000004FC       Opcodes3
 0002:0000063C       cNullAnsiCharBuf
 0002:00000640       cNullWideCharBuf
 0002:00000644       sysodbclib
 0002:00000648       cLibsSeparator
 0002:0000064C       cSqlAttrOdbcVerSeparator
 0002:00000650       FldTypeMap
 0002:00000678       FldSubTypeMap
 0002:000006C4       DataTypeMap
 0002:000006E0       BlobTypeMap
 0002:000006F0       cConnectionOptionsNames
 0002:00000788       cConnectionOptionsTypes
 0002:000007B0       cConnectionOptionsDescs
 0002:00000848       cOptionSwitchesNames
 0002:00000854       cXSQLDriverOptionStringTypes
 0002:00000858       cXSQLConnectionOptionStringTypes
 0002:00000860       cXSQLCommandOptionStringTypes
 0002:00000864       cXSQLMetaDataOptionStringTypes
 0002:00000868       cSQLDriverOption
 0002:00000880       cSQLConnectionOption
 0002:0000092C       cSQLMetaDataOption
 0002:00000974       cSQLCommandOption
 0002:000009C0       cSTMTParamType
 0002:000009D4       cSQLCursorOption
 0002:000009E0       cOdbcDriverType
 0002:00000A54       cDbmsType
 0002:00000ACC       cBoolean
 0002:00000AD4       cBoolean
 0002:00000ADC       RegExprModifierI
 0002:00000AE0       RegExprModifierR
 0002:00000AE4       RegExprModifierS
 0002:00000AE8       RegExprModifierG
 0002:00000AEC       RegExprModifierM
 0002:00000AF0       RegExprModifierX
 0002:00000AF4       RegExprSpaceChars
 0002:00000AF8       RegExprWordChars
 0002:00000AFC       RegExprLineSeparators
 0002:00000B00       RegExprLinePairedSeparator
 0002:00000B04       RegExprInvertCaseFunction
 0002:00000B0C       TRegExprVersionMajor
 0002:00000B10       TRegExprVersionMinor
 0002:00000B14       RegExprMetaSet
 0002:00000B18       META
 0002:00000B28       DefaultMathesIndexes
 0002:00000B50       DefaultObjectNameTemplateInfo
 0002:00000B84       SQLServerMathesIndexes
 0002:00000BB8       SQLServerObjectNameTemplateInfo
 0002:00000BEC       OracleMathesIndexes
 0002:00000C08       OracleObjectNameTemplateInfo
 0002:00000C3C       InformixMathesIndexes
 0002:00000C58       InformixObjectNameTemplateInfo
 0002:00000C8C       TextMathesIndexes
 0002:00000CA4       TextObjectNameTemplateInfo
 0002:00000CD8       DbmsObjectNameTemplateInfo
 0002:00000D50       cRegExprSpesialSymbols
 0002:00000D54       AsaCallbackMessage
 0002:00000D58       aWindow
 0002:00000D5C       gClientVersionOverload
 0002:00000D60       cConnectionOptionsDefault
 0002:00000D88       cConnectionOptionsRestrictions
 0002:00000DB0       gHostPlatform
 0002:00000DB4       cBindMapDateTimeOdbc2
 0002:00000DC0       cBindMapDateTimeOdbc3
 0002:00000DCC       cDecimalSeparatorDefault
 0002:00000DD0       IsDriverEmbedded
 0002:00000DD4       MaxCount
 0002:00000DD8       cGetOptionExceptionInfos
 0002:00000EF0       cDbxDriverVersionString
 0002:00000EF4       cDbxProductVersionString
 0002:00000EF8       cBoolOptionSwitches
 0002:00000EFC       IATPatch
 0002:00000F00       DllHandle
 0002:00001000       ModuleIsLib
 0002:00001001       ModuleIsPackage
 0002:00001004       HInstance
 0002:00001008       .1
 0002:0000100C       tlsBuffer
 0002:00001010       .3
 0002:00001014       .1
 0002:00001018       .2
 0002:0000101C       jmp_TDataSetProvider_InternalGetRecords
 0002:00001024       jmp_TSQLConnection_CloneConnection
 0002:0000102C       jmp_TCustomSQLDataSet_PrepareStatement
 0002:00001034       jmp_TCustomSQLDataSet_PSGetDefaultOrder
 0002:0000103C       jmp_TCustomSQLDataSet_OpenSchema
 0002:00001044       jmp_TCustomSQLDataSet_ExecuteStatement
 0002:0000104C       jmp_TParams_ParseSQL
 0002:00001054       jmp_NextSQLToken
 0002:0000105C       jmp_IsMultiTableQuery
 0002:00001064       jmp_GetTableNameFromSQL
 0002:0000106C       jmp_TSQLConnection_Execute
 0002:00001074       jmp_TCustomSQLDataSet_AddFieldDesc
 0002:0000107C       jmp_TCustomSQLDataSet_GetFieldData1
 0002:00001084       jmp_TDataSet_DataConvert
 0002:0000108C       jmp_TDataSet_GetFieldData2
 0002:00001094       jmp_TParam_GetDataSize
 0002:0000109C       jmp_TParam_GetData
 0002:000010A4       jmp_TWideStringField_GetDataSize
 0002:000010AC       jmp_TDataPacketWriterFix_AddColumn
 0002:000010B4       .2
 0002:000010B8       .1
 0002:000010BC       StringField_SetAsAnsiString
 0002:000010C4       FieldAccess_FindField
 0002:000010CC       IntegerField_GetIsNull
 0002:000010D4       BlobField_SetVarValue
 0002:000010DC       StringField_GetValue
 0002:000010E4       Field_AssignValue
 0002:000010E8       WideStringField_GetDataSize
 0002:000010F0       WideStringField_GetAsWideString
 0002:000010F8       WideStringField_GetAsVariant
 0002:00001100       .1
 0002:00001104       .1
 0002:00001108       .1
 0002:0000110C       .1
 0002:00001110       .1
 0002:00001114       .1
 0002:00001118       .1
 0002:0000111C       .1
 0002:00001120       DefaultSystemCodePage
 0002:00001124       .1
 0002:00001128       .5
 0002:0000112C       fOdbcApiCache
 0002:00001130       .1
 0002:00001134       .1
 0002:00001138       _RegisterDbXpressLibs
 0002:00001148       .9
 0002:0000114C       DefaultSystemCodePage
 0002:00001150       .1
 0002:00001154       .3
 0002:00001158       .2
 0002:0000115C       .1
 0002:00001160       WM_ASACALLBACK
 0002:00001162       WM_ASACALLBACK_SUPPORTED
 0002:00001164       .1
 0002:00001168       cConnectionOptionsDefault3
 0002:00001190       .71
 0002:00001194       .23
 0002:00001198       .1
 0002:0000119C       _LoadLibraryA
 0002:000011A0       _LoadLibraryW
 0002:000011A4       _FreeLibrary
 0002:000011A8       _GetProcAddress


Line numbers for SysInit(SysInit.pas) segment .text

    93 0001:000003C0   102 0001:000003C8   105 0001:000003D0   108 0001:000003D8
   111 0001:000003E0   114 0001:000003E8   117 0001:000003F0   128 0001:000003F8
   129 0001:00000400   285 0001:00000404   286 0001:00000409   293 0001:0000040C
   294 0001:0000040D   295 0001:00000414   299 0001:00000418   300 0001:0000042B
   301 0001:00000432   302 0001:00000436   304 0001:00000442   305 0001:0000044E
   310 0001:00000450   312 0001:00000459   313 0001:00000463   314 0001:00000468
   315 0001:00000478   321 0001:0000047C   323 0001:00000485   324 0001:0000048E
   325 0001:00000499   326 0001:0000049D   328 0001:000004A3   332 0001:000004A4
   334 0001:000004AD   335 0001:000004B2   336 0001:000004BB   337 0001:000004C6
   359 0001:000004C8   360 0001:000004CE   361 0001:000004D3   362 0001:000004D5
   363 0001:000004D7   364 0001:000004DE   365 0001:000004E1   368 0001:000004E2
   369 0001:000004E7   370 0001:000004EC   371 0001:000004ED   372 0001:000004F2
   373 0001:000004F4   374 0001:000004F6   377 0001:000004F7   378 0001:000004FC
   381 0001:000004FD   382 0001:000004FE   383 0001:00000503   384 0001:00000505
   385 0001:00000507   423 0001:00000508   424 0001:00000512   428 0001:00000514
   429 0001:0000051E   430 0001:0000052F   431 0001:00000535   495 0001:00000538
   496 0001:00000543   497 0001:0000054A   498 0001:00000551   499 0001:00000556
   500 0001:0000055E   501 0001:00000566   502 0001:0000056B   503 0001:00000574
   504 0001:0000057D   505 0001:00000582   506 0001:00000589   507 0001:0000058D
   508 0001:00000592   509 0001:00000595   540 0001:0000059C   541 0001:000005A6
   545 0001:000005A8   546 0001:000005B2   840 0001:000005E4   840 0001:000005EB

Line numbers for Dbx23Fix(Dbx23Fix.pas) segment .text

   294 0001:00001A34   295 0001:00001A57   298 0001:00001A5B   300 0001:00001A6F
   301 0001:00001A93   304 0001:00001A9F   306 0001:00001ACE   698 0001:000023F4
   699 0001:00002409   700 0001:00002417   702 0001:0000241C   704 0001:00002424
   706 0001:00002437   708 0001:00002449   709 0001:00002457   711 0001:00002461
   713 0001:0000246C   714 0001:0000247A   715 0001:00002482   717 0001:0000248D
   718 0001:0000249B   719 0001:000024AF   720 0001:000024BD   722 0001:000024D8
   723 0001:000024E6   725 0001:00002505   727 0001:00002517   729 0001:0000252A
   731 0001:0000253A   735 0001:0000255F   736 0001:00002567   738 0001:00002571
   741 0001:0000257C   742 0001:0000257F   743 0001:00002586   745 0001:0000258F
   746 0001:0000259A   747 0001:000025A5   749 0001:000025AC   750 0001:000025C0
   751 0001:000025CF   752 0001:000025DA   753 0001:000025E2   756 0001:000025E4
   757 0001:000025F7   758 0001:00002634   862 0001:00002638   863 0001:00002657
   864 0001:00002662   866 0001:00002667   867 0001:00002669   868 0001:00002679
   869 0001:00002680   870 0001:00002687   871 0001:0000268B   872 0001:0000269C
   873 0001:000026A7   874 0001:000026C1   875 0001:000026D2   876 0001:000026E3
   877 0001:000026F4   879 0001:0000270C   881 0001:00002728   882 0001:0000272E
   884 0001:00002744   885 0001:00002750   886 0001:00002756   887 0001:00002762
   888 0001:00002775   890 0001:00002795   891 0001:000027A1   894 0001:000027C6
   895 0001:000027D6   896 0001:000027D9   897 0001:000027F2   896 0001:0000280A
   899 0001:0000280F   901 0001:0000284F  1209 0001:0000287C  1210 0001:000028A7
  1211 0001:000028AC  1212 0001:000028BD  1214 0001:000028CB  1216 0001:000028D5
  1217 0001:000028E3  1218 0001:000028EA  1220 0001:000028F9  1221 0001:0000291D
  1224 0001:00002928  1225 0001:00002941  1227 0001:00002943  1228 0001:00002954
  1230 0001:0000295E  1231 0001:00002967  1232 0001:0000297D  1233 0001:00002982
  1234 0001:00002995  1235 0001:00002999  1236 0001:000029A9  1237 0001:000029BC
  1238 0001:000029C1  1239 0001:000029D4  1240 0001:000029E4  1241 0001:000029E9
  1242 0001:000029FC  1245 0001:00002A07  1247 0001:00002A0B  1250 0001:00002A13
  1251 0001:00002A55  1252 0001:00002A80  1247 0001:00002A81  1254 0001:00002A84
  1255 0001:00002A8F  1258 0001:00002AA9  1259 0001:00002AB0  1260 0001:00002AB6
  1262 0001:00002AC0  1263 0001:00002AC8  1265 0001:00002B0C  1272 0001:00002B24
  1275 0001:00002B2C  1276 0001:00002B39  1277 0001:00002B3F  1278 0001:00002B44
  1279 0001:00002B5E  1280 0001:00002B6A  1281 0001:00002B79  1283 0001:00002B86
  1293 0001:00002B8C  1297 0001:00002BA8  1298 0001:00002BB0  1299 0001:00002BC2
  1300 0001:00002BCE  1301 0001:00002BE4  1302 0001:00002BE9  1303 0001:00002BF4
  1304 0001:00002C19  1305 0001:00002C1E  1306 0001:00002C29  1309 0001:00002C51
  1316 0001:00002C5C  1320 0001:00002C7C  1322 0001:00002C98  1323 0001:00002CA5
  1326 0001:00002CAA  1330 0001:00002CC1  1331 0001:00002CCA  1334 0001:00002D04
  1335 0001:00002D21  1336 0001:00002D2A  1338 0001:00002D4E  1339 0001:00002D57
  1343 0001:00002D6B  1344 0001:00002D7F  1346 0001:00002DB9  1348 0001:00002DD6
  1362 0001:00002DEA  1363 0001:00002DF3  1366 0001:00002E30  1369 0001:00002E50
  1371 0001:00002E7A  1373 0001:00002E99  1377 0001:00002EC8  1383 0001:00002F08
  1387 0001:00002F21  1388 0001:00002F2A  1389 0001:00002F3A  1390 0001:00002F55
  1393 0001:00002F8A  1397 0001:00002FAC  1401 0001:00002FC7  1402 0001:00002FD9
  1403 0001:00002FF1  1404 0001:00002FFB  1405 0001:00003006  1406 0001:00003018
  1407 0001:00003030  1408 0001:0000303C  1410 0001:0000305A  1411 0001:00003076
  1414 0001:000030C7  1423 0001:000030CC  1424 0001:000030F6  1425 0001:000030FA
  1426 0001:00003109  1427 0001:00003117  1428 0001:00003122  1429 0001:00003131
  1430 0001:0000313F  1431 0001:00003150  1432 0001:0000315B  1434 0001:0000316D
  1436 0001:00003189  1437 0001:0000318D  1439 0001:00003199  1432 0001:0000319A
  1441 0001:000031AA  1444 0001:000031C7  1446 0001:00003204  1450 0001:0000320C
  1454 0001:00003229  1455 0001:00003233  1456 0001:00003237  1457 0001:0000324F
  1460 0001:00003277  1461 0001:00003283  1462 0001:0000328F  1464 0001:000032A7
  1467 0001:000032E3  1468 0001:000032F3  1469 0001:0000330C  1471 0001:0000330E
  1462 0001:0000330F  1475 0001:00003336  1493 0001:00003340  1497 0001:0000335D
  1498 0001:0000335F  1499 0001:00003373  1500 0001:00003380  1501 0001:0000338D
  1502 0001:0000339A  1503 0001:000033B3  1504 0001:000033CC  1506 0001:000033D6
  1507 0001:000033F5  1508 0001:000033FA  1510 0001:00003409  1511 0001:00003417
  1512 0001:0000341D  1513 0001:00003447  1515 0001:0000345C  1516 0001:00003468
  1520 0001:00003490  1522 0001:00003495  1523 0001:000034C6  1524 0001:000034CB
  1526 0001:000034DA  1527 0001:000034E8  1528 0001:000034EE  1529 0001:00003518
  1531 0001:0000352D  1532 0001:00003539  1536 0001:00003561  1538 0001:00003566
  1539 0001:00003597  1540 0001:0000359C  1541 0001:000035AB  1543 0001:000035C4
  1544 0001:000035D2  1545 0001:000035D8  1546 0001:00003602  1548 0001:00003617
  1549 0001:00003623  1553 0001:0000364B  1555 0001:00003650  1556 0001:00003681
  1557 0001:00003686  1558 0001:00003695  1560 0001:000036AF  1562 0001:000036B7
  1563 0001:000036D5  1564 0001:000036DB  1566 0001:000036E6  1567 0001:000036EE
  1568 0001:00003712  1569 0001:00003717  1591 0001:00003726  1592 0001:00003735
  1594 0001:00003749  1596 0001:00003751  1597 0001:0000376E  1598 0001:00003774
  1600 0001:0000377F  1602 0001:00003787  1603 0001:000037AB  1604 0001:000037B0
  1607 0001:000037E1  1610 0001:00003810  1611 0001:00003817  1612 0001:00003819
  1613 0001:0000381F  1614 0001:00003822  1615 0001:00003828  1616 0001:0000382B
  1617 0001:00003831  1618 0001:00003834  1619 0001:0000383A  1620 0001:0000383D
  1626 0001:00003840  1630 0001:0000385E  1631 0001:00003862  1632 0001:0000386E
  1633 0001:00003885  1634 0001:00003891  1636 0001:00003895  1637 0001:000038A5
  1640 0001:000038AC  1643 0001:000038E6  1644 0001:000038FB  1648 0001:00003926
  1651 0001:00003952  1657 0001:0000399B  1659 0001:000039C2  1661 0001:000039CB
  1666 0001:000039F7  1672 0001:00003A22  1674 0001:00003A49  1676 0001:00003A4E
  1681 0001:00003A84  1684 0001:00003AB9  1685 0001:00003ABE  1688 0001:00003AEE
  1695 0001:00003AF4  1696 0001:00003B24  1697 0001:00003B28  1698 0001:00003B38
  1699 0001:00003B3E  1702 0001:00003B46  1703 0001:00003B60  1705 0001:00003B69
  1706 0001:00003B6D  1707 0001:00003B71  1708 0001:00003B7E  1710 0001:00003B84
  1711 0001:00003B9C  1712 0001:00003BA4  1714 0001:00003BAC  1700 0001:00003BAD
  1716 0001:00003BDB  1735 0001:00003C08  1736 0001:00003C44  1737 0001:00003C49
  1738 0001:00003C68  1740 0001:00003C84  1741 0001:00003C89  1742 0001:00003C97
  1743 0001:00003CAB  1744 0001:00003CBD  1745 0001:00003CC1  1746 0001:00003CDF
  1747 0001:00003CE1  1748 0001:00003CEF  1749 0001:00003D0E  1750 0001:00003D13
  1751 0001:00003D46  1752 0001:00003D4C  1754 0001:00003D69  1756 0001:00003D76
  1757 0001:00003D7A  1758 0001:00003D85  1759 0001:00003D8F  1760 0001:00003D99
  1761 0001:00003DA1  1762 0001:00003DA9  1764 0001:00003DB3  1765 0001:00003DC3
  1766 0001:00003DD7  1768 0001:00003DEC  1770 0001:00003DF2  1771 0001:00003E1A
  1773 0001:00003E26  1775 0001:00003E30  1776 0001:00003E35  1777 0001:00003E40
  1778 0001:00003E54  1780 0001:00003E6C  1781 0001:00003E79  1782 0001:00003E8D
  1783 0001:00003E9D  1784 0001:00003EB9  1786 0001:00003EC3  1789 0001:00003F0E
  1790 0001:00003F14  1791 0001:00003F1A  1794 0001:00003F2A  1796 0001:00003F34
  1797 0001:00003F46  1803 0001:00003F52  1804 0001:00003F58  1807 0001:00003F5E
  1809 0001:00003F72  1810 0001:00003F78  1811 0001:00003F8E  1813 0001:00003F94
  1814 0001:00003F9A  1817 0001:00003FAE  1821 0001:00003FBF  1823 0001:00003FEE
  1824 0001:00003FF4  1825 0001:0000400D  1826 0001:00004013  1828 0001:0000402A
  1833 0001:00004040  1834 0001:00004051  1836 0001:0000405D  1840 0001:00004069
  1841 0001:0000406D  1843 0001:0000407E  1845 0001:00004091  1846 0001:0000409C
  1847 0001:000040AF  1850 0001:000040BF  1855 0001:000040D4  1856 0001:000040F3
  1861 0001:000040FB  1862 0001:00004106  1863 0001:0000411D  1865 0001:00004124
  1868 0001:0000416B  1869 0001:00004170  1871 0001:0000418B  1873 0001:000041A1
  1738 0001:000041A4  1874 0001:000041F3  2014 0001:000041FC  2015 0001:00004224
  2016 0001:00004229  2018 0001:00004245  2019 0001:0000424A  2020 0001:00004267
  2021 0001:00004275  2022 0001:00004289  2023 0001:0000429B  2024 0001:000042A2
  2025 0001:000042C0  2026 0001:000042C6  2027 0001:000042C8  2028 0001:000042CD
  2029 0001:000042DB  2030 0001:000042FE  2031 0001:00004303  2032 0001:00004336
  2033 0001:00004349  2034 0001:0000434E  2036 0001:00004355  2037 0001:00004360
  2039 0001:00004376  2042 0001:000043C5  2050 0001:000043CB  2051 0001:000043D2
  2053 0001:000043E9  2058 0001:000043FE  2059 0001:00004400  2062 0001:00004407
  2064 0001:0000440C  2066 0001:00004420  2068 0001:00004437  2071 0001:0000443E
  2072 0001:00004442  2074 0001:00004446  2075 0001:00004451  2076 0001:0000445C
  2077 0001:00004460  2081 0001:0000446D  2083 0001:000044A5  2084 0001:000044AA
  2086 0001:000044C5  2088 0001:000044DB  2016 0001:000044DE  2089 0001:0000450C
  2094 0001:00004514  2098 0001:00004519  2100 0001:00004528  2102 0001:0000453B
  2103 0001:00004546  2105 0001:00004567  2106 0001:00004572  2108 0001:00004589
  2110 0001:00004592  2111 0001:000045A7  2112 0001:000045B4  2113 0001:000045BD
  2114 0001:000045C2  2115 0001:000045D0  2116 0001:000045E1  2119 0001:000045F0
  2120 0001:0000460C  2121 0001:00004626  2125 0001:00004635  2126 0001:0000463F
  2127 0001:00004646  2130 0001:00004650  2136 0001:00004654  2137 0001:00004672
  2139 0001:0000467A  2140 0001:00004684  2142 0001:0000469B  2143 0001:000046A0
  2145 0001:000046B5  2147 0001:000046C7  2148 0001:000046D4  2149 0001:000046D8
  2151 0001:000046E8  2153 0001:0000471C  2159 0001:00004724  2160 0001:0000472B
  2161 0001:00004730  2163 0001:00004739  2164 0001:00004744  2165 0001:0000475B
  2166 0001:00004760  2167 0001:0000476B  2168 0001:00004772  2170 0001:00004777
  2171 0001:00004784  2180 0001:0000478C  2184 0001:000047AF  2185 0001:000047B8
  2188 0001:000047CF  2190 0001:000047D8  2191 0001:000047DA  2193 0001:000047DF
  2194 0001:000047E6  2195 0001:000047FD  2197 0001:00004806  2199 0001:0000486F
  2202 0001:0000488B  2205 0001:000048A7  2207 0001:000048C3  2209 0001:000048DF
  2212 0001:000048FB  2213 0001:00004912  2214 0001:0000491D  2216 0001:00004938
  2218 0001:0000493E  2219 0001:00004949  2222 0001:00004955  2223 0001:00004960
  2225 0001:0000496A  2229 0001:0000497D  2231 0001:00004999  2233 0001:000049B2
  2235 0001:000049CB  2237 0001:000049E4  2240 0001:000049FD  2241 0001:00004A06
  2242 0001:00004A10  2244 0001:00004A19  2248 0001:00004A31  2249 0001:00004A36
  2250 0001:00004A41  2253 0001:00004A6A  2261 0001:00004A74  2264 0001:00004A85
  2265 0001:00004A88  2266 0001:00004A9B  2267 0001:00004AB2  2280 0001:00004AC5
  2281 0001:00004AD8  2282 0001:00004AEB  2283 0001:00004AFE  2284 0001:00004B04
  2286 0001:00004B0B  2298 0001:00004B14  2302 0001:00004B43  2305 0001:00004B58
  2306 0001:00004B6D  2307 0001:00004B78  2310 0001:00004B7C  2311 0001:00004B7D
  2308 0001:00004BA4  2313 0001:00004BB6  2316 0001:00004BC0  2317 0001:00004BCF
  2319 0001:00004BDF  2322 0001:00004BE5  2324 0001:00004BEB  2325 0001:00004BEF
  2326 0001:00004BF5  2330 0001:00004BFB  2332 0001:00004C01  2334 0001:00004C07
  2336 0001:00004C15  2337 0001:00004C1B  2340 0001:00004C21  2352 0001:00004C28
  2353 0001:00004C2C  2355 0001:00004C3C  2356 0001:00004C4B  2357 0001:00004C51
  2359 0001:00004C55  2361 0001:00004C6F  2362 0001:00004C73  2363 0001:00004C79
  2365 0001:00004C8F  2366 0001:00004C95  2368 0001:00004C9B  2369 0001:00004CA2
  2372 0001:00004CA8  2373 0001:00004CAA  2374 0001:00004CAC  2375 0001:00004CB9
  2376 0001:00004CCB  2377 0001:00004CCF  2380 0001:00004D28  2381 0001:00004D31
  2382 0001:00004D3A  2387 0001:00004D3F  2391 0001:00004D46  2392 0001:00004D4E
  2397 0001:00004D53  2399 0001:00004D5F  2401 0001:00004D66  2402 0001:00004D6A
  2405 0001:00004D70  2408 0001:00004D7D  2409 0001:00004D88  2413 0001:00004D8E
  2414 0001:00004D92  2418 0001:00004D98  2419 0001:00004D9C  2420 0001:00004DAC
  2423 0001:00004DBC  2426 0001:00004DC9  2427 0001:00004DD1  2428 0001:00004DD6
  2429 0001:00004DE0  2430 0001:00004DEA  2431 0001:00004DF3  2432 0001:00004DFC
  2433 0001:00004E02  2434 0001:00004E0F  2435 0001:00004E15  2436 0001:00004E25
  2437 0001:00004E2C  2438 0001:00004E3C  2439 0001:00004E47  2442 0001:00004E57
  2443 0001:00004E5E  2444 0001:00004E6E  2446 0001:00004E7F  2447 0001:00004E96
  2448 0001:00004EB6  2444 0001:00004EB7  2452 0001:00004EBC  2454 0001:00004EC9
  2455 0001:00004EE0  2457 0001:00004EFD  2458 0001:00004F1D  2452 0001:00004F1E
  2464 0001:00004F51  2472 0001:00004F80  2473 0001:00004F90  2476 0001:00004F9A
  2477 0001:00004F9F  2481 0001:00004FA7  2482 0001:00004FAD  2485 0001:00004FB6
  2486 0001:00004FC4  2488 0001:00004FE5  2489 0001:00004FEA  2492 0001:00004FF4
  2493 0001:00005003  2498 0001:0000500C  2499 0001:00005018  2500 0001:00005026
  2501 0001:00005031  2502 0001:00005038  2504 0001:0000503F  2506 0001:0000504A
  2513 0001:00005054  2514 0001:0000507C  2515 0001:000050A7  2516 0001:000050AF
  2517 0001:000050BD  2519 0001:000050D5  2521 0001:00005102  2526 0001:00005108
  2527 0001:00005115  2528 0001:00005126  2529 0001:0000512E  2530 0001:0000513C
  2531 0001:00005146  2532 0001:00005158  2534 0001:00005183  2536 0001:00005193
  2540 0001:00005198  2541 0001:000051BF  2543 0001:00005220  2544 0001:00005226
  2545 0001:00005245  2547 0001:00005256  2550 0001:00005265  2551 0001:0000526B
  2552 0001:0000528E  2553 0001:0000529F  2556 0001:000052E0  2558 0001:000052F4
  2559 0001:000052FA  2560 0001:0000530A  2562 0001:0000531F  2563 0001:00005325
  2564 0001:00005339  2567 0001:0000534A  2570 0001:00005350  2571 0001:0000535E
  2574 0001:0000536F  2578 0001:000053A2  2593 0001:000053AC  2594 0001:000053B5
  2595 0001:000053C6  2596 0001:000053D4  2597 0001:000053E0  2598 0001:000053F1
  2599 0001:00005402  2600 0001:0000540E  2601 0001:00005420  2603 0001:00005439
  2604 0001:0000544F  2605 0001:00005457  2606 0001:00005461  2607 0001:0000546F
  2608 0001:0000547C  2609 0001:00005490  2610 0001:000054A8  2611 0001:000054B5
  2612 0001:000054BE  2613 0001:000054D2  2615 0001:000054F0  2618 0001:0000550D
  2619 0001:00005515  2621 0001:00005525  2623 0001:0000552C  2624 0001:00005530
  2625 0001:00005557  2626 0001:00005560  2627 0001:0000556C  2628 0001:00005576
  2630 0001:0000557C  2631 0001:000055B5  2632 0001:000055BB  2635 0001:000055D2
  2636 0001:000055DD  2638 0001:000055E3  2639 0001:000055F2  2640 0001:000055FD
  2641 0001:0000560F  2645 0001:0000561A  2649 0001:0000561C  2650 0001:00005624
  2654 0001:0000563D  2656 0001:00005646  2657 0001:00005658  2658 0001:00005663
  2659 0001:00005676  2660 0001:0000567F  2661 0001:00005691  2662 0001:00005695
  2666 0001:000056AB  2667 0001:000056C1  2668 0001:000056C5  2673 0001:00005709
  2676 0001:00005714  2677 0001:00005732  2678 0001:00005734  2679 0001:000057B2
  2680 0001:000057E5  2684 0001:00005800  2686 0001:0000581D  2687 0001:00005827
  2688 0001:00005831  2691 0001:0000583B  2695 0001:00005845  2696 0001:0000584C
  2697 0001:00005853  2699 0001:0000585A  2700 0001:00005868  2701 0001:0000587A
  2702 0001:0000587E  2704 0001:00005895  2706 0001:00005899  2708 0001:000058F3
  2717 0001:000058FC  2718 0001:0000590F  2720 0001:00005920  2722 0001:0000592C
  2724 0001:0000594E  2725 0001:00005976  2727 0001:0000597C  2728 0001:000059AD
  2729 0001:00005A3C  2731 0001:00005A73  2734 0001:00005AAB  2735 0001:00005AC9
  2737 0001:00005AD6  2739 0001:00005AE2  2740 0001:00005AF5  2742 0001:00005B08
  2743 0001:00005B1A  2744 0001:00005B3E  2745 0001:00005B62  2746 0001:00005B8C
  2747 0001:00005BB2  2749 0001:00005BD3  2750 0001:00005BE6  2751 0001:00005C02
  2754 0001:00005C18  2756 0001:00005C2B  2757 0001:00005C38  2758 0001:00005C46
  2760 0001:00005C70  2765 0001:00005C83  2769 0001:00005CB5  2771 0001:00005D1E
  2774 0001:00005D28  2777 0001:00005D2B  2778 0001:00005D39  2780 0001:00005D48
  2782 0001:00005D4A  2809 0001:00005EA0  2810 0001:00005EA9  2811 0001:00005EB9
  2812 0001:00005ECA  2813 0001:00005ED5  2820 0001:00005EDC  2821 0001:00005EE7
  2822 0001:00005EF6  2823 0001:00005F04  2824 0001:00005F1B  2825 0001:00005F29
  2826 0001:00005F31  2827 0001:00005F3B  2826 0001:00005F4A  2828 0001:00005F4D
  2829 0001:00005F55  2830 0001:00005F5D  2832 0001:00005F72  2833 0001:00005F77
  2834 0001:00005F89  2835 0001:00005FA9  2839 0001:00005FF0  2842 0001:0000600D
  2844 0001:0000601D  2849 0001:00006030  2850 0001:00006052  2851 0001:0000605E
  2852 0001:00006090  2853 0001:0000609F  2854 0001:000060B5  2855 0001:000060B8
  2856 0001:000060BC  2857 0001:000060FA  2862 0001:00006104  2863 0001:00006126
  2864 0001:00006131  2865 0001:00006142  2866 0001:00006150  2864 0001:00006160
  2867 0001:00006189  2870 0001:00006190  2871 0001:000061B2  2873 0001:000061D4
  2876 0001:000061ED  2878 0001:00006211  2882 0001:0000623E  2885 0001:00006266
  2887 0001:0000628C  2891 0001:000062B7  2894 0001:000062D7  2896 0001:000062FD
  2900 0001:00006328  2903 0001:00006340  2905 0001:00006385  2909 0001:0000641C
  2914 0001:00006450  2915 0001:00006475  2917 0001:00006481  2919 0001:00006499
  2920 0001:000064AA  2923 0001:000064BF  2924 0001:000064C4  2925 0001:000064C9
  2926 0001:000064DC  2927 0001:000064EF  2928 0001:00006504  2929 0001:00006512
  2931 0001:00006571  2934 0001:0000657C  2935 0001:00006585  2936 0001:00006593
  2937 0001:00006598  2938 0001:0000659B  2942 0001:000065A3  2943 0001:000065AD
  2944 0001:000065B6  2945 0001:000065B9  2946 0001:000065BE  2947 0001:000065C5
  2951 0001:000065D2  2952 0001:000065DC  2953 0001:000065E5  2954 0001:000065E8
  2955 0001:000065ED  2956 0001:000065F4  2959 0001:00006601  2962 0001:00006620
  2965 0001:00006636  2968 0001:00006655  2970 0001:00006661  2971 0001:0000666D
  2973 0001:0000667D  2975 0001:00006683  2976 0001:00006695  2977 0001:0000669E
  2978 0001:000066BD  2979 0001:000066CD  2980 0001:000066F4  2981 0001:00006700
  2982 0001:00006726  2983 0001:0000672C  2984 0001:0000674E  2986 0001:00006762
  2987 0001:00006770  2989 0001:0000679E  2991 0001:000067AF  2992 0001:000067BD
  2994 0001:000067E9  2995 0001:000067F3  2996 0001:00006879  2997 0001:0000688B
  2998 0001:0000689D  2999 0001:000068AF  3000 0001:000068C1  3001 0001:000068D3
  3002 0001:000068E5  3003 0001:000068F7  3004 0001:00006909  3006 0001:0000691B
  3008 0001:00006939  3009 0001:0000694B  3011 0001:0000695A  3012 0001:00006963
  3013 0001:00006972  3016 0001:0000697C  3017 0001:00006985  3018 0001:00006994
  3020 0001:0000699E  3021 0001:000069AD  3022 0001:000069BC  3024 0001:000069CB
  3026 0001:000069D3  3027 0001:000069D9  3028 0001:000069F9  3029 0001:00006A0D
  3030 0001:00006A36  3031 0001:00006A3F  3032 0001:00006A49  3034 0001:00006A5B
  3035 0001:00006A6C  3034 0001:00006A7E  3037 0001:00006A83  3042 0001:00006AD5
  3049 0001:00006C6C  3050 0001:00006C93  3051 0001:00006CA2  3052 0001:00006CAD
  3053 0001:00006CB4  3056 0001:00006CB8  3057 0001:00006CC4  3059 0001:00006CC9
  3061 0001:00006CDA  3063 0001:00006CE0  3065 0001:00006CEC  3066 0001:00006CEF
  3070 0001:00006CF2  3072 0001:00006CF7  3073 0001:00006D0C  3075 0001:00006D11
  3077 0001:00006D17  3078 0001:00006D1A  3082 0001:00006D1B  3083 0001:00006D1C
  3054 0001:00006D1F  3085 0001:00006D47  3095 0001:00006D70  3096 0001:00006DA7
  3097 0001:00006DB1  3098 0001:00006DBD  3099 0001:00006DC1  3100 0001:00006DCC
  3101 0001:00006DDD  3103 0001:00006DE5  3104 0001:00006E00  3105 0001:00006E11
  3106 0001:00006E15  3108 0001:00006E32  3109 0001:00006E46  3110 0001:00006E6B
  3101 0001:00006E7C  3112 0001:00006E84  3113 0001:00006EB9  3119 0001:00006ED4
  3120 0001:00006EEE  3124 0001:00006EFA  3126 0001:00006F0B  3127 0001:00006F11
  3128 0001:00006F3C  3130 0001:00006F45  3133 0001:00006F64  3137 0001:00006F6C
  3141 0001:00006F92  3142 0001:00006F9F  3143 0001:00006FA4  3144 0001:00006FB0
  3145 0001:00006FC7  3146 0001:00006FD1  3147 0001:00006FDD  3148 0001:00006FE9
  3149 0001:00006FF5  3150 0001:00006FFF  3151 0001:0000700B  3152 0001:00007013
  3153 0001:0000701C  3154 0001:00007034  3155 0001:00007037  3157 0001:0000703F
  3158 0001:00007051  3160 0001:00007069  3163 0001:0000708C  3164 0001:000070AE
  3165 0001:000070BC  3167 0001:000070FC  3170 0001:00007106  3172 0001:00007118
  3173 0001:00007122  3174 0001:00007131  3175 0001:00007146  3177 0001:00007152
  3178 0001:00007164  3180 0001:000071A1  3185 0001:000071D9  3219 0001:000071F4
  3223 0001:00007207  3227 0001:00007218  3232 0001:0000721B  3234 0001:00007226
  3237 0001:00007228  3238 0001:0000722B  3239 0001:00007243  3247 0001:00007248
  3248 0001:0000724B  3249 0001:0000725F  3250 0001:00007279  3251 0001:0000729A
  3252 0001:000072B0  3254 0001:000072B4  3255 0001:000072C0  3256 0001:000072CC
  3257 0001:000072D8  3258 0001:000072E6  3259 0001:000072F0  3260 0001:000072F7
  3262 0001:0000730E  3264 0001:00007322  3269 0001:00007328  3270 0001:0000732B
  3271 0001:0000733B  3272 0001:0000734E  3273 0001:00007355  3274 0001:0000735D
  3275 0001:0000735E  3277 0001:0000737A  3278 0001:0000737C  3273 0001:0000737E
  3282 0001:00007388  3285 0001:0000738C  3286 0001:000073C8  3287 0001:000073D2
  3288 0001:000073DC  3289 0001:000073EA  3290 0001:000073EF  3291 0001:000073F1
  3293 0001:000073F5  3296 0001:000073FC  3297 0001:0000740D  3302 0001:00007414
  3307 0001:00007491  3310 0001:00007498  3311 0001:0000749C  3312 0001:000074AD
  3313 0001:000074B4  3315 0001:000074BF  3316 0001:000074C2  3308 0001:000074CE
  3319 0001:000074E3  3320 0001:000074E8  3322 0001:000074EE  3323 0001:00007507
  3325 0001:0000750D  3326 0001:00007519  3327 0001:0000751F  3328 0001:00007532
  3329 0001:00007539  3330 0001:0000753F  3331 0001:00007542  3332 0001:00007556
  3335 0001:0000755D  3338 0001:0000756F  3339 0001:00007584  3341 0001:00007588
  3345 0001:0000759E  3346 0001:000075A9  3347 0001:000075AC  3348 0001:000075AE
  3349 0001:000075E2  3363 0001:000075EC  3364 0001:00007614  3365 0001:0000761F
  3366 0001:00007637  3367 0001:00007647  3369 0001:0000764B  3370 0001:00007661
  3372 0001:00007693  3378 0001:000076A8  3379 0001:000076BF  3380 0001:000076CA
  3381 0001:000076D1  3382 0001:000076E8  3383 0001:000076EF  3384 0001:000076F8
  3385 0001:000076FF  3386 0001:00007718  3387 0001:0000771F  3388 0001:0000773F
  3389 0001:00007746  3390 0001:00007766  3391 0001:0000776D  3392 0001:0000777D
  3393 0001:00007784  3394 0001:00007794  3395 0001:0000779B  3396 0001:000077AB
  3397 0001:000077B2  3398 0001:000077C2  3399 0001:000077C9  3401 0001:000077D9
  3402 0001:000077EE  3404 0001:000077F5  3405 0001:000077FD  3406 0001:00007807
  3407 0001:00007831  3409 0001:00007838  3410 0001:00007840  3411 0001:0000784A
  3415 0001:00007851  3416 0001:00007861  3417 0001:00007868  3418 0001:00007878
  3419 0001:0000787F  3420 0001:000078A4  3421 0001:000078AB  3422 0001:000078BB
  3423 0001:000078C2  3424 0001:000078D2  3425 0001:000078D9  3426 0001:000078E9
  3427 0001:000078ED  3428 0001:00007912  3429 0001:00007916  3430 0001:0000793B
  3431 0001:0000793F  3432 0001:0000794F  3433 0001:00007953  3434 0001:0000795C
  3435 0001:00007960  3436 0001:00007981  3442 0001:00007AE4  3443 0001:00007AE7
  3444 0001:00007AF0  3445 0001:00007AFE  3450 0001:00007B00  3451 0001:00007B36
  3452 0001:00007B3B  3455 0001:00007B3F  3458 0001:00007BD2  3459 0001:00007BD9
  3460 0001:00007BDD  3461 0001:00007BE2  3462 0001:00007C0F  3464 0001:00007C16
  3465 0001:00007C1B  3468 0001:00007C22  3469 0001:00007C24  3470 0001:00007C34
  3471 0001:00007C41  3472 0001:00007C59  3473 0001:00007C5F  3474 0001:00007C66
  3475 0001:00007C6D  3476 0001:00007C74  3477 0001:00007C76  3482 0001:00007C7B
  3483 0001:00007C82  3484 0001:00007C84  3486 0001:00007C98  3488 0001:00007C9C
  3490 0001:00007CD3  3491 0001:00007CE5  3492 0001:00007CF5  3493 0001:00007CF7
  3499 0001:00007CFC  3500 0001:00007D03  3501 0001:00007D05  3503 0001:00007D24
  3504 0001:00007D36  3505 0001:00007D46  3506 0001:00007D48  3512 0001:00007D4D
  3514 0001:00007D53  3515 0001:00007D63  3516 0001:00007D6F  3518 0001:00007D74
  3522 0001:00007D93  3524 0001:00007D99  3525 0001:00007DA9  3526 0001:00007DAB
  3529 0001:00007DB0  3530 0001:00007DB4  3535 0001:00007DBB  3537 0001:00007DC1
  3538 0001:00007DC8  3539 0001:00007DD4  3540 0001:00007DE4  3541 0001:00007DE6
  3543 0001:00007DE8  3547 0001:00007DEF  3549 0001:00007DF5  3550 0001:00007DFC
  3551 0001:00007E0C  3552 0001:00007E1C  3553 0001:00007E1E  3555 0001:00007E20
  3559 0001:00007E27  3561 0001:00007E2D  3562 0001:00007E3D  3563 0001:00007E49
  3566 0001:00007E4B  3567 0001:00007E4D  3568 0001:00007E55  3572 0001:00007E57
  3573 0001:00007E5E  3453 0001:00007E60  3576 0001:00007E84  3598 0001:00007EB0
  3599 0001:00007ED8  3600 0001:00007EE0  3601 0001:00007EEA  3602 0001:00007EEE
  3604 0001:00007EF1  3605 0001:00007F08  3606 0001:00007F13  3607 0001:00007F1D
  3610 0001:00007F26  3612 0001:00007F3D  3614 0001:00007F42  3615 0001:00007F5D
  3619 0001:00007F62  3620 0001:00007F6A  3622 0001:00007F72  3624 0001:00007F80
  3627 0001:00007F8D  3628 0001:00007FA4  3625 0001:00007FBC  3630 0001:00007FC9
  3632 0001:00007FDA  3633 0001:00007FDE  3636 0001:00007FE3  3637 0001:00007FED
  3638 0001:00007FF0  3639 0001:00008008  3645 0001:00008010  3644 0001:00008011
  3646 0001:0000801B  3648 0001:00008021  3649 0001:00008025  3652 0001:0000802A
  3654 0001:0000802E  3655 0001:00008032  3661 0001:00008037  3664 0001:00008059
  3665 0001:0000805D  3668 0001:00008062  3671 0001:00008070  3672 0001:00008087
  3674 0001:0000808C  3675 0001:00008090  3681 0001:00008092  3683 0001:00008098
  3684 0001:000080A5  3689 0001:000080DB  3691 0001:000080DF  3693 0001:000080E1
  3696 0001:000080F5  3698 0001:0000812B  3703 0001:00008164  3704 0001:0000817A
  3705 0001:00008182  3706 0001:000081AF  3709 0001:000081B4  3710 0001:000081BA
  3711 0001:000081C1  3712 0001:000081D0  3713 0001:000081D7  3743 0001:000081DC
  3747 0001:000081F5  3749 0001:000081FC  3756 0001:00008200  3757 0001:0000820F
  3758 0001:00008213  3759 0001:00008217  3760 0001:00008225  3762 0001:0000822F
  3764 0001:0000823A  3770 0001:0000824F  3771 0001:0000825D  3772 0001:00008261
  3773 0001:0000826E  3775 0001:00008271  3776 0001:00008274  3779 0001:0000827D
  3782 0001:0000828E  3783 0001:000082A1  3790 0001:000082BD  3797 0001:000082C4
  3798 0001:000082D2  3799 0001:000082D6  3801 0001:000082E9  3802 0001:000082F4
  3804 0001:00008302  3810 0001:00008317  3811 0001:00008325  3813 0001:00008332
  3816 0001:0000834D  3817 0001:00008360  3824 0001:00008379  3826 0001:0000838C
  3827 0001:00008394  3902 0001:0000839C  3912 0001:000083A8  3916 0001:000083BC
  3929 0001:000083D2  3932 0001:000083F7  3935 0001:0000841C  3940 0001:00008441
  3948 0001:00008466  3953 0001:0000847A  3957 0001:0000848E  3961 0001:000084A2
  3966 0001:000084B6  3974 0001:000084DE  3978 0001:0000850A  3979 0001:0000851B
  3980 0001:00008529  3982 0001:00008547  3984 0001:00008557  3985 0001:00008568
  3986 0001:00008576  3988 0001:00008594  3990 0001:000085A4  3993 0001:000085CC
  3996 0001:000085F8  3997 0001:00008609  3998 0001:00008617  4000 0001:00008635
  4002 0001:00008645  4003 0001:00008656  4004 0001:00008664  4006 0001:00008682
  4009 0001:00008692  4012 0001:000086BA  4015 0001:000086E6  4018 0001:00008712
  4021 0001:0000873E  4026 0001:0000876A  4035 0001:00008770  4043 0001:00008776
  4047 0001:00008785  4057 0001:00008794  4058 0001:000087A3  4059 0001:000087B2
  4062 0001:000087C1  4066 0001:000087D0  4069 0001:000087DF  4072 0001:000087EE
  4075 0001:000087FD  4079 0001:0000880C  4083 0001:0000881B  4085 0001:0000882A
  4086 0001:0000883B  4087 0001:00008849  4089 0001:00008867  4091 0001:00008877
  4092 0001:00008884  4093 0001:00008893  4094 0001:000088A4  4095 0001:000088B2
  4097 0001:000088D0  4100 0001:000088E0  4101 0001:000088ED  4102 0001:000088FC
  4103 0001:0000890B  4104 0001:0000891A  4107 0001:00008929  4108 0001:00008930
  4109 0001:00008937  4317 0001:0000893C  4318 0001:0000896B  4319 0001:0000896C
  4320 0001:0000897C  4321 0001:00008982  4324 0001:0000898A  4325 0001:000089A4
  4327 0001:000089AD  4328 0001:000089B1  4329 0001:000089B5  4331 0001:000089BB
  4332 0001:000089C3  4334 0001:000089CA  4322 0001:000089CB  4336 0001:000089F9
  4363 0001:00008A04  4364 0001:00008A33  4366 0001:00008A3A  4369 0001:00008A4D
  4370 0001:00008A50  4371 0001:00008A61  4373 0001:00008A6B  4374 0001:00008A79
  4375 0001:00008A82  4376 0001:00008A86  4378 0001:00008A8B  4379 0001:00008A8D
  4380 0001:00008A92  4382 0001:00008AC5  4385 0001:00008ADD  4386 0001:00008AED
  4387 0001:00008AF9  4388 0001:00008B03  4389 0001:00008B09  4390 0001:00008B2C
  4391 0001:00008B33  4392 0001:00008B39  4393 0001:00008B3F  4394 0001:00008B4F
  4395 0001:00008B72  4396 0001:00008B81  4397 0001:00008B96  4399 0001:00008BA5
  4400 0001:00008BAD  4401 0001:00008BB8  4402 0001:00008BC2  4403 0001:00008BCC
  4404 0001:00008BD4  4405 0001:00008BDC  4407 0001:00008BE2  4408 0001:00008BE4
  4409 0001:00008BFC  4411 0001:00008C06  4413 0001:00008C10  4414 0001:00008C1B
  4415 0001:00008C31  4417 0001:00008C4B  4418 0001:00008C58  4419 0001:00008C64
  4420 0001:00008C6C  4421 0001:00008C82  4423 0001:00008C8C  4426 0001:00008CD4
  4427 0001:00008CDA  4429 0001:00008CF9  4430 0001:00008D00  4431 0001:00008D11
  4432 0001:00008D18  4434 0001:00008D27  4439 0001:00008D35  4440 0001:00008D3E
  4442 0001:00008D4A  4446 0001:00008D56  4447 0001:00008D5C  4449 0001:00008D65
  4450 0001:00008D70  4451 0001:00008D7B  4452 0001:00008D86  4455 0001:00008D96
  4460 0001:00008DAD  4461 0001:00008DC7  4466 0001:00008DCF  4467 0001:00008DDC
  4470 0001:00008DE1  4473 0001:00008E26  4474 0001:00008E30  4382 0001:00008E31
  4476 0001:00008E3A  4479 0001:00008E56  4488 0001:00008E8E  4496 0001:00008E98
  4497 0001:00008EBB  4503 0001:00008EEA  4493 0001:00008EEC  4494 0001:00008EF5
  4495 0001:00008EFA

Line numbers for DbxOpenOdbcApiHook(DbxOpenOdbcApiHook.pas) segment .text

   328 0001:00008F84   329 0001:00008F90   330 0001:00008F9E   331 0001:00008FA4
   333 0001:00008FAE   334 0001:00008FB2   335 0001:00008FB6   336 0001:00008FBD
   338 0001:00008FC2   339 0001:00008FCC   340 0001:00008FD3   341 0001:00008FDA
   342 0001:00008FE3   343 0001:00008FEA   344 0001:00008FF0   345 0001:00008FFE
   346 0001:0000900B   347 0001:0000900F   348 0001:00009015   350 0001:0000901C
   351 0001:00009026   352 0001:00009035   353 0001:0000903B   356 0001:00009044
   358 0001:00009053   360 0001:0000905D   361 0001:00009065   362 0001:00009072
   364 0001:00009079   365 0001:00009088   366 0001:00009091   367 0001:00009097
   369 0001:000090A0   371 0001:000090A9   374 0001:000090AE   376 0001:000090BD
   377 0001:000090CC   378 0001:000090DB   379 0001:000090E7   380 0001:000090EE
   383 0001:000090F7   385 0001:00009106   386 0001:00009171   387 0001:00009178
   388 0001:00009181   389 0001:0000918A   390 0001:00009193   391 0001:0000919C
   392 0001:000091A5   393 0001:000091AE   394 0001:000091B7   395 0001:000091C0
   397 0001:000091C7   398 0001:000091D0   400 0001:000091F1   404 0001:00009211
   405 0001:00009230   406 0001:00009239   407 0001:00009244   410 0001:0000924F
   411 0001:0000926E   412 0001:0000927C   415 0001:00009287   416 0001:0000928D
   418 0001:00009298   424 0001:000092A1   426 0001:000092B9   428 0001:000092C6
   433 0001:000092D0   434 0001:000092D9   436 0001:000092DE   437 0001:000092E9
   438 0001:000092EF   440 0001:000092FD   441 0001:00009306   442 0001:0000930F
   448 0001:00009314   449 0001:00009320   450 0001:00009325   451 0001:0000932B
   453 0001:00009331   454 0001:0000933C   455 0001:00009345   451 0001:0000934B
   458 0001:00009351   462 0001:0000935F   463 0001:00009368   464 0001:0000937D
   465 0001:00009386   475 0001:0000938C   476 0001:0000939E   477 0001:000093A2
   478 0001:000093A7   479 0001:000093B5   480 0001:000093BB   481 0001:000093C7
   484 0001:000093D4   485 0001:000093EC   486 0001:000093F1   487 0001:00009409
   497 0001:0000940E   500 0001:00009416   501 0001:0000942C   502 0001:00009432
   508 0001:0000943B   510 0001:00009451   511 0001:00009465   518 0001:00009479
   520 0001:00009493   521 0001:00009499   522 0001:000094A1   524 0001:000094AD
   525 0001:000094B4   531 0001:000094BC   532 0001:000094CB   533 0001:000094CF
   534 0001:000094DB   535 0001:000094E1   536 0001:000094ED   538 0001:000094F3
   539 0001:00009503   541 0001:00009509   542 0001:0000951D   551 0001:00009524
   552 0001:00009530   553 0001:00009534   554 0001:0000953E   555 0001:0000954C
   556 0001:00009557   558 0001:00009561   559 0001:00009567   560 0001:0000956D
   561 0001:00009576   562 0001:0000957F   565 0001:00009586   573 0001:00009599
   579 0001:000095A7   581 0001:000095BC   588 0001:000095CF   590 0001:000095E9
   592 0001:000095F5   608 0001:000095FC   609 0001:00009605   611 0001:0000960B
   614 0001:00009629   618 0001:00009639   625 0001:00009640   626 0001:0000964F
   627 0001:00009653   628 0001:00009659   629 0001:00009668   631 0001:00009672
   633 0001:0000967E   634 0001:00009689   637 0001:00009695   643 0001:000096AA
   644 0001:000096B8   645 0001:000096BE   646 0001:000096CE   649 0001:000096D4
   650 0001:000096DA   655 0001:000096E9   658 0001:000096FA   659 0001:0000970D
   666 0001:00009729   673 0001:00009730   674 0001:0000973F   675 0001:00009743
   677 0001:00009763   678 0001:0000976E   680 0001:0000977C   686 0001:00009791
   687 0001:0000979F   689 0001:000097AF   692 0001:000097CB   693 0001:000097DE
   700 0001:000097F7   702 0001:0000980A   703 0001:00009812   706 0001:0000981C
   707 0001:00009828   708 0001:00009834   710 0001:0000983A   713 0001:00009840
   718 0001:00009865   730 0001:0000986C   732 0001:00009878   735 0001:00009883
   737 0001:0000989F   739 0001:000098A5   741 0001:000098AC   745 0001:000098B0
   747 0001:000098BF   750 0001:000098C3   753 0001:000098C9   755 0001:000098CF
   758 0001:000098D5   761 0001:000098DF   763 0001:000098E3   766 0001:000098E5
   755 0001:000098EE   769 0001:000098F7   772 0001:000098FC   774 0001:00009938
   776 0001:00009950   779 0001:000099A1   780 0001:000099D7   784 0001:000099DC
   786 0001:000099EB   789 0001:000099F1   792 0001:00009A08   794 0001:00009A12
   796 0001:00009A27   798 0001:00009A36   802 0001:00009A3C   806 0001:00009A42
   807 0001:00009A49   811 0001:00009A50   813 0001:00009A5F   816 0001:00009A65
   818 0001:00009A71   821 0001:00009A77   823 0001:00009A85   818 0001:00009A8E
   826 0001:00009A94   830 0001:00009A9A   831 0001:00009AA1   843 0001:00009AA8
   846 0001:00009ADB   849 0001:00009AFE   851 0001:00009B04   853 0001:00009B10
   855 0001:00009B1C   858 0001:00009B27   860 0001:00009B32   866 0001:00009B46
   868 0001:00009B52   871 0001:00009B73   873 0001:00009B7F   875 0001:00009B87
   878 0001:00009B97   883 0001:00009BA1   886 0001:00009BA7   889 0001:00009BC7
   892 0001:00009BD7   894 0001:00009BDC   898 0001:00009BE2   900 0001:00009BF0
   903 0001:00009BF6   906 0001:00009C0A   909 0001:00009C1E   911 0001:00009C2B
   913 0001:00009C33   915 0001:00009C3E   920 0001:00009C46   880 0001:00009C4A
   925 0001:00009C5E   927 0001:00009C7C   863 0001:00009C80   931 0001:00009CCE
   934 0001:00009CD8   937 0001:00009D05   940 0001:00009D21   942 0001:00009D66
   947 0001:00009D6C   950 0001:00009D99   953 0001:00009DA5   955 0001:00009DB3
   957 0001:00009DC4   960 0001:00009DCE   962 0001:00009DDC   967 0001:00009DEC
   969 0001:00009DF8   971 0001:00009E0D   973 0001:00009E21   964 0001:00009E29
   977 0001:00009E42   982 0001:00009E5F   985 0001:00009E95   991 0001:00009E9C
   994 0001:00009ED5   997 0001:00009EE1   999 0001:00009EEF  1001 0001:00009EF6
  1004 0001:00009F20  1006 0001:00009F31  1009 0001:00009F37  1011 0001:00009F45
  1016 0001:00009F5B  1018 0001:00009F6C  1020 0001:00009F72  1025 0001:00009F7B
  1027 0001:00009F90  1030 0001:00009F9A  1032 0001:00009FA7  1034 0001:00009FB5
  1036 0001:00009FE3  1038 0001:00009FF8  1040 0001:0000A004  1042 0001:0000A012
  1044 0001:0000A039  1047 0001:0000A057  1052 0001:0000A06D  1058 0001:0000A073
  1061 0001:0000A084  1064 0001:0000A0CA  1068 0001:0000A0D4  1071 0001:0000A10A
  1074 0001:0000A116  1076 0001:0000A124  1078 0001:0000A129  1081 0001:0000A146
  1084 0001:0000A175  1087 0001:0000A1A5  1089 0001:0000A1B6  1092 0001:0000A1B8
  1078 0001:0000A1BB  1095 0001:0000A1CD  1098 0001:0000A213  1103 0001:0000A218
  1106 0001:0000A227  1109 0001:0000A233  1111 0001:0000A241  1113 0001:0000A252
  1115 0001:0000A260  1120 0001:0000A270  1122 0001:0000A27C  1124 0001:0000A291
  1126 0001:0000A2AB  1117 0001:0000A2B3  1130 0001:0000A2CC  1134 0001:0000A2E9
  1137 0001:0000A2FD  1143 0001:0000A304  1146 0001:0000A310  1149 0001:0000A31C
  1151 0001:0000A32A  1153 0001:0000A338  1156 0001:0000A355  1158 0001:0000A366
  1163 0001:0000A376  1165 0001:0000A382  1167 0001:0000A397  1169 0001:0000A3B1
  1160 0001:0000A3B9  1173 0001:0000A3D2  1175 0001:0000A3E2  1153 0001:0000A3E5
  1178 0001:0000A3FB  1182 0001:0000A41B  1185 0001:0000A42F  1188 0001:0000A434
  1191 0001:0000A440  1194 0001:0000A44C  1196 0001:0000A45A  1199 0001:0000A478
  1202 0001:0000A48F  1205 0001:0000A494  1208 0001:0000A49D  1211 0001:0000A4A9
  1213 0001:0000A4B7  1216 0001:0000A4CD  1219 0001:0000A4E4  1222 0001:0000A4E8
  1225 0001:0000A4F4  1228 0001:0000A500  1230 0001:0000A50E  1233 0001:0000A524
  1236 0001:0000A538  1239 0001:0000A53C  1242 0001:0000A545  1245 0001:0000A551
  1247 0001:0000A55F  1250 0001:0000A578  1253 0001:0000A58F  1256 0001:0000A594
  1259 0001:0000A5AC  1262 0001:0000A5B6  1265 0001:0000A5C2  1268 0001:0000A5D4
  1270 0001:0000A5F6  1273 0001:0000A5FC  1276 0001:0000A60D  1278 0001:0000A61B
  1280 0001:0000A629  1283 0001:0000A644  1286 0001:0000A657  1289 0001:0000A670
  1292 0001:0000A694  1309 0001:0000A698  1310 0001:0000A6A4  1311 0001:0000A6AA
  1312 0001:0000A6B4  1313 0001:0000A6BF  1324 0001:0000A6C4  1325 0001:0000A6D3
  1326 0001:0000A6D9  1327 0001:0000A6E3  1329 0001:0000A6EB  1335 0001:0000A700
  1336 0001:0000A70E  1339 0001:0000A723  1340 0001:0000A736  1347 0001:0000A752
  1350 0001:0000A758  1351 0001:0000A767  1352 0001:0000A775  1354 0001:0000A77C
  1355 0001:0000A78C  1356 0001:0000A796  1352 0001:0000A799  1357 0001:0000A7A2
  1359 0001:0000A7B8  1367 0001:0000A7C7  1370 0001:0000A7D0  1371 0001:0000A7DC
  1372 0001:0000A7F1  1375 0001:0000A7F8  1376 0001:0000A804  1377 0001:0000A80A
  1379 0001:0000A812  1380 0001:0000A815  1383 0001:0000A825  1384 0001:0000A82D
  1386 0001:0000A864  1386 0001:0000A86B

Line numbers for DbxDBFix(DbxDBFix.pas) segment .text

   433 0001:0000A86C   436 0001:0000A89F   439 0001:0000A8AE   440 0001:0000A8B9
   441 0001:0000A8C9   442 0001:0000A8D7   443 0001:0000A8E3   446 0001:0000A8F0
   447 0001:0000A8F9   449 0001:0000A907   450 0001:0000A91C   451 0001:0000A928
   452 0001:0000A93E   455 0001:0000A968   459 0001:0000A970   463 0001:0000A979
   465 0001:0000A986   466 0001:0000A98C   468 0001:0000A9A0   469 0001:0000A9AD
   484 0001:0000A9B4   485 0001:0000A9C0   488 0001:0000A9C9   490 0001:0000A9DF
   494 0001:0000A9ED   496 0001:0000AA03   488 0001:0000AA06   498 0001:0000AA0B
   499 0001:0000AA14   501 0001:0000AA1E   502 0001:0000AA29   504 0001:0000AA3C
   505 0001:0000AA4A   509 0001:0000AA7D   510 0001:0000AA93   513 0001:0000AA99
   502 0001:0000AA9C   515 0001:0000AAA1   518 0001:0000AAA9   520 0001:0000AAB0
   521 0001:0000AAB7   522 0001:0000AABD   525 0001:0000AAD9   527 0001:0000AAED
   536 0001:0000AAF0   540 0001:0000AAF9   542 0001:0000AB09   543 0001:0000AB10
   546 0001:0000AB22   549 0001:0000AB36   551 0001:0000AB3C   552 0001:0000AB43
   553 0001:0000AB49   556 0001:0000AB65   558 0001:0000AB79   571 0001:0000AB7C
   573 0001:0000AB89   574 0001:0000ABA5   575 0001:0000ABB3   577 0001:0000ABCE
   579 0001:0000ABDE   582 0001:0000ABE4   585 0001:0000AC0C   586 0001:0000AC24
   587 0001:0000AC34   589 0001:0000AC40   590 0001:0000AC4B   591 0001:0000AC59
   595 0001:0000AC6A   598 0001:0000AC84   603 0001:0000AC94   608 0001:0000ACA8
   620 0001:0000ACC3   625 0001:0000ACE9   630 0001:0000AD34   632 0001:0000AD38
   633 0001:0000AD3F   634 0001:0000AD45   637 0001:0000AD61   639 0001:0000AD75
   651 0001:0000AD78   654 0001:0000ADAB   655 0001:0000ADB6   657 0001:0000ADBF
   658 0001:0000ADCB   659 0001:0000ADD6   660 0001:0000ADE6   662 0001:0000ADEC
   663 0001:0000ADFE   664 0001:0000AE09   665 0001:0000AE14   670 0001:0000AE21
   671 0001:0000AE2A   673 0001:0000AE3A   674 0001:0000AE40   676 0001:0000AE52
   678 0001:0000AE58   679 0001:0000AE72   680 0001:0000AE88   684 0001:0000AEB3
   686 0001:0000AEB8   687 0001:0000AEBF   688 0001:0000AEC5   691 0001:0000AEE1
   693 0001:0000AEF5   702 0001:0000AEF8   705 0001:0000AF1A   707 0001:0000AF24
   721 0001:0000AF4C   724 0001:0000AF7D   726 0001:0000AF84   727 0001:0000AF8B
   728 0001:0000AF91   730 0001:0000AFAD   731 0001:0000AFB7   738 0001:0000AFBC
   739 0001:0000AFC5   740 0001:0000AFD9   742 0001:0000AFE0   743 0001:0000AFE7
   744 0001:0000AFED   747 0001:0000B009   749 0001:0000B01D   756 0001:0000B020
   757 0001:0000B02C   758 0001:0000B045   760 0001:0000B04C   761 0001:0000B053
   762 0001:0000B059   765 0001:0000B075   767 0001:0000B089   776 0001:0000B08C
   777 0001:0000B0AB   778 0001:0000B0EE   780 0001:0000B0F4   781 0001:0000B0FB
   782 0001:0000B101   785 0001:0000B11D   787 0001:0000B131   911 0001:0000B134
   929 0001:0000B13B   932 0001:0000B143   936 0001:0000B14B   940 0001:0000B153
   944 0001:0000B15B   948 0001:0000B163   952 0001:0000B16B   956 0001:0000B173
   960 0001:0000B17B   975 0001:0000B183   980 0001:0000B188   982 0001:0000B1BD
   977 0001:0000B1C0   978 0001:0000B1C9   979 0001:0000B1D0

Line numbers for DbxXXDrv(DbxXXDrv.pas) segment .text

   129 0001:0000B1D4   137 0001:0000B1D8   140 0001:0000B1E5   143 0001:0000B218
   143 0001:0000B21F

Line numbers for DbxOpenOdbcTypes(DbxOpenOdbcTypes.pas) segment .text

   124 0001:0000B250   124 0001:0000B257

Line numbers for DbxOpenOdbcFuncs(DbxOpenOdbcFuncs.pas) segment .text

   235 0001:0000B3D8   238 0001:0000B3DC   239 0001:0000B3DE   243 0001:0000B3E0
   246 0001:0000B3E4   247 0001:0000B3E6   364 0001:0000B3E8   365 0001:0000B3EA
   367 0001:0000B3EC   368 0001:0000B3EE   370 0001:0000B3F0   371 0001:0000B3F1
   372 0001:0000B3F2   374 0001:0000B3F3   375 0001:0000B3F5   377 0001:0000B3F7
   378 0001:0000B3FA   380 0001:0000B3FC   382 0001:0000B3FD   383 0001:0000B400
   385 0001:0000B402   386 0001:0000B403   387 0001:0000B405   388 0001:0000B408
   390 0001:0000B40B   392 0001:0000B40D   394 0001:0000B40F   395 0001:0000B412
   396 0001:0000B414   397 0001:0000B416   398 0001:0000B417   400 0001:0000B418
   401 0001:0000B41A   402 0001:0000B41D   403 0001:0000B41E   404 0001:0000B41F
   405 0001:0000B421   406 0001:0000B423   409 0001:0000B425   410 0001:0000B426
   411 0001:0000B428   414 0001:0000B42A   415 0001:0000B42C   418 0001:0000B42D
   419 0001:0000B42E   420 0001:0000B430   421 0001:0000B432   423 0001:0000B434
   424 0001:0000B435   425 0001:0000B436   427 0001:0000B437   435 0001:0000B438
   436 0001:0000B441   437 0001:0000B446   440 0001:0000B451   442 0001:0000B455
   443 0001:0000B457   445 0001:0000B459   446 0001:0000B45B   447 0001:0000B464
   448 0001:0000B471   450 0001:0000B476   452 0001:0000B480   454 0001:0000B487
   453 0001:0000B488   455 0001:0000B49A   457 0001:0000B49E   458 0001:0000B4A0
   461 0001:0000B4A2   448 0001:0000B4A3   463 0001:0000B4A8   465 0001:0000B4AA
   537 0001:0000B4B0   539 0001:0000B4B6   540 0001:0000B4C6   541 0001:0000B4D1
   551 0001:0000B4E6   554 0001:0000B4EC   556 0001:0000B4F2   557 0001:0000B502
   558 0001:0000B50D   568 0001:0000B522   573 0001:0000B528   574 0001:0000B535
   575 0001:0000B539   577 0001:0000B55B   578 0001:0000B560   579 0001:0000B56E
   580 0001:0000B57C   581 0001:0000B593   582 0001:0000B5A3   583 0001:0000B5AE
   584 0001:0000B5C8   586 0001:0000B5D9   589 0001:0000B5F8   590 0001:0000B600
   595 0001:0000B608   596 0001:0000B615   597 0001:0000B619   599 0001:0000B630
   600 0001:0000B635   601 0001:0000B643   602 0001:0000B651   603 0001:0000B664
   604 0001:0000B67D   606 0001:0000B688   607 0001:0000B69E   609 0001:0000B6A7
   610 0001:0000B6B8   614 0001:0000B6D6   616 0001:0000B6E2   618 0001:0000B6FE
   620 0001:0000B70F   623 0001:0000B72E   624 0001:0000B736   638 0001:0000B740
   639 0001:0000B775   640 0001:0000B782   642 0001:0000B7A8   643 0001:0000B7BE
   645 0001:0000B7CB   646 0001:0000B7E4   648 0001:0000B7EC   649 0001:0000B805
   650 0001:0000B80A   654 0001:0000B80E   655 0001:0000B810   656 0001:0000B81A
   657 0001:0000B81F   661 0001:0000B821   663 0001:0000B825   664 0001:0000B828
   665 0001:0000B82C   668 0001:0000B82E   669 0001:0000B83C   659 0001:0000B83D
   673 0001:0000B843   676 0001:0000B849   679 0001:0000B84E   682 0001:0000B854
   683 0001:0000B862   686 0001:0000B865   687 0001:0000B869   677 0001:0000B86B
   690 0001:0000B877   694 0001:0000B87D   696 0001:0000B890   697 0001:0000B898
   699 0001:0000B8A2   700 0001:0000B8AC   701 0001:0000B8C2   702 0001:0000B8CE
   703 0001:0000B8DC   705 0001:0000B8E0   706 0001:0000B8EB   710 0001:0000B8F0
   712 0001:0000B8F3   711 0001:0000B8F4   713 0001:0000B8FD   714 0001:0000B8FF
   716 0001:0000B90A   717 0001:0000B91E   719 0001:0000B928   722 0001:0000B937
   723 0001:0000B93C   724 0001:0000B93D   725 0001:0000B94C   726 0001:0000B968
   727 0001:0000B975   732 0001:0000B997   738 0001:0000B9E2   739 0001:0000B9E8
   741 0001:0000B9F5   742 0001:0000BA00   743 0001:0000BA06   745 0001:0000BA5C
   752 0001:0000BA94   754 0001:0000BA98   817 0001:0000BA9C   818 0001:0000BA9D
   819 0001:0000BA9F   821 0001:0000BAA1   822 0001:0000BAA2   823 0001:0000BAA4
   824 0001:0000BAA6   825 0001:0000BAA8   826 0001:0000BAAA   827 0001:0000BAAC
   828 0001:0000BAAD   829 0001:0000BAAF   830 0001:0000BAB2   831 0001:0000BAB5
   832 0001:0000BAB7   833 0001:0000BAB9   834 0001:0000BABA   835 0001:0000BABC
   836 0001:0000BABF   837 0001:0000BAC2   838 0001:0000BAC4   839 0001:0000BAC6
   840 0001:0000BAC7   841 0001:0000BAC9   842 0001:0000BACC   843 0001:0000BACF
   844 0001:0000BAD2   845 0001:0000BAD5   846 0001:0000BAD7   848 0001:0000BAD9
   849 0001:0000BADC   850 0001:0000BADF   851 0001:0000BAE1   852 0001:0000BAE2
   854 0001:0000BAE3   855 0001:0000BAE5   856 0001:0000BAE6   869 0001:0000BAE8
   870 0001:0000BB06   871 0001:0000BB0D   872 0001:0000BB15   873 0001:0000BB22
   874 0001:0000BB29   875 0001:0000BB2E   876 0001:0000BB37   877 0001:0000BB50
   879 0001:0000BB74   881 0001:0000BB78   883 0001:0000BB8B   885 0001:0000BB8F
   886 0001:0000BB9C   887 0001:0000BBB5   891 0001:0000BBC8   892 0001:0000BBCC
   895 0001:0000BBDD   899 0001:0000BC04   936 0001:0000BC0C   937 0001:0000BC27
   938 0001:0000BC2E   939 0001:0000BC39   941 0001:0000BC42   942 0001:0000BC4C
   943 0001:0000BC5D   944 0001:0000BC67   945 0001:0000BC6C   946 0001:0000BC79
   948 0001:0000BC89   950 0001:0000BC99   951 0001:0000BCCB   953 0001:0000BCD0
   954 0001:0000BCDB   955 0001:0000BCF3   956 0001:0000BD00   957 0001:0000BD18
   960 0001:0000BD22   965 0001:0000BD2C   966 0001:0000BD34   967 0001:0000BD3A
   968 0001:0000BD4F   969 0001:0000BD67   970 0001:0000BD74   971 0001:0000BDB0
  1199 0001:0000BDD8  1200 0001:0000BDFD  1201 0001:0000BE01  1202 0001:0000BE0A
  1205 0001:0000BE4B  1206 0001:0000BE53  1208 0001:0000BE5F  1209 0001:0000BE6E
  1210 0001:0000BE76  1211 0001:0000BE88  1212 0001:0000BE9E  1215 0001:0000BED2
  1221 0001:0000BEE4  1222 0001:0000BF08  1223 0001:0000BF0C  1224 0001:0000BF15
  1227 0001:0000BF5A  1228 0001:0000BF6A  1229 0001:0000BF79  1230 0001:0000BF88
  1232 0001:0000BF8C  1233 0001:0000BFA0  1234 0001:0000BFB3  1236 0001:0000BFBF
  1237 0001:0000BFCE  1238 0001:0000BFD6  1239 0001:0000BFE5  1240 0001:0000BFF6
  1244 0001:0000C034  1254 0001:0000C04C  1255 0001:0000C05C  1256 0001:0000C065
  1259 0001:0000C06C  1258 0001:0000C06E  1260 0001:0000C087  1263 0001:0000C09B
  1264 0001:0000C0A2  1266 0001:0000C0A8  1267 0001:0000C0C5  1268 0001:0000C0C9
  1270 0001:0000C0D5  1271 0001:0000C0DA  1272 0001:0000C0E0  1275 0001:0000C0EB
  1276 0001:0000C117  1278 0001:0000C121  1279 0001:0000C134  1280 0001:0000C169
  1285 0001:0000C170  1286 0001:0000C18C  1287 0001:0000C190  1289 0001:0000C19B
  1290 0001:0000C19D  1292 0001:0000C1A1  1293 0001:0000C1AA  1294 0001:0000C1C0
  1296 0001:0000C1C2  1297 0001:0000C1C6  1298 0001:0000C1D8  1299 0001:0000C1E1
  1300 0001:0000C1EF  1301 0001:0000C21B  1312 0001:0000C224  1313 0001:0000C247
  1314 0001:0000C24E  1316 0001:0000C259  1318 0001:0000C26D  1320 0001:0000C281
  1321 0001:0000C293  1322 0001:0000C29A  1324 0001:0000C29E  1325 0001:0000C2A8
  1328 0001:0000C2B4  1330 0001:0000C2C0  1331 0001:0000C2E6  1332 0001:0000C2F3
  1335 0001:0000C2F8  1337 0001:0000C365  1339 0001:0000C373  1341 0001:0000C381
  1343 0001:0000C38F  1345 0001:0000C39D  1347 0001:0000C3AB  1349 0001:0000C3B9
  1351 0001:0000C3C7  1353 0001:0000C3D5  1355 0001:0000C3E3  1358 0001:0000C3EF
  1361 0001:0000C3FA  1362 0001:0000C409  1404 0001:0000C42D  1413 0001:0000CC28
  1414 0001:0000CC4D  1415 0001:0000CC54  1417 0001:0000CC70  1418 0001:0000CC73
  1419 0001:0000CC97  1420 0001:0000CC9E  1421 0001:0000CCC2  1422 0001:0000CCCC
  1423 0001:0000CCF0  1424 0001:0000CCFA  1425 0001:0000CD1E  1426 0001:0000CD28
  1427 0001:0000CD4C  1428 0001:0000CD56  1429 0001:0000CD7A  1430 0001:0000CD84
  1431 0001:0000CDA8  1432 0001:0000CDB2  1433 0001:0000CDD6  1434 0001:0000CDE0
  1435 0001:0000CE04  1436 0001:0000CE0E  1437 0001:0000CE32  1438 0001:0000CE3C
  1439 0001:0000CE60  1440 0001:0000CE6A  1441 0001:0000CE8E  1442 0001:0000CE98
  1443 0001:0000CEBC  1444 0001:0000CEC6  1445 0001:0000CEEA  1446 0001:0000CEF4
  1447 0001:0000CF18  1448 0001:0000CF1F  1449 0001:0000CF43  1450 0001:0000CF4A
  1451 0001:0000CF6E  1452 0001:0000CF75  1453 0001:0000CF99  1455 0001:0000CF9E
  1457 0001:0000CFBA  1459 0001:0000CFCE  1460 0001:0000CFE0  1461 0001:0000CFE9
  1463 0001:0000CFED  1464 0001:0000CFF7  1467 0001:0000D003  1469 0001:0000D00F
  1470 0001:0000D02D  1473 0001:0000D067  1485 0001:0000D1DC  1486 0001:0000D203
  1487 0001:0000D20B  1488 0001:0000D213  1489 0001:0000D21C  1490 0001:0000D221
  1492 0001:0000D225  1494 0001:0000D229  1493 0001:0000D22A  1495 0001:0000D236
  1496 0001:0000D249  1497 0001:0000D25B  1499 0001:0000D25D  1504 0001:0000D264
  1505 0001:0000D284  1506 0001:0000D28D  1507 0001:0000D2F5  1509 0001:0000D2F9
  1510 0001:0000D302  1512 0001:0000D34C  1514 0001:0000D35C  1515 0001:0000D380
  1516 0001:0000D387  1518 0001:0000D38F  1519 0001:0000D399  1520 0001:0000D3CB
  1522 0001:0000D3D3  1524 0001:0000D3E3  1525 0001:0000D3E8  1541 0001:0000D570
  1542 0001:0000D584  1543 0001:0000D592  1544 0001:0000D59D  1546 0001:0000D5D1
  1547 0001:0000D5F4  1548 0001:0000D5FB  1550 0001:0000D5FF  1551 0001:0000D609
  1554 0001:0000D615  1557 0001:0000D62E  1561 0001:0000D675  1563 0001:0000D820
  1564 0001:0000D82F  1566 0001:0000D86F  1568 0001:0000D877  1592 0001:0000DA5A
  1597 0001:0000DBD8  1598 0001:0000DBF8  1599 0001:0000DC02  1600 0001:0000DC28
  1601 0001:0000DC2C  1602 0001:0000DC5A  1610 0001:0000DC64  1611 0001:0000DC66
  1612 0001:0000DC68  1613 0001:0000DC69  1614 0001:0000DC6B  1615 0001:0000DC6D
  1616 0001:0000DC6F  1617 0001:0000DC71  1618 0001:0000DC73  1619 0001:0000DC74
  1620 0001:0000DC75  1621 0001:0000DC76  1622 0001:0000DC77  1623 0001:0000DC7C
  1640 0001:0000DC80  1641 0001:0000DC82  1642 0001:0000DC84  1643 0001:0000DC85
  1644 0001:0000DC87  1645 0001:0000DC8A  1646 0001:0000DC8C  1647 0001:0000DC8E
  1648 0001:0000DC90  1649 0001:0000DC91  1650 0001:0000DC93  1651 0001:0000DC94
  1652 0001:0000DC95  1653 0001:0000DC96  1654 0001:0000DC9B  1671 0001:0000DC9C
  1672 0001:0000DC9E  1673 0001:0000DCA0  1674 0001:0000DCA1  1675 0001:0000DCA3
  1676 0001:0000DCA5  1677 0001:0000DCA7  1678 0001:0000DCA9  1679 0001:0000DCAB
  1680 0001:0000DCAC  1681 0001:0000DCAF  1682 0001:0000DCB0  1683 0001:0000DCB1
  1684 0001:0000DCB2  1685 0001:0000DCB7  1706 0001:0000DCB8  1707 0001:0000DCBA
  1708 0001:0000DCBC  1709 0001:0000DCBD  1710 0001:0000DCBF  1711 0001:0000DCC1
  1712 0001:0000DCC3  1713 0001:0000DCC5  1714 0001:0000DCC7  1715 0001:0000DCC8
  1716 0001:0000DCCB  1717 0001:0000DCCC  1718 0001:0000DCCD  1719 0001:0000DCCE
  1720 0001:0000DCD3  1737 0001:0000DCD4  1739 0001:0000DCD9  1740 0001:0000DCE1
  1744 0001:0000DCEA  1745 0001:0000DD0C  1756 0001:0000DD15  1759 0001:0000DD18
  1761 0001:0000DD20  1763 0001:0000DD28  1764 0001:0000DD2D  1769 0001:0000DD32
  1770 0001:0000DD50  1780 0001:0000DD53  1782 0001:0000DD59  1785 0001:0000DD5C
  1786 0001:0000DD62  1787 0001:0000DD7D  1788 0001:0000DD81  1789 0001:0000DD82
  1792 0001:0000DD88  1793 0001:0000DDA3  1794 0001:0000DDD7  1795 0001:0000DDDB
  1796 0001:0000DE03  1799 0001:0000DE0C  1800 0001:0000DE27  1801 0001:0000DE5B
  1802 0001:0000DE5F  1803 0001:0000DE87  1806 0001:0000DE90  1807 0001:0000DE96
  1808 0001:0000DEB0  1809 0001:0000DEB4  1810 0001:0000DEB5  1813 0001:0000DEB8
  1814 0001:0000DEC1  1815 0001:0000DEC5  1816 0001:0000DECC  1818 0001:0000DED7
  1819 0001:0000DED9  1821 0001:0000DEDB  1822 0001:0000DEF4  1823 0001:0000DEF8
  1824 0001:0000DEFA  1827 0001:0000DF00  1828 0001:0000DF1E  1829 0001:0000DF22
  1830 0001:0000DF29  1832 0001:0000DF34  1833 0001:0000DF36  1835 0001:0000DF38
  1836 0001:0000DF6A  1837 0001:0000DF6E  1838 0001:0000DF97  1841 0001:0000DFA0
  1842 0001:0000DFBE  1843 0001:0000DFC2  1844 0001:0000DFC9  1845 0001:0000DFD4
  1847 0001:0000DFDF  1848 0001:0000DFE1  1850 0001:0000DFE3  1851 0001:0000E015
  1852 0001:0000E019  1853 0001:0000E042  1856 0001:0000E04C  1857 0001:0000E055
  1858 0001:0000E059  1859 0001:0000E060  1860 0001:0000E06B  1862 0001:0000E076
  1863 0001:0000E078  1865 0001:0000E07A  1866 0001:0000E092  1867 0001:0000E096
  1868 0001:0000E098  1880 0001:0000E09C  1881 0001:0000E0AA  1882 0001:0000E0AE
  1883 0001:0000E0B0  1884 0001:0000E0BA  1885 0001:0000E0C6  1890 0001:0000E0CA
  1891 0001:0000E0D3  1892 0001:0000E0E8  1893 0001:0000E0E9  1895 0001:0000E0ED
  1896 0001:0000E0F1  1897 0001:0000E0F3  1901 0001:0000E0F8  1915 0001:0000E0FC
  1916 0001:0000E10B  1917 0001:0000E111  1918 0001:0000E113  1919 0001:0000E115
  1920 0001:0000E119  1921 0001:0000E11D  1922 0001:0000E121  1901 0001:0000E12E
  1927 0001:0000E132  1939 0001:0000E13C  1940 0001:0000E14A  1941 0001:0000E14E
  1942 0001:0000E150  1943 0001:0000E15A  1944 0001:0000E166  1949 0001:0000E16A
  1950 0001:0000E173  1951 0001:0000E184  1952 0001:0000E185  1954 0001:0000E189
  1955 0001:0000E18D  1956 0001:0000E18F  1960 0001:0000E194  1974 0001:0000E198
  1975 0001:0000E1A5  1976 0001:0000E1A7  1977 0001:0000E1A9  1978 0001:0000E1AB
  1979 0001:0000E1AF  1980 0001:0000E1B3  1981 0001:0000E1B7  1960 0001:0000E1C4
  1986 0001:0000E1C8  1989 0001:0000E1D0  1993 0001:0000E1D9  1995 0001:0000E1E4
  2003 0001:0000E1E8  2004 0001:0000E1F6  2005 0001:0000E1FA  2006 0001:0000E1FC
  2007 0001:0000E206  2009 0001:0000E20A  2010 0001:0000E20C  2011 0001:0000E221
  2012 0001:0000E222  2014 0001:0000E226  2015 0001:0000E22A  2016 0001:0000E22C
  2017 0001:0000E231  2019 0001:0000E235  2020 0001:0000E244  2021 0001:0000E24A
  2022 0001:0000E24C  2023 0001:0000E24E  2024 0001:0000E252  2025 0001:0000E256
  2026 0001:0000E25A  2017 0001:0000E267  2028 0001:0000E26B  2036 0001:0000E274
  2037 0001:0000E282  2038 0001:0000E286  2039 0001:0000E288  2040 0001:0000E292
  2042 0001:0000E296  2043 0001:0000E298  2044 0001:0000E2A9  2045 0001:0000E2AA
  2047 0001:0000E2AE  2048 0001:0000E2B2  2049 0001:0000E2B4  2050 0001:0000E2B9
  2052 0001:0000E2BD  2053 0001:0000E2CA  2054 0001:0000E2CC  2055 0001:0000E2CE
  2056 0001:0000E2D0  2057 0001:0000E2D4  2058 0001:0000E2D8  2059 0001:0000E2DC
  2050 0001:0000E2E9  2061 0001:0000E2ED  2067 0001:0000E2F4  2068 0001:0000E308
  2069 0001:0000E311  2071 0001:0000E315  2073 0001:0000E31B  2074 0001:0000E32D
  2075 0001:0000E334  2077 0001:0000E338  2078 0001:0000E33F  2079 0001:0000E344
  2080 0001:0000E345  2075 0001:0000E346  2085 0001:0000E34C  2086 0001:0000E359
  2088 0001:0000E35F  2089 0001:0000E371  2092 0001:0000E384  2096 0001:0000E38F
  2097 0001:0000E398  2103 0001:0000E3A4  2104 0001:0000E3B8  2105 0001:0000E3C2
  2107 0001:0000E3C6  2108 0001:0000E3D9  2109 0001:0000E3E0  2111 0001:0000E3E6
  2113 0001:0000E3EA  2114 0001:0000E3F5  2115 0001:0000E3FA  2116 0001:0000E3FB
  2111 0001:0000E3FC  2121 0001:0000E402  2123 0001:0000E406  2125 0001:0000E411
  2126 0001:0000E416  2128 0001:0000E418  2129 0001:0000E419  2121 0001:0000E41A
  2134 0001:0000E420  2135 0001:0000E429  2141 0001:0000E434  2142 0001:0000E44A
  2143 0001:0000E453  2145 0001:0000E457  2147 0001:0000E45D  2148 0001:0000E46F
  2149 0001:0000E476  2151 0001:0000E47A  2152 0001:0000E483  2153 0001:0000E48A
  2154 0001:0000E48D  2149 0001:0000E48E  2159 0001:0000E494  2160 0001:0000E4A2
  2162 0001:0000E4A8  2163 0001:0000E4BA  2166 0001:0000E4CA  2170 0001:0000E4D5
  2171 0001:0000E4DE  2177 0001:0000E4E8  2178 0001:0000E4FD  2179 0001:0000E507
  2181 0001:0000E50B  2182 0001:0000E51E  2183 0001:0000E525  2185 0001:0000E52B
  2187 0001:0000E52F  2188 0001:0000E53D  2189 0001:0000E544  2190 0001:0000E547
  2185 0001:0000E548  2195 0001:0000E54E  2197 0001:0000E552  2199 0001:0000E560
  2200 0001:0000E567  2202 0001:0000E569  2203 0001:0000E56C  2195 0001:0000E56D
  2208 0001:0000E573  2209 0001:0000E57C  2215 0001:0000E588  2216 0001:0000E596
  2217 0001:0000E59F  2219 0001:0000E5A3  2221 0001:0000E5A9  2222 0001:0000E5B0
  2224 0001:0000E5B4  2225 0001:0000E5B8  2226 0001:0000E5BD  2227 0001:0000E5BE
  2222 0001:0000E5BF  2232 0001:0000E5C5  2233 0001:0000E5D0  2234 0001:0000E5D4
  2237 0001:0000E5E2  2243 0001:0000E5EC  2244 0001:0000E5FA  2245 0001:0000E603
  2247 0001:0000E607  2248 0001:0000E60E  2250 0001:0000E614  2252 0001:0000E618
  2253 0001:0000E623  2254 0001:0000E628  2255 0001:0000E629  2250 0001:0000E62A
  2260 0001:0000E630  2262 0001:0000E634  2264 0001:0000E63F  2265 0001:0000E644
  2267 0001:0000E646  2268 0001:0000E647  2260 0001:0000E648  2272 0001:0000E64C
  2345 0001:0000E654  2346 0001:0000E663  2347 0001:0000E66C  2349 0001:0000E670
  2351 0001:0000E676  2352 0001:0000E67D  2354 0001:0000E681  2355 0001:0000E686
  2356 0001:0000E68D  2357 0001:0000E690  2352 0001:0000E691  2362 0001:0000E697
  2363 0001:0000E6A0  2364 0001:0000E6A4  2367 0001:0000E6AF  2373 0001:0000E6B8
  2374 0001:0000E6C6  2375 0001:0000E6D2  2377 0001:0000E6D6  2378 0001:0000E6E0
  2380 0001:0000E6E6  2382 0001:0000E6EA  2383 0001:0000E6F7  2384 0001:0000E6FE
  2385 0001:0000E701  2380 0001:0000E702  2390 0001:0000E708  2392 0001:0000E70C
  2394 0001:0000E719  2395 0001:0000E720  2397 0001:0000E722  2398 0001:0000E725
  2390 0001:0000E726  2402 0001:0000E72A  2457 0001:0000E734  2458 0001:0000E737
  2459 0001:0000E744  2479 0001:0000E748  2480 0001:0000E74B  2481 0001:0000E758
  2504 0001:0000E75C  2505 0001:0000E75F  2518 0001:0000E766  2549 0001:0000E772
  2551 0001:0000E780  2554 0001:0000E7CC  2566 0001:0000E7D3

Line numbers for OdbcApi(OdbcApi.pas) segment .text

  5713 0001:0000EAE0  5974 0001:0000F088  5975 0001:0000F08F  6438 0001:0000F140
  6439 0001:0000F155  6440 0001:0000F15E  6441 0001:0000F175  6442 0001:0000F19B
  6445 0001:0000F1A0  6446 0001:0000F1AB  6447 0001:0000F1B4  6448 0001:0000F1BC
  6449 0001:0000F1D3  6455 0001:0000F1D8  6456 0001:0000F1E4  6458 0001:0000F1FB
  6459 0001:0000F204  6461 0001:0000F208  6462 0001:0000F20A  6463 0001:0000F214
  6464 0001:0000F21C  6465 0001:0000F229  6459 0001:0000F22B  6467 0001:0000F22F
  6468 0001:0000F23A  6456 0001:0000F23B  6469 0001:0000F241  6474 0001:0000F248
  6475 0001:0000F24C  6476 0001:0000F24E  6477 0001:0000F25E  6478 0001:0000F272
  6476 0001:0000F273  6479 0001:0000F278  6485 0001:0000F27C  6486 0001:0000F288
  6487 0001:0000F2A3  6488 0001:0000F2B5  6489 0001:0000F2BF  6490 0001:0000F2C5
  6491 0001:0000F2CD  6493 0001:0000F2D3  6494 0001:0000F2D5  6500 0001:0000F2DC
  6501 0001:0000F2E0  6502 0001:0000F2E5  6503 0001:0000F2E7  6505 0001:0000F2EB
  6506 0001:0000F2EF  6507 0001:0000F2F9  6508 0001:0000F301  6510 0001:0000F30E
  6515 0001:0000F314  6516 0001:0000F31A  6517 0001:0000F325  6518 0001:0000F329
  6520 0001:0000F32F  6521 0001:0000F331  6526 0001:0000F334  6527 0001:0000F33B
  6528 0001:0000F356  6531 0001:0000F360  6534 0001:0000F36C  6529 0001:0000F36E
  6536 0001:0000F376  6540 0001:0000F37C  6541 0001:0000F383  6545 0001:0000F384
  6546 0001:0000F38C  6581 0001:0000F390  6582 0001:0000F3B0  6584 0001:0000F3B8
  6583 0001:0000F3B9  6585 0001:0000F3CF  6586 0001:0000F3FD  6587 0001:0000F413
  6588 0001:0000F414  6589 0001:0000F43C  6592 0001:0000F444  6594 0001:0000F44A
  6598 0001:0000F458  6602 0001:0000F45C  6603 0001:0000F482  6604 0001:0000F48E
  6606 0001:0000F492  6607 0001:0000F4AE  6608 0001:0000F4C1  6610 0001:0000F4C5
  6611 0001:0000F4FA  6613 0001:0000F510  6614 0001:0000F536  6615 0001:0000F53B
  6616 0001:0000F550  6617 0001:0000F55B  6619 0001:0000F561  6620 0001:0000F56F
  6622 0001:0000F574  6623 0001:0000F57B  6624 0001:0000F585  6630 0001:0000F593
  6631 0001:0000F59E  6632 0001:0000F5A3  6634 0001:0000F5AA  6635 0001:0000F5BF
  6640 0001:0000F5C9  6641 0001:0000F5D8  6643 0001:0000F5E8  6644 0001:0000F60A
  6645 0001:0000F610  6647 0001:0000F62D  6650 0001:0000F636  6653 0001:0000F63D
  6657 0001:0000F675  6658 0001:0000F685  6660 0001:0000F68B  6661 0001:0000F691
  6666 0001:0000F69B  6667 0001:0000F6AA  6669 0001:0000F6BA  6670 0001:0000F6DC
  6671 0001:0000F6E2  6673 0001:0000F6FF  6676 0001:0000F708  6679 0001:0000F70F
  6680 0001:0000F725  6681 0001:0000F734  6682 0001:0000F73C  6683 0001:0000F754
  6684 0001:0000F767  6688 0001:0000F77F  6689 0001:0000F78C  6690 0001:0000F7A8
  6692 0001:0000F7B0  6693 0001:0000F7B9  6694 0001:0000F7CF  6696 0001:0000F7E2
  6699 0001:0000F7FA  6700 0001:0000F805  6704 0001:0000F887  6706 0001:0000F89B
  6707 0001:0000F8A9  6708 0001:0000F8B6  6711 0001:0000F8E2  6712 0001:0000F8FD
  6713 0001:0000F915  6714 0001:0000F928  6716 0001:0000F932  6720 0001:0000F9E1
  6723 0001:0000F9F9  6725 0001:0000FA0E  6729 0001:0000FA1E  6735 0001:0000FA31
  6736 0001:0000FA41  6750 0001:0000FA47  6762 0001:0000FA53  6765 0001:0000FA59
  6768 0001:0000FA63  6769 0001:0000FA72  6771 0001:0000FA80  6773 0001:0000FA90
  6774 0001:0000FA99  6775 0001:0000FA9E  6776 0001:0000FAA8  6777 0001:0000FAB6
  6783 0001:0000FAC4  6784 0001:0000FADE  6786 0001:0000FAE7  6787 0001:0000FB01
  6788 0001:0000FB1B  6790 0001:0000FB35  6791 0001:0000FB4F  6792 0001:0000FB69
  6793 0001:0000FB83  6794 0001:0000FB9D  6795 0001:0000FBBE  6796 0001:0000FBDF
  6797 0001:0000FC00  6798 0001:0000FC1A  6799 0001:0000FC3B  6800 0001:0000FC5C
  6801 0001:0000FC76  6802 0001:0000FC90  6803 0001:0000FCB1  6804 0001:0000FCD2
  6805 0001:0000FCEC  6806 0001:0000FD09  6807 0001:0000FD26  6808 0001:0000FD43
  6809 0001:0000FD60  6810 0001:0000FD7D  6811 0001:0000FD9A  6812 0001:0000FDBE
  6813 0001:0000FDE2  6814 0001:0000FE06  6815 0001:0000FE23  6816 0001:0000FE47
  6817 0001:0000FE6B  6818 0001:0000FE8F  6819 0001:0000FEB3  6820 0001:0000FED0
  6821 0001:0000FEED  6822 0001:0000FF11  6823 0001:0000FF35  6824 0001:0000FF52
  6825 0001:0000FF76  6826 0001:0000FF93  6827 0001:0000FFB0  6828 0001:0000FFD4
  6829 0001:0000FFF1  6830 0001:00010015  6831 0001:00010039  6832 0001:0001005D
  6833 0001:00010081  6834 0001:000100A5  6835 0001:000100C2  6836 0001:000100DF
  6837 0001:000100FC  6838 0001:00010120  6839 0001:0001013D  6840 0001:00010161
  6841 0001:00010185  6842 0001:000101A9  6844 0001:000101C6  6845 0001:000101EA
  6846 0001:0001020E  6847 0001:0001022B  6848 0001:0001024F  6849 0001:00010273
  6850 0001:00010290  6851 0001:000102AD  6852 0001:000102D1  6853 0001:000102EE
  6854 0001:00010312  6855 0001:0001032F  6856 0001:0001034C  6857 0001:00010370
  6858 0001:00010394  6859 0001:000103B8  6860 0001:000103D5  6861 0001:000103F9
  6862 0001:0001041D  6863 0001:0001043A  6864 0001:00010457  6866 0001:0001047B
  6868 0001:00010497  6870 0001:0001049F  6872 0001:000104A6  6873 0001:000104BB
  6874 0001:000104CB  6876 0001:000104D9  6877 0001:000104F0  6878 0001:0001050D
  6879 0001:0001052A  6880 0001:00010547  6881 0001:00010564  6884 0001:00010581
  6885 0001:00010596  6886 0001:000105A6  6888 0001:000105B0  6889 0001:000105C7
  6903 0001:000105E4  6911 0001:00010624  6933 0001:0001062C  6934 0001:00010641
  6936 0001:0001064D  6937 0001:00010656  6939 0001:00010662  6941 0001:0001066C
  6944 0001:00010681  6949 0001:000106A5  6950 0001:000106AD  6954 0001:000106C4
  6955 0001:000106CE  6956 0001:000106D4  6958 0001:0001072C  6961 0001:00011064
  6962 0001:0001106A  6964 0001:0001106E  6965 0001:00011078  6967 0001:00011086
  6970 0001:00011089  6971 0001:00011095  6974 0001:000110B1  6976 0001:000110C3
  6981 0001:000110C8  6983 0001:000110D3  6985 0001:000110DA  6986 0001:000110DF
  6987 0001:000110E4  6990 0001:000110EC  6991 0001:000110F3  6992 0001:000110F9
  6993 0001:00011100  6994 0001:00011106  6995 0001:0001110D  6996 0001:00011113
  6997 0001:0001112A  7003 0001:00011130  7004 0001:0001114D  7006 0001:00011159
  7008 0001:00011166  7010 0001:00011173  7012 0001:00011180  7014 0001:00011188
  7016 0001:000111E3  7020 0001:00011240  7021 0001:0001124A  7025 0001:0001124C
  7026 0001:00011256  7031 0001:00011258  7032 0001:0001125E  7034 0001:00011264
  7035 0001:00011270  7040 0001:00011274  7041 0001:00011278  7042 0001:0001127E
  7044 0001:00011283  7045 0001:0001128F  7049 0001:00011290  7050 0001:00011298
  7051 0001:0001129B  7052 0001:000112A4  7054 0001:000112B7  7055 0001:000112C5
  7059 0001:000112E8  7060 0001:000112F0  7061 0001:000112F3  7062 0001:000112F9
  7065 0001:00011309  7067 0001:0001131A  7069 0001:00011320  7070 0001:00011329
  7073 0001:0001132B  7075 0001:00011331  7076 0001:0001133E  7079 0001:00011340
  7081 0001:00011346  7082 0001:00011353  7089 0001:00011355  7091 0001:00011363
  7096 0001:00011384  7097 0001:0001138A  7099 0001:00011390  7100 0001:0001139C
  7106 0001:000113A0  7107 0001:000113A9  7108 0001:000113AC  7109 0001:000113B2
  7112 0001:000113D0  7113 0001:000113DE  7119 0001:000113F8  7120 0001:00011401
  7121 0001:00011404  7122 0001:0001140A  7125 0001:00011432  7126 0001:00011440
  7132 0001:00011460  7133 0001:00011469  7134 0001:0001146C  7135 0001:00011475
  7138 0001:000114A9  7139 0001:000114B7  7148 0001:000114DC  7149 0001:00011507
  7150 0001:0001150A  7151 0001:00011513  7154 0001:00011537  7157 0001:00011544
  7158 0001:0001155A  7159 0001:00011567  7160 0001:00011578  7162 0001:0001157D
  7164 0001:000115A6  7166 0001:000115AC  7167 0001:000115B7  7168 0001:000115C2
  7169 0001:000115D2  7170 0001:000115DF  7174 0001:000115F3  7175 0001:00011632
  7179 0001:00011658  7180 0001:00011659  7181 0001:0001165C  7182 0001:00011665
  7184 0001:00011671  7185 0001:0001167F  7189 0001:000116A0  7190 0001:000116A1
  7191 0001:000116A4  7192 0001:000116AA  7194 0001:000116B2  7195 0001:000116C0
  7199 0001:000116D8  7200 0001:000116D9  7201 0001:000116DC  7202 0001:000116E2
  7204 0001:000116EA  7205 0001:000116F3  7207 0001:000116FE  7208 0001:0001170C
  7222 0001:00011728  7223 0001:00011753  7224 0001:00011756  7225 0001:0001175C
  7228 0001:00011782  7231 0001:0001178F  7232 0001:000117A9  7234 0001:000117AF
  7235 0001:000117C0  7236 0001:000117C8  7239 0001:000117CF  7241 0001:000117D2
  7244 0001:000117F3  7246 0001:00011807  7247 0001:00011812  7248 0001:0001181D
  7249 0001:0001182D  7250 0001:00011838  7254 0001:0001184C  7256 0001:0001185E
  7257 0001:00011864  7258 0001:00011869  7261 0001:0001188F  7262 0001:00011893
  7263 0001:0001189A  7264 0001:000118A0  7267 0001:000118B1  7268 0001:000118E6
  7274 0001:00011908  7275 0001:0001190C  7279 0001:00011927  7285 0001:0001192C
  7286 0001:00011930  7290 0001:0001194B  7300 0001:00011950  7301 0001:0001197B
  7302 0001:0001197E  7303 0001:00011987  7305 0001:000119AF  7308 0001:000119BC
  7309 0001:000119D0  7311 0001:000119D6  7312 0001:000119E5  7313 0001:000119F9
  7314 0001:00011A01  7317 0001:00011A0B  7318 0001:00011A0E  7319 0001:00011A2E
  7321 0001:00011A3D  7322 0001:00011A4B  7323 0001:00011A56  7324 0001:00011A65
  7325 0001:00011A70  7329 0001:00011A84  7330 0001:00011AB9  7339 0001:00011ADC
  7340 0001:00011B07  7341 0001:00011B0A  7342 0001:00011B13  7348 0001:00011B45
  7351 0001:00011B52  7353 0001:00011B68  7355 0001:00011B7E  7357 0001:00011B94
  7360 0001:00011BAA  7367 0001:00011BED  7368 0001:00011C2C  7376 0001:00011C54
  7377 0001:00011C7F  7378 0001:00011C82  7379 0001:00011C88  7385 0001:00011CB7
  7388 0001:00011CC4  7390 0001:00011CC8  7392 0001:00011CDD  7395 0001:00011CE9
  7396 0001:00011CEF  7398 0001:00011CF5  7400 0001:00011D0B  7403 0001:00011D18
  7404 0001:00011D1E  7406 0001:00011D24  7408 0001:00011D3A  7411 0001:00011D47
  7412 0001:00011D4D  7414 0001:00011D53  7416 0001:00011D69  7419 0001:00011D76
  7420 0001:00011D7C  7427 0001:00011DAB  7428 0001:00011DEA  7436 0001:00011E08
  7437 0001:00011E31  7438 0001:00011E34  7439 0001:00011E3A  7444 0001:00011E60
  7447 0001:00011E6D  7449 0001:00011E71  7451 0001:00011E86  7454 0001:00011E92
  7455 0001:00011E98  7457 0001:00011E9E  7459 0001:00011EB4  7462 0001:00011EC1
  7463 0001:00011EC7  7465 0001:00011ECD  7467 0001:00011EE3  7470 0001:00011EF0
  7472 0001:00011EF6  7478 0001:00011F1C  7479 0001:00011F5B  7483 0001:00011F78
  7484 0001:00011F79  7485 0001:00011F7C  7486 0001:00011F82  7488 0001:00011F8B
  7489 0001:00011F99  7499 0001:00011FB0  7500 0001:00011FDC  7501 0001:00011FDF
  7502 0001:00011FE5  7506 0001:0001200E  7509 0001:0001201B  7511 0001:00012020
  7512 0001:0001202B  7514 0001:00012033  7516 0001:00012038  7517 0001:00012044
  7520 0001:0001204C  7526 0001:00012073  7528 0001:00012078  7529 0001:00012086
  7530 0001:00012091  7531 0001:000120A0  7532 0001:000120AB  7534 0001:000120BD
  7536 0001:000120C2  7537 0001:000120D0  7538 0001:000120DB  7539 0001:000120EB
  7540 0001:000120F6  7545 0001:0001210A  7546 0001:00012149  7557 0001:0001216C
  7558 0001:00012197  7559 0001:0001219A  7560 0001:000121A0  7564 0001:000121CC
  7567 0001:000121D9  7568 0001:000121DE  7569 0001:000121E0  7570 0001:000121EB
  7571 0001:000121F0  7572 0001:00012204  7573 0001:0001220C  7577 0001:0001223B
  7579 0001:00012244  7580 0001:00012252  7581 0001:0001225D  7582 0001:0001226C
  7583 0001:00012278  7587 0001:0001228C  7588 0001:000122C1  7594 0001:000122E4
  7595 0001:000122ED  7596 0001:000122F0  7597 0001:000122F9  7599 0001:00012319
  7600 0001:00012327  7604 0001:0001234C  7605 0001:0001234D  7606 0001:00012350
  7607 0001:00012356  7609 0001:0001235E  7610 0001:0001236C  7620 0001:00012388
  7621 0001:000123B3  7622 0001:000123B6  7623 0001:000123BF  7626 0001:000123EB
  7629 0001:000123F8  7631 0001:000123FE  7632 0001:00012414  7636 0001:00012422
  7637 0001:0001242A  7639 0001:00012430  7640 0001:00012437  7641 0001:0001243B
  7642 0001:0001244B  7644 0001:00012466  7647 0001:00012497  7649 0001:000124A6
  7650 0001:000124B4  7651 0001:000124BF  7652 0001:000124CE  7653 0001:000124D9
  7657 0001:000124ED  7658 0001:0001252C  7668 0001:00012554  7669 0001:00012583
  7670 0001:00012589  7671 0001:00012592  7675 0001:000125BC  7678 0001:000125C9
  7679 0001:000125CE  7680 0001:000125D0  7681 0001:000125DB  7682 0001:000125E0
  7683 0001:000125F4  7685 0001:000125FC  7686 0001:00012601  7687 0001:00012603
  7688 0001:0001260E  7689 0001:00012613  7690 0001:00012627  7692 0001:0001262F
  7698 0001:0001265E  7700 0001:0001266D  7701 0001:0001267B  7702 0001:00012686
  7703 0001:00012695  7704 0001:000126A0  7707 0001:000126B2  7709 0001:000126C1
  7710 0001:000126CF  7711 0001:000126DA  7712 0001:000126E9  7713 0001:000126F4
  7717 0001:00012708  7718 0001:00012749  7722 0001:00012768  7723 0001:00012770
  7724 0001:00012773  7725 0001:00012779  7727 0001:0001278A  7729 0001:00012793
  7730 0001:00012799  7732 0001:000127AC  7733 0001:000127B2  7735 0001:000127C5
  7738 0001:000127D3  7739 0001:000127E1  7749 0001:000127FC  7750 0001:00012827
  7751 0001:0001282A  7752 0001:00012830  7756 0001:00012857  7759 0001:00012864
  7760 0001:00012871  7761 0001:0001288F  7762 0001:00012894  7763 0001:00012896
  7764 0001:000128A6  7765 0001:000128AB  7766 0001:000128C4  7768 0001:000128CC
  7772 0001:000128FB  7774 0001:00012904  7775 0001:0001290F  7776 0001:0001291A
  7777 0001:0001292C  7781 0001:00012940  7782 0001:0001297F  7788 0001:0001299C
  7789 0001:000129BD  7790 0001:000129C0  7791 0001:000129C6  7793 0001:000129D6
  7796 0001:000129DF  7797 0001:000129F5  7800 0001:00012A0D  7801 0001:00012A42
  7805 0001:00012A64  7806 0001:00012A65  7807 0001:00012A68  7808 0001:00012A6E
  7810 0001:00012A76  7811 0001:00012A84  7816 0001:00012A9C  7817 0001:00012AA5
  7818 0001:00012AA8  7819 0001:00012AB1  7821 0001:00012ACD  7822 0001:00012ADB
  7826 0001:00012B00  7827 0001:00012B01  7828 0001:00012B04  7829 0001:00012B0D
  7831 0001:00012B18  7832 0001:00012B26  7836 0001:00012B3C  7837 0001:00012B45
  7838 0001:00012B48  7839 0001:00012B51  7841 0001:00012B62  7842 0001:00012B70
  7854 0001:00012B90  7855 0001:00012BBB  7856 0001:00012BBE  7857 0001:00012BC7
  7865 0001:00012C0B  7868 0001:00012C18  7869 0001:00012C2E  7870 0001:00012C44
  7871 0001:00012C5A  7872 0001:00012C70  7873 0001:00012C86  7875 0001:00012C9C
  7884 0001:00012CFB  7885 0001:00012D3A  7889 0001:00012D5C  7890 0001:00012D5D
  7891 0001:00012D60  7892 0001:00012D69  7894 0001:00012D74  7895 0001:00012D82
  7899 0001:00012D9C  7900 0001:00012D9D  7901 0001:00012DA0  7902 0001:00012DA9
  7904 0001:00012DB4  7905 0001:00012DC2  7911 0001:00012DD8  7912 0001:00012DDB
  7913 0001:00012DEA  7916 0001:00012E0E  7918 0001:00012E26  7920 0001:00012E40
  7922 0001:00012E5A  7924 0001:00012E78  7927 0001:00012E8A  7929 0001:00012EA4
  7930 0001:00012EB4  7931 0001:00012EBA  7933 0001:00012ED3  7934 0001:00012EDB
  7935 0001:00012EE9  7936 0001:00012EF2  7939 0001:00012EF9  7941 0001:00012F0C
  7945 0001:00012F1C  7946 0001:00012F27  7950 0001:00012F2C  7951 0001:00012F2D
  7952 0001:00012F30  7953 0001:00012F39  7955 0001:00012F45  7956 0001:00012F53
  7966 0001:00012F6C  7967 0001:00012F96  7968 0001:00012F99  7969 0001:00012FA2
  7972 0001:00012FC0  7975 0001:00012FCD  7976 0001:00012FE6  7978 0001:00012FEC
  7979 0001:00012FF6  7980 0001:00013009  7981 0001:00013014  7984 0001:0001301D
  7986 0001:00013023  7989 0001:0001303C  7991 0001:00013046  7992 0001:00013053
  7993 0001:0001305E  7994 0001:0001306A  7995 0001:00013075  7999 0001:0001308C
  8001 0001:000130A2  8004 0001:000130CF  8006 0001:000130D5  8007 0001:000130E2
  8008 0001:000130FB  8011 0001:00013108  8012 0001:0001310E  8013 0001:00013122
  8014 0001:00013128  8017 0001:00013137  8018 0001:0001316C  8023 0001:00013194
  8024 0001:0001319C  8025 0001:0001319F  8026 0001:000131A8  8028 0001:000131BE
  8030 0001:000131C7  8032 0001:000131DA  8034 0001:000131EC  8044 0001:0001320D
  8046 0001:00013229  8050 0001:00013242  8051 0001:00013250  8060 0001:00013274
  8061 0001:0001329E  8062 0001:000132A1  8063 0001:000132AA  8066 0001:000132C4
  8069 0001:000132D1  8070 0001:000132E5  8072 0001:000132EB  8073 0001:000132F8
  8074 0001:0001330B  8077 0001:00013315  8079 0001:0001331D  8082 0001:00013337
  8084 0001:0001333D  8085 0001:0001334B  8086 0001:00013356  8090 0001:0001336A
  8091 0001:0001339F  8097 0001:000133C4  8098 0001:000133CD  8099 0001:000133D0
  8100 0001:000133D9  8103 0001:000133FA  8104 0001:00013408  8114 0001:00013424
  8115 0001:0001344F  8116 0001:00013452  8117 0001:0001345B  8120 0001:0001347F
  8123 0001:0001348C  8124 0001:0001349F  8126 0001:000134A5  8127 0001:000134AF
  8128 0001:000134C2  8129 0001:000134C9  8132 0001:000134D3  8134 0001:000134D6
  8137 0001:000134F2  8139 0001:00013500  8140 0001:0001350D  8141 0001:00013518
  8142 0001:00013524  8143 0001:0001352E  8147 0001:00013542  8148 0001:00013577
  8157 0001:00013598  8158 0001:000135C3  8159 0001:000135C6  8160 0001:000135CF
  8165 0001:00013606  8168 0001:00013613  8170 0001:00013618  8171 0001:00013625
  8175 0001:0001363A  8176 0001:00013642  8178 0001:00013644  8180 0001:0001364C
  8185 0001:00013683  8187 0001:0001368C  8188 0001:0001369A  8189 0001:000136A5
  8193 0001:000136B9  8194 0001:000136EE  8203 0001:00013710  8204 0001:0001373B
  8205 0001:0001373E  8206 0001:00013747  8209 0001:00013770  8212 0001:0001377D
  8214 0001:00013782  8215 0001:0001378F  8219 0001:000137A4  8220 0001:000137AC
  8222 0001:000137AE  8224 0001:000137B6  8227 0001:000137DA  8229 0001:000137E3
  8230 0001:000137F1  8231 0001:000137FC  8235 0001:00013810  8236 0001:00013845
  8245 0001:00013868  8246 0001:00013894  8247 0001:00013897  8248 0001:000138A0
  8252 0001:000138CC  8255 0001:000138D9  8256 0001:000138E6  8257 0001:00013901
  8258 0001:00013906  8259 0001:00013908  8260 0001:00013918  8261 0001:0001391D
  8262 0001:00013938  8264 0001:00013940  8268 0001:00013976  8270 0001:0001397F
  8271 0001:0001398A  8272 0001:00013995  8273 0001:000139A7  8277 0001:000139BB
  8278 0001:000139FA  8283 0001:00013A1C  8284 0001:00013A24  8285 0001:00013A27
  8286 0001:00013A30  8288 0001:00013A4B  8289 0001:00013A59  8294 0001:00013A78
  8295 0001:00013A82  8296 0001:00013A93  8298 0001:00013A9D  8299 0001:00013A9F
  8303 0001:00013AA4  8304 0001:00013AB5  8305 0001:00013ABE  8307 0001:00013ACC
  8311 0001:00013ACF  8316 0001:00013ADE  8317 0001:00013AE0  8318 0001:00013AE5
  8321 0001:00013CB2  8322 0001:00013CBC  8326 0001:00013CC6  8327 0001:00013CD0
  8331 0001:00013CDA  8332 0001:00013CE4  8336 0001:00013CEE  8337 0001:00013CF8
  8341 0001:00013D02  8342 0001:00013D0C  8346 0001:00013D16  8347 0001:00013D20
  8351 0001:00013D2A  8352 0001:00013D34  8356 0001:00013D3E  8357 0001:00013D48
  8361 0001:00013D52  8362 0001:00013D65  8366 0001:00013D6F  8367 0001:00013D82
  8371 0001:00013D8C  8372 0001:00013D9F  8376 0001:00013DA9  8377 0001:00013DB3
  8381 0001:00013DBD  8382 0001:00013DD0  8386 0001:00013DDA  8387 0001:00013DED
  8391 0001:00013DF7  8392 0001:00013E01  8396 0001:00013E0B  8397 0001:00013E15
  8401 0001:00013E1F  8402 0001:00013E32  8406 0001:00013E3C  8407 0001:00013E4F
  8411 0001:00013E59  8412 0001:00013E63  8416 0001:00013E6D  8417 0001:00013E7A
  8421 0001:00013E84  8422 0001:00013E91  8426 0001:00013E9B  8427 0001:00013EA8
  8431 0001:00013EB2  8432 0001:00013EBF  8436 0001:00013EC9  8437 0001:00013ED6
  8441 0001:00013EE0  8442 0001:00013EED  8446 0001:00013EF7  8447 0001:00013F0D
  8451 0001:00013F17  8452 0001:00013F2D  8456 0001:00013F37  8457 0001:00013F4D
  8461 0001:00013F57  8462 0001:00013F64  8466 0001:00013F6E  8467 0001:00013F84
  8471 0001:00013F8E  8472 0001:00013FA4  8476 0001:00013FAE  8477 0001:00013FC4
  8481 0001:00013FCE  8482 0001:00013FE4  8486 0001:00013FEE  8487 0001:00013FFB
  8491 0001:00014005  8492 0001:00014012  8496 0001:0001401C  8497 0001:00014032
  8501 0001:0001403C  8502 0001:00014052  8506 0001:0001405C  8507 0001:00014069
  8511 0001:00014073  8512 0001:00014089  8516 0001:00014093  8517 0001:000140A0
  8521 0001:000140AA  8522 0001:000140B7  8526 0001:000140C1  8527 0001:000140D7
  8531 0001:000140E1  8532 0001:000140EE  8536 0001:000140F8  8537 0001:0001410E
  8541 0001:00014118  8542 0001:0001412E  8546 0001:00014138  8547 0001:0001414E
  8551 0001:00014158  8552 0001:0001416E  8556 0001:00014178  8557 0001:0001418E
  8561 0001:00014198  8562 0001:000141A5  8566 0001:000141AF  8567 0001:000141BC
  8571 0001:000141C6  8572 0001:000141D3  8576 0001:000141DD  8577 0001:000141F3
  8581 0001:000141FD  8582 0001:0001420A  8586 0001:00014214  8587 0001:0001422A
  8591 0001:00014234  8592 0001:0001424A  8596 0001:00014254  8597 0001:0001426A
  8601 0001:00014274  8602 0001:00014281  8607 0001:0001428B  8608 0001:00014298
  8612 0001:000142A2  8613 0001:000142AF  8617 0001:000142B9  8618 0001:000142C6
  8622 0001:000142D0  8623 0001:000142E6  8628 0001:000142F0  8629 0001:00014306
  8633 0001:00014310  8634 0001:0001431D  8638 0001:00014327  8639 0001:0001433D
  8643 0001:00014347  8644 0001:0001435D  8648 0001:00014367  8649 0001:00014374
  8653 0001:0001437E  8654 0001:00014394  8658 0001:0001439E  8659 0001:000143AB
  8663 0001:000143B5  8664 0001:000143CB  8668 0001:000143D5  8669 0001:000143E2
  8673 0001:000143EC  8674 0001:000143F9  8678 0001:00014403  8679 0001:00014415
  8683 0001:0001441C  8684 0001:0001442E  8688 0001:00014435  8689 0001:00014447
  8693 0001:0001444E  8694 0001:00014457  8698 0001:0001445E  8699 0001:00014470
  8703 0001:00014477  8704 0001:00014489  8708 0001:0001448E  8718 0001:00014498
  8719 0001:000144C3  8720 0001:000144C6  8721 0001:000144CF  8723 0001:000144EE
  8726 0001:000144FB  8727 0001:00014510  8729 0001:00014516  8730 0001:0001451B
  8732 0001:0001451F  8733 0001:00014525  8734 0001:00014532  8735 0001:00014537
  8737 0001:00014548  8738 0001:00014550  8741 0001:0001455A  8743 0001:0001455D
  8747 0001:00014574  8749 0001:00014583  8750 0001:00014598  8751 0001:000145A3
  8752 0001:000145B2  8753 0001:000145BD  8757 0001:000145D1  8758 0001:00014606
  8763 0001:00014624  8764 0001:00014628  8767 0001:00014635  8772 0001:0001463C
  8773 0001:00014640  8776 0001:0001464D  8781 0001:00014654  8782 0001:00014658
  8785 0001:0001466A  8795 0001:00014670  8796 0001:0001469A  8797 0001:0001469D
  8798 0001:000146A6  8801 0001:000146C4  8804 0001:000146D1  8805 0001:000146EA
  8807 0001:000146F0  8808 0001:000146FB  8809 0001:0001470F  8810 0001:00014713
  8813 0001:0001471D  8815 0001:00014720  8819 0001:00014736  8821 0001:00014741
  8822 0001:0001474B  8823 0001:00014756  8824 0001:00014763  8825 0001:0001476F
  8829 0001:00014783  8832 0001:0001478B  8833 0001:00014792  8836 0001:00014796
  8838 0001:000147CB  8842 0001:000147EC  8843 0001:000147F5  8844 0001:000147F8
  8845 0001:00014801  8847 0001:00014815  8848 0001:00014823  8852 0001:00014848
  8853 0001:00014849  8854 0001:0001484C  8855 0001:00014855  8857 0001:00014861
  8859 0001:0001486A  8861 0001:00014876  8862 0001:00014884  8867 0001:000148A0
  8868 0001:000148A9  8871 0001:000148B1  8872 0001:000148B5  8880 0001:000148B8
  8881 0001:000148E3  8882 0001:000148E6  8883 0001:000148EF  8887 0001:00014911
  8890 0001:0001491E  8891 0001:00014934  8893 0001:0001493A  8894 0001:00014945
  8897 0001:0001495B  8898 0001:00014963  8900 0001:00014967  8904 0001:0001498E
  8906 0001:00014993  8907 0001:0001499D  8908 0001:000149A8  8912 0001:000149BC
  8913 0001:000149FB  8917 0001:00014A1C  8918 0001:00014A1D  8919 0001:00014A20
  8920 0001:00014A29  8922 0001:00014A35  8923 0001:00014A43  8927 0001:00014A60
  8928 0001:00014A61  8929 0001:00014A64  8930 0001:00014A6D  8932 0001:00014A79
  8933 0001:00014A87  8937 0001:00014AA8  8938 0001:00014AA9  8939 0001:00014AAC
  8940 0001:00014AB5  8942 0001:00014AC1  8943 0001:00014ACF  8947 0001:00014AEC
  8948 0001:00014AF4  8949 0001:00014AF7  8950 0001:00014B00  8952 0001:00014B13
  8953 0001:00014B21  8959 0001:00014B40  8960 0001:00014B61  8961 0001:00014B64
  8962 0001:00014B6D  8964 0001:00014B80  8967 0001:00014B89  8968 0001:00014B9F
  8971 0001:00014BB7  8972 0001:00014BEC  8980 0001:00014C0C  8981 0001:00014C35
  8982 0001:00014C38  8983 0001:00014C41  8988 0001:00014C6A  8991 0001:00014C77
  8993 0001:00014C7B  8994 0001:00014C90  8996 0001:00014C9A  8998 0001:00014CA0
  8999 0001:00014CB6  9001 0001:00014CC1  9003 0001:00014CC7  9004 0001:00014CDD
  9007 0001:00014CE8  9013 0001:00014D0E  9014 0001:00014D4D  9023 0001:00014D70
  9024 0001:00014D9B  9025 0001:00014D9E  9026 0001:00014DA7  9032 0001:00014DD9
  9035 0001:00014DE6  9037 0001:00014DEA  9038 0001:00014DFF  9041 0001:00014E09
  9043 0001:00014E0F  9044 0001:00014E25  9047 0001:00014E30  9049 0001:00014E36
  9050 0001:00014E4C  9053 0001:00014E57  9055 0001:00014E5D  9056 0001:00014E73
  9059 0001:00014E7E  9066 0001:00014EAD  9067 0001:00014EEC  9075 0001:00014F14
  9076 0001:00014F3D  9077 0001:00014F40  9078 0001:00014F49  9083 0001:00014F72
  9086 0001:00014F7F  9088 0001:00014F83  9089 0001:00014F98  9091 0001:00014FA2
  9093 0001:00014FA8  9094 0001:00014FBE  9096 0001:00014FC9  9098 0001:00014FCF
  9099 0001:00014FE5  9102 0001:00014FF0  9108 0001:00015016  9109 0001:00015055
  9113 0001:00015078  9114 0001:00015080  9115 0001:00015083  9116 0001:0001508C
  9118 0001:0001509F  9119 0001:000150AD  9123 0001:000150C8  9124 0001:000150C9
  9125 0001:000150CC  9126 0001:000150D5  9128 0001:000150E1  9129 0001:000150EF
  9137 0001:00015108  9138 0001:00015135  9139 0001:00015138  9140 0001:00015141
  9142 0001:00015158  9145 0001:00015161  9146 0001:00015174  9148 0001:00015178
  9149 0001:0001518D  9150 0001:00015197  9152 0001:0001519C  9155 0001:000151B0
  9157 0001:000151C2  9160 0001:000151D5  9161 0001:0001520A  9166 0001:00015230
  9167 0001:00015239  9168 0001:0001523C  9169 0001:00015245  9171 0001:00015259
  9173 0001:00015262  9175 0001:00015276  9176 0001:00015284  9182 0001:000152A8
  9183 0001:000152C9  9184 0001:000152CC  9185 0001:000152D5  9187 0001:000152E9
  9190 0001:000152F2  9192 0001:000152F6  9193 0001:0001530B  9195 0001:00015315
  9198 0001:00015329  9199 0001:0001535E  9206 0001:00015384  9207 0001:000153AF
  9208 0001:000153B2  9209 0001:000153BB  9211 0001:000153D8  9214 0001:000153E1
  9216 0001:000153E5  9217 0001:000153FA  9219 0001:00015404  9222 0001:00015421
  9223 0001:00015456  9229 0001:00015478  9230 0001:00015481  9231 0001:00015484
  9232 0001:0001548D  9235 0001:000154C1  9236 0001:000154CF  9241 0001:000154F0
  9242 0001:000154F8  9243 0001:000154FB  9244 0001:00015504  9246 0001:0001551B
  9247 0001:00015529  9253 0001:00015548  9254 0001:00015551  9255 0001:00015554
  9256 0001:0001555D  9259 0001:00015588  9260 0001:00015596  9264 0001:000155B0
  9265 0001:000155B9  9266 0001:000155BC  9267 0001:000155C5  9269 0001:000155DF
  9270 0001:000155ED  9275 0001:00015608  9276 0001:00015611  9277 0001:00015614
  9278 0001:0001561D  9280 0001:00015636  9281 0001:00015644  9290 0001:00015668
  9291 0001:00015692  9292 0001:00015695  9293 0001:0001569E  9295 0001:000156B8
  9298 0001:000156C1  9299 0001:000156D1  9301 0001:000156D5  9302 0001:000156EA
  9305 0001:000156F4  9306 0001:000156F6  9309 0001:0001570D  9318 0001:00015716
  9321 0001:0001571E  9324 0001:00015723  9328 0001:00015736  9329 0001:0001576B
  9333 0001:0001578C  9334 0001:00015795  9335 0001:00015798  9336 0001:000157A1
  9338 0001:000157B5  9339 0001:000157C3  9348 0001:000157E8  9349 0001:00015818
  9350 0001:0001581B  9351 0001:00015824  9357 0001:0001585C  9360 0001:00015869
  9362 0001:0001586D  9364 0001:00015882  9366 0001:0001588C  9368 0001:00015892
  9370 0001:000158A8  9372 0001:000158B3  9374 0001:000158B9  9376 0001:000158CF
  9379 0001:000158DA  9386 0001:0001590F  9387 0001:0001594E  9395 0001:00015974
  9396 0001:0001599D  9397 0001:000159A0  9398 0001:000159A9  9404 0001:000159DC
  9407 0001:000159E9  9409 0001:000159ED  9410 0001:00015A02  9411 0001:00015A08
  9414 0001:00015A14  9415 0001:00015A1A  9417 0001:00015A20  9418 0001:00015A36
  9419 0001:00015A3C  9422 0001:00015A49  9423 0001:00015A4F  9425 0001:00015A55
  9426 0001:00015A6B  9427 0001:00015A71  9430 0001:00015A7E  9432 0001:00015A84
  9439 0001:00015AB4  9440 0001:00015AF3  9448 0001:00015B14  9449 0001:00015B3D
  9450 0001:00015B40  9451 0001:00015B49  9456 0001:00015B72  9459 0001:00015B7F
  9461 0001:00015B94  9463 0001:00015BA0  9465 0001:00015BB6  9467 0001:00015BC5
  9469 0001:00015BDB  9471 0001:00015BEA  9477 0001:00015C10  9478 0001:00015C4F
  9486 0001:00015C74  9487 0001:00015C9F  9488 0001:00015CA2  9489 0001:00015CAB
  9495 0001:00015CDD  9498 0001:00015CEA  9500 0001:00015CEE  9501 0001:00015D03
  9502 0001:00015D09  9505 0001:00015D15  9506 0001:00015D1B  9508 0001:00015D21
  9509 0001:00015D37  9510 0001:00015D3D  9513 0001:00015D4A  9514 0001:00015D50
  9516 0001:00015D56  9517 0001:00015D6C  9518 0001:00015D72  9521 0001:00015D7F
  9522 0001:00015D85  9524 0001:00015D8B  9525 0001:00015DA1  9526 0001:00015DA7
  9529 0001:00015DB4  9531 0001:00015DBA  9538 0001:00015DE9  9539 0001:00015E28
  9543 0001:00015E48  9544 0001:00015E50  9545 0001:00015E53  9546 0001:00015E5C
  9548 0001:00015E70  9549 0001:00015E7E  9554 0001:00015E98  9555 0001:00015E9C
  9556 0001:00015E9F  9557 0001:00015EA8  9559 0001:00015EB2  9560 0001:00015EC5
  9563 0001:00015EE4  9564 0001:00015EEC  9565 0001:00015EEF  9566 0001:00015EF8
  9568 0001:00015F0B  9569 0001:00015F1C  9573 0001:00015F40  9574 0001:00015F49
  9576 0001:00015F52  9577 0001:00015F61  9580 0001:00015F78  9581 0001:00015F7C
  9582 0001:00015F7F  9583 0001:00015F88  9585 0001:00015F92  9586 0001:00015FA5
  9589 0001:00015FC0  9590 0001:00015FC1  9591 0001:00015FC4  9592 0001:00015FCD
  9594 0001:00015FD8  9595 0001:00015FE9  9599 0001:00016004  9600 0001:0001600D
  9602 0001:00016015  9603 0001:00016024  9608 0001:00016044  9609 0001:00016048
  9610 0001:0001604B  9611 0001:00016054  9613 0001:0001605E  9614 0001:00016071
  9617 0001:00016090  9618 0001:00016097  9619 0001:00016099  9620 0001:000160A2
  9622 0001:000160B1  9623 0001:000160C4  9629 0001:000160E4  9630 0001:000160ED
  9634 0001:000160F0  9635 0001:000160F9  9638 0001:000160FC  9639 0001:000160FF
  9640 0001:00016109  9641 0001:0001611D  9643 0001:00016124  9644 0001:00016126
  9648 0001:00016128  9649 0001:0001612F  9653 0001:00016130  9654 0001:00016137
  9657 0001:00016138  9658 0001:0001613C  9659 0001:00016148  9663 0001:00016150
  9664 0001:00016159  9667 0001:0001615C  9668 0001:00016160  9669 0001:0001616C
  9673 0001:00016174  9674 0001:0001617D  9679 0001:00016180  9680 0001:0001618A
  9682 0001:00016193  9689 0001:000161AE  9690 0001:000161B6  9691 0001:000161C4
  9693 0001:000161D7  9699 0001:000161E7  9701 0001:000161F0  9702 0001:000161F8
  9703 0001:00016206  9705 0001:00016219  9709 0001:00016229  9712 0001:00016230
  9714 0001:00016237  9716 0001:0001623D  9717 0001:0001624E  9719 0001:00016251
  9721 0001:00016262  9725 0001:0001626C  9735 0001:00016270  9736 0001:00016276
  9738 0001:0001628C  9742 0001:000162C0  9744 0001:000162C6  9745 0001:000162CD
  9749 0001:000162D7  9752 0001:000162DC  9754 0001:000162DF  9755 0001:000162E6
  9759 0001:000162EE  9762 0001:000162F0  9764 0001:000162F6  9765 0001:000162FD
  9769 0001:00016307  9772 0001:0001630C  9774 0001:00016315  9775 0001:0001631C
  9779 0001:00016328  9782 0001:0001632C  9784 0001:00016335  9785 0001:0001633C
  9789 0001:00016348  9792 0001:0001634C  9794 0001:00016355  9795 0001:0001635C
  9799 0001:0001636A  9802 0001:00016370  9804 0001:00016376  9805 0001:0001637D
  9809 0001:00016389  9812 0001:0001638C  9814 0001:00016392  9815 0001:00016399
  9819 0001:000163A5  9822 0001:000163A8  9824 0001:000163B4  9825 0001:000163BB
  9829 0001:000163CC  9832 0001:000163D4  9834 0001:000163DD  9835 0001:000163E4
  9839 0001:000163F0  9842 0001:000163F4  9844 0001:00016400  9845 0001:00016407
  9849 0001:00016418  9852 0001:00016420  9854 0001:00016429  9855 0001:00016430
  9859 0001:0001643C  9863 0001:00016440  9865 0001:00016449  9866 0001:00016450
  9870 0001:0001645C  9873 0001:00016460  9875 0001:00016466  9876 0001:0001646D
  9880 0001:00016477  9884 0001:0001647C  9886 0001:00016488  9887 0001:0001648F
  9891 0001:0001649F  9895 0001:000164A8  9897 0001:000164B4  9898 0001:000164BB
  9902 0001:000164CB  9906 0001:000164D4  9908 0001:000164DD  9909 0001:000164E4
  9913 0001:000164F0  9919 0001:000164F4  9921 0001:00016500  9922 0001:00016507
  9928 0001:00016524  9934 0001:0001652C  9936 0001:00016538  9937 0001:0001653F
  9943 0001:00016566  9949 0001:00016570  9951 0001:0001657C  9952 0001:00016583
  9958 0001:000165B3  9964 0001:000165BC  9966 0001:000165C8  9967 0001:000165CF
  9973 0001:000165ED  9977 0001:000165F4  9979 0001:000165FD  9980 0001:00016604
  9984 0001:00016610  9987 0001:00016614  9989 0001:0001661A  9990 0001:00016621
  9994 0001:0001662B  9997 0001:00016630  9999 0001:00016636 10000 0001:0001663D
 10004 0001:00016647 10010 0001:0001664C 10012 0001:00016658 10013 0001:0001665F
 10019 0001:00016681 10025 0001:00016688 10027 0001:00016694 10028 0001:0001669B
 10034 0001:000166BD 10039 0001:000166C4 10041 0001:000166D0 10042 0001:000166D7
 10048 0001:000166F9 10054 0001:00016700 10056 0001:0001670C 10057 0001:00016713
 10063 0001:00016735 10070 0001:0001673C 10072 0001:00016748 10073 0001:0001674F
 10079 0001:0001677B 10085 0001:00016784 10087 0001:00016790 10088 0001:00016797
 10094 0001:000167C3 10100 0001:000167CC 10102 0001:000167D8 10103 0001:000167DF
 10109 0001:00016802 10112 0001:0001680C 10114 0001:00016815 10115 0001:0001681C
 10119 0001:00016828 10126 0001:0001682C 10128 0001:00016838 10129 0001:0001683F
 10135 0001:00016865 10142 0001:0001686C 10144 0001:00016878 10145 0001:0001687F
 10151 0001:000168A8 10157 0001:000168B0 10159 0001:000168BC 10160 0001:000168C3
 10166 0001:000168DF 10169 0001:000168E8 10171 0001:000168EE 10172 0001:000168F5
 10176 0001:000168FF 10183 0001:00016904 10185 0001:00016910 10186 0001:00016917
 10192 0001:0001693E 10199 0001:00016948 10201 0001:00016954 10202 0001:0001695B
 10208 0001:00016981 10212 0001:00016988 10214 0001:00016994 10215 0001:0001699B
 10219 0001:000169AC 10226 0001:000169B4 10228 0001:000169C0 10229 0001:000169C7
 10235 0001:000169EC 10239 0001:000169F4 10241 0001:00016A00 10242 0001:00016A07
 10246 0001:00016A17 10249 0001:00016A20 10251 0001:00016A26 10252 0001:00016A2D
 10256 0001:00016A37 10261 0001:00016A3C 10263 0001:00016A48 10264 0001:00016A4F
 10268 0001:00016A67 10271 0001:00016A70 10273 0001:00016A76 10274 0001:00016A7D
 10278 0001:00016A87 10282 0001:00016A8C 10284 0001:00016A98 10285 0001:00016A9F
 10289 0001:00016AAF 10298 0001:00016AB8 10300 0001:00016AC4 10301 0001:00016ACB
 10309 0001:00016B09 10312 0001:00016B10 10314 0001:00016B16 10315 0001:00016B1D
 10319 0001:00016B27 10322 0001:00016B2C 10324 0001:00016B32 10325 0001:00016B39
 10329 0001:00016B43 10332 0001:00016B48 10334 0001:00016B51 10335 0001:00016B58
 10339 0001:00016B64 10342 0001:00016B68 10344 0001:00016B71 10345 0001:00016B78
 10349 0001:00016B84 10353 0001:00016B88 10355 0001:00016B91 10356 0001:00016B98
 10360 0001:00016BA4 10365 0001:00016BA8 10367 0001:00016BB4 10368 0001:00016BBB
 10374 0001:00016BD3 10378 0001:00016BDC 10380 0001:00016BE8 10381 0001:00016BEF
 10385 0001:00016BFF 10390 0001:00016C08 10392 0001:00016C14 10393 0001:00016C1B
 10397 0001:00016C30 10403 0001:00016C38 10405 0001:00016C44 10406 0001:00016C4B
 10412 0001:00016C68 10417 0001:00016C70 10419 0001:00016C7C 10420 0001:00016C83
 10426 0001:00016CA0 10432 0001:00016CA8 10434 0001:00016CB4 10435 0001:00016CBB
 10441 0001:00016CEC 10447 0001:00016CF4 10449 0001:00016D00 10450 0001:00016D07
 10456 0001:00016D2A 10462 0001:00016D34 10464 0001:00016D40 10465 0001:00016D47
 10471 0001:00016D6D 10476 0001:00016D74 10478 0001:00016D80 10479 0001:00016D87
 10485 0001:00016D9F 10489 0001:00016DA8 10491 0001:00016DB4 10492 0001:00016DBB
 10496 0001:00016DCB 10501 0001:00016DD4 10503 0001:00016DE0 10504 0001:00016DE7
 10510 0001:00016E00 10515 0001:00016E08 10517 0001:00016E14 10518 0001:00016E1B
 10524 0001:00016E34 10529 0001:00016E3C 10531 0001:00016E48 10532 0001:00016E4F
 10538 0001:00016E68 10543 0001:00016E70 10545 0001:00016E7C 10546 0001:00016E83
 10552 0001:00016E9C 10557 0001:00016EA4 10559 0001:00016EB0 10560 0001:00016EB7
 10566 0001:00016ECF 10570 0001:00016ED8 10572 0001:00016EE4 10573 0001:00016EEB
 10577 0001:00016EFB 10581 0001:00016F04 10583 0001:00016F0D 10584 0001:00016F14
 10588 0001:00016F20 10591 0001:00016F24 10593 0001:00016F2A 10594 0001:00016F31
 10598 0001:00016F3B 10603 0001:00016F40 10605 0001:00016F4C 10606 0001:00016F53
 10612 0001:00016F6F 10615 0001:00016F78 10617 0001:00016F81 10618 0001:00016F88
 10622 0001:00016F94 10626 0001:00016F98 10628 0001:00016FA1 10629 0001:00016FA8
 10633 0001:00016FB4 10636 0001:00016FB8 10638 0001:00016FC1 10639 0001:00016FC8
 10643 0001:00016FD4 10647 0001:00016FD8 10649 0001:00016FE4 10650 0001:00016FEB
 10654 0001:00016FFB 10658 0001:00017004 10660 0001:00017010 10661 0001:00017017
 10665 0001:00017027 10671 0001:00017030 10673 0001:0001703C 10674 0001:00017043
 10680 0001:00017066 10687 0001:00017070 10689 0001:0001707C 10690 0001:00017083
 10696 0001:000170AF 10702 0001:000170B8 10704 0001:000170C4 10705 0001:000170CB
 10711 0001:000170EE 10715 0001:000170F8 10717 0001:00017104 10718 0001:0001710B
 10722 0001:0001711B 10726 0001:00017124 10728 0001:0001712D 10729 0001:00017134
 10733 0001:00017140 10738 0001:00017144 10740 0001:00017150 10741 0001:00017157
 10745 0001:0001716B 10749 0001:00017174 10751 0001:00017180 10752 0001:00017187
 10756 0001:00017197 10760 0001:000171A0 10762 0001:000171AC 10763 0001:000171B3
 10767 0001:000171C4 10772 0001:000171CC 10774 0001:000171D8 10775 0001:000171DF
 10781 0001:000171F8 10787 0001:00017200 10789 0001:0001720C 10790 0001:00017213
 10796 0001:00017243 10801 0001:0001724C 10803 0001:00017258 10804 0001:0001725F
 10808 0001:00017273 10814 0001:0001727C 10816 0001:00017288 10817 0001:0001728F
 10823 0001:000172B6 10827 0001:000172C0 10829 0001:000172CC 10830 0001:000172D3
 10834 0001:000172E9 10839 0001:000172F0 10841 0001:000172FC 10842 0001:00017303
 10846 0001:00017318 10851 0001:00017320 10853 0001:0001732C 10854 0001:00017333
 10858 0001:00017347 10862 0001:00017350 10864 0001:0001735C 10865 0001:00017363
 10869 0001:00017373 10876 0001:0001737C 10878 0001:00017388 10879 0001:0001738F
 10885 0001:000173C0 10891 0001:000173C8 10893 0001:000173D4 10894 0001:000173DB
 10900 0001:00017408 10906 0001:00017410 10908 0001:0001741C 10909 0001:00017423
 10915 0001:00017446 10921 0001:00017450 10923 0001:0001745C 10924 0001:00017463
 10930 0001:0001748F 10934 0001:00017498 10936 0001:000174A4 10937 0001:000174AB
 10941 0001:000174BC 10944 0001:000174C4 10946 0001:000174C7 10947 0001:000174CE
 10951 0001:000174D6 10954 0001:000174D8 10956 0001:000174E4 10957 0001:000174EB
 10961 0001:000174FB 10964 0001:00017504 10966 0001:0001750D 10967 0001:00017514
 10971 0001:00017520 10974 0001:00017524 10976 0001:00017527 10977 0001:0001752E
 10981 0001:00017536 10984 0001:00017538 10986 0001:0001753E 10987 0001:00017545
 10991 0001:0001754F 11003 0001:00017554 11007 0001:00017596 10995 0001:00017598
 10997 0001:000175A1 11001 0001:000175B7

Line numbers for DbxOpenOdbcDbx3Types(DbxOpenOdbcDbx3Types.pas) segment .text

  1284 0001:000187CC  1286 0001:000187D3  1288 0001:000187DB  1292 0001:00018810
  1292 0001:00018817

Line numbers for DbxOpenOdbcInterface(DbxOpenOdbcInterface.pas) segment .text

   552 0001:0001A3FC   553 0001:0001A405   554 0001:0001A414   555 0001:0001A41A
   556 0001:0001A41D   560 0001:0001A424   561 0001:0001A42B   565 0001:0001A42C
   566 0001:0001A433   570 0001:0001A434   571 0001:0001A43B   575 0001:0001A43C
   576 0001:0001A443   579 0001:0001A444   580 0001:0001A450   581 0001:0001A45F
   583 0001:0001A4D4   583 0001:0001A4DB

Line numbers for DbxOpenOdbcTrace(DbxOpenOdbcTrace.pas) segment .text

   214 0001:0001B69C   215 0001:0001B6B9   216 0001:0001B6C0   217 0001:0001B6CD
   219 0001:0001B6DB   224 0001:0001B72E   256 0001:0001B76C   257 0001:0001B784
   258 0001:0001B7C9   280 0001:0001B7D0   281 0001:0001B7E8   282 0001:0001B838
   310 0001:0001B880   311 0001:0001B883   312 0001:0001B887   314 0001:0001B895
   315 0001:0001B8A1   320 0001:0001B8C4   321 0001:0001B916   322 0001:0001B91D
   324 0001:0001B926   326 0001:0001B934   328 0001:0001B98D   330 0001:0001B9A6
   332 0001:0001B9BD   334 0001:0001B9CB   336 0001:0001B9EE   339 0001:0001BA19
   340 0001:0001BA1F   342 0001:0001BA2D   344 0001:0001BA39   345 0001:0001BA3F
   347 0001:0001BA85   349 0001:0001BA91   350 0001:0001BA97   352 0001:0001BAD9
   354 0001:0001BAE5   356 0001:0001BAF4   357 0001:0001BAFA   359 0001:0001BB19
   361 0001:0001BB25   362 0001:0001BB2B   364 0001:0001BB57   366 0001:0001BB63
   367 0001:0001BB68   369 0001:0001BB79   371 0001:0001BB85   372 0001:0001BB8A
   374 0001:0001BBB8   376 0001:0001BBC1   377 0001:0001BBC6   379 0001:0001BBD1
   381 0001:0001BBDA   387 0001:0001BBFB   390 0001:0001BC20   392 0001:0001BC22
   395 0001:0001BC95   403 0001:0001BD64   404 0001:0001BD91   405 0001:0001BD99
   406 0001:0001BDA0   408 0001:0001BDAA   409 0001:0001BDC4   410 0001:0001BDD2
   411 0001:0001BDD7   413 0001:0001BE30   415 0001:0001BE4A   417 0001:0001BE62
   419 0001:0001BE71   420 0001:0001BE77   422 0001:0001BE99   424 0001:0001BEA6
   427 0001:0001BED2   428 0001:0001BED8   430 0001:0001BEE7   432 0001:0001BEF4
   433 0001:0001BEFA   435 0001:0001BF41   437 0001:0001BF4E   438 0001:0001BF54
   440 0001:0001BF97   442 0001:0001BFA4   444 0001:0001BFB4   445 0001:0001BFBA
   447 0001:0001BFDA   449 0001:0001BFE7   450 0001:0001BFED   452 0001:0001C01A
   454 0001:0001C027   455 0001:0001C02C   457 0001:0001C03E   459 0001:0001C04B
   460 0001:0001C050   462 0001:0001C07F   464 0001:0001C089   465 0001:0001C08E
   467 0001:0001C09A   469 0001:0001C0A4   478 0001:0001C0C6   480 0001:0001C0D3
   481 0001:0001C0EB   482 0001:0001C105   483 0001:0001C11D   484 0001:0001C127
   486 0001:0001C15A   488 0001:0001C15C   490 0001:0001C17F   408 0001:0001C186
   491 0001:0001C1E7   497 0001:0001C2C4   498 0001:0001C2DF   500 0001:0001C2EA
   501 0001:0001C2EE   503 0001:0001C310   504 0001:0001C358   507 0001:0001C38C
   508 0001:0001C3A8   509 0001:0001C3E3   512 0001:0001C3F8   513 0001:0001C40E
   514 0001:0001C412   515 0001:0001C44F   518 0001:0001C474   519 0001:0001C48D
   520 0001:0001C4C6   523 0001:0001C4D8   524 0001:0001C4F3   525 0001:0001C501
   527 0001:0001C50C   528 0001:0001C510   530 0001:0001C532   531 0001:0001C57A
   534 0001:0001C5B0   535 0001:0001C5CC   536 0001:0001C607   543 0001:0001C61C
   544 0001:0001C647   545 0001:0001C68E   546 0001:0001C695   547 0001:0001C699
   549 0001:0001C6F1   553 0001:0001C734   554 0001:0001C754   556 0001:0001C766
   557 0001:0001C773   559 0001:0001C784   562 0001:0001C793   563 0001:0001C797
   565 0001:0001C7A3   567 0001:0001C7AB   568 0001:0001C7AF   570 0001:0001C7D4
   571 0001:0001C81F   574 0001:0001C86C   575 0001:0001C888   576 0001:0001C8C6
   579 0001:0001C8DC   580 0001:0001C8F9   581 0001:0001C8FD   584 0001:0001C909
   587 0001:0001C91B   590 0001:0001C929   593 0001:0001C937   596 0001:0001C945
   598 0001:0001C97A   601 0001:0001C9C1   609 0001:0001CBA8   609 0001:0001CBAF

Line numbers for DbxOpenOdbcUtils(DbxOpenOdbcUtils.pas) segment .text

   269 0001:0001CBB0   282 0001:0001CBB6   283 0001:0001CBBA   295 0001:0001CBC1
   302 0001:0001CBC4   303 0001:0001CBC8   304 0001:0001CBCA   308 0001:0001CBCC
   310 0001:0001CBD0   311 0001:0001CBD5   312 0001:0001CBD9   315 0001:0001CBDE
   316 0001:0001CBE2   319 0001:0001CBE4   320 0001:0001CBEA   321 0001:0001CBFA
   324 0001:0001CC00   325 0001:0001CC09   326 0001:0001CC1B   329 0001:0001CC20
   330 0001:0001CC26   331 0001:0001CC36   334 0001:0001CC3C   335 0001:0001CC45
   336 0001:0001CC57   358 0001:0001CC5C   360 0001:0001CC80   366 0001:0001CC83
   367 0001:0001CC89   369 0001:0001CC8F   370 0001:0001CC9B   371 0001:0001CCA3
   372 0001:0001CCA9   375 0001:0001CCAE   378 0001:0001CCB3   380 0001:0001CCB8
   381 0001:0001CCBB   386 0001:0001CCBC   387 0001:0001CCBE   388 0001:0001CCD2
   390 0001:0001CCDD   392 0001:0001CCF0   395 0001:0001CD0C   400 0001:0001CD26
   402 0001:0001CD30   403 0001:0001CD35   404 0001:0001CD36   406 0001:0001CD37
   388 0001:0001CD38   409 0001:0001CD3B   410 0001:0001CD3F   411 0001:0001CD42
   412 0001:0001CD43   415 0001:0001CD48   418 0001:0001CD52   419 0001:0001CD57
   421 0001:0001CD58   422 0001:0001CD5A   423 0001:0001CD69   425 0001:0001CD7C
   428 0001:0001CD9D   429 0001:0001CDB6   430 0001:0001CDB7   431 0001:0001CDB8
   422 0001:0001CDB9   435 0001:0001CDBC   437 0001:0001CDC6   444 0001:0001CDC9
   445 0001:0001CDCA   442 0001:0001CDCB   456 0001:0001CDD9   457 0001:0001CDDA
   458 0001:0001CDDB   454 0001:0001CDDE   461 0001:0001CDEB   464 0001:0001CDF1
   465 0001:0001CDF4   466 0001:0001CDF5   467 0001:0001CDF8   469 0001:0001CDF9
   470 0001:0001CE15   471 0001:0001CE1B   473 0001:0001CE1E   477 0001:0001CE21
   480 0001:0001CE24   491 0001:0001CE4A   665 0001:0001CE54   667 0001:0001CE69
   668 0001:0001CE7B   671 0001:0001CE97   672 0001:0001CE9D   673 0001:0001CEA4
   680 0001:0001CEA9   681 0001:0001CEAB   682 0001:0001CEAD   686 0001:0001CEB2
   689 0001:0001CED0   690 0001:0001CED3   691 0001:0001CED5   693 0001:0001CED7
   682 0001:0001CED8   695 0001:0001CEDD   696 0001:0001CEE2   700 0001:0001CEE6
   701 0001:0001CEE8   702 0001:0001CEEB   703 0001:0001CEEF   699 0001:0001CEF0
   707 0001:0001CEFC   709 0001:0001CF04   710 0001:0001CF07   708 0001:0001CF08
   714 0001:0001CF0D   715 0001:0001CF15   716 0001:0001CF19   717 0001:0001CF1D
   718 0001:0001CF1E   719 0001:0001CF20   722 0001:0001CF25   723 0001:0001CF29
   724 0001:0001CF2D   725 0001:0001CF31   726 0001:0001CF32   727 0001:0001CF34
   732 0001:0001CF37   733 0001:0001CF3E   734 0001:0001CF40   735 0001:0001CF43
   736 0001:0001CF47   739 0001:0001CF48   740 0001:0001CF4E   741 0001:0001CF54
   742 0001:0001CF5B   747 0001:0001CF60   748 0001:0001CF61   749 0001:0001CF62
   750 0001:0001CF63   751 0001:0001CF66   752 0001:0001CF69   753 0001:0001CF6C
   754 0001:0001CF6F   755 0001:0001CF71   756 0001:0001CF72   757 0001:0001CF73
   758 0001:0001CF76   759 0001:0001CF78   760 0001:0001CF7A   761 0001:0001CF7D
   762 0001:0001CF7F   763 0001:0001CF82   764 0001:0001CF84   765 0001:0001CF86
   766 0001:0001CF88   767 0001:0001CF89   768 0001:0001CF8B   769 0001:0001CF8C
   770 0001:0001CF8E   771 0001:0001CF91   772 0001:0001CF93   773 0001:0001CF95
   774 0001:0001CF96   775 0001:0001CF97   776 0001:0001CF98   779 0001:0001CF99
   780 0001:0001CF9D   781 0001:0001CFA6   782 0001:0001CFAC   784 0001:0001CFBE
   787 0001:0001CFCE   788 0001:0001CFD6   789 0001:0001CFDC   791 0001:0001CFE5
   802 0001:0001CFEC   813 0001:0001CFF8   814 0001:0001D010   815 0001:0001D056
   818 0001:0001D05C   819 0001:0001D074   820 0001:0001D07F   822 0001:0001D0A0
   823 0001:0001D0C9   962 0001:0001D0D0   964 0001:0001D0D3   984 0001:0001D0E7
   987 0001:0001D0EC   989 0001:0001D0F5   998 0001:0001D114   999 0001:0001D118
  1001 0001:0001D120  1002 0001:0001D125  1005 0001:0001D12C  1006 0001:0001D133
  1007 0001:0001D13C  1009 0001:0001D140  1010 0001:0001D155  1014 0001:0001D15F
  1015 0001:0001D166  1017 0001:0001D16A  1020 0001:0001D170  1021 0001:0001D189
  1022 0001:0001D1BE  1025 0001:0001D1C4  1026 0001:0001D1DD  1027 0001:0001D1E8
  1030 0001:0001D200  1031 0001:0001D207  1033 0001:0001D228  1037 0001:0001D230
  1038 0001:0001D234  1040 0001:0001D237  1041 0001:0001D23C  1073 0001:0001D240
  1074 0001:0001D244  1076 0001:0001D246  1077 0001:0001D248  1079 0001:0001D24A
  1080 0001:0001D24D  1081 0001:0001D250  1082 0001:0001D253  1083 0001:0001D255
  1084 0001:0001D259  1085 0001:0001D25B  1087 0001:0001D25C  1088 0001:0001D25E
  1098 0001:0001D260  1099 0001:0001D261  1100 0001:0001D263  1103 0001:0001D265
  1104 0001:0001D268  1106 0001:0001D26B  1108 0001:0001D275  1109 0001:0001D27D
  1112 0001:0001D27F  1113 0001:0001D282  1101 0001:0001D285  1115 0001:0001D287
  1121 0001:0001D28C  1122 0001:0001D28E  1123 0001:0001D290  1126 0001:0001D292
  1127 0001:0001D295  1129 0001:0001D298  1131 0001:0001D2A3  1134 0001:0001D2A7
  1136 0001:0001D2B2  1139 0001:0001D2B6  1141 0001:0001D2C0  1142 0001:0001D2C8
  1145 0001:0001D2CB  1146 0001:0001D2CE  1124 0001:0001D2D1  1148 0001:0001D2D3
  1155 0001:0001D2D8  1156 0001:0001D2DB  1157 0001:0001D2DD  1158 0001:0001D2DF
  1159 0001:0001D2E1  1161 0001:0001D2E5  1162 0001:0001D2E8  1164 0001:0001D2EB
  1166 0001:0001D2F5  1167 0001:0001D2FD  1170 0001:0001D2FF  1171 0001:0001D302
  1172 0001:0001D305  1159 0001:0001D306  1174 0001:0001D30A  1175 0001:0001D30C
  1182 0001:0001D310  1183 0001:0001D317  1190 0001:0001D320  1191 0001:0001D332
  1194 0001:0001D338  1195 0001:0001D33E  1196 0001:0001D34E  1201 0001:0001D354
  1202 0001:0001D356  1203 0001:0001D358  1206 0001:0001D35A  1207 0001:0001D35D
  1208 0001:0001D360  1209 0001:0001D363  1204 0001:0001D364  1211 0001:0001D370
  1212 0001:0001D377  1215 0001:0001D37C  1216 0001:0001D386  1218 0001:0001D396
  1219 0001:0001D39F  1220 0001:0001D3A7  1223 0001:0001D3AB  1224 0001:0001D3AD
  1226 0001:0001D3B1  1227 0001:0001D3BC  1229 0001:0001D3C4  1230 0001:0001D3C9
  1231 0001:0001D3D0  1234 0001:0001D3D8  1235 0001:0001D3E2  1237 0001:0001D3F2
  1238 0001:0001D3FB  1239 0001:0001D403  1242 0001:0001D407  1243 0001:0001D409
  1245 0001:0001D40D  1246 0001:0001D41A  1248 0001:0001D424  1249 0001:0001D429
  1250 0001:0001D432  1253 0001:0001D438  1254 0001:0001D442  1256 0001:0001D452
  1257 0001:0001D45B  1258 0001:0001D463  1261 0001:0001D467  1262 0001:0001D469
  1264 0001:0001D46D  1265 0001:0001D47D  1267 0001:0001D485  1268 0001:0001D48A
  1269 0001:0001D491  1272 0001:0001D498  1273 0001:0001D4A2  1275 0001:0001D4B2
  1276 0001:0001D4BB  1277 0001:0001D4C3  1280 0001:0001D4C7  1281 0001:0001D4C9
  1283 0001:0001D4CD  1284 0001:0001D4DF  1286 0001:0001D4E9  1287 0001:0001D4EE
  1288 0001:0001D4F7  1294 0001:0001D4FC  1295 0001:0001D505  1297 0001:0001D509
  1298 0001:0001D50B  1299 0001:0001D510  1305 0001:0001D514  1306 0001:0001D51D
  1308 0001:0001D521  1309 0001:0001D523  1310 0001:0001D528  1313 0001:0001D52C
  1314 0001:0001D536  1315 0001:0001D53F  1317 0001:0001D543  1318 0001:0001D54C
  1320 0001:0001D550  1324 0001:0001D556  1325 0001:0001D55E  1326 0001:0001D560
  1328 0001:0001D56A  1329 0001:0001D575  1331 0001:0001D57D  1334 0001:0001D584
  1335 0001:0001D58E  1336 0001:0001D597  1338 0001:0001D59B  1339 0001:0001D5A4
  1341 0001:0001D5A8  1345 0001:0001D5AE  1346 0001:0001D5B6  1347 0001:0001D5B8
  1348 0001:0001D5C4  1349 0001:0001D5D2  1351 0001:0001D5DC  1369 0001:0001D5E4
  1370 0001:0001D5EE  1371 0001:0001D5F7  1372 0001:0001D600  1375 0001:0001D606
  1376 0001:0001D60E  1377 0001:0001D610  1378 0001:0001D61A  1379 0001:0001D62A
  1381 0001:0001D632  1389 0001:0001D638  1390 0001:0001D641  1391 0001:0001D651
  1396 0001:0001D658  1397 0001:0001D679  1399 0001:0001D683  1400 0001:0001D687
  1404 0001:0001D68B  1405 0001:0001D6A0  1406 0001:0001D6AA  1408 0001:0001D6AE
  1409 0001:0001D6BB  1410 0001:0001D6BE  1411 0001:0001D6C8  1412 0001:0001D6D3
  1415 0001:0001D6DB  1417 0001:0001D706  1420 0001:0001D710  1421 0001:0001D71A
  1423 0001:0001D724  1424 0001:0001D728  1428 0001:0001D72C  1429 0001:0001D735
  1430 0001:0001D73D  1431 0001:0001D73F  1432 0001:0001D74B  1433 0001:0001D758
  1435 0001:0001D762  1438 0001:0001D768  1439 0001:0001D784  1441 0001:0001D78D
  1442 0001:0001D7A1  1443 0001:0001D7B0  1444 0001:0001D7B9  1448 0001:0001D7C4
  1449 0001:0001D7CD  1451 0001:0001D7EE  1454 0001:0001D7F4  1455 0001:0001D810
  1457 0001:0001D81A  1458 0001:0001D82E  1459 0001:0001D83D  1460 0001:0001D846
  1464 0001:0001D851  1465 0001:0001D85A  1467 0001:0001D87B  1470 0001:0001D884
  1471 0001:0001D8A0  1473 0001:0001D8A9  1474 0001:0001D8BD  1475 0001:0001D8CC
  1478 0001:0001D8D7  1479 0001:0001D8E0  1480 0001:0001D908  1483 0001:0001D910
  1484 0001:0001D919  1486 0001:0001D923  1487 0001:0001D92C  1488 0001:0001D93B
  1491 0001:0001D946  1492 0001:0001D94F  1493 0001:0001D956  1496 0001:0001D95C
  1497 0001:0001D966  1498 0001:0001D96A  1500 0001:0001D979  1501 0001:0001D988
  1502 0001:0001D98F  1505 0001:0001D994  1506 0001:0001D9B0  1507 0001:0001D9B4
  1509 0001:0001D9BF  1510 0001:0001D9DB  1511 0001:0001DA03  1514 0001:0001DA0C
  1515 0001:0001DA28  1516 0001:0001DA2C  1518 0001:0001DA37  1519 0001:0001DA53
  1520 0001:0001DA7B  1523 0001:0001DA84  1524 0001:0001DA8D  1525 0001:0001DA91
  1527 0001:0001DA9C  1528 0001:0001DAAB  1529 0001:0001DAB2  1533 0001:0001DAB8
  1534 0001:0001DAC6  1538 0001:0001DAC8  1539 0001:0001DAD7  1542 0001:0001DAD8
  1543 0001:0001DADB  1544 0001:0001DAF1  1547 0001:0001DAF4  1548 0001:0001DAF7
  1549 0001:0001DB0E  1553 0001:0001DB10  1554 0001:0001DB1E  1558 0001:0001DB20
  1559 0001:0001DB2F  1562 0001:0001DB30  1563 0001:0001DB33  1564 0001:0001DB49
  1567 0001:0001DB4C  1568 0001:0001DB4F  1569 0001:0001DB66  1600 0001:0001DB68
  1601 0001:0001DB81  1602 0001:0001DB85  1604 0001:0001DB9B  1605 0001:0001DBC1
  1608 0001:0001DBC8  1609 0001:0001DBCE  1610 0001:0001DBD7  1612 0001:0001DBE1
  1613 0001:0001DBEA  1616 0001:0001DBF0  1617 0001:0001DC09  1618 0001:0001DC13
  1620 0001:0001DC1C  1621 0001:0001DC4D  1627 0001:0001DC54  1628 0001:0001DC5A
  1630 0001:0001DC5E  1631 0001:0001DC62  1633 0001:0001DC66  1636 0001:0001DC6B
  1637 0001:0001DC6F  1639 0001:0001DC73  1640 0001:0001DC81  1643 0001:0001DC84
  1644 0001:0001DC8A  1646 0001:0001DC8E  1647 0001:0001DC92  1649 0001:0001DC96
  1652 0001:0001DC9B  1653 0001:0001DC9F  1655 0001:0001DCA3  1656 0001:0001DCB1
  1659 0001:0001DCB4  1660 0001:0001DCCF  1661 0001:0001DCD3  1663 0001:0001DCFD
  1664 0001:0001DD2F  1667 0001:0001DD38  1668 0001:0001DD53  1669 0001:0001DD57
  1671 0001:0001DD7F  1672 0001:0001DDB1  1675 0001:0001DDB8  1676 0001:0001DDBE
  1677 0001:0001DDCA  1680 0001:0001DDD0  1681 0001:0001DDD6  1682 0001:0001DDE2
  1685 0001:0001DDE8  1686 0001:0001DE01  1687 0001:0001DE39  1690 0001:0001DE40
  1691 0001:0001DE59  1692 0001:0001DE91  1695 0001:0001DE98  1696 0001:0001DE9E
  1697 0001:0001DEAE  1700 0001:0001DEB4  1701 0001:0001DEBA  1702 0001:0001DEC8
  1705 0001:0001DECC  1706 0001:0001DED2  1707 0001:0001DEE2  1710 0001:0001DEE8
  1711 0001:0001DEEE  1712 0001:0001DEFC  1719 0001:0001DF00  1720 0001:0001DF06
  1722 0001:0001DF0A  1723 0001:0001DF0E  1725 0001:0001DF12  1728 0001:0001DF17
  1729 0001:0001DF1B  1731 0001:0001DF1F  1732 0001:0001DF2D  1735 0001:0001DF30
  1736 0001:0001DF36  1738 0001:0001DF3A  1739 0001:0001DF3E  1741 0001:0001DF42
  1744 0001:0001DF47  1745 0001:0001DF4B  1747 0001:0001DF4F  1748 0001:0001DF5D
  1751 0001:0001DF60  1752 0001:0001DF7B  1753 0001:0001DF7F  1755 0001:0001DFA9
  1756 0001:0001DFDB  1759 0001:0001DFE4  1760 0001:0001DFFF  1761 0001:0001E003
  1763 0001:0001E02B  1764 0001:0001E05D  1767 0001:0001E064  1768 0001:0001E06A
  1769 0001:0001E078  1772 0001:0001E07C  1773 0001:0001E082  1774 0001:0001E090
  1777 0001:0001E094  1778 0001:0001E0AD  1779 0001:0001E0E7  1782 0001:0001E0EC
  1783 0001:0001E105  1784 0001:0001E13F  1789 0001:0001E144  1790 0001:0001E14D
  1791 0001:0001E14F  1794 0001:0001E150  1795 0001:0001E153  1796 0001:0001E15F
  1799 0001:0001E164  1800 0001:0001E16A  1801 0001:0001E173  1803 0001:0001E17F
  1804 0001:0001E186  1807 0001:0001E18C  1808 0001:0001E192  1809 0001:0001E1A2
  1811 0001:0001E1AE  1812 0001:0001E1B5  1824 0001:0001E1B8  1825 0001:0001E1C1
  1826 0001:0001E1CA  1828 0001:0001E1D8  1830 0001:0001E1E2  1831 0001:0001E1EC
  1833 0001:0001E1EE  1826 0001:0001E1EF  1834 0001:0001E1F3  1835 0001:0001E1FC
  1839 0001:0001E200  1840 0001:0001E219  1841 0001:0001E21D  1843 0001:0001E233
  1844 0001:0001E257  1847 0001:0001E25C  1848 0001:0001E263  1849 0001:0001E271
  1851 0001:0001E27A  1852 0001:0001E287  1870 0001:0001E298  1871 0001:0001E2B3
  1872 0001:0001E2FA  1876 0001:0001E330  1878 0001:0001E339  1889 0001:0001E343

Line numbers for RegExpr(RegExpr.pas) segment .text

   859 0001:0001E56C   860 0001:0001E578   861 0001:0001E587   862 0001:0001E595
   863 0001:0001E59F   864 0001:0001E5B9   866 0001:0001E5CC   871 0001:0001E5D4
   872 0001:0001E5E1   873 0001:0001E5E8   874 0001:0001E5F7   875 0001:0001E605
   876 0001:0001E60F   877 0001:0001E628   879 0001:0001E638   884 0001:0001E640
   885 0001:0001E64D   886 0001:0001E66A   887 0001:0001E674   888 0001:0001E695
   890 0001:0001E6A5   901 0001:0001E6C8   902 0001:0001E6E9   903 0001:0001E6F1
   904 0001:0001E6FB   905 0001:0001E700   906 0001:0001E702   907 0001:0001E707
   908 0001:0001E725   910 0001:0001E75F   912 0001:0001E762   906 0001:0001E763
   914 0001:0001E768   915 0001:0001E7AA   932 0001:0001E7C0   933 0001:0001E7E7
   935 0001:0001E7EC   938 0001:0001E7F4   943 0001:0001E7FE   944 0001:0001E803
   945 0001:0001E80F   946 0001:0001E816   944 0001:0001E818   948 0001:0001E81B
   949 0001:0001E828   951 0001:0001E836   952 0001:0001E83B   953 0001:0001E840
   954 0001:0001E849   956 0001:0001E882   960 0001:0001E88D   961 0001:0001E890
   963 0001:0001E894   962 0001:0001E895   964 0001:0001E8A1   965 0001:0001E8A6
   967 0001:0001E8B2   968 0001:0001E8DF   971 0001:0001E8EC   972 0001:0001E8F6
   973 0001:0001E8FF   974 0001:0001E90A   976 0001:0001E90D   980 0001:0001E915
   981 0001:0001E91B   983 0001:0001E923   984 0001:0001E926   985 0001:0001E932
   986 0001:0001E940   988 0001:0001E957   993 0001:0001E981   998 0001:0001E984
   999 0001:0001E986  1000 0001:0001E987  1001 0001:0001E98E  1003 0001:0001E991
  1004 0001:0001E998  1005 0001:0001E99D  1002 0001:0001E99E  1006 0001:0001E9AA
  1007 0001:0001E9B6  1009 0001:0001E9BE  1013 0001:0001E9C6  1011 0001:0001E9C7
  1015 0001:0001E9DC  1014 0001:0001E9DD  1020 0001:0001E9F0   953 0001:0001E9F1
  1025 0001:0001E9FA  1026 0001:0001EA00  1029 0001:0001EA07  1034 0001:0001EA3C
  1036 0001:0001EA5F  1038 0001:0001EA97  1184 0001:0001EAA0  1185 0001:0001EAA3
  1186 0001:0001EC0C  1187 0001:0001EC1A  1188 0001:0001EC28  1189 0001:0001EC36
  1190 0001:0001EC44  1191 0001:0001EC52  1192 0001:0001EC60  1193 0001:0001EC6E
  1194 0001:0001EC7C  1195 0001:0001EC8A  1196 0001:0001EC98  1197 0001:0001ECA6
  1198 0001:0001ECB4  1199 0001:0001ECC2  1200 0001:0001ECD0  1201 0001:0001ECDE
  1202 0001:0001ECEC  1203 0001:0001ECFA  1204 0001:0001ED08  1205 0001:0001ED16
  1206 0001:0001ED24  1207 0001:0001ED32  1208 0001:0001ED40  1209 0001:0001ED4E
  1210 0001:0001ED5C  1212 0001:0001ED6A  1213 0001:0001ED78  1214 0001:0001ED86
  1215 0001:0001ED94  1216 0001:0001EDA2  1217 0001:0001EDB0  1218 0001:0001EDBE
  1219 0001:0001EDCC  1220 0001:0001EDDA  1221 0001:0001EDE8  1222 0001:0001EDF6
  1223 0001:0001EE04  1225 0001:0001EE12  1226 0001:0001EE20  1228 0001:0001EE2C
  1233 0001:0001F5E0  1234 0001:0001F5E6  1235 0001:0001F5F0  1245 0001:0001F5F4
  1246 0001:0001F5F9  1251 0001:0001F5FC  1252 0001:0001F601  1256 0001:0001F604
  1257 0001:0001F616  1258 0001:0001F61F  1259 0001:0001F627  1260 0001:0001F62F
  1262 0001:0001F637  1263 0001:0001F63F  1265 0001:0001F646  1266 0001:0001F658
  1267 0001:0001F66A  1268 0001:0001F67C  1269 0001:0001F68E  1271 0001:0001F6A0
  1272 0001:0001F6B1  1273 0001:0001F6C2  1275 0001:0001F6DA  1276 0001:0001F6EB
  1277 0001:0001F70F  1281 0001:0001F714  1282 0001:0001F71F  1283 0001:0001F729
  1284 0001:0001F72E  1285 0001:0001F738  1286 0001:0001F73D  1287 0001:0001F747
  1288 0001:0001F757  1292 0001:0001F75C  1299 0001:0001F760  1300 0001:0001F76E
  1301 0001:0001F772  1303 0001:0001F778  1307 0001:0001F77C  1308 0001:0001F783
  1309 0001:0001F78D  1310 0001:0001F798  1311 0001:0001F79F  1317 0001:0001F7A4
  1318 0001:0001F7BE  1319 0001:0001F7E1  1320 0001:0001F7E8  1321 0001:0001F7F2
  1322 0001:0001F7F7  1324 0001:0001F7FF  1325 0001:0001F803  1326 0001:0001F80C
  1331 0001:0001F81A  1334 0001:0001F830  1337 0001:0001F854  1342 0001:0001F85C
  1343 0001:0001F865  1346 0001:0001F86C  1344 0001:0001F86D  1348 0001:0001F885
  1349 0001:0001F88A  1354 0001:0001F88C  1356 0001:0001F8AF  1358 0001:0001F8BD
  1359 0001:0001F8C0  1364 0001:0001F8C4  1366 0001:0001F8E7  1368 0001:0001F8F5
  1369 0001:0001F8F8  1373 0001:0001F8FC  1374 0001:0001F900  1377 0001:0001F923
  1378 0001:0001F93C  1379 0001:0001F943  1383 0001:0001F948  1384 0001:0001F94E
  1386 0001:0001F95A  1387 0001:0001F96A  1388 0001:0001F97A  1389 0001:0001F986
  1390 0001:0001F996  1391 0001:0001F9A6  1392 0001:0001F9B2  1393 0001:0001F9C2
  1394 0001:0001F9D2  1395 0001:0001F9DE  1396 0001:0001F9EE  1397 0001:0001F9FE
  1398 0001:0001FA0A  1399 0001:0001FA1A  1400 0001:0001FA2A  1401 0001:0001FA36
  1402 0001:0001FA46  1403 0001:0001FA56  1405 0001:0001FA62  1406 0001:0001FA72
  1407 0001:0001FA87  1417 0001:0001FAE0  1418 0001:0001FB09  1419 0001:0001FB0D
  1420 0001:0001FB11  1421 0001:0001FB16  1422 0001:0001FB2C  1423 0001:0001FB33
  1425 0001:0001FB3C  1426 0001:0001FB59  1427 0001:0001FB65  1428 0001:0001FB82
  1429 0001:0001FB8E  1430 0001:0001FBAB  1431 0001:0001FBB4  1432 0001:0001FBD1
  1433 0001:0001FBDA  1434 0001:0001FBF7  1435 0001:0001FC00  1436 0001:0001FC1D
  1438 0001:0001FC26  1439 0001:0001FC2A  1441 0001:0001FC2C  1442 0001:0001FC32
  1443 0001:0001FC3C  1444 0001:0001FC46  1421 0001:0001FC47  1445 0001:0001FC73
  1449 0001:0001FCC4  1450 0001:0001FCCA  1451 0001:0001FCDD  1452 0001:0001FCE8
  1458 0001:0001FCEC  1459 0001:0001FCF0  1460 0001:0001FCF2  1461 0001:0001FD1A
  1462 0001:0001FD21  1463 0001:0001FD28  1464 0001:0001FD2F  1465 0001:0001FD36
  1466 0001:0001FD3D  1468 0001:0001FD44  1469 0001:0001FD4F  1472 0001:0001FD51
  1473 0001:0001FD5C  1479 0001:0001FD60  1480 0001:0001FD63  1481 0001:0001FD8B
  1482 0001:0001FD92  1483 0001:0001FD99  1484 0001:0001FDA0  1485 0001:0001FDA7
  1486 0001:0001FDAE  1488 0001:0001FDB5  1489 0001:0001FDC0  1492 0001:0001FDC2
  1493 0001:0001FDC6  1494 0001:0001FDCE  1495 0001:0001FDD6  1504 0001:0001FDD8
  1505 0001:0001FDDB  1506 0001:0001FDE5  1507 0001:0001FDEA  1509 0001:0001FDF2
  1514 0001:0001FDF4  1515 0001:0001FDFD  1516 0001:0001FE06  1518 0001:0001FE07
  1519 0001:0001FE12  1527 0001:0001FE14  1528 0001:0001FE1A  1531 0001:0001FE1C
  1532 0001:0001FE2A  1536 0001:0001FE31  1538 0001:0001FE43  1537 0001:0001FE70
  1542 0001:0001FE73  1543 0001:0001FE7C  1546 0001:0001FE83  1548 0001:0001FE8D
  1549 0001:0001FE92  1550 0001:0001FE9F  1551 0001:0001FEA3  1560 0001:0001FEC8
  1561 0001:0001FECF  1564 0001:0001FED9  1566 0001:0001FEDB  1567 0001:0001FEE4
  1569 0001:0001FEE8  1570 0001:0001FEEA  1572 0001:0001FEEC  1573 0001:0001FEF0
  1581 0001:0001FEFB  1582 0001:0001FF00  1587 0001:0001FF04  1589 0001:0001FF05
  1591 0001:0001FF18  1592 0001:0001FF20  1597 0001:0001FF24  1598 0001:0001FF26
  1599 0001:0001FF2E  1600 0001:0001FF38  1601 0001:0001FF3A  1602 0001:0001FF40
  1603 0001:0001FF4A  1605 0001:0001FF53  1606 0001:0001FF5C  1611 0001:0001FF60
  1612 0001:0001FF61  1613 0001:0001FF71  1614 0001:0001FF73  1616 0001:0001FF7B
  1617 0001:0001FF81  1626 0001:0001FF84  1627 0001:0001FF90  1628 0001:0001FFA0
  1629 0001:0001FFA6  1631 0001:0001FFA8  1632 0001:0001FFAE  1633 0001:0001FFB4
  1634 0001:0001FFBA  1635 0001:0001FFBE  1636 0001:0001FFBF  1637 0001:0001FFC0
  1634 0001:0001FFC4  1639 0001:0001FFC8  1640 0001:0001FFCA  1641 0001:0001FFCF
  1642 0001:0001FFD0  1643 0001:0001FFD6  1644 0001:0001FFD9  1642 0001:0001FFDA
  1646 0001:0001FFDD  1653 0001:0001FFE4  1654 0001:0001FFE6  1655 0001:0001FFE8
  1657 0001:0001FFEC  1659 0001:0001FFF0  1661 0001:0001FFF4  1658 0001:0001FFF5
  1662 0001:0001FFFB  1663 0001:0001FFFC  1656 0001:0001FFFD  1665 0001:00020004
  1718 0001:00020008  1719 0001:00020016  1721 0001:0002001A  1722 0001:00020025
  1723 0001:0002002E  1725 0001:0002003C  1726 0001:00020049  1727 0001:0002004E
  1730 0001:00020059  1731 0001:0002005D  1732 0001:00020069  1735 0001:00020073
  1739 0001:00020085  1740 0001:00020097  1741 0001:000200A0  1742 0001:000200AD
  1743 0001:000200B8  1744 0001:000200C9  1745 0001:000200D3  1746 0001:000200E4
  1756 0001:000200EE  1759 0001:00020105  1760 0001:00020117  1761 0001:00020120
  1762 0001:0002012D  1763 0001:0002013F  1764 0001:00020149  1765 0001:0002015A
  1769 0001:00020164  1770 0001:00020179  1772 0001:0002018B  1773 0001:00020195
  1774 0001:0002019F  1775 0001:000201AA  1776 0001:000201B5  1777 0001:000201BF
  1778 0001:000201CE  1781 0001:000201D1  1782 0001:000201D7  1783 0001:000201E7
  1784 0001:000201EB  1792 0001:000201F4  1793 0001:000201FA  1794 0001:000201FC
  1795 0001:000201FE  1796 0001:00020202  1798 0001:00020213  1799 0001:00020216
  1801 0001:0002021F  1795 0001:0002022B  1803 0001:0002022F  1804 0001:00020238
  1808 0001:00020241  1811 0001:00020252  1812 0001:00020258  1813 0001:00020260
  1814 0001:0002026B  1818 0001:00020282  1832 0001:000202AC  1833 0001:000202BA
  1834 0001:000202C0  1835 0001:000202C7  1836 0001:000202CD  1839 0001:000202D7
  1840 0001:000202DD  1841 0001:000202E6  1842 0001:000202F1  1844 0001:000202F6
  1845 0001:00020300  1846 0001:00020306  1848 0001:00020318  1851 0001:0002031A
  1852 0001:00020327  1853 0001:0002032B  1854 0001:00020331  1856 0001:00020336
  1857 0001:0002033A  1858 0001:00020347  1859 0001:00020349  1860 0001:00020350
  1861 0001:00020354  1863 0001:00020360  1864 0001:00020366  1865 0001:00020373
  1866 0001:00020377  1867 0001:0002037D  1869 0001:00020382  1870 0001:0002038D
  1871 0001:00020394  1872 0001:00020398  1862 0001:000203A2  1876 0001:000203AD
  1877 0001:000203B3  1878 0001:000203C5  1879 0001:000203D0  1882 0001:000203DB
  1883 0001:000203DD  1884 0001:000203E1  1885 0001:000203EC  1883 0001:000203F7
  1889 0001:000203FB  1890 0001:00020401  1891 0001:0002040C  1892 0001:00020417
  1894 0001:00020419  1895 0001:0002041F  1896 0001:00020430  1897 0001:0002043B
  1898 0001:00020448  1899 0001:00020453  1901 0001:00020455  1902 0001:0002045F
  1903 0001:00020467  1912 0001:00020470  1913 0001:0002047B  1915 0001:00020480
  1916 0001:0002048C  1919 0001:00020490  1920 0001:0002049D  1921 0001:000204A1
  1922 0001:000204A3  1924 0001:000204A5  1925 0001:000204AF  1926 0001:000204B3
  1927 0001:000204BF  1928 0001:000204CA  1917 0001:000204CC  1930 0001:000204E0
  1931 0001:000204E4  1932 0001:000204ED  1933 0001:000204F0  1944 0001:000204F8
  1945 0001:000204FD  1946 0001:000204FF  1947 0001:00020509  1948 0001:00020518
  1950 0001:0002051A  1951 0001:0002051E  1952 0001:00020530  1950 0001:00020531
  1954 0001:00020535  1955 0001:00020541  1956 0001:00020550  1958 0001:00020552
  1975 0001:00020558  1979 0001:0002056B  1980 0001:0002056F  1981 0001:00020578
  1982 0001:0002057F  1983 0001:00020590  1984 0001:000205A3  1985 0001:000205B7
  1987 0001:000205C9  1988 0001:000205CE  1989 0001:000205D7  1990 0001:000205E4
  1991 0001:000205ED  1992 0001:000205F7  1994 0001:00020602  1995 0001:0002060B
  1996 0001:0002061E  1997 0001:00020632  1999 0001:00020649  2003 0001:00020650
  2004 0001:00020659  2005 0001:0002065D  2006 0001:00020666  2007 0001:0002066D
  2008 0001:00020686  2009 0001:000206A2  2010 0001:000206AE  2012 0001:000206BD
  2014 0001:000206C4  2015 0001:000206EB  2016 0001:000206F8  2019 0001:00020702
  2020 0001:0002070C  2021 0001:0002071C  2022 0001:00020721  2024 0001:00020726
  2025 0001:00020730  2026 0001:0002073B  2029 0001:00020740  2031 0001:00020761
  2032 0001:00020767  2033 0001:00020776  2034 0001:0002078B  2035 0001:00020791
  2036 0001:00020795  2038 0001:000207A7  2039 0001:000207B5  2040 0001:000207CA
  2041 0001:000207D7  2042 0001:000207EC  2046 0001:00020803  2047 0001:00020807
  2048 0001:0002080D  2049 0001:00020811  2051 0001:00020820  2052 0001:00020828
  2055 0001:00020835  2056 0001:0002083B  2057 0001:0002084A  2058 0001:0002085F
  2059 0001:00020865  2060 0001:00020869  2062 0001:0002087E  2063 0001:0002088A
  2064 0001:00020897  2065 0001:000208AC  2066 0001:000208C1  2070 0001:000208D8
  2071 0001:000208DC  2072 0001:000208E2  2073 0001:000208E6  2075 0001:000208F5
  2076 0001:000208FD  2079 0001:0002090A  2080 0001:0002090E  2081 0001:0002091D
  2082 0001:00020932  2083 0001:00020936  2084 0001:0002093C  2085 0001:0002094E
  2088 0001:00020960  2089 0001:0002096E  2090 0001:00020983  2091 0001:0002098F
  2092 0001:0002099C  2094 0001:000209A9  2095 0001:000209B1  2098 0001:000209BE
  2101 0001:000209C9  2102 0001:000209D1  2104 0001:000209DE  2103 0001:000209E6
  2105 0001:00020A09  2106 0001:00020A20  2107 0001:00020A2B  2108 0001:00020A30
  2110 0001:00020A35  2111 0001:00020A4A  2112 0001:00020A5B  2113 0001:00020A63
  2115 0001:00020A70  2114 0001:00020A78  2116 0001:00020A9B  2117 0001:00020AA8
  2118 0001:00020AB3  2120 0001:00020AB8  2121 0001:00020AC5  2122 0001:00020ACC
  2124 0001:00020ADB  2125 0001:00020ADD  2126 0001:00020AE1  2127 0001:00020AEC
  2129 0001:00020AF1  2130 0001:00020AF5  2131 0001:00020AF9  2132 0001:00020AFD
  2134 0001:00020B07  2135 0001:00020B16  2136 0001:00020B2B  2137 0001:00020B31
  2138 0001:00020B3F  2139 0001:00020B4B  2140 0001:00020B4F  2145 0001:00020B57
  2146 0001:00020B5F  2147 0001:00020B79  2148 0001:00020B84  2150 0001:00020BA9
  2178 0001:00020BC4  2179 0001:00020BCA  2180 0001:00020BD9  2181 0001:00020BEE
  2182 0001:00020C01  2183 0001:00020C0E  2184 0001:00020C1B  2185 0001:00020C31
  2195 0001:00020C34  2196 0001:00020C38  2197 0001:00020C3A  2198 0001:00020C42
  2199 0001:00020C44  2200 0001:00020C54  2201 0001:00020C63  2203 0001:00020C65
  2204 0001:00020C70  2205 0001:00020C74  2206 0001:00020C79  2209 0001:00020C7C
  2211 0001:00020C84  2213 0001:00020C8E  2215 0001:00020C9D  2217 0001:00020CAA
  2219 0001:00020CB2  2221 0001:00020CBB  2223 0001:00020CC2  2224 0001:00020CD4
  2225 0001:00020CE6  2226 0001:00020CEE  2227 0001:00020D00  2228 0001:00020D07
  2234 0001:00020D0E  2238 0001:00020D34  2239 0001:00020D3A  2241 0001:00020D4B
  2242 0001:00020D51  2243 0001:00020D59  2244 0001:00020D5F  2245 0001:00020D67
  2246 0001:00020D6D  2247 0001:00020D7A  2255 0001:00020D80  2256 0001:00020D8B
  2258 0001:00020D92  2259 0001:00020D96  2260 0001:00020DA2  2261 0001:00020DAF
  2265 0001:00020DD2  2266 0001:00020DEF  2268 0001:00020E11  2269 0001:00020E1E
  2270 0001:00020E3A  2271 0001:00020E4F  2273 0001:00020E54  2274 0001:00020E66
  2275 0001:00020E77  2276 0001:00020E88  2277 0001:00020E96  2278 0001:00020EA2
  2274 0001:00020EA3  2281 0001:00020EA9  2282 0001:00020EB4  2280 0001:00020EC0
  2286 0001:00020EDE  2287 0001:00020EFA  2288 0001:00020F0F  2290 0001:00020F11
  2291 0001:00020F20  2292 0001:00020F4F  2293 0001:00020F55  2294 0001:00020F67
  2295 0001:00020F7C  2301 0001:00020F89  2304 0001:00021090  2305 0001:00021093
  2306 0001:00021099  2307 0001:000210A3  2308 0001:000210AA  2312 0001:000210AC
  2314 0001:000210B4  2313 0001:000210D5  2315 0001:000210D8  2318 0001:000210E0
  2319 0001:000210E7  2320 0001:00021140  2321 0001:00021147  2322 0001:0002114E
  2323 0001:00021155  2324 0001:0002115C  2325 0001:00021163  2327 0001:0002116A
  2328 0001:0002116C  2329 0001:0002116E  2330 0001:00021175  2331 0001:00021184
  2333 0001:00021189  2335 0001:00021190  2336 0001:00021192  2337 0001:00021199
  2338 0001:000211A8  2340 0001:000211AA  2341 0001:000211B1  2343 0001:000211BC
  2344 0001:000211CB  2346 0001:000211CD  2350 0001:000211E2  2353 0001:000211E4
  2355 0001:000211F4  2356 0001:000211F6  2357 0001:000211FD  2358 0001:0002120C
  2360 0001:0002120E  2364 0001:00021225  2366 0001:00021229  2368 0001:00021230
  2369 0001:00021255  2370 0001:00021257  2372 0001:0002125E  2373 0001:00021267
  2374 0001:000212F0  2376 0001:00021314  2377 0001:00021326  2378 0001:00021338
  2380 0001:0002135C  2381 0001:0002136E  2383 0001:00021380  2384 0001:0002138C
  2385 0001:00021399  2388 0001:000213AE  2389 0001:000213BB  2397 0001:000213C6
  2398 0001:000213CB  2399 0001:000213D7  2400 0001:000213E5  2401 0001:000213F1
  2404 0001:000213FC  2405 0001:00021408  2406 0001:00021416  2408 0001:00021422
  2410 0001:00021426  2411 0001:00021439  2412 0001:00021440  2416 0001:0002144E
  2419 0001:00021482  2420 0001:0002148B  2421 0001:00021496  2427 0001:0002149B
  2429 0001:000214B0  2430 0001:000214B9  2432 0001:000214BE  2433 0001:000214C7
  2437 0001:000214D8  2439 0001:000214EF  2441 0001:00021500  2443 0001:00021517
  2445 0001:00021525  2447 0001:0002153C  2448 0001:00021548  2451 0001:00021556
  2452 0001:0002155B  2453 0001:00021567  2455 0001:0002156C  2456 0001:0002156F
  2457 0001:00021578  2458 0001:0002157D  2459 0001:00021587  2457 0001:0002158A
  2462 0001:0002158F  2465 0001:0002159D  2466 0001:000215A6  2467 0001:000215AF
  2468 0001:000215BD  2469 0001:000215C9  2471 0001:000215CE  2472 0001:000215E7
  2473 0001:000215F5  2474 0001:00021607  2475 0001:00021619  2478 0001:00021631
  2479 0001:0002163A  2415 0001:00021643  2482 0001:0002165A  2483 0001:00021663
  2484 0001:00021671  2485 0001:0002167D  2487 0001:00021682  2488 0001:0002168B
  2491 0001:000216A0  2493 0001:000216A9  2494 0001:000216AF  2496 0001:000216BB
  2495 0001:000216C4  2497 0001:000216D7  2498 0001:000216E5  2499 0001:000216F1
  2501 0001:000216F6  2502 0001:000216FF  2505 0001:00021711  2506 0001:0002171A
  2508 0001:00021725  2507 0001:0002172E  2509 0001:00021741  2511 0001:00021788
  2512 0001:00021794  2514 0001:00021799  2515 0001:000217A2  2521 0001:000217B4
  2522 0001:000217C7  2523 0001:000217CD  2524 0001:000217CF  2526 0001:000217D4
  2530 0001:000217E4  2531 0001:000217F0  2534 0001:000217F5  2535 0001:00021801
  2538 0001:00021806  2539 0001:0002180B  2540 0001:00021817  2542 0001:0002181C
  2543 0001:00021894  2544 0001:000218A6  2545 0001:000218B8  2546 0001:000218CA
  2548 0001:000218DC  2549 0001:000218E9  2552 0001:000218FE  2553 0001:0002190B
  2557 0001:00021920  2558 0001:0002192C  2559 0001:0002193C  2563 0001:00021945
  2567 0001:0002195A  2568 0001:00021966  2569 0001:00021976  2573 0001:0002197F
  2577 0001:00021994  2578 0001:000219A0  2579 0001:000219B0  2583 0001:000219B9
  2587 0001:000219CE  2588 0001:000219DA  2589 0001:000219EA  2593 0001:000219F3
  2596 0001:00021A05  2597 0001:00021A11  2598 0001:00021A20  2599 0001:00021A2D
  2600 0001:00021A43  2602 0001:00021A55  2604 0001:00021A6B  2607 0001:00021A79
  2608 0001:00021A82  2612 0001:00021AB3  2615 0001:00021AC3  2614 0001:00021ACC
  2617 0001:00021AE5  2616 0001:00021AEE  2622 0001:00021B03  2621 0001:00021B0C
  2624 0001:00021B25  2627 0001:00021B37  2628 0001:00021B4C  2629 0001:00021B50
  2630 0001:00021B5E  2631 0001:00021B6A  2633 0001:00021B6F  2634 0001:00021B7F
  2635 0001:00021B8C  2637 0001:00021BA1  2638 0001:00021BA2  2639 0001:00021BA8
  2640 0001:00021BAD  2641 0001:00021BB3  2642 0001:00021BBF  2643 0001:00021BCE
  2646 0001:00021BDD  2649 0001:00021C02  2650 0001:00021C15  2651 0001:00021C1E
  2644 0001:00021C1F  2653 0001:00021C3D  2658 0001:00021C47  2659 0001:00021C6E
  2664 0001:00021CEC  2665 0001:00021CEE  2667 0001:00021D01  2668 0001:00021D0B
  2696 0001:00021D0C  2697 0001:00021D1B  2698 0001:00021D21  2699 0001:00021D27
  2700 0001:00021D2E  2701 0001:00021D3A  2702 0001:00021D44  2703 0001:00021D4C
  2707 0001:00021DB2  2708 0001:00021DBA  2713 0001:00021DC3  2714 0001:00021DC7
  2712 0001:00021DC8  2720 0001:00021DE1  2721 0001:00021DE5  2719 0001:00021DE6
  2723 0001:00021DF6  2724 0001:00021E04  2727 0001:00021E16  2728 0001:00021E1A
  2725 0001:00021E1B  2733 0001:00021E38  2734 0001:00021E44  2736 0001:00021E4F
  2737 0001:00021E5A  2740 0001:00021E65  2741 0001:00021E69  2742 0001:00021E6F
  2744 0001:00021E85  2745 0001:00021E86  2741 0001:00021E87  2747 0001:00021E8D
  2748 0001:00021E91  2749 0001:00021E97  2752 0001:00021EA6  2753 0001:00021EB2
  2755 0001:00021EBD  2756 0001:00021EC8  2759 0001:00021ED3  2760 0001:00021ED7
  2761 0001:00021EDD  2764 0001:00021F05  2765 0001:00021F06  2760 0001:00021F07
  2767 0001:00021F0D  2768 0001:00021F11  2769 0001:00021F17  2774 0001:00021F26
  2775 0001:00021F2A  2772 0001:00021F2B  2780 0001:00021F4C  2781 0001:00021F50
  2778 0001:00021F51  2818 0001:00021F6B  2819 0001:00021F6F  2815 0001:00021F70
  2826 0001:00021F90  2827 0001:00021F94  2823 0001:00021F95  2834 0001:00021FB9
  2835 0001:00021FBD  2832 0001:00021FBE  2863 0001:00021FD6  2864 0001:00021FDC
  2865 0001:00021FE7  2868 0001:00021FE9  2869 0001:00021FF3  2876 0001:00021FFC
  2877 0001:00022005  2878 0001:00022007  2880 0001:00022008  2881 0001:0002200D
  2882 0001:00022011  2883 0001:00022015  2884 0001:00022017  2908 0001:00022018
  2909 0001:0002203F  2910 0001:00022043  2912 0001:00022045  2913 0001:0002204D
  2914 0001:00022052  2915 0001:00022056  2916 0001:0002205D  2918 0001:00022062
  2921 0001:0002214F  2928 0001:00022219  2930 0001:0002221E  2931 0001:00022230
  2932 0001:00022235  2933 0001:00022244  2934 0001:00022249  2935 0001:0002225B
  2936 0001:00022267  2940 0001:00022298  2945 0001:000222B7  2949 0001:000222CC
  2952 0001:000222D1  2953 0001:000222E0  2954 0001:000222EB  2957 0001:0002230B
  2963 0001:00022339  2967 0001:0002234E  2971 0001:00022353  2973 0001:00022362
  2976 0001:0002236D  2982 0001:000223B5  2985 0001:000223C0  2987 0001:000223E0
  2990 0001:000223EB  2992 0001:0002240E  3017 0001:00022419  3019 0001:0002241F
  3022 0001:0002244A  3024 0001:00022454  3025 0001:00022456  3026 0001:0002245F
  3027 0001:00022464  3028 0001:00022467  3029 0001:0002246A  3032 0001:00022492
  3026 0001:00022493  3035 0001:00022498  3038 0001:000224A3  3040 0001:000224A9
  3042 0001:000224BC  3044 0001:000224C6  3045 0001:000224C8  3046 0001:000224D1
  3047 0001:000224D6  3048 0001:000224D9  3049 0001:000224DC  3051 0001:000224EC
  3046 0001:000224ED  3054 0001:000224F2  3057 0001:000224FD  3058 0001:00022505
  3060 0001:00022511  3062 0001:0002251F  3063 0001:00022528  3065 0001:0002252D
  3067 0001:0002254C  3068 0001:0002254F  3064 0001:00022552  3070 0001:0002255E
  3073 0001:0002256C  3074 0001:00022574  3076 0001:0002257F  3078 0001:0002258D
  3079 0001:00022596  3081 0001:0002259F  3084 0001:000225D6  3085 0001:000225D9
  3080 0001:000225DC  3087 0001:000225E8  3090 0001:000225F6  3095 0001:00022626
  3098 0001:00022631  3103 0001:00022662  3107 0001:0002266D  3110 0001:00022695
  3138 0001:000226A0  3140 0001:000226A9  3141 0001:000226B0  3142 0001:000226BA
  3143 0001:000226C7  3144 0001:000226D1  3149 0001:000226D8  3152 0001:000226DD
  3154 0001:000226E6  3155 0001:000226F0  3156 0001:000226FD  3157 0001:0002270A
  3158 0001:00022714  3163 0001:0002271E  3166 0001:00022723  3167 0001:0002272B
  3170 0001:00022736  3171 0001:0002273F  3172 0001:0002274C  3174 0001:00022756
  3175 0001:0002275F  3176 0001:0002276A  3177 0001:00022777  3182 0001:0002277C
  3183 0001:00022782  3184 0001:00022788  3185 0001:00022791  3186 0001:0002279C
  3188 0001:000227A1  3189 0001:000227AA  3190 0001:000227B9  3191 0001:000227C6
  3192 0001:000227CC  3194 0001:000227D6  3195 0001:000227DF  3198 0001:000227E4
  3199 0001:000227ED  3200 0001:000227F8  3202 0001:000227FD  3203 0001:0002280E
  3204 0001:00022813  3205 0001:00022818  3206 0001:00022821  3207 0001:00022837
  3209 0001:0002283C  3210 0001:0002284B  3211 0001:00022858  3212 0001:0002285E
  3213 0001:0002286B  3214 0001:00022871  3216 0001:0002287B  3218 0001:00022884
  3219 0001:0002288A  3220 0001:00022897  3221 0001:000228A1  3222 0001:000228AA
  3226 0001:000228AF  3227 0001:000228BC  3229 0001:000228C6  3230 0001:000228CF
  3231 0001:000228DE  3232 0001:000228EB  3233 0001:000228F1  3234 0001:000228FE
  3235 0001:00022904  3237 0001:0002290E  3239 0001:00022917  3240 0001:0002291D
  3244 0001:00022922  3245 0001:0002292F  3246 0001:00022935  3247 0001:00022942
  3248 0001:00022948  3250 0001:00022952  3251 0001:0002295F  3252 0001:00022968
  3259 0001:0002296D  3260 0001:00022971  3261 0001:00022979  3262 0001:00022985
  3263 0001:0002298A  3264 0001:00022994  3265 0001:0002299B  3266 0001:000229A5
  3268 0001:000229AE  3269 0001:000229B6  3271 0001:000229BE  3272 0001:000229C7
  3273 0001:000229CD  3274 0001:000229D7  3276 0001:000229DB  3278 0001:000229ED
  3283 0001:000229FB  3284 0001:000229FE  3285 0001:00022A06  3287 0001:00022A11
  3289 0001:00022A24  3290 0001:00022A37  3292 0001:00022A40  3293 0001:00022A4E
  3294 0001:00022A52  3297 0001:00022A57  3298 0001:00022A6A  3301 0001:00022A73
  3284 0001:00022A74  3303 0001:00022A78  3306 0001:00022A7D  3307 0001:00022A8B
  3309 0001:00022A94  3311 0001:00022AA7  3312 0001:00022ABA  3314 0001:00022AC3
  3315 0001:00022AD1  3316 0001:00022AD5  3319 0001:00022AD7  3320 0001:00022AEA
  3323 0001:00022AF3  3324 0001:00022AF4  3307 0001:00022AFF  3326 0001:00022B04
  3330 0001:00022B06  3331 0001:00022B0A  3334 0001:00022B0C  3335 0001:00022B17
  3338 0001:00022B19  2912 0001:00022B1C  3343 0001:00022B24  3344 0001:00022B54
  3354 0001:00022B5C  3355 0001:00022B65  3356 0001:00022B67  3357 0001:00022B6F
  3358 0001:00022B7A  3360 0001:00022C5F  3362 0001:00022C71  3366 0001:00022C76
  3367 0001:00022C7D  3369 0001:00022C91  3371 0001:00022CA0  3372 0001:00022CAD
  3370 0001:00022CAE  3375 0001:00022CB5  3379 0001:00022CBA  3380 0001:00022CCC
  3383 0001:00022CD1  3384 0001:00022D01  3387 0001:00022D06  3388 0001:00022D36
  3391 0001:00022D3B  3392 0001:00022D4C  3393 0001:00022D66  3396 0001:00022D6B
  3397 0001:00022D7C  3400 0001:00022D81  3401 0001:00022DB1  3405 0001:00022DB6
  3406 0001:00022DC7  3407 0001:00022DD8  3409 0001:00022DE9  3413 0001:00022DEE
  3418 0001:00022E70  3424 0001:00022E75  3425 0001:00022E7E  3428 0001:00022E83
  3429 0001:00022E8C  3432 0001:00022E91  3433 0001:00022E96  3436 0001:00022E9E
  3437 0001:00022EA8  3438 0001:00022EB3  3439 0001:00022EC0  3445 0001:00022EC5
  3446 0001:00022ECE  3449 0001:00022ED3  3450 0001:00022EDF  3451 0001:00022EE1
  3452 0001:00022EEA  3453 0001:00022EEE  3454 0001:00022EF7  3458 0001:00022EF9
  3460 0001:00022F05  3461 0001:00022F0F  3464 0001:00022F11  3465 0001:00022F19
  3466 0001:00022F1B  3467 0001:00022F24  3468 0001:00022F28  3471 0001:00022F2A
  3472 0001:00022F3C  3475 0001:00022F3E  3476 0001:00022F49  3479 0001:00022F4B
  3356 0001:00022F4D  3481 0001:00022F55  3486 0001:00022FC0  3487 0001:00022FC3
  3488 0001:00022FCA  3489 0001:00022FD6  3496 0001:00022FD8  3497 0001:00022FE2
  3502 0001:00022FE4  3503 0001:00022FE9  3509 0001:00022FEC  3510 0001:00022FF1
  3517 0001:00022FF4  3518 0001:00022FFE  3519 0001:00023000  3520 0001:00023008
  3521 0001:00023013  3518 0001:00023014  3522 0001:00023019  3526 0001:0002301C
  3528 0001:00023022  3529 0001:0002302E  3530 0001:00023046  3531 0001:0002304A
  3532 0001:00023053  3534 0001:0002306B  3540 0001:00023070  3541 0001:00023091
  3543 0001:00023093  3548 0001:0002309A  3552 0001:000230AA  3553 0001:000230B6
  3554 0001:000230C2  3557 0001:000230C7  3560 0001:000230E3  3561 0001:000230E8
  3562 0001:000230F4  3566 0001:000230F9  3569 0001:00023105  3572 0001:00023111
  3573 0001:0002311D  3575 0001:0002311F  3576 0001:00023133  3577 0001:00023137
  3579 0001:00023154  3581 0001:00023155  3582 0001:00023159  3587 0001:00023161
  3591 0001:00023173  3595 0001:00023188  3599 0001:00023193  3600 0001:0002319F
  3601 0001:000231AA  3605 0001:000231AC  3606 0001:000231AE  3608 0001:000231BA
  3609 0001:000231CC  3610 0001:000231D0  3611 0001:000231DB  3613 0001:000231DF
  3614 0001:000231E6  3616 0001:000231E7  3620 0001:000231ED  3621 0001:00023201
  3625 0001:0002320C  3627 0001:00023215  3628 0001:0002321C  3629 0001:0002321D
  3651 0001:0002323E  3656 0001:00023248  3657 0001:0002324C  3658 0001:0002324E
  3659 0001:0002325D  3660 0001:00023268  3664 0001:0002326A  3665 0001:00023279
  3666 0001:0002327E  3667 0001:0002327F  3668 0001:0002328A  3672 0001:00023290
  3673 0001:00023296  3674 0001:0002329F  3675 0001:000232AA  3677 0001:000232AD
  3678 0001:000232BA  3685 0001:000232C0  3687 0001:000232DA  3688 0001:000232DC
  3689 0001:000232E2  3690 0001:000232EB  3687 0001:000232EC  3693 0001:000232F1
  3694 0001:000232FA  3695 0001:0002331D  3696 0001:00023328  3699 0001:00023330
  3700 0001:00023339  3706 0001:00023347  3723 0001:0002337A  3727 0001:00023380
  3728 0001:00023386  3729 0001:00023395  3730 0001:000233A2  3732 0001:000233A9
  3736 0001:000233AC  3737 0001:000233B2  3738 0001:000233BE  3741 0001:000233C5
  3742 0001:000233D0  3744 0001:000233D3  3747 0001:000233F1  3748 0001:000233F8
  3749 0001:00023400  3750 0001:00023409  3753 0001:00023412  3754 0001:0002341D
  3755 0001:00023426  3756 0001:0002342D  3759 0001:00023436  3760 0001:00023441
  3764 0001:00023444  3765 0001:0002344D  3773 0001:00023456  3776 0001:0002349B
  3777 0001:000234A2  3798 0001:000234A8  3799 0001:000234B0  3800 0001:000234B2
  3801 0001:000234B4  3802 0001:000234C7  3803 0001:000234CB  3804 0001:000234CC
  3805 0001:000234D9  3814 0001:000234DC  3815 0001:000234EE  3807 0001:000234EF
  3817 0001:00023501  3818 0001:00023505  3819 0001:00023512  3820 0001:00023515
  3821 0001:00023517  3822 0001:0002351B  3823 0001:0002351E  3824 0001:00023522
  3825 0001:00023528  3827 0001:00023538  3829 0001:00023547  3830 0001:00023550
  3831 0001:0002355B  3834 0001:00023560  3835 0001:00023567  3836 0001:0002356B
  3837 0001:00023573  3839 0001:00023578  3840 0001:0002357B  3842 0001:00023581
  3843 0001:00023583  3844 0001:00023589  3845 0001:00023591  3846 0001:00023596
  3847 0001:00023599  3848 0001:0002359E  3849 0001:000235AA  3850 0001:000235AD
  3851 0001:000235B1  3852 0001:000235C7  3855 0001:000235D6  3856 0001:000235E3
  3857 0001:000235E6  3844 0001:000235E7  3861 0001:000235EF  3862 0001:000235F3
  3863 0001:000235FB  3865 0001:00023600  3867 0001:0002360C  3868 0001:00023614
  3869 0001:0002361A  3870 0001:00023622  3871 0001:00023627  3872 0001:0002362A
  3873 0001:0002362F  3874 0001:0002363B  3875 0001:0002363E  3876 0001:00023642
  3877 0001:00023646  3879 0001:0002365B  3880 0001:00023662  3881 0001:00023665
  3878 0001:00023666  3885 0001:00023671  3886 0001:0002367E  3887 0001:00023683
  3889 0001:00023686  3890 0001:0002368B  3869 0001:0002368E  3893 0001:00023696
  3898 0001:000236A0  3899 0001:000236CE  3900 0001:000236D3  3902 0001:000236E1
  3903 0001:00023707  3904 0001:0002371D  3905 0001:00023728  3906 0001:00023770
  3913 0001:00023778  3914 0001:000237A9  3915 0001:000237B0  3916 0001:000237B5
  3918 0001:000237C3  3920 0001:000237E8  3921 0001:000237EE  3922 0001:00023807
  3923 0001:00023811  3924 0001:00023827  3925 0001:00023832  3926 0001:00023879
  3934 0001:00023884  3935 0001:000238B1  3936 0001:000238B9  3937 0001:000238BE
  3939 0001:000238CC  3942 0001:0002390A  3943 0001:00023920  3944 0001:0002392B
  3945 0001:00023976  3953 0001:00023980  3954 0001:000239A7  3955 0001:000239DC
  4130 0001:000239E4  4131 0001:000239E7  4135 0001:000239E8  4136 0001:00023A06
  4137 0001:00023A0C  4138 0001:00023A14  4140 0001:00023A5F  4141 0001:00023A7C
  4142 0001:00023A7F  4143 0001:00023A89  4147 0001:00023AB8  4168 0001:00023B40
  4168 0001:00023B47

Line numbers for DbxObjectParser(DbxObjectParser.pas) segment .text

   427 0001:00024058   428 0001:00024061   429 0001:00024070   430 0001:00024076
   431 0001:00024080   447 0001:000240A4   448 0001:000240DE   449 0001:000240E4
   453 0001:000240EB   454 0001:000240FA   455 0001:00024108   456 0001:0002410E
   458 0001:00024114   459 0001:0002411F   456 0001:00024128   461 0001:0002412E
   462 0001:0002414E   464 0001:0002416E   466 0001:00024188   467 0001:000241AD
   468 0001:000241BD   469 0001:000241CF   473 0001:000241DD   478 0001:0002421B
   479 0001:00024229   481 0001:00024237   484 0001:0002424A   486 0001:00024252
   488 0001:00024268   489 0001:0002428C   491 0001:000242B8   492 0001:000242D5
   486 0001:000242D8   494 0001:000242DD   504 0001:00024306   512 0001:0002432F
   520 0001:00024358   528 0001:00024381   537 0001:000243AA   538 0001:000243C2
   539 0001:000243D1   540 0001:000243DF   542 0001:000243F1   543 0001:000243FF
   545 0001:00024427   547 0001:0002442A   550 0001:0002444D   557 0001:00024457
   561 0001:00024481   565 0001:000244AB   569 0001:000244D5   464 0001:000244D8
   571 0001:000244EE   582 0001:00024548   587 0001:000245EC   591 0001:000245FD
   593 0001:00024617   594 0001:00024628   595 0001:00024636   591 0001:00024639
   596 0001:0002463E   606 0001:0002465A   641 0001:00024660   643 0001:00024691
   644 0001:00024696   645 0001:0002469E   646 0001:000246A6   650 0001:000246AE
   651 0001:000246BC   653 0001:000246D2   655 0001:000246E1   657 0001:000246F4
   658 0001:00024704   667 0001:0002470D   668 0001:00024718   669 0001:00024720
   670 0001:00024724   672 0001:0002472A   674 0001:00024740   678 0001:00024783
   679 0001:00024787   680 0001:0002479D   682 0001:0002479F   672 0001:000247A2
   684 0001:000247A7   687 0001:000247B1   688 0001:000247BC   689 0001:000247C4
   691 0001:000247CA   693 0001:000247E1   697 0001:00024824   698 0001:0002483A
   700 0001:0002483C   691 0001:0002483F   703 0001:00024844   704 0001:0002484F
   705 0001:00024857   707 0001:0002485D   709 0001:00024874   713 0001:000248B7
   714 0001:000248CD   716 0001:000248CF   707 0001:000248D2   719 0001:000248D7
   721 0001:000248DD   722 0001:000248E6   723 0001:000248F6   724 0001:00024901
   725 0001:00024911   726 0001:0002491C   727 0001:0002492C   729 0001:00024937
   731 0001:00024940   733 0001:00024948   734 0001:00024955   736 0001:0002495D
   738 0001:00024965   739 0001:00024972   743 0001:0002497A   745 0001:0002497C
   651 0001:0002497F   746 0001:00024988   747 0001:00024991   748 0001:000249A1
   759 0001:000249D9   773 0001:000249E0   774 0001:000249E3   798 0001:000249F2
   800 0001:000249F4   805 0001:00024A37   806 0001:00024A3D   808 0001:00024A46
   812 0001:00024A4C   815 0001:00024A5A   816 0001:00024A66   817 0001:00024A85
   818 0001:00024A8E   820 0001:00024A9E   821 0001:00024AA6   824 0001:00024ACE
   825 0001:00024ADA   826 0001:00024AF9   827 0001:00024B02   829 0001:00024B12
   830 0001:00024B1A   833 0001:00024B42   834 0001:00024B4E   835 0001:00024B6D
   836 0001:00024B76   838 0001:00024B86   841 0001:00024B8E   844 0001:00024BB6
   846 0001:00024BBB   847 0001:00024BE6   851 0001:00024C1D   852 0001:00024C48
   856 0001:00024C7F   857 0001:00024CAA   861 0001:00024CE1   844 0001:00024CE4
   871 0001:00024D32   877 0001:00024D64   881 0001:00024D95   883 0001:00024DAE
   893 0001:00024DF2   895 0001:00024E84   895 0001:00024E8B

Line numbers for DbxOpenOdbcCallback(DbxOpenOdbcCallback.pas) segment .text

   102 0001:00024E8C   103 0001:00024E95   104 0001:00024EA4   107 0001:00024EA8
   108 0001:00024EB5   109 0001:00024F6E   110 0001:00024F80   111 0001:00024F92
   112 0001:00024FA4   113 0001:00024FB6   114 0001:00024FC8   115 0001:00024FDA
   116 0001:00024FEC   117 0001:00024FFE   118 0001:0002500D   119 0001:0002501C
   120 0001:0002502B   122 0001:0002503A   123 0001:00025049   124 0001:00025058
   126 0001:00025067   128 0001:00025076   130 0001:00025083   133 0001:000251A8
   134 0001:000251B4   135 0001:000251C4   142 0001:000251C8   146 0001:000251E7
   147 0001:000251F9   148 0001:00025215   150 0001:0002523D   153 0001:00025244
   154 0001:0002526A   155 0001:00025277   156 0001:0002528F   157 0001:000252C7
   159 0001:00025300   159 0001:00025307

Line numbers for DbxOpenOdbcASA(DbxOpenOdbcASA.pas) segment .text

    65 0001:00025320    66 0001:00025324    67 0001:0002532C    68 0001:00025339
    74 0001:00025340    75 0001:00025353    77 0001:0002535C    78 0001:00025364
    79 0001:0002536B    80 0001:00025376    82 0001:000253B0    90 0001:000253F4
    91 0001:000253FD    93 0001:00025413

Line numbers for DbxOpenOdbc3(DbxOpenOdbc3.pas) segment .text

    76 0001:00025414   106 0001:0002551C   122 0001:00025718   153 0001:000258B8
   208 0001:00025B50   218 0001:00025CD8   229 0001:00025F90   240 0001:0002624C
   251 0001:00026504   262 0001:000267C0   418 0001:00026BAC   435 0001:00026EF4
   446 0001:00027198   456 0001:0002743C   486 0001:000276E8   487 0001:00027708
   492 0001:0002770D   493 0001:00027711   494 0001:0002771C   495 0001:00027720
   496 0001:00027758   509 0001:0002779D   514 0001:000277F0   515 0001:00027810
   520 0001:00027815   521 0001:00027819   522 0001:00027824   523 0001:00027828
   524 0001:00027860   537 0001:000278A5   544 0001:000278F8   545 0001:00027914
   546 0001:0002791E   550 0001:00027924   551 0001:00027932   552 0001:00027942
   553 0001:00027951   555 0001:0002795E   556 0001:00027972   557 0001:00027978
   559 0001:0002797C   560 0001:0002798A   562 0001:0002798E   563 0001:00027996
   568 0001:0002799C   571 0001:000279BF   574 0001:000279C8   575 0001:000279CB
   577 0001:000279D0   578 0001:000279D8   580 0001:000279DC   588 0001:000279E0
   589 0001:000279F7   590 0001:00027A28   591 0001:00027A36   592 0001:00027A3F
   593 0001:00027A46   597 0001:00027A4D   598 0001:00027A5B   602 0001:00027A67
   603 0001:00027A75   607 0001:00027A7F   609 0001:00027A9B   613 0001:00027AB0
   615 0001:00027AE2   622 0001:00027B58   624 0001:00027B70   627 0001:00027B77
   628 0001:00027B80   629 0001:00027B85   630 0001:00027B8E   633 0001:00027B98
   635 0001:00027B9F   640 0001:00027BC5   643 0001:00027BCC   644 0001:00027BE0
   645 0001:00027BE4   647 0001:00027BE6   652 0001:00027C09   657 0001:00027C10
   660 0001:00027C22   666 0001:00027C42   669 0001:00027C48   670 0001:00027C53
   671 0001:00027C5E   672 0001:00027C75   675 0001:00027C78   679 0001:00027C93
   684 0001:00027D04   687 0001:00027D0C   689 0001:00027D27   690 0001:00027D35
   691 0001:00027D43   694 0001:00027D51   699 0001:00027DC2   702 0001:00027DCC
   703 0001:00027DD4   705 0001:00027DD6   707 0001:00027DDC   708 0001:00027DE7
   714 0001:00027DF1   717 0001:00027DF8   718 0001:00027E00   720 0001:00027E02
   725 0001:00027E13   728 0001:00027E1C   729 0001:00027E1F   730 0001:00027E28
   731 0001:00027E3E   732 0001:00027E44   805 0001:00027E48   806 0001:00027E5E
   807 0001:00027E76   808 0001:00027E80   809 0001:00027EA2   819 0001:00027EA8
   820 0001:00027EC4   821 0001:00027ED4   822 0001:00027EFD   823 0001:00027F26
   825 0001:00027F30   827 0001:00027F5E   828 0001:00027F64   829 0001:00027F72
   831 0001:00027F9F   833 0001:00027FA1   837 0001:00027FE3   842 0001:00028060
   843 0001:00028077   844 0001:000280A0   845 0001:000280C1   848 0001:000280D3
   849 0001:000280F2   850 0001:000280FB   852 0001:0002813D   854 0001:00028178
   855 0001:000281A0   863 0001:000281A5   864 0001:000281AD   868 0001:000281C9
   870 0001:000281D1   871 0001:000281DC   872 0001:000281E7   877 0001:000281F1
   892 0001:00028200   893 0001:00028208   895 0001:00028219   898 0001:0002822B
   905 0001:0002823C   906 0001:00028244   907 0001:0002824B   918 0001:00028250
   920 0001:00028261   922 0001:00028273   925 0001:00028295   929 0001:000282AF
   931 0001:000282C4   932 0001:000282D8   933 0001:000282E6   934 0001:000282F3
   936 0001:000282FC   937 0001:00028310   938 0001:00028319   939 0001:0002832D
   942 0001:00028341   949 0001:00028351   952 0001:00028357   953 0001:00028360
   955 0001:0002838C   956 0001:00028399   957 0001:000283A4   958 0001:000283AF
   962 0001:000283BF   969 0001:000283C4   970 0001:000283CA   972 0001:000283D2
   973 0001:000283E1   975 0001:000283E7   977 0001:000283F5   981 0001:00028412
   982 0001:0002842D   987 0001:0002843A   988 0001:00028445   991 0001:00028457
   992 0001:00028479   994 0001:0002847F   995 0001:00028496   996 0001:0002849C
   998 0001:000284B4  1003 0001:000284C6  1019 0001:00028525  1025 0001:00028660
  1026 0001:0002867E  1033 0001:00028680  1035 0001:00028695  1037 0001:00028699
  1038 0001:000286AE  1042 0001:000286C5  1047 0001:000286F9  1050 0001:00028704
  1051 0001:00028718  1053 0001:0002871A  1054 0001:0002871E  1056 0001:0002872A
  1060 0001:0002874A  1061 0001:00028752  1062 0001:0002875F  1068 0001:00028766
  1071 0001:000287A4  1072 0001:000287B8  1074 0001:000287BA  1075 0001:000287BE
  1077 0001:000287CA  1081 0001:000287EC  1082 0001:000287F4  1083 0001:00028801
  1089 0001:00028808  1096 0001:00028844  1108 0001:00028872  1109 0001:0002887B
  1112 0001:000288BC  1114 0001:000288C0  1115 0001:000288C5  1117 0001:000288C7
  1119 0001:000288D0  1124 0001:000288ED  1125 0001:00028902  1132 0001:00028959
  1137 0001:00028998  1142 0001:000289B0  1143 0001:000289B9  1145 0001:000289D8
  1150 0001:00028A09  1156 0001:00028A30  1161 0001:00028A51  1162 0001:00028A5A
  1164 0001:00028A8E  1166 0001:00028A92  1168 0001:00028AA1  1172 0001:00028AB3
  1173 0001:00028AC8  1177 0001:00028AE2  1182 0001:00028B18  1185 0001:00028B4C
  1186 0001:00028B52  1187 0001:00028B5F  1190 0001:00028B64  1191 0001:00028B6A
  1192 0001:00028B77  1197 0001:00028B7C  1198 0001:00028B82  1199 0001:00028B8C
  1207 0001:00028B90  1216 0001:00028BAB  1218 0001:00028BD3  1219 0001:00028BDE
  1220 0001:00028BE8  1221 0001:00028BF9  1222 0001:00028C13  1224 0001:00028C17
  1225 0001:00028C2E  1229 0001:00028C45  1234 0001:00028C79  1263 0001:00028C80
  1271 0001:00028C9D  1273 0001:00028CB6  1274 0001:00028CCB  1277 0001:00028CE2
  1282 0001:00028D16  1287 0001:00028D20  1288 0001:00028D26  1289 0001:00028D33
  1292 0001:00028D38  1293 0001:00028D3E  1294 0001:00028D4B  1297 0001:00028D50
  1298 0001:00028D68  1300 0001:00028D6A  1305 0001:00028DBA  1308 0001:00028DC4
  1309 0001:00028DCC  1313 0001:00028DCE  1318 0001:00028DED  1321 0001:00028DF4
  1322 0001:00028E01  1324 0001:00028E06  1326 0001:00028E0A  1327 0001:00028E11
  1329 0001:00028E13  1331 0001:00028E22  1332 0001:00028E28  1333 0001:00028E33
  1335 0001:00028E51  1336 0001:00028E59  1338 0001:00028E68  1344 0001:00028E78
  1351 0001:00028E80  1352 0001:00028E8D  1360 0001:00028E92  1362 0001:00028E98
  1363 0001:00028E9F  1365 0001:00028EA4  1368 0001:00028EB2  1370 0001:00028EB8
  1371 0001:00028EBE  1373 0001:00028EC9  1377 0001:00028ED6  1378 0001:00028EDB
  1381 0001:00028EF4  1382 0001:00028EF9  1384 0001:00028F05  1385 0001:00028F09
  1389 0001:00028F0D  1392 0001:00028F0F  1394 0001:00028F17  1395 0001:00028F1F
  1396 0001:00028F2F  1400 0001:00028F3B  1402 0001:00028F3F  1414 0001:00028F4C
  1416 0001:00028F5B  1420 0001:00028F65  1419 0001:00028F68  1421 0001:00028F73
  1422 0001:00028F7B  1424 0001:00028F7F  1425 0001:00028F8C  1426 0001:00028F93
  1429 0001:00028F9E  1434 0001:00028FA8  1436 0001:00028FB5  1437 0001:00028FB8
  1439 0001:00028FBF  1444 0001:00028FCC  1445 0001:00028FD4  1446 0001:00028FD8
  1442 0001:00028FDB  1450 0001:00028FE0  1458 0001:00028FEB  1463 0001:00028FF4
  1464 0001:00028FFC  1466 0001:00028FFE  1467 0001:00029004  1468 0001:0002900F
  1473 0001:00029019  1476 0001:00029020  1477 0001:00029028  1479 0001:0002902A
  1484 0001:0002903B  1491 0001:00029044  1495 0001:0002905F  1497 0001:00029087
  1498 0001:00029092  1499 0001:0002909C  1500 0001:000290AD  1501 0001:000290C7
  1503 0001:000290CB  1504 0001:000290E2  1508 0001:000290F9  1513 0001:0002912D
  1533 0001:00029134  1541 0001:00029151  1543 0001:0002916A  1544 0001:0002917F
  1547 0001:00029196  1552 0001:000291CA  1555 0001:000291D4  1556 0001:000291E2
  1558 0001:000291E7  1563 0001:000291EE  1566 0001:000291F4  1570 0001:00029206
  1575 0001:0002921E  1581 0001:00029224  1587 0001:00029252  1588 0001:00029277
  1591 0001:0002928D  1592 0001:000292A2  1598 0001:000292E9  1604 0001:000292F4
  1610 0001:00029322  1611 0001:00029326  1612 0001:0002933B  1613 0001:0002933F
  1614 0001:00029354  1619 0001:000293AC  1625 0001:000293B8  1630 0001:000293E0
  1631 0001:000293E4  1632 0001:000293F9  1637 0001:0002943E  1643 0001:00029448
  1648 0001:00029476  1649 0001:0002947A  1650 0001:0002948F  1651 0001:00029493
  1652 0001:000294A8  1657 0001:000294FC  1662 0001:00029508  1664 0001:0002950F
  1666 0001:00029515  1667 0001:00029520  1668 0001:00029528  1671 0001:0002952C
  1676 0001:00029531  1679 0001:00029538  1680 0001:00029540  1682 0001:00029542
  1687 0001:00029553  1690 0001:0002955C  1691 0001:00029574  1693 0001:00029576
  1696 0001:0002958A  1699 0001:000295B0  1700 0001:000295B6  1701 0001:000295BE
  1707 0001:000295E2  1712 0001:000295EC  1713 0001:00029604  1715 0001:00029606
  1718 0001:0002961A  1721 0001:00029640  1722 0001:00029646  1723 0001:0002964E
  1729 0001:00029672  1732 0001:0002967C  1734 0001:00029683  1736 0001:00029689
  1737 0001:00029694  1738 0001:0002969C  1741 0001:000296A0  1746 0001:000296A5
  1749 0001:000296AC  1750 0001:000296B4  1752 0001:000296B6  1757 0001:000296C7
  1762 0001:000296D0  1763 0001:000296E8  1765 0001:000296EA  1768 0001:000296FE
  1771 0001:00029724  1772 0001:0002972A  1773 0001:00029732  1779 0001:00029756
  1782 0001:00029760  1784 0001:00029767  1786 0001:0002976D  1787 0001:00029778
  1788 0001:00029780  1791 0001:00029784  1796 0001:00029789  1799 0001:00029790
  1800 0001:00029798  1802 0001:0002979A  1807 0001:000297AB  1812 0001:000297B4
  1813 0001:000297CC  1815 0001:000297CE  1818 0001:000297E2  1821 0001:00029808
  1822 0001:0002980E  1823 0001:00029816  1829 0001:0002983A  1832 0001:00029844
  1834 0001:0002984B  1836 0001:00029851  1837 0001:0002985C  1838 0001:00029864
  1841 0001:00029868  1846 0001:0002986D  1849 0001:00029874  1850 0001:0002987C
  1852 0001:0002987E  1857 0001:0002988F  1862 0001:00029898  1863 0001:000298B0
  1865 0001:000298B2  1868 0001:000298C6  1871 0001:000298EC  1872 0001:000298F2
  1873 0001:000298FA  1879 0001:0002991E  1882 0001:00029928  1884 0001:0002992F
  1886 0001:00029935  1887 0001:00029940  1888 0001:00029948  1891 0001:0002994C
  1896 0001:00029951  1899 0001:00029958  1900 0001:00029960  1902 0001:00029962
  1907 0001:00029973  1914 0001:0002997C  1915 0001:0002999A  1917 0001:000299E7
  1920 0001:000299F8  1921 0001:000299FB  1922 0001:00029A11  1925 0001:00029A20
  1926 0001:00029A23  1927 0001:00029A39  1930 0001:00029A44  1931 0001:00029A47
  1932 0001:00029A4B  1934 0001:00029A63  1935 0001:00029A79  1941 0001:00029A90
  1942 0001:00029AD0  1946 0001:00029AD9  1948 0001:00029AF1  1949 0001:00029AFF
  1951 0001:00029B08  1952 0001:00029B2A  1954 0001:00029B3A  1955 0001:00029B45
  1956 0001:00029B6B  1958 0001:00029B7C  1959 0001:00029B8A  1961 0001:00029B92
  1962 0001:00029B97  1963 0001:00029B9E  1964 0001:00029BB8  1965 0001:00029BD2
  1967 0001:00029BD7  1968 0001:00029BF4  1970 0001:00029BF7  1971 0001:00029C07
  1972 0001:00029C0B  1974 0001:00029C1F  1976 0001:00029C3A  1978 0001:00029C42
  1979 0001:00029C4B  1980 0001:00029C65  1983 0001:00029C7F  1984 0001:00029CA6
  1985 0001:00029CB7  1987 0001:00029CBA  1989 0001:00029CBE  1991 0001:00029CC1
  1993 0001:00029CD1  1999 0001:00029CD9  2003 0001:00029CE1  2004 0001:00029D0A
  2006 0001:00029D6D  2011 0001:00029D78  2012 0001:00029DA4  2013 0001:00029DAC
  2015 0001:00029DB6  2016 0001:00029DCC  2018 0001:00029DD8  2020 0001:00029DE8
  2021 0001:00029DEE  2022 0001:00029DFC  2024 0001:00029DFE  2016 0001:00029DFF
  2025 0001:00029E02  2027 0001:00029E0D  2029 0001:00029E1D  2030 0001:00029E23
  2031 0001:00029E31  2033 0001:00029E33  2025 0001:00029E34  2034 0001:00029E37
  2035 0001:00029E61  2050 0001:00029E68  2052 0001:00029E7D  2060 0001:00029E92
  2061 0001:00029E99  2063 0001:00029EB3  2064 0001:00029EC9  2065 0001:00029EE1
  2066 0001:00029EF9  2067 0001:00029F0F  2071 0001:00029F27  2077 0001:00029F42
  2082 0001:00029FA8  2083 0001:00029FCA  2085 0001:00029FDF  2087 0001:00029FFD
  2089 0001:0002A00C  2091 0001:0002A01B  2093 0001:0002A02A  2095 0001:0002A039
  2097 0001:0002A048  2099 0001:0002A050  2102 0001:0002A066  2103 0001:0002A08F
  2108 0001:0002A108  2110 0001:0002A11D  2111 0001:0002A130  2112 0001:0002A135
  2113 0001:0002A14D  2114 0001:0002A165  2119 0001:0002A194  2125 0001:0002A198
  2126 0001:0002A202  2127 0001:0002A209  2128 0001:0002A210  2129 0001:0002A215
  2133 0001:0002A21B  2136 0001:0002A225  2138 0001:0002A238  2140 0001:0002A240
  2141 0001:0002A257  2142 0001:0002A271  2144 0001:0002A28B  2146 0001:0002A2A4
  2147 0001:0002A2B4  2148 0001:0002A2C1  2144 0001:0002A2CA  2156 0001:0002A2D1
  2161 0001:0002A31D  2166 0001:0002A32C  2167 0001:0002A359  2168 0001:0002A35F
  2169 0001:0002A36D  2171 0001:0002A372  2175 0001:0002A385  2177 0001:0002A390
  2178 0001:0002A3A7  2179 0001:0002A3C1  2180 0001:0002A3DB  2182 0001:0002A3E6
  2183 0001:0002A40F  2184 0001:0002A418  2185 0001:0002A422  2180 0001:0002A423
  2194 0001:0002A461  2197 0001:0002A47C  2198 0001:0002A47F  2199 0001:0002A488
  2200 0001:0002A48A  2204 0001:0002A490  2205 0001:0002A493  2206 0001:0002A49C
  2207 0001:0002A49E  2211 0001:0002A4A4  2212 0001:0002A4A7  2213 0001:0002A4B0
  2214 0001:0002A4B2  2217 0001:0002A4B8  2218 0001:0002A4BB  2219 0001:0002A4C4
  2220 0001:0002A4C6  2223 0001:0002A4CC  2224 0001:0002A4D5  2225 0001:0002A4DB
  2227 0001:0002A4E4  2228 0001:0002A4E9  2229 0001:0002A4EB  2232 0001:0002A4F0
  2233 0001:0002A50F  2234 0001:0002A522  2236 0001:0002A54B  2237 0001:0002A567
  2238 0001:0002A588  2243 0001:0002A590  2244 0001:0002A5AF  2246 0001:0002A5B5
  2247 0001:0002A5C8  2249 0001:0002A5DC  2251 0001:0002A60C  2253 0001:0002A61C
  2256 0001:0002A620  2257 0001:0002A651  2260 0001:0002A678  2261 0001:0002A686
  2262 0001:0002A699  2264 0001:0002A6A9  2265 0001:0002A6AE  2266 0001:0002A6B6
  2267 0001:0002A6B8  2270 0001:0002A6C0  2271 0001:0002A6C3  2272 0001:0002A6CC
  2273 0001:0002A6CE  2276 0001:0002A6D4  2277 0001:0002A6D7  2278 0001:0002A6E0
  2279 0001:0002A6E2  2282 0001:0002A6E8  2283 0001:0002A6EB  2284 0001:0002A6F4
  2285 0001:0002A6F6  2288 0001:0002A6FC  2290 0001:0002A6FF  2291 0001:0002A708
  2292 0001:0002A70A  2295 0001:0002A710  2296 0001:0002A713  2303 0001:0002A71B
  2304 0001:0002A71D  2309 0001:0002A724  2311 0001:0002A72F  2313 0001:0002A745
  2315 0001:0002A762  2316 0001:0002A76C  2317 0001:0002A770  2318 0001:0002A775
  2319 0001:0002A77C  2321 0001:0002A781  2324 0001:0002A788  2327 0001:0002A78F
  2328 0001:0002A794  2329 0001:0002A796  2332 0001:0002A79C  2333 0001:0002A79F
  2334 0001:0002A7A8  2335 0001:0002A7AA  2338 0001:0002A7B0  2339 0001:0002A7B3
  2340 0001:0002A7BC  2341 0001:0002A7BE  2344 0001:0002A7C4  2345 0001:0002A7C7
  2346 0001:0002A7D0  2347 0001:0002A7D2  2350 0001:0002A7D8  2351 0001:0002A7DE
  2352 0001:0002A7E2  2353 0001:0002A7E7  2354 0001:0002A7F0  2355 0001:0002A7F2
  2358 0001:0002A7F8  2359 0001:0002A801  2360 0001:0002A80C  2362 0001:0002A811
  2363 0001:0002A817  2365 0001:0002A81C  2366 0001:0002A81E  2394 0001:0002A824
  2396 0001:0002A839  2404 0001:0002A84C  2405 0001:0002A853  2407 0001:0002A86D
  2408 0001:0002A883  2409 0001:0002A89B  2410 0001:0002A8B3  2411 0001:0002A8CB
  2412 0001:0002A8E3  2413 0001:0002A8FB  2414 0001:0002A913  2415 0001:0002A92B
  2416 0001:0002A943  2417 0001:0002A95B  2418 0001:0002A973  2426 0001:0002A9A2
  2429 0001:0002AA98  2430 0001:0002AAA8  2432 0001:0002AAAD  2435 0001:0002AADB
  2437 0001:0002AADE  2440 0001:0002AAF5  2442 0001:0002AB00  2443 0001:0002AB06
  2447 0001:0002AB0C  2448 0001:0002AB10  2453 0001:0002AB14  2455 0001:0002AB1F
  2456 0001:0002AB25  2460 0001:0002AB2B  2461 0001:0002AB2F  2466 0001:0002AB36
  2467 0001:0002AB3A  2472 0001:0002AB42  2477 0001:0002AB4A  2482 0001:0002AB53
  2485 0001:0002AB5C  2486 0001:0002AB6C  2488 0001:0002AB71  2491 0001:0002AB97
  2493 0001:0002AB9A  2496 0001:0002ABAC  2497 0001:0002ABB0  2501 0001:0002ABB7
  2502 0001:0002ABBB  2505 0001:0002ABC4  2510 0001:0002ABCC  2515 0001:0002ABD5
  2534 0001:0002ABE0  2536 0001:0002ABF5  2544 0001:0002AC08  2545 0001:0002AC0F
  2547 0001:0002AC29  2548 0001:0002AC3F  2549 0001:0002AC57  2550 0001:0002AC6F
  2551 0001:0002AC87  2552 0001:0002AC9D  2553 0001:0002ACB5  2554 0001:0002ACCD
  2562 0001:0002ACFC  2573 0001:0002ADA4  2574 0001:0002ADB4  2576 0001:0002ADB9
  2579 0001:0002ADE7  2581 0001:0002ADEA  2584 0001:0002AE00  2585 0001:0002AE04
  2589 0001:0002AE1B  2590 0001:0002AE1F  2594 0001:0002AE36  2595 0001:0002AE3A
  2598 0001:0002AE49  2603 0001:0002AE51  2608 0001:0002AE5A  2626 0001:0002AE64
  2628 0001:0002AE79  2634 0001:0002AE8C  2635 0001:0002AE93  2637 0001:0002AEAD
  2638 0001:0002AEC3  2639 0001:0002AEDB  2640 0001:0002AEF3  2641 0001:0002AF0B
  2642 0001:0002AF23  2643 0001:0002AF3B  2651 0001:0002AF6A  2654 0001:0002AFF8
  2655 0001:0002B008  2657 0001:0002B00D  2660 0001:0002B033  2662 0001:0002B036
  2665 0001:0002B040  2666 0001:0002B044  2669 0001:0002B04C  2674 0001:0002B054
  2679 0001:0002B05D  2682 0001:0002B068  2683 0001:0002B078  2685 0001:0002B07D
  2688 0001:0002B0A3  2690 0001:0002B0A6  2693 0001:0002B0B0  2694 0001:0002B0B4
  2697 0001:0002B0C3  2702 0001:0002B0CB  2707 0001:0002B0D4  2717 0001:0002B0DC
  2720 0001:0002B0E6  2728 0001:0002B0E8  2731 0001:0002B0F2  2733 0001:0002B124
  2735 0001:0002B12F  2739 0001:0002B144  2741 0001:0002B14B  2742 0001:0002B157
  2758 0001:0002B163

Line numbers for DbxOpenOdbc(DbxOpenOdbc.pas) segment .text

   363 0001:0002B81C   443 0001:0002B900   693 0001:0002BA58   824 0001:0002BEE8
   897 0001:0002C120  1064 0001:0002C2D4  1433 0001:0002CA00  1461 0001:0002CCB0
  1487 0001:0002CF2C  1512 0001:0002D1AC  1533 0001:0002D428  1556 0001:0002D6AC
  1613 0001:0002D93C  1750 0001:0002DB88  1751 0001:0002DB8E  1752 0001:0002DB9B
  1753 0001:0002DBA9  1755 0001:0002DBC5  1756 0001:0002DBCA  1764 0001:0002DBD0
  1765 0001:0002DBEE  1766 0001:0002DBF2  1767 0001:0002DBFD  1768 0001:0002DC01
  1770 0001:0002DC39  1771 0001:0002DC47  1772 0001:0002DC67  1779 0001:0002DC84
  1782 0001:0002DCB2  1787 0001:0002DD04  1788 0001:0002DD22  1789 0001:0002DD26
  1790 0001:0002DD31  1791 0001:0002DD35  1793 0001:0002DD6D  1794 0001:0002DD8D
  1795 0001:0002DDB3  1801 0001:0002DE04  1804 0001:0002DE15  1805 0001:0002DE19
  1808 0001:0002DE2F  1812 0001:0002DE35  1825 0001:0002DE42  1832 0001:0002DE5E
  1854 0001:0002DE7D  1855 0001:0002DE84  1868 0001:0002DE90  1869 0001:0002DEBA
  1871 0001:0002DEBE  1877 0001:0002DEEA  1878 0001:0002DEEE  1881 0001:0002DEFA
  1883 0001:0002DF01  1886 0001:0002DF33  1889 0001:0002DF5D  1890 0001:0002DF68
  1894 0001:0002DF71  1896 0001:0002DF84  1897 0001:0002DF8F  1900 0001:0002DF98
  1904 0001:0002DFA5  1908 0001:0002DFB2  1909 0001:0002DFC5  1911 0001:0002DFD7
  1916 0001:0002DFE9  1917 0001:0002DFEF  1919 0001:0002E005  1923 0001:0002E019
  1925 0001:0002E02B  1928 0001:0002E034  1935 0001:0002E045  1937 0001:0002E04D
  1940 0001:0002E056  1941 0001:0002E063  1947 0001:0002E06C  1949 0001:0002E074
  1951 0001:0002E082  1952 0001:0002E092  1953 0001:0002E09D  1957 0001:0002E09F
  1959 0001:0002E0A9  1964 0001:0002E0AC  1967 0001:0002E0B5  1968 0001:0002E0B9
  1970 0001:0002E0BD  1971 0001:0002E0C1  1972 0001:0002E0C6  1973 0001:0002E0CC
  1979 0001:0002E0D5  1982 0001:0002E0DD  1984 0001:0002E0EB  1985 0001:0002E0F9
  1986 0001:0002E101  1990 0001:0002E103  1993 0001:0002E106  1996 0001:0002E131
  1997 0001:0002E135  1999 0001:0002E13D  2000 0001:0002E147  2004 0001:0002E150
  2005 0001:0002E154  2006 0001:0002E15B  2007 0001:0002E162  2009 0001:0002E169
  2010 0001:0002E170  2011 0001:0002E175  2012 0001:0002E17B  2016 0001:0002E181
  2017 0001:0002E185  2018 0001:0002E18C  2019 0001:0002E193  2020 0001:0002E198
  2024 0001:0002E1A0  2025 0001:0002E1A4  2026 0001:0002E1A7  2027 0001:0002E1AD
  2031 0001:0002E1B3  2033 0001:0002E1BE  2035 0001:0002E1C3  2037 0001:0002E1C5
  2038 0001:0002E1CB  2044 0001:0002E1D1  2046 0001:0002E1E0  2049 0001:0002E1E5
  2050 0001:0002E1E9  2056 0001:0002E21E  2061 0001:0002E240  2063 0001:0002E263
  2064 0001:0002E26D  2066 0001:0002E271  2067 0001:0002E27B  2068 0001:0002E289
  2072 0001:0002E292  2073 0001:0002E2A8  2074 0001:0002E2B6  2076 0001:0002E2DA
  2083 0001:0002E2F8  2085 0001:0002E301  2086 0001:0002E306  2087 0001:0002E30B
  2089 0001:0002E3DD  2092 0001:0002E3E7  2094 0001:0002E3EC  2097 0001:0002E3F2
  2104 0001:0002E40A  2109 0001:0002E414  2114 0001:0002E430  2120 0001:0002E43A
  2124 0001:0002E444  2126 0001:0002E44E  2131 0001:0002E458  2134 0001:0002E46A
  2138 0001:0002E474  2142 0001:0002E47E  2145 0001:0002E488  2146 0001:0002E48D
  2149 0001:0002E497  2152 0001:0002E4A1  2153 0001:0002E4A6  2154 0001:0002E4AC
  2155 0001:0002E4B1  2156 0001:0002E4BB  2159 0001:0002E4C5  2161 0001:0002E4CF
  2163 0001:0002E4D9  2165 0001:0002E4E3  2167 0001:0002E4ED  2170 0001:0002E4F7
  2171 0001:0002E4FC  2175 0001:0002E506  2176 0001:0002E50B  2180 0001:0002E515
  2181 0001:0002E51A  2186 0001:0002E524  2189 0001:0002E52E  2190 0001:0002E53B
  2194 0001:0002E546  2195 0001:0002E54B  2196 0001:0002E551  2198 0001:0002E558
  2211 0001:0002E55F  2212 0001:0002E563  2214 0001:0002E56A  2216 0001:0002E571
  2218 0001:0002E577  2220 0001:0002E584  2221 0001:0002E58A  2223 0001:0002E591
  2225 0001:0002E598  2227 0001:0002E59E  2228 0001:0002E5A3  2232 0001:0002E5AA
  2233 0001:0002E5AF  2245 0001:0002E5B4  2249 0001:0002E5BC  2250 0001:0002E5D5
  2251 0001:0002E6B6  2252 0001:0002E6C7  2253 0001:0002E6D8  2254 0001:0002E6E9
  2255 0001:0002E6FA  2256 0001:0002E70B  2257 0001:0002E71C  2258 0001:0002E72D
  2259 0001:0002E73E  2260 0001:0002E74F  2261 0001:0002E760  2262 0001:0002E771
  2263 0001:0002E782  2264 0001:0002E793  2265 0001:0002E7A4  2266 0001:0002E7B5
  2267 0001:0002E7C6  2268 0001:0002E7D7  2269 0001:0002E7E8  2270 0001:0002E7F9
  2271 0001:0002E80A  2272 0001:0002E81B  2273 0001:0002E82C  2274 0001:0002E83D
  2275 0001:0002E84E  2276 0001:0002E85C  2277 0001:0002E86A  2278 0001:0002E878
  2279 0001:0002E886  2280 0001:0002E894  2281 0001:0002E8A2  2282 0001:0002E8B0
  2284 0001:0002E8BE  2286 0001:0002E8F0  2289 0001:0002EB6C  2290 0001:0002EB88
  2291 0001:0002EB8F  2293 0001:0002EB98  2295 0001:0002EBE8  2296 0001:0002EBF2
  2298 0001:0002EC03  2299 0001:0002EC55  2300 0001:0002EC66  2301 0001:0002EC77
  2302 0001:0002EC88  2303 0001:0002EC99  2304 0001:0002ECAA  2305 0001:0002ECBB
  2306 0001:0002ECCC  2307 0001:0002ECDD  2308 0001:0002ECEE  2309 0001:0002ECFF
  2310 0001:0002ED10  2313 0001:0002ED21  2314 0001:0002ED3C  2315 0001:0002ED4A
  2316 0001:0002ED58  2317 0001:0002ED66  2320 0001:0002ED74  2321 0001:0002ED7A
  2323 0001:0002ED88  2324 0001:0002ED8E  2326 0001:0002ED9C  2327 0001:0002EDA2
  2330 0001:0002EDAE  2331 0001:0002EDB9  2333 0001:0002EDEB  2340 0001:0002EFC0
  2341 0001:0002EFEB  2342 0001:0002F001  2343 0001:0002F00D  2345 0001:0002F036
  2347 0001:0002F044  2349 0001:0002F052  2351 0001:0002F060  2353 0001:0002F06E
  2355 0001:0002F07C  2357 0001:0002F08A  2360 0001:0002F0B8  2363 0001:0002F0C5
  2365 0001:0002F0D1  2366 0001:0002F0D3  2369 0001:0002F1DE  2370 0001:0002F1EA
  2373 0001:0002F1EF  2375 0001:0002F200  2377 0001:0002F211  2379 0001:0002F222
  2382 0001:0002F233  2383 0001:0002F248  2385 0001:0002F259  2388 0001:0002F260
  2390 0001:0002F271  2392 0001:0002F282  2394 0001:0002F293  2396 0001:0002F2A4
  2398 0001:0002F2B5  2400 0001:0002F2C6  2402 0001:0002F2D7  2404 0001:0002F2E8
  2406 0001:0002F2F9  2408 0001:0002F30A  2410 0001:0002F31B  2414 0001:0002F355
  2416 0001:0002F366  2418 0001:0002F377  2420 0001:0002F388  2422 0001:0002F396
  2424 0001:0002F3A4  2426 0001:0002F3B2  2429 0001:0002F3C0  2430 0001:0002F3D5
  2432 0001:0002F3E3  2436 0001:0002F3E7  2437 0001:0002F3FC  2439 0001:0002F40A
  2443 0001:0002F40C  2445 0001:0002F410  2446 0001:0002F440  2449 0001:0002F445
  2451 0001:0002F451  2453 0001:0002F457  2454 0001:0002F463  2457 0001:0002F468
  2459 0001:0002F55A  2460 0001:0002F560  2462 0001:0002F590  2464 0001:0002F5A1
  2465 0001:0002F5A7  2466 0001:0002F5B7  2469 0001:0002F5EB  2472 0001:0002F5FC
  2474 0001:0002F619  2475 0001:0002F61F  2477 0001:0002F64F  2481 0001:0002F660
  2483 0001:0002F67A  2485 0001:0002F695  2487 0001:0002F6B2  2489 0001:0002F6D3
  2494 0001:0002F719  2499 0001:0002F75F  2508 0001:0002F7F4  2510 0001:0002F816
  2512 0001:0002F835  2515 0001:0002F843  2518 0001:0002F851  2520 0001:0002F866
  2525 0001:0002F874  2527 0001:0002F889  2531 0001:0002F8FE  2534 0001:0002FCF0
  2536 0001:0002FCF9  2541 0001:0002FD04  2560 0001:0002FD08  2561 0001:0002FD28
  2562 0001:0002FD2F  2564 0001:0002FD42  2565 0001:0002FD4E  2567 0001:0002FD61
  2568 0001:0002FD6F  2569 0001:0002FD93  2565 0001:0002FD96  2570 0001:0002FDB6
  2577 0001:0002FDE8  2578 0001:0002FDEC  2580 0001:0002FDFB  2582 0001:0002FE00
  2580 0001:0002FE09  2585 0001:0002FE0C  2588 0001:0002FE10  2589 0001:0002FE11
  2590 0001:0002FE23  2591 0001:0002FE31  2592 0001:0002FE4B  2595 0001:0002FE50
  2596 0001:0002FE53  2598 0001:0002FE58  2599 0001:0002FE72  2600 0001:0002FE7F
  2602 0001:0002FE83  2609 0001:0002FE88  2610 0001:0002FEA9  2612 0001:0002FEBA
  2614 0001:0002FEC4  2615 0001:0002FED1  2616 0001:0002FED7  2618 0001:0002FEDA
  2619 0001:0002FEF9  2620 0001:0002FEFC  2621 0001:0002FF01  2622 0001:0002FF06
  2624 0001:0002FF13  2625 0001:0002FF23  2626 0001:0002FF27  2627 0001:0002FF2A
  2628 0001:0002FF2C  2629 0001:0002FF31  2631 0001:0002FF45  2632 0001:0002FF4A
  2622 0001:0002FF4B  2633 0001:0002FF50  2640 0001:0002FF66  2641 0001:0002FF6B
  2643 0001:0002FF73  2644 0001:0002FF7E  2646 0001:0002FF8B  2647 0001:0002FF8E
  2648 0001:0002FF96  2649 0001:0002FF9C  2650 0001:0002FFA2  2653 0001:0002FFAA
  2654 0001:0002FFAF  2655 0001:0002FFC7  2656 0001:0002FFD1  2658 0001:0002FFD6
  2660 0001:0002FFD8  2661 0001:0002FFDA  2663 0001:0002FFDF  2664 0001:0002FFE2
  2666 0001:0002FFE6  2667 0001:0002FFE8  2661 0001:0002FFE9  2669 0001:0002FFEE
  2670 0001:0002FFF3  2671 0001:0002FFF7  2672 0001:0002FFFC  2674 0001:00030001
  2675 0001:0003001B  2677 0001:0003001D  2678 0001:00030022  2680 0001:00030026
  2681 0001:0003003F  2682 0001:00030040  2678 0001:00030043  2685 0001:00030047
  2686 0001:0003004C  2688 0001:00030050  2689 0001:00030069  2690 0001:0003006A
  2686 0001:0003006D  2693 0001:00030071  2694 0001:0003008B  2697 0001:000300C1
  2774 0001:00030800  2775 0001:00030818  2776 0001:0003081F  2778 0001:0003082C
  2780 0001:00030839  2782 0001:0003084E  2783 0001:00030860  2785 0001:0003086E
  2788 0001:0003087C  2789 0001:00030891  2791 0001:0003089F  2792 0001:000308B4
  2794 0001:000308C0  2796 0001:000308C5  2798 0001:000308DA  2800 0001:000308E8
  2802 0001:000308F6  2805 0001:00030904  2806 0001:0003090B  2811 0001:0003090D
  2817 0001:0003099A  2819 0001:00030AAC  2820 0001:00030AD6  2822 0001:00030ADD
  2823 0001:00030AE3  2824 0001:00030B01  2825 0001:00030B03  2827 0001:00030B08
  2829 0001:00030B0A  2830 0001:00030B15  2833 0001:00030B21  2835 0001:00030B26
  2836 0001:00030B30  2840 0001:00030B38  2841 0001:00030B3D  2843 0001:00030B44
  2844 0001:00030B49  2845 0001:00030B50  2848 0001:00030B56  2851 0001:00030B58
  2852 0001:00030B67  2854 0001:00030B6E  2855 0001:00030B73  2857 0001:00030B7C
  2858 0001:00030B82  2862 0001:00030B95  2864 0001:00030B98  2865 0001:00030B9E
  2868 0001:00030BBC  2870 0001:00030BE2  2876 0001:00030BEC  2878 0001:00030BF2
  2883 0001:00030BF8  2885 0001:00030C15  2886 0001:00030C1A  2887 0001:00030C23
  2888 0001:00030C27  2889 0001:00030C2A  2890 0001:00030C2D  2891 0001:00030C32
  2893 0001:00030C39  2895 0001:00030C54  2896 0001:00030C63  2897 0001:00030C6A
  2898 0001:00030C71  2903 0001:00030C91  2906 0001:00030C9C  2908 0001:00030CA7
  2909 0001:00030CAE  2910 0001:00030CB6  2911 0001:00030CBE  2912 0001:00030CC3
  2917 0001:00030CDA  2920 0001:00030CE0  2921 0001:00030CE1  2922 0001:00030CF5
  2923 0001:00030CFA  2924 0001:00030D01  2925 0001:00030D08  2929 0001:00030D14
  2931 0001:00030D18  2932 0001:00030D1E  2933 0001:00030D24  2934 0001:00030D2A
  2935 0001:00030D30  2937 0001:00030D36  2950 0001:00030D38  2954 0001:00030D61
  2959 0001:00030D7E  2960 0001:00030D8C  2961 0001:00030D97  2963 0001:00030DB4
  2965 0001:00030DE0  2972 0001:00030E20  2978 0001:00030E35  2979 0001:00030E40
  2981 0001:00030E5D  2985 0001:00030E81  2986 0001:00030E8C  2987 0001:00030EA9
  2988 0001:00030ED5  2995 0001:00030F19  3025 0001:00030FCC  3026 0001:00030FCF
  3028 0001:00030FD8  3029 0001:00030FE1  3031 0001:00030FF2  3032 0001:00030FFB
  3034 0001:0003100C  3035 0001:00031015  3037 0001:00031021  3038 0001:00031027
  3041 0001:0003102C  3042 0001:0003102F  3043 0001:0003103E  3049 0001:00031040
  3050 0001:0003105C  3052 0001:00031061  3054 0001:0003106A  3055 0001:0003106D
  3056 0001:00031080  3058 0001:0003108A  3059 0001:0003109D  3060 0001:000310B1
  3056 0001:000310B2  3061 0001:000310B5  3063 0001:000310C6  3064 0001:000310EA
  3079 0001:000310F0  3080 0001:000310F6  3082 0001:00031106  3083 0001:0003110F
  3084 0001:0003112B  3087 0001:00031137  3088 0001:00031140  3090 0001:00031144
  3091 0001:0003114B  3092 0001:00031154  3094 0001:00031162  3098 0001:00031171
  3109 0001:000311A6  3113 0001:000311CA  3116 0001:000311DA  3118 0001:000311E4
  3122 0001:00031211  3123 0001:00031216  3124 0001:0003121B  3125 0001:00031220
  3126 0001:00031225  3127 0001:0003122A  3128 0001:0003122F  3129 0001:00031234
  3130 0001:0003123A  3131 0001:00031241  3132 0001:00031247  3134 0001:0003124E
  3135 0001:00031257  3138 0001:00031265  3143 0001:0003127D  3146 0001:00031283
  3149 0001:00031287  3151 0001:00031297  3152 0001:0003129C  3153 0001:000312A1
  3154 0001:000312A6  3156 0001:000312BB  3158 0001:000312C3  3160 0001:000312CB
  3162 0001:000312D1  3164 0001:000312D7  3165 0001:000312DD  3167 0001:000312EB
  3168 0001:000312F1  3170 0001:000312FF  3171 0001:00031305  3173 0001:00031311
  3175 0001:00031317  3176 0001:0003131D  3177 0001:00031325  3179 0001:0003132B
  3181 0001:00031331  3182 0001:0003133E  3184 0001:0003134E  3187 0001:00031356
  3189 0001:0003135C  3190 0001:00031369  3192 0001:00031376  3195 0001:0003137E
  3196 0001:00031384  3199 0001:0003138D  3201 0001:00031393  3203 0001:00031399
  3204 0001:000313A6  3206 0001:000313B6  3209 0001:000313C4  3211 0001:000313CA
  3212 0001:000313D7  3214 0001:000313E4  3218 0001:000313ED  3220 0001:000313F3
  3222 0001:00031408  3224 0001:00031410  3226 0001:00031418  3231 0001:0003141E
  3232 0001:00031426  3233 0001:00031438  3235 0001:0003143F  3237 0001:00031465
  3239 0001:00031474  3241 0001:00031483  3243 0001:00031492  3245 0001:000314A1
  3247 0001:000314B0  3249 0001:000314BF  3251 0001:000314CE  3254 0001:000314DB
  3255 0001:000314E1  3257 0001:00031519  3259 0001:0003151F  3260 0001:0003152E
  3261 0001:00031541  3262 0001:0003154C  3265 0001:0003157F  3266 0001:0003158C
  3267 0001:00031592  3269 0001:00031599  3270 0001:0003159F  3272 0001:000315A3
  3273 0001:000315A9  3275 0001:000315BF  3276 0001:000315C5  3279 0001:000315EE
  3282 0001:00031615  3284 0001:0003161E  3285 0001:0003162F  3287 0001:00031635
  3288 0001:0003164C  3290 0001:00031658  3293 0001:0003167B  3294 0001:00031681
  3297 0001:00031696  3298 0001:000316A0  3302 0001:000316CB  3304 0001:000316DC
  3305 0001:000316E7  3306 0001:000316EE  3307 0001:000316F8  3310 0001:00031704
  3313 0001:00031715  3316 0001:00031733  3319 0001:00031741  3321 0001:0003174B
  3322 0001:00031750  3323 0001:0003176A  3325 0001:0003176F  3327 0001:00031775
  3328 0001:00031780  3329 0001:00031787  3330 0001:0003178D  3334 0001:00031796
  3339 0001:0003179A  3340 0001:000317A0  3342 0001:000317B2  3343 0001:000317B8
  3346 0001:000317D4  3347 0001:000317DA  3348 0001:000317E3  3353 0001:000317EA
  3354 0001:000317EB  3356 0001:000317F4  3358 0001:000317FA  3359 0001:00031807
  3362 0001:00031832  3364 0001:00031838  3365 0001:0003184B  3366 0001:00031856
  3369 0001:00031871  3371 0001:00031877  3372 0001:0003187D  3374 0001:000318A8
  3375 0001:000318AE  3376 0001:000318D4  3377 0001:000318DD  3380 0001:000318E6
  3381 0001:000318EE  3382 0001:000318F4  3384 0001:000318FF  3385 0001:0003190A
  3388 0001:00031914  3390 0001:0003191A  3391 0001:00031929  3392 0001:0003196E
  3396 0001:00031973  3397 0001:00031979  3399 0001:00031989  3400 0001:0003198F
  3403 0001:000319A9  3404 0001:000319AA  3405 0001:000319B0  3408 0001:000319D9
  3349 0001:00031A00  3412 0001:00031A0E  3413 0001:00031A14  3415 0001:00031A1D
  3417 0001:00031A25  3419 0001:00031A2B  3420 0001:00031A3E  3421 0001:00031A49
  3423 0001:00031A51  3425 0001:00031A68  3427 0001:00031A6C  3428 0001:00031A72
  3430 0001:00031A81  3431 0001:00031A87  3433 0001:00031A94  3434 0001:00031A9A
  3439 0001:00031AEF  3446 0001:00031B3F  3448 0001:00031B49  3450 0001:00031B4F
  3451 0001:00031B5C  3454 0001:00031B6E  3455 0001:00031B74  3457 0001:00031B81
  3459 0001:00031B8A  3460 0001:00031B90  3461 0001:00031BA1  3462 0001:00031BA7
  3466 0001:00031BC6  3467 0001:00031BCC  3469 0001:00031BDF  3470 0001:00031BE5
  3472 0001:00031C02  3474 0001:00031C32  3476 0001:00031C38  3477 0001:00031C45
  3480 0001:00031C57  3481 0001:00031C5D  3482 0001:00031C6A  3484 0001:00031C7F
  3485 0001:00031C85  3487 0001:00031CBB  3488 0001:00031CC1  3489 0001:00031D01
  3482 0001:00031D02  3491 0001:00031D09  3493 0001:00031D0F  3494 0001:00031D1C
  3495 0001:00031D2C  3499 0001:00031D3F  3500 0001:00031D52  3501 0001:00031D5D
  3505 0001:00031D70  3507 0001:00031D7A  3508 0001:00031D88  3509 0001:00031D8D
  3510 0001:00031D97  3512 0001:00031DA3  3513 0001:00031DB9  3510 0001:00031DC4
  3515 0001:00031DC7  3518 0001:00031DD1  3519 0001:00031DE6  3516 0001:00031DF0
  3521 0001:00031DF9  3524 0001:00031E1B  3526 0001:00031E1D  3527 0001:00031E23
  3528 0001:00031E2A  3529 0001:00031E4E  3530 0001:00031E56  3540 0001:00031E90
  3545 0001:000322E0  3547 0001:000322E3  3550 0001:000322E6  3551 0001:000322F3
  3552 0001:000322F8  3554 0001:00032318  3555 0001:0003231B  3562 0001:0003231F
  3568 0001:0003234C  3570 0001:00032359  3572 0001:0003235E  3575 0001:00032361
  3576 0001:0003236C  3578 0001:00032371  3579 0001:00032377  3581 0001:0003237F
  3583 0001:000323A0  3585 0001:000323A4  3592 0001:000323A7  3599 0001:000323D8
  3601 0001:000323F2  3604 0001:000323F5  3605 0001:00032408  3606 0001:0003240D
  3608 0001:0003242D  3610 0001:00032431  3616 0001:00032441  3618 0001:0003244D
  3619 0001:00032452  3623 0001:00032461  3624 0001:00032466  3627 0001:00032473
  3628 0001:00032487  3629 0001:0003248C  3638 0001:000324E6  3643 0001:00032584
  3645 0001:0003258E  3648 0001:00032594  3649 0001:000325A3  3650 0001:000325A8
  3651 0001:000325B6  3655 0001:000325E9  3656 0001:000325EE  3663 0001:000325F6
  3707 0001:0003263C  3708 0001:0003264B  3710 0001:0003264D  3711 0001:00032652
  3713 0001:00032656  3714 0001:0003265B  3716 0001:00032660  3717 0001:0003266E
  3719 0001:0003269B  3720 0001:000326A4  3722 0001:000326AE  3724 0001:000326B8
  3725 0001:000326C1  3727 0001:000326CA  3729 0001:000326D4  3730 0001:000326DD
  3732 0001:000326E6  3734 0001:000326ED  3735 0001:000326F6  3737 0001:000326FD
  3741 0001:00032704  3742 0001:0003270A  3744 0001:00032711  3746 0001:00032717
  3747 0001:0003272E  3754 0001:0003273D  3756 0001:00032743  3757 0001:0003275A
  3767 0001:00032782  3768 0001:00032787  3775 0001:00032793  3780 0001:0003279C
  3781 0001:000327B0  3783 0001:000327B2  3784 0001:000327C0  3785 0001:000327C7
  3789 0001:00032804  3790 0001:00032809  3797 0001:00032815  3803 0001:0003281C
  3804 0001:00032837  3806 0001:00032839  3807 0001:00032847  3809 0001:0003285F
  3815 0001:00032867  3819 0001:0003286F  3820 0001:00032875  3825 0001:0003287C
  3828 0001:000328A3  3837 0001:000328AA  3840 0001:000328D1  3841 0001:000328D8
  3842 0001:000328DE  3849 0001:00032900  3850 0001:00032905  3857 0001:00032933
  3869 0001:0003293C  3871 0001:0003295D  3874 0001:00032960  3875 0001:00032965
  3876 0001:0003296A  3877 0001:00032972  3878 0001:00032980  3879 0001:0003298D
  3880 0001:0003299A  3881 0001:000329A2  3882 0001:000329A8  3883 0001:000329AE
  3886 0001:000329D8  3887 0001:000329E3  3888 0001:00032A03  3890 0001:00032A08
  3891 0001:00032A1E  3892 0001:00032A24  3893 0001:00032A2A  3896 0001:00032A54
  3897 0001:00032A5F  3888 0001:00032A7F  3900 0001:00032A91  3901 0001:00032A99
  3902 0001:00032AA1  3910 0001:00032ACE  3915 0001:00032B20  3917 0001:00032B41
  3918 0001:00032B50  3919 0001:00032B5E  3920 0001:00032B68  3921 0001:00032B76
  3922 0001:00032B7C  3924 0001:00032B93  3926 0001:00032BA9  3932 0001:00032BD9
  3937 0001:00032BE4  3939 0001:00032BF9  3940 0001:00032C02  3941 0001:00032C06
  3942 0001:00032C0B  3943 0001:00032C13  3944 0001:00032C2D  3945 0001:00032C31
  3946 0001:00032C35  3947 0001:00032C44  3950 0001:00032C47  3955 0001:00032C65
  3958 0001:00032C74  3960 0001:00032C7F  3961 0001:00032C85  3962 0001:00032C8E
  3967 0001:00032CA5  3970 0001:00032CA8  3972 0001:00032CB4  3973 0001:00032CBD
  3975 0001:00032CE9  3977 0001:00032CF1  3979 0001:00032CF5  3980 0001:00032D00
  3981 0001:00032D0E  3983 0001:00032D28  3984 0001:00032D31  3986 0001:00032D3B
  3991 0001:00032D47  3992 0001:00032D51  3993 0001:00032D56  3994 0001:00032D61
  3996 0001:00032D7E  4002 0001:00032D86  4011 0001:00032D94  4017 0001:00032DC2
  4022 0001:00032DC4  4025 0001:00032DEE  4028 0001:00032DF6  4029 0001:00032DFE
  4031 0001:00032E03  4032 0001:00032E16  4033 0001:00032E1D  4034 0001:00032E21
  4035 0001:00032E4F  4038 0001:00032E5D  4043 0001:00032E66  4044 0001:00032E6F
  4045 0001:00032E77  4046 0001:00032E7F  4048 0001:00032E86  4049 0001:00032E8E
  4051 0001:00032E96  4052 0001:00032E9C  4054 0001:00032EA1  4061 0001:00032EA8
  4062 0001:00032EAE  4063 0001:00032EB8  4064 0001:00032EC9  4065 0001:00032ECE
  4066 0001:00032EE0  4067 0001:00032EE9  4068 0001:00032EF4  4069 0001:00032EFC
  4070 0001:00032F02  4071 0001:00032F07  4074 0001:00032F1F  4075 0001:00032F27
  4076 0001:00032F2F  4077 0001:00032F35  4080 0001:00032F45  4089 0001:00032F76
  4095 0001:00032FC8  4097 0001:00032FD2  4100 0001:00032FD8  4103 0001:00032FEC
  4106 0001:00032FF9  4108 0001:00033002  4109 0001:00033019  4110 0001:0003301E
  4114 0001:0003303D  4116 0001:00033046  4118 0001:0003305A  4119 0001:0003305F
  4124 0001:0003307E  4125 0001:00033095  4126 0001:0003309A  4129 0001:000330B9
  4131 0001:000330C5  4133 0001:000330DC  4134 0001:000330E1  4139 0001:00033100
  4140 0001:00033103  4141 0001:0003310C  4148 0001:00033110  4161 0001:00033240
  4164 0001:00033264  4165 0001:0003326D  4167 0001:00033292  4170 0001:0003329E
  4171 0001:000332A9  4172 0001:000332B2  4174 0001:000332B7  4175 0001:000332BD
  4177 0001:000332C5  4179 0001:000332CA  4180 0001:000332CE  4181 0001:000332D8
  4183 0001:000332E6  4185 0001:000332EC  4186 0001:000332F8  4187 0001:000332FC
  4188 0001:0003330C  4189 0001:00033319  4191 0001:0003331E  4192 0001:00033323
  4194 0001:0003332C  4197 0001:00033335  4199 0001:00033345  4200 0001:00033352
  4202 0001:0003335D  4203 0001:0003336A  4205 0001:0003337B  4206 0001:00033388
  4208 0001:00033399  4210 0001:000333A5  4213 0001:000333BD  4214 0001:000333C2
  4217 0001:000333EC  4222 0001:0003341F  4223 0001:0003342A  4226 0001:00033453
  4230 0001:00033457  4232 0001:00033477  4234 0001:0003347C  4237 0001:000334A6
  4239 0001:000334B2  4241 0001:000334BC  4243 0001:000334D4  4245 0001:000334F9
  4246 0001:000334FE  4251 0001:00033527  4252 0001:0003352B  4253 0001:0003353A
  4254 0001:00033540  4258 0001:00033558  4260 0001:00033563  4261 0001:00033569
  4262 0001:00033576  4263 0001:0003358B  4264 0001:00033594  4265 0001:0003359B
  4267 0001:000335A1  4268 0001:000335B1  4269 0001:000335B9  4271 0001:000335C0
  4273 0001:000335C8  4274 0001:000335D1  4282 0001:000335F8  4285 0001:000336A0
  4288 0001:000336A6  4291 0001:000336BE  4297 0001:000336C1  4304 0001:000336C4
  4306 0001:000336D3  4308 0001:000336DA  4309 0001:000336DF  4312 0001:000336E1
  4315 0001:000336E7  4316 0001:000336EC  4317 0001:000336F0  4319 0001:000336F4
  4320 0001:0003370D  4322 0001:00033712  4323 0001:00033718  4324 0001:0003372B
  4326 0001:00033733  4327 0001:00033738  4335 0001:0003375B  4341 0001:00033764
  4343 0001:00033773  4345 0001:0003377A  4346 0001:0003377F  4349 0001:00033781
  4352 0001:00033787  4353 0001:0003378C  4354 0001:00033790  4356 0001:00033794
  4357 0001:000337AD  4359 0001:000337B2  4360 0001:000337B8  4361 0001:000337CB
  4363 0001:000337D3  4364 0001:000337D8  4372 0001:000337FB  4407 0001:00033804
  4408 0001:0003380D  4411 0001:00033813  4412 0001:00033818  4417 0001:0003381C
  4418 0001:00033825  4419 0001:0003382E  4421 0001:0003383C  4422 0001:00033841
  4423 0001:00033844  4425 0001:0003384A  4426 0001:0003384B  4428 0001:0003384E
  4430 0001:0003385D  4431 0001:0003385E  4433 0001:0003385F  4436 0001:00033866
  4439 0001:00033872  4442 0001:00033885  4444 0001:00033886  4440 0001:00033897
  4449 0001:000338A2  4454 0001:000338A8  4455 0001:000338C9  4456 0001:000338D3
  4458 0001:000338E0  4459 0001:000338E9  4461 0001:000338ED  4463 0001:000338F9
  4464 0001:00033904  4466 0001:00033905  4467 0001:00033913  4469 0001:00033925
  4472 0001:0003392C  4474 0001:00033937  4480 0001:0003398B  4485 0001:00033998
  4486 0001:000339BB  4487 0001:000339C5  4489 0001:000339D2  4490 0001:000339DB
  4492 0001:000339E3  4494 0001:000339F1  4495 0001:000339FC  4497 0001:000339FD
  4498 0001:00033A0D  4500 0001:00033A1F  4503 0001:00033A26  4505 0001:00033A31
  4510 0001:00033A93  4517 0001:00033AA0  4518 0001:00033AC4  4521 0001:00033AC8
  4522 0001:00033AD4  4523 0001:00033AE0  4524 0001:00033AEE  4525 0001:00033B04
  4526 0001:00033B11  4527 0001:00033B1B  4528 0001:00033B25  4530 0001:00033B4B
  4532 0001:00033B58  4533 0001:00033B5C  4537 0001:00033B75  4538 0001:00033B7A
  4539 0001:00033B86  4541 0001:00033BBA  4545 0001:00033BC4  4546 0001:00033BD0
  4547 0001:00033BD7  4548 0001:00033BF0  4549 0001:00033BF4  4551 0001:00033C02
  4552 0001:00033C1C  4555 0001:00033C24  4556 0001:00033C27  4557 0001:00033C35
  4558 0001:00033C40  4559 0001:00033C4B  4567 0001:00033C50  4568 0001:00033C53
  4569 0001:00033C5E  4570 0001:00033C69  4571 0001:00033C74  4710 0001:00033C78
  4711 0001:00033CA9  4713 0001:00033CBD  4714 0001:00033CC4  4715 0001:00033CC6
  4718 0001:00033CCB  4724 0001:00033CE6  4727 0001:00033CF1  4729 0001:00033D02
  4731 0001:00033D0A  4732 0001:00033D26  4733 0001:00033D33  4737 0001:00033D3B
  4739 0001:00033D5E  4742 0001:00033D6E  4744 0001:00033DB4  4745 0001:00033DD0
  4749 0001:00033DD8  4754 0001:00033E2E  4759 0001:00033E48  4760 0001:00033E90
  4762 0001:00033E9F  4763 0001:00033EB7  4764 0001:00033ECF  4767 0001:00033EE7
  4768 0001:00033EEB  4771 0001:00033F07  4805 0001:00033F21  4806 0001:00033F25
  4809 0001:00033F2C  4815 0001:00033F59  4820 0001:00033FB1  4827 0001:00033FC0
  4828 0001:00033FE1  4830 0001:00033FF2  4836 0001:00033FFB  4838 0001:00034013
  4866 0001:0003404C  4878 0001:00034058  4879 0001:0003408A  4881 0001:000340AA
  4885 0001:000340C8  4886 0001:000340DB  4893 0001:000340DD  4894 0001:000340EC
  4903 0001:000340F1  4905 0001:000340FF  4907 0001:0003410E  4908 0001:00034111
  4909 0001:0003411D  4910 0001:0003412A  4911 0001:00034137  4912 0001:0003414A
  4913 0001:0003414F  4914 0001:0003415D  4916 0001:0003417B  4992 0001:0003418B
  4993 0001:00034191  4994 0001:000341A0  4995 0001:000341AD  4996 0001:000341BA
  4997 0001:000341D0  4998 0001:000341D5  4999 0001:000341E3  5001 0001:00034200
  5003 0001:00034220  5004 0001:0003422B  5007 0001:00034266  5013 0001:00034270
  5014 0001:0003428C  5015 0001:0003429A  5016 0001:000342AB  5018 0001:000342C6
  5019 0001:000342E8  5042 0001:000342F0  5043 0001:000342F7  5045 0001:000342F9
  5077 0001:00034336  5089 0001:0003435E  5093 0001:00034379  5095 0001:00034388
  5096 0001:0003439D  5098 0001:000343A3  5101 0001:000343AD  5104 0001:000343B5
  5106 0001:000343BB  5107 0001:000343CE  5108 0001:000343DA  5109 0001:000343E4
  5112 0001:000343F5  5113 0001:000343FE  5114 0001:0003440A  5115 0001:00034417
  5116 0001:0003441F  5118 0001:0003442E  5120 0001:00034430  5122 0001:00034434
  5129 0001:00034446  5133 0001:00034462  5134 0001:00034464  5138 0001:00034469
  5139 0001:00034471  5143 0001:0003448D  5144 0001:0003448F  5148 0001:00034491
  5149 0001:00034498  5150 0001:000344A0  5151 0001:000344A6  5152 0001:000344AB
  5154 0001:000344AD  5156 0001:000344BC  5157 0001:000344CB  5159 0001:000344CF
  5160 0001:000344D4  5163 0001:000344D8  5165 0001:000344E5  5166 0001:000344E7
  5169 0001:000344E9  5154 0001:000344EA  5170 0001:000344EF  5172 0001:000344F3
  5173 0001:000344F5  5176 0001:000344FC  5181 0001:000344FE  5189 0001:00034508
  5197 0001:00034518  5200 0001:0003451E  5202 0001:0003452B  5204 0001:0003453F
  5207 0001:0003454B  5209 0001:00034557  5212 0001:0003455D  5213 0001:00034563
  5214 0001:00034567  5215 0001:0003457D  5216 0001:00034586  5217 0001:0003458D
  5218 0001:00034592  5223 0001:00034595  5224 0001:000345A6  5225 0001:000345AB
  5228 0001:000345D0  5229 0001:000345D6  5231 0001:000345F6  5232 0001:000345FD
  5233 0001:00034606  5234 0001:00034609  5237 0001:0003460F  5238 0001:00034615
  5242 0001:00034625  5243 0001:00034634  5244 0001:00034639  5247 0001:0003465A
  5248 0001:00034660  5250 0001:00034680  5251 0001:00034686  5254 0001:0003468D
  5270 0001:00034693  5281 0001:0003472C  5282 0001:0003473A  5285 0001:00034749
  5288 0001:00034758  5289 0001:00034764  5291 0001:0003478E  5292 0001:000347A9
  5293 0001:000347BF  5296 0001:000347F5  5297 0001:000347FF  5299 0001:00034808
  5300 0001:00034811  5301 0001:0003481D  5302 0001:00034826  5305 0001:00034832
  5306 0001:00034839  5308 0001:00034842  5309 0001:00034848  5313 0001:00034852
  5314 0001:00034855  5316 0001:00034859  5318 0001:00034860  5319 0001:00034865
  5324 0001:00034872  5329 0001:00034879  5330 0001:0003487C  5331 0001:00034880
  5336 0001:00034885  5337 0001:0003488F  5338 0001:00034896  5340 0001:0003489A
  5341 0001:0003489D  5345 0001:000348A7  5346 0001:000348AC  5350 0001:000348B3
  5354 0001:000348D1  5356 0001:000348DD  5357 0001:000348E4  5359 0001:000348EA
  5361 0001:000348FA  5362 0001:00034909  5366 0001:00034913  5372 0001:0003493F
  5374 0001:00034956  5375 0001:00034966  5376 0001:00034970  5377 0001:0003497A
  5378 0001:00034983  5380 0001:0003498E  5382 0001:00034998  5384 0001:000349B2
  5385 0001:000349C3  5386 0001:000349CE  5387 0001:000349E2  5394 0001:000349ED
  5396 0001:00034A38  5406 0001:00034A48  5408 0001:00034A54  5410 0001:00034A5E
  5411 0001:00034A6D  5413 0001:00034A70  5414 0001:00034A78  5416 0001:00034A80
  5421 0001:00034A87  5423 0001:00034A93  5424 0001:00034A9A  5428 0001:00034A9F
  5432 0001:00034AB7  5435 0001:00034AC0  5436 0001:00034AC9  5438 0001:00034AED
  5439 0001:00034B01  5440 0001:00034B11  5441 0001:00034B26  5442 0001:00034B2D
  5456 0001:00034B36  5462 0001:00034BD0  5463 0001:00034BD6  5464 0001:00034BD8
  5466 0001:00034BE3  5467 0001:00034BEC  5469 0001:00034BF8  5477 0001:00034C15
  5478 0001:00034C1A  5479 0001:00034C1C  5480 0001:00034C1E  5482 0001:00034C2A
  5483 0001:00034C34  5490 0001:00034C4E  5497 0001:00034C63  5499 0001:00034C66
  5502 0001:00034C68  5503 0001:00034C6A  5504 0001:00034C6C  5480 0001:00034C6D
  5505 0001:00034C71  5506 0001:00034C75  5508 0001:00034C79  5509 0001:00034C7D
  5511 0001:00034C81  5514 0001:00034C8B  5517 0001:00034C90  5518 0001:00034C96
  5519 0001:00034C9D  5520 0001:00034CA1  5522 0001:00034CA8  5523 0001:00034CAD
  5528 0001:00034CB0  5529 0001:00034CB3  5530 0001:00034CBA  5531 0001:00034CBE
  5533 0001:00034CC3  5534 0001:00034CC5  5538 0001:00034CC8  5539 0001:00034CD4
  5541 0001:00034CF9  5547 0001:00034D00  5548 0001:00034D22  5550 0001:00034D29
  5552 0001:00034D36  5553 0001:00034D41  5554 0001:00034D53  5555 0001:00034D57
  5556 0001:00034D5A  5557 0001:00034D5F  5558 0001:00034D68  5564 0001:00034D8C
  5566 0001:00034D93  5568 0001:00034D9A  5574 0001:00034DBA  5575 0001:00034DC9
  5577 0001:00034DD5  5584 0001:00034E0B  5587 0001:00034E14  5589 0001:00034E2D
  5591 0001:00034E36  5592 0001:00034E50  5593 0001:00034E59  5599 0001:00034E7D
  5611 0001:00034E84  5612 0001:00034EA3  5615 0001:00034EA5  5616 0001:00034EAE
  5625 0001:00034EE1  5626 0001:00034EED  5627 0001:00034EFB  5628 0001:00034F13
  5632 0001:00034F29  5633 0001:00034F2B  5635 0001:00034F37  5637 0001:00034F43
  5638 0001:00034F46  5643 0001:00034F5A  5646 0001:00034F61  5649 0001:00034F68
  5652 0001:00034F6F  5654 0001:00034F74  5660 0001:00034FA7  5663 0001:00034FB0
  5665 0001:00034FBC  5669 0001:00034FC4  5670 0001:00034FC9  5671 0001:00034FCE
  5673 0001:00034FDA  5676 0001:00034FE0  5677 0001:00034FE2  5679 0001:00034FF3
  5683 0001:00035008  5684 0001:00035015  5685 0001:0003501E  5688 0001:00035020
  5690 0001:00035030  5692 0001:00035040  5693 0001:00035057  5695 0001:0003505F
  5696 0001:0003506D  5699 0001:00035079  5702 0001:0003507E  5708 0001:000350A4
  5710 0001:000350AF  5715 0001:000350C1  5719 0001:000350CD  5722 0001:000350F3
  5726 0001:00035118  5729 0001:00035121  5730 0001:00035126  5731 0001:0003513D
  5732 0001:00035142  5736 0001:00035169  5738 0001:00035170  5740 0001:00035176
  5742 0001:00035189  5743 0001:0003518E  5745 0001:000351B3  5749 0001:000351BE
  5750 0001:000351CA  5751 0001:000351D5  5752 0001:000351DE  5754 0001:000351E8
  5756 0001:000351F4  5757 0001:00035200  5758 0001:00035205  5760 0001:00035209
  5762 0001:00035218  5763 0001:00035225  5765 0001:00035231  5766 0001:00035235
  5760 0001:00035236  5768 0001:0003523B  5771 0001:0003525F  5773 0001:00035261
  5774 0001:00035268  5775 0001:00035273  5778 0001:00035281  5786 0001:000352AF
  5795 0001:00035484  5796 0001:00035487  5797 0001:00035490  5800 0001:00035498
  5801 0001:000354AC  5803 0001:000354B7  5805 0001:000354BC  5806 0001:000354C5
  5809 0001:000354C7  5810 0001:000354D0  5812 0001:000354F2  5813 0001:000354FB
  5814 0001:00035509  5816 0001:00035513  5818 0001:00035523  5819 0001:00035536
  5820 0001:0003553F  5826 0001:0003556A  5827 0001:0003556F  5828 0001:00035571
  5830 0001:00035587  5832 0001:00035598  5836 0001:000355AF  5838 0001:000355B7
  5839 0001:000355C1  5840 0001:000355C8  5843 0001:000355CD  5845 0001:000355D6
  5847 0001:000355E2  5848 0001:000355F4  5849 0001:000355F9  5852 0001:00035620
  5853 0001:00035629  5854 0001:0003562F  5856 0001:00035638  5857 0001:0003563F
  5862 0001:00035647  5864 0001:00035650  5865 0001:00035655  5867 0001:00035658
  5869 0001:0003565E  5870 0001:00035669  5871 0001:00035671  5872 0001:0003567D
  5873 0001:00035684  5874 0001:0003568B  5875 0001:00035691  5876 0001:00035699
  5880 0001:000356A0  5828 0001:000356A3  5882 0001:000356AD  5883 0001:000356B9
  5884 0001:000356C2  5886 0001:000356CE  5890 0001:000356F4  5892 0001:000356F6
  5893 0001:000356FD  5894 0001:00035708  5895 0001:00035716  5903 0001:00035722
  5912 0001:00035784  5913 0001:00035787  5914 0001:00035790  5917 0001:00035798
  5918 0001:000357AC  5920 0001:000357B7  5922 0001:000357BC  5923 0001:000357C5
  5926 0001:000357C7  5927 0001:000357D0  5929 0001:000357F2  5930 0001:000357FB
  5931 0001:00035809  5933 0001:00035813  5935 0001:00035823  5936 0001:00035836
  5937 0001:0003583F  5943 0001:0003586A  5944 0001:0003586F  5945 0001:00035871
  5948 0001:00035887  5950 0001:00035898  5955 0001:000358AF  5957 0001:000358B7
  5958 0001:000358C1  5959 0001:000358C8  5963 0001:000358CD  5965 0001:000358D6
  5967 0001:000358E2  5968 0001:000358F4  5969 0001:000358F9  5972 0001:00035920
  5973 0001:00035929  5974 0001:0003592F  5976 0001:00035938  5977 0001:0003593F
  5983 0001:00035947  5985 0001:00035950  5986 0001:00035955  5988 0001:00035958
  5990 0001:0003595E  5991 0001:00035969  5992 0001:00035971  5993 0001:0003597D
  5994 0001:00035984  5995 0001:0003598B  5996 0001:00035991  5997 0001:00035999
  6002 0001:000359A0  5945 0001:000359A3  6004 0001:000359AD  6005 0001:000359B9
  6006 0001:000359C2  6008 0001:000359CE  6012 0001:000359F4  6014 0001:000359F6
  6015 0001:000359FD  6016 0001:00035A08  6017 0001:00035A16  6025 0001:00035A22
  6028 0001:00035A8C  6031 0001:00035A8F  6032 0001:00035A93  6033 0001:00035A97
  6036 0001:00035A9B  6038 0001:00035A9F  6040 0001:00035AA8  6041 0001:00035AAC
  6042 0001:00035AB4  6043 0001:00035ABF  6044 0001:00035AC6  6045 0001:00035AD1
  6046 0001:00035ADC  6047 0001:00035AE7  6048 0001:00035AEE  6049 0001:00035AF5
  6051 0001:00035AFC  6052 0001:00035B0E  6053 0001:00035B18  6054 0001:00035B22
  6055 0001:00035B2C  6056 0001:00035B33  6057 0001:00035B3B  6058 0001:00035B43
  6059 0001:00035B4A  6060 0001:00035B4F  6061 0001:00035B54  6062 0001:00035B59
  6063 0001:00035B61  6064 0001:00035B67  6065 0001:00035B6F  6066 0001:00035B77
  6067 0001:00035B7F  6068 0001:00035B87  6069 0001:00035B91  6070 0001:00035B9B
  6071 0001:00035BA5  6072 0001:00035BB0  6077 0001:00035BB7  6081 0001:00035BBC
  6082 0001:00035BC2  6083 0001:00035BCD  6113 0001:00035BD0  6114 0001:00035BF0
  6115 0001:00035BFD  6116 0001:00035C01  6117 0001:00035C0E  6118 0001:00035C17
  6121 0001:00035C40  6123 0001:00035C7C  6167 0001:00035CC8  6168 0001:00035CCE
  6170 0001:00035CD6  6172 0001:00035CDF  6180 0001:00035D23  6183 0001:00035D4E
  6185 0001:00035D68  6187 0001:00035D78  6188 0001:00035D8E  6168 0001:00035D90
  6189 0001:00035D99  6194 0001:00035DA0  6196 0001:00035DB6  6198 0001:00035DC7
  6200 0001:00035DCC  6201 0001:00035DD8  6203 0001:00035DDA  6205 0001:00035E03
  6208 0001:00035E33  6209 0001:00035E3F  6196 0001:00035E46  6210 0001:00035E6C
  6212 0001:00035E80  6213 0001:00035EBD  6218 0001:00035EBF  6219 0001:00035EC8
  6221 0001:00035F33  6224 0001:00035F40  6226 0001:00035F4B  6229 0001:00035F5A
  6230 0001:00035F62  6231 0001:00035F6B  6235 0001:00035F7F  6236 0001:00035F8C
  6235 0001:00035F96  6238 0001:00035F9E  6241 0001:00035FAC  6242 0001:00035FB5
  6244 0001:00035FC8  6246 0001:00035FE6  6249 0001:00035FED  6252 0001:00035FFA
  6254 0001:00036018  6255 0001:00036049  6256 0001:0003605E  6257 0001:0003606B
  6263 0001:00036081  6265 0001:0003608D  6267 0001:000360A6  6268 0001:000360AF
  6270 0001:000360B9  6271 0001:00036110  6274 0001:00036129  6276 0001:00036139
  6277 0001:0003615F  6280 0001:00036171  6281 0001:0003618D  6285 0001:000361BD
  6290 0001:000361F4  6291 0001:00036216  6294 0001:00036228  6295 0001:0003623A
  6296 0001:00036256  6301 0001:00036286  6302 0001:000362A8  6305 0001:000362BA
  6306 0001:000362CC  6307 0001:000362E8  6312 0001:00036318  6313 0001:0003633A
  6316 0001:0003634C  6317 0001:0003635E  6318 0001:0003637A  6323 0001:000363AA
  6324 0001:000363CC  6327 0001:000363DE  6328 0001:000363F0  6329 0001:0003640C
  6334 0001:0003643C  6335 0001:0003645E  6338 0001:00036470  6339 0001:00036482
  6340 0001:0003649E  6345 0001:000364CE  6346 0001:000364F4  6349 0001:00036506
  6350 0001:00036522  6355 0001:00036552  6372 0001:00036589  6373 0001:00036595
  6374 0001:000365D3  6376 0001:000365EC  6377 0001:00036621  6378 0001:00036636
  6381 0001:0003664D  6382 0001:00036682  6383 0001:00036697  6386 0001:000366AE
  6387 0001:000366E3  6388 0001:000366F8  6391 0001:0003670F  6392 0001:00036744
  6393 0001:00036759  6396 0001:0003676D  6397 0001:000367A2  6398 0001:000367B7
  6400 0001:000367CB  6410 0001:000367D8  6412 0001:000367E8  6413 0001:0003680A
  6415 0001:00036856  6416 0001:00036878  6418 0001:0003688A  6419 0001:0003689C
  6424 0001:000368AF  6426 0001:000368C8  6427 0001:000368EE  6429 0001:0003692D
  6431 0001:00036945  6432 0001:0003695E  6435 0001:00036973  6437 0001:0003698C
  6443 0001:000369B4  6444 0001:000369C9  6446 0001:000369D6  6447 0001:000369E3
  6450 0001:000369F1  6453 0001:00036A06  6454 0001:00036A20  6455 0001:00036A36
  6456 0001:00036A3F  6457 0001:00036A6D  6458 0001:00036A7E  6460 0001:00036A8B
  6461 0001:00036AAC  6465 0001:00036AC1  6471 0001:00036AD7  6474 0001:00036AE4
  6476 0001:00036B08  6477 0001:00036B1A  6479 0001:00036B3E  6480 0001:00036B54
  6484 0001:00036B77  6485 0001:00036B99  6486 0001:00036BAB  6487 0001:00036BCD
  6488 0001:00036BDF  6494 0001:00036BEA  6501 0001:00036BF7  6503 0001:00036C1B
  6504 0001:00036C2D  6507 0001:00036C6C  6509 0001:00036C7E  6511 0001:00036CA2
  6512 0001:00036CB4  6515 0001:00036CEE  6516 0001:00036D00  6518 0001:00036D21
  6521 0001:00036D58  6524 0001:00036D7C  6525 0001:00036D85  6528 0001:00036DC3
  6529 0001:00036DCF  6542 0001:00036E08  6547 0001:00036E0F  6549 0001:00036E17
  6551 0001:00036E39  6552 0001:00036E3E  6554 0001:00036E65  6556 0001:00036E71
  6558 0001:00036E8B  6559 0001:00036E90  6563 0001:00036EB7  6564 0001:00036EC4
  6566 0001:00036ED4  6567 0001:00036EE1  6569 0001:00036EF1  6570 0001:00036F02
  6571 0001:00036F24  6572 0001:00036F59  6581 0001:00036F6A  6582 0001:00036F7A
  6586 0001:00036F99  6588 0001:00036FBE  6594 0001:00036FF9  6596 0001:00037003
  6597 0001:00037015  6598 0001:0003703C  6600 0001:00037057  6610 0001:0003705E
  6611 0001:00037069  6612 0001:0003708A  6614 0001:0003708F  6615 0001:00037097
  6617 0001:000370A4  6618 0001:000370AF  6620 0001:000370D7  6621 0001:000370E9
  6622 0001:00037110  6623 0001:00037121  6627 0001:0003712D  6633 0001:00037168
  6634 0001:00037173  6636 0001:0003719B  6637 0001:000371A2  6638 0001:000371B4
  6640 0001:000371DB  6642 0001:000371FF  6643 0001:00037208  6651 0001:00037246
  6656 0001:0003724D  6657 0001:0003724F  6658 0001:00037258  6659 0001:00037278
  6661 0001:0003727D  6663 0001:00037288  6666 0001:000372AF  6667 0001:000372B6
  6669 0001:000372BA  6670 0001:000372C3  6671 0001:000372E3  6672 0001:000372E8
  6675 0001:000372F9  6677 0001:00037320  6681 0001:0003732F  6682 0001:00037352
  6683 0001:00037361  6685 0001:00037365  6687 0001:0003738C  6691 0001:00037394
  6693 0001:000373A4  6694 0001:000373B0  6697 0001:000373EE  6698 0001:00037423
  6699 0001:00037438  6702 0001:0003744F  6703 0001:00037484  6704 0001:00037499
  6707 0001:000374B0  6708 0001:000374E5  6709 0001:000374FA  6712 0001:00037511
  6713 0001:00037546  6714 0001:0003755B  6717 0001:0003756F  6718 0001:000375A4
  6719 0001:000375B9  6721 0001:000375CD  6727 0001:000375DA  6728 0001:000375EF
  6730 0001:000375FC  6731 0001:00037608  6735 0001:0003761A  6737 0001:00037626
  6740 0001:00037638  6742 0001:00037647  6746 0001:00037654  6748 0001:00037674
  6752 0001:00037679  6754 0001:00037681  6770 0001:000376A8  6786 0001:000376BB
  6791 0001:000376C5  6793 0001:000376DE  6794 0001:000376E8  6797 0001:000376F2
  6801 0001:0003770F  6802 0001:00037721  6803 0001:0003772F  6805 0001:0003773D
  6806 0001:0003774B  6808 0001:00037757  6809 0001:00037761  6810 0001:0003776B
  6812 0001:00037785  6813 0001:0003778A  6816 0001:00037796  6819 0001:000377CC
  6821 0001:000377D1  6822 0001:000377DB  6824 0001:000377F5  6825 0001:000377FA
  6828 0001:00037806  6830 0001:0003783C  6832 0001:0003784E  6837 0001:00037866
  6838 0001:00037872  6846 0001:0003787E  6847 0001:00037888  6853 0001:00037892
  6856 0001:00037899  6857 0001:000378AA  6858 0001:000378CC  6860 0001:000378DE
  6861 0001:00037900  6862 0001:00037912  6865 0001:0003791D  6866 0001:00037930
  6867 0001:00037956  6869 0001:0003797C  6872 0001:0003798F  6874 0001:0003799F
  6876 0001:000379C4  6877 0001:000379CB  6878 0001:000379E8  6879 0001:000379EC
  6881 0001:000379F6  6882 0001:000379FB  6885 0001:00037A24  6888 0001:00037A2E
  6890 0001:00037A3A  6892 0001:00037A54  6893 0001:00037A59  6898 0001:00037A81
  6902 0001:00037ABF  6904 0001:00037AD9  6905 0001:00037ADE  6911 0001:00037B05
  6913 0001:00037B18  6914 0001:00037B29  6915 0001:00037B5C  6918 0001:00037BA4
  6919 0001:00037BB5  6920 0001:00037BD7  6928 0001:00037BE8  6930 0001:00037C08
  6932 0001:00037C0D  6934 0001:00037C15  6936 0001:00037C3C  6937 0001:00037C4F
  6939 0001:00037C62  6941 0001:00037C82  6943 0001:00037C87  6945 0001:00037C90
  6947 0001:00037CB7  6949 0001:00037CD7  6951 0001:00037CDC  6953 0001:00037CE5
  6956 0001:00037D0E  6957 0001:00037D18  6958 0001:00037D21  6960 0001:00037D31
  6962 0001:00037D51  6964 0001:00037D56  6966 0001:00037D60  6968 0001:00037D87
  6969 0001:00037D91  6970 0001:00037D9A  6972 0001:00037DBA  6974 0001:00037DBF
  6976 0001:00037DC7  6978 0001:00037DEE  6979 0001:00037E01  6982 0001:00037E14
  6984 0001:00037E34  6986 0001:00037E39  6988 0001:00037E42  6991 0001:00037E6B
  6992 0001:00037E75  6994 0001:00037E7E  6996 0001:00037E9E  6998 0001:00037EA3
  7000 0001:00037EAC  7003 0001:00037ED5  7004 0001:00037EDF  7006 0001:00037EE8
  7007 0001:00037EF1  7008 0001:00037F0D  7010 0001:00037F12  7012 0001:00037F1B
  7014 0001:00037F42  7015 0001:00037F56  7016 0001:00037F5F  7017 0001:00037F7B
  7019 0001:00037F80  7021 0001:00037F89  7023 0001:00037FB0  7025 0001:00037FC4
  7026 0001:00037FE3  7029 0001:00037FF7  7032 0001:00038003  7033 0001:0003801B
  7045 0001:00038025  7048 0001:0003802D  7053 0001:0003803A  7054 0001:00038043
  7057 0001:000380B4  7067 0001:000380D9  7068 0001:000380FC  7070 0001:00038101
  7072 0001:0003810B  7077 0001:00038134  7087 0001:0003813C  7092 0001:00038144
  7093 0001:0003814D  7095 0001:0003816D  7096 0001:00038172  7109 0001:0003819A
  7113 0001:000381A8  7114 0001:000381BA  7115 0001:000381C5  7116 0001:000381D6
  7117 0001:000381E3  7119 0001:000381F3  7120 0001:00038203  7121 0001:00038211
  7122 0001:00038223  7123 0001:0003822F  7124 0001:00038239  7141 0001:00038243
  7143 0001:00038256  7144 0001:00038264  7146 0001:00038288  7141 0001:0003828E
  7148 0001:00038296  7208 0001:000382A7  7211 0001:000382C4  7213 0001:000382C6
  7214 0001:000382CD  7215 0001:000382D8  7217 0001:000382E6  7218 0001:000382EB
  7219 0001:000382F4  7221 0001:000382FF  7231 0001:000383AD  7241 0001:00038710
  7242 0001:0003872F  7243 0001:00038734  7244 0001:00038742  7246 0001:00038750
  7247 0001:0003875D  7250 0001:00038768  7258 0001:00038781  7260 0001:000387A2
  7261 0001:000387AF  7263 0001:000387D7  7264 0001:000387DC  7266 0001:0003880A
  7267 0001:00038811  7268 0001:0003881D  7269 0001:00038828  7270 0001:00038838
  7272 0001:00038867  7276 0001:00038889  7291 0001:0003889D  7292 0001:000388A3
  7293 0001:000388B1  7295 0001:000388C8  7297 0001:000388D2  7298 0001:000388D8
  7299 0001:000388E6  7301 0001:000388FD  7305 0001:0003892A  7311 0001:00038967
  7335 0001:000389E0  7336 0001:00038A18  7337 0001:00038A1D  7339 0001:00038A21
  7341 0001:00038A34  7342 0001:00038A3B  7344 0001:00038A43  7346 0001:00038A49
  7347 0001:00038A4D  7348 0001:00038A50  7351 0001:00038A56  7354 0001:00038A71
  7355 0001:00038A75  7339 0001:00038A76  7356 0001:00038A79  7357 0001:00038A7F
  7359 0001:00038A91  7360 0001:00038A98  7361 0001:00038A9E  7363 0001:00038AB0
  7364 0001:00038AB7  7365 0001:00038ABD  7367 0001:00038ACF  7368 0001:00038AD6
  7369 0001:00038ADC  7371 0001:00038AEE  7372 0001:00038B25  7374 0001:00038B30
  7378 0001:00038B68  7381 0001:00038B71  7382 0001:00038B7E  7383 0001:00038B97
  7384 0001:00038BBD  7385 0001:00038BC2  7387 0001:00038BE2  7388 0001:00038BFD
  7390 0001:00038C08  7391 0001:00038C0E  7396 0001:00038C36  7398 0001:00038C45
  7400 0001:00038C49  7407 0001:00038C5B  7409 0001:00038C6A  7411 0001:00038C6E
  7415 0001:00038C80  7417 0001:00038C8F  7419 0001:00038C93  7423 0001:00038CA5
  7425 0001:00038CC4  7427 0001:00038CC8  7431 0001:00038CDA  7433 0001:00038CEF
  7435 0001:00038CF3  7439 0001:00038D05  7441 0001:00038D14  7443 0001:00038D18
  7447 0001:00038D2A  7449 0001:00038D39  7451 0001:00038D3D  7455 0001:00038D4F
  7457 0001:00038D5E  7459 0001:00038D62  7463 0001:00038D74  7465 0001:00038D89
  7467 0001:00038D8D  7471 0001:00038D9F  7473 0001:00038DAE  7475 0001:00038DB2
  7479 0001:00038DC4  7481 0001:00038DD9  7483 0001:00038DDD  7487 0001:00038DEF
  7489 0001:00038DFE  7491 0001:00038E02  7495 0001:00038E14  7497 0001:00038E23
  7499 0001:00038E27  7503 0001:00038E39  7505 0001:00038E4E  7507 0001:00038E52
  7511 0001:00038E64  7513 0001:00038E73  7515 0001:00038E77  7518 0001:00038E89
  7520 0001:00038E98  7522 0001:00038E9C  7526 0001:00038EAE  7528 0001:00038EBD
  7530 0001:00038EC1  7534 0001:00038ED3  7536 0001:00038EE2  7538 0001:00038EE6
  7542 0001:00038EF8  7544 0001:00038F0D  7546 0001:00038F11  7550 0001:00038F23
  7552 0001:00038F32  7554 0001:00038F36  7558 0001:00038F48  7560 0001:00038F57
  7562 0001:00038F5B  7566 0001:00038F6D  7568 0001:00038F82  7570 0001:00038F86
  7574 0001:00038F98  7576 0001:00038FA7  7578 0001:00038FAB  7582 0001:00038FBD
  7584 0001:00038FCC  7586 0001:00038FD0  7590 0001:00038FE2  7592 0001:00038FF1
  7594 0001:00038FF5  7598 0001:00039007  7600 0001:00039016  7602 0001:0003901A
  7606 0001:0003902C  7608 0001:0003903B  7610 0001:0003903F  7614 0001:00039051
  7616 0001:0003906F  7618 0001:00039073  7622 0001:00039082  7624 0001:000390A1
  7626 0001:000390A5  7630 0001:000390B4  7632 0001:000390C9  7634 0001:000390CD
  7639 0001:000390DC  7641 0001:000390E0  7646 0001:000390ED  7647 0001:000390F3
  7648 0001:0003911B  7652 0001:00039123  7653 0001:00039130  7654 0001:00039149
  7655 0001:0003916E  7659 0001:00039173  7660 0001:00039192  7661 0001:0003919F
  7662 0001:000391A4  7663 0001:000391A9  7664 0001:000391AE  7668 0001:000391B8
  7669 0001:000391D3  7674 0001:000391EC  7675 0001:000391F2  7678 0001:0003921A
  7680 0001:00039227  7681 0001:00039240  7682 0001:00039265  7683 0001:0003926A
  7685 0001:0003928A  7686 0001:000392A8  7688 0001:000392CD  7689 0001:000392DE
  7692 0001:000392F3  7695 0001:000392F9  7696 0001:00039312  7697 0001:00039337
  7701 0001:0003933C  7702 0001:0003935B  7703 0001:0003936B  7704 0001:00039373
  7705 0001:0003937B  7706 0001:00039383  7710 0001:0003938D  7711 0001:000393AB
  7715 0001:000393D0  7716 0001:000393E9  7717 0001:0003940E  7721 0001:00039413
  7722 0001:00039432  7723 0001:00039442  7727 0001:0003944C  7728 0001:0003946A
  7731 0001:00039478  7732 0001:0003948E  7733 0001:000394A4  7735 0001:000394AE
  7736 0001:000394B4  7739 0001:000394E9  7745 0001:00039528  7747 0001:0003952F
  7756 0001:00039541  7767 0001:000395CF  7769 0001:000395D6  7773 0001:000395E8
  7779 0001:0003963C  7781 0001:00039643  7785 0001:00039655  7788 0001:0003966A
  7790 0001:00039671  7794 0001:00039683  7797 0001:00039698  7799 0001:0003969F
  7805 0001:000396B1  7806 0001:000396C6  7808 0001:000396D2  7810 0001:000396E7
  7812 0001:000396EE  7816 0001:00039700  7831 0001:000397E8  7833 0001:000397EF
  7837 0001:00039801  7843 0001:00039846  7845 0001:0003984D  7850 0001:0003985F
  7852 0001:00039874  7854 0001:0003987B  7872 0001:0003988D  7874 0001:000398A2
  7876 0001:000398A9  7880 0001:000398BB  7882 0001:000398D0  7884 0001:000398D7
  7886 0001:000398E4  7888 0001:000398F3  7890 0001:00039908  7892 0001:0003990F
  7894 0001:0003991C  7895 0001:00039923  7897 0001:0003992F  7899 0001:00039944
  7901 0001:0003994B  7906 0001:0003995D  7908 0001:00039972  7910 0001:00039979
  7914 0001:0003998B  7916 0001:000399A0  7918 0001:000399A7  7922 0001:000399B9
  7929 0001:00039A22  7931 0001:00039A29  7934 0001:00039A3B  7936 0001:00039A50
  7938 0001:00039A57  7942 0001:00039A69  7944 0001:00039A7E  7946 0001:00039A85
  7949 0001:00039A97  7951 0001:00039AAC  7953 0001:00039AB3  7957 0001:00039AC5
  7959 0001:00039ADA  7961 0001:00039AE1  7963 0001:00039AEE  7964 0001:00039AFB
  7967 0001:00039B07  7969 0001:00039B1C  7971 0001:00039B23  7975 0001:00039B35
  7977 0001:00039B4A  7979 0001:00039B51  7984 0001:00039B63  7989 0001:00039B8D
  7991 0001:00039B94  7997 0001:00039BA1  7998 0001:00039BAA  7999 0001:00039BB1
  8000 0001:00039BBE  8003 0001:00039BCA  8006 0001:00039BE5  8008 0001:00039BEC
  8010 0001:00039BF9  8011 0001:00039C03  8015 0001:00039C0F  8021 0001:00039C3F
  8023 0001:00039C46  8027 0001:00039C53  8028 0001:00039C5C  8029 0001:00039C63
  8030 0001:00039C70  8034 0001:00039C7C  8040 0001:00039CAC  8042 0001:00039CB3
  8046 0001:00039CC5  8052 0001:00039CF5  8054 0001:00039CFC  8058 0001:00039D0E
  8064 0001:00039D42  8066 0001:00039D49  8068 0001:00039D56  8070 0001:00039D6F
  8071 0001:00039D78  8072 0001:00039D7F  8073 0001:00039D8C  8077 0001:00039D98
  8085 0001:00039DDD  8087 0001:00039DE4  8091 0001:00039DF3  8097 0001:00039E23
  8099 0001:00039E2A  8101 0001:00039E37  8102 0001:00039E40  8107 0001:00039E49
  8109 0001:00039E50  8122 0001:00039E5D  8123 0001:00039E63  8124 0001:00039E8B
  8129 0001:00039E93  8138 0001:00039EE3  8146 0001:00039EEC  8147 0001:00039EF0
  8153 0001:00039EF9  8154 0001:00039F02  8156 0001:00039F12  8157 0001:00039F16
  8162 0001:00039F22  8163 0001:00039F26  8166 0001:00039F2D  8167 0001:00039F34
  8180 0001:00039F3D  8184 0001:00039F44  8188 0001:00039FB0  8196 0001:00039FBC
  8198 0001:00039FC9  8199 0001:00039FD3  8204 0001:00039FDF  8208 0001:00039FE9
  8210 0001:00039FFE  8220 0001:0003A005  8221 0001:0003A00E  8223 0001:0003A015
  8249 0001:0003A02E  8256 0001:0003A03A  8261 0001:0003A046  8263 0001:0003A04D
  8267 0001:0003A059  8269 0001:0003A060  8271 0001:0003A067  8273 0001:0003A071
  8282 0001:0003A07D  8286 0001:0003A089  8288 0001:0003A08D  8291 0001:0003A094
  8293 0001:0003A09B  8294 0001:0003A0A4  8296 0001:0003A0AB  8302 0001:0003A0B4
  8304 0001:0003A0CB  8305 0001:0003A0D7  8308 0001:0003A0DC  8314 0001:0003A0FD
  8321 0001:0003A106  8330 0001:0003A10F  8335 0001:0003A118  8353 0001:0003A121
  8357 0001:0003A128  8393 0001:0003A12F  8396 0001:0003A13E  8399 0001:0003A150
  8401 0001:0003A157  8404 0001:0003A169  8407 0001:0003A170  8409 0001:0003A179
  8410 0001:0003A182  8412 0001:0003A18B  8415 0001:0003A192  8417 0001:0003A19B
  8418 0001:0003A1A4  8421 0001:0003A1AB  8436 0001:0003A1EE  8445 0001:0003AE64
  8448 0001:0003AE6D  8449 0001:0003AE76  8451 0001:0003AE98  8452 0001:0003AEA4
  8453 0001:0003AEB2  8454 0001:0003AECD  8455 0001:0003AEDB  8457 0001:0003AEF6
  8458 0001:0003AEFE  8459 0001:0003AF0C  8461 0001:0003AF22  8462 0001:0003AF33
  8464 0001:0003AF3D  8465 0001:0003AF4D  8466 0001:0003AF5B  8468 0001:0003AF67
  8469 0001:0003AF6D  8470 0001:0003AF76  8471 0001:0003AF7C  8472 0001:0003AF83
  8474 0001:0003AFA0  8475 0001:0003AFBA  8477 0001:0003AFBF  8479 0001:0003AFC5
  8481 0001:0003AFEF  8484 0001:0003B018  8486 0001:0003B026  8488 0001:0003B030
  8490 0001:0003B03B  8491 0001:0003B041  8492 0001:0003B054  8494 0001:0003B059
  8496 0001:0003B05F  8498 0001:0003B089  8501 0001:0003B0B2  8488 0001:0003B0BC
  8507 0001:0003B0C7  8509 0001:0003B0CD  8511 0001:0003B0E3  8513 0001:0003B0E8
  8515 0001:0003B0EE  8517 0001:0003B118  8523 0001:0003B141  8525 0001:0003B147
  8526 0001:0003B14F  8528 0001:0003B156  8529 0001:0003B160  8530 0001:0003B16E
  8531 0001:0003B17B  8533 0001:0003B186  8535 0001:0003B195  8537 0001:0003B1BF
  8541 0001:0003B1F5  8545 0001:0003B234  8547 0001:0003B244  8459 0001:0003B247
  8549 0001:0003B25E  8550 0001:0003B267  8554 0001:0003B27A  8556 0001:0003B294
  8558 0001:0003B2B5  8560 0001:0003B2C0  8561 0001:0003B2C9  8563 0001:0003B2DE
  8564 0001:0003B2F2  8566 0001:0003B2F7  8568 0001:0003B2FD  8570 0001:0003B326
  8558 0001:0003B34E  8574 0001:0003B357  8576 0001:0003B364  8577 0001:0003B372
  8578 0001:0003B380  8580 0001:0003B385  8582 0001:0003B38B  8584 0001:0003B3B4
  8587 0001:0003B3E9  8588 0001:0003B3F0  8591 0001:0003B424  8593 0001:0003B42B
  8596 0001:0003B445  8597 0001:0003B44E  8599 0001:0003B45E  8601 0001:0003B47B
  8603 0001:0003B47D  8604 0001:0003B484  8605 0001:0003B48F  8606 0001:0003B49D
  8614 0001:0003B4A9  8617 0001:0003B58C  8618 0001:0003B5A7  8619 0001:0003B5AB
  8620 0001:0003B5C7  8621 0001:0003B5CF  8622 0001:0003B5F0  8625 0001:0003B5F8
  8626 0001:0003B60F  8627 0001:0003B628  8628 0001:0003B649  8634 0001:0003B650
  8636 0001:0003B656  8664 0001:0003B65C  8666 0001:0003B671  8668 0001:0003B676
  8671 0001:0003B695  8674 0001:0003B6AD  8681 0001:0003B6C4  8683 0001:0003B6D9
  8684 0001:0003B6DF  8686 0001:0003B6E6  8687 0001:0003B6EB  8688 0001:0003B70A
  8690 0001:0003B71F  8691 0001:0003B72D  8695 0001:0003B750  8696 0001:0003B755
  8704 0001:0003B774  8709 0001:0003B7B4  8711 0001:0003B7BD  8712 0001:0003B7C3
  8718 0001:0003B7CA  8733 0001:0003B7CC  8752 0001:0003B80F  8753 0001:0003B818
  8754 0001:0003B826  8755 0001:0003B828  8756 0001:0003B82D  8760 0001:0003B88A
  8762 0001:0003B89C  8763 0001:0003B8A5  8766 0001:0003B8D8  8777 0001:0003B8FB
  8778 0001:0003B904  8781 0001:0003B937  8789 0001:0003B95A  8791 0001:0003B96F
  8793 0001:0003B978  8795 0001:0003B997  8796 0001:0003B99C  8798 0001:0003B9C2
  8802 0001:0003B9CB  8803 0001:0003B9D0  8806 0001:0003B9D6  8807 0001:0003B9E3
  8812 0001:0003BA20  8814 0001:0003BA2A  8816 0001:0003BA39  8817 0001:0003BA44
  8835 0001:0003BA4E  8841 0001:0003BA58  8844 0001:0003BA65  8845 0001:0003BA73
  8847 0001:0003BA78  8848 0001:0003BA85  8853 0001:0003BAAC  8855 0001:0003BAB6
  8857 0001:0003BACD  8858 0001:0003BAD2  8860 0001:0003BADF  8862 0001:0003BAF8
  8863 0001:0003BAFD  8865 0001:0003BB23  8867 0001:0003BB2C  8869 0001:0003BB45
  8870 0001:0003BB4A  8873 0001:0003BB70  8875 0001:0003BB89  8876 0001:0003BB8E
  8879 0001:0003BBB4  8880 0001:0003BBB8  8881 0001:0003BBC0  8882 0001:0003BBC2
  8883 0001:0003BBCA  8884 0001:0003BBD2  8888 0001:0003BBD9  8891 0001:0003BBE2
  8892 0001:0003BBEF  8897 0001:0003BC18  8899 0001:0003BC22  8901 0001:0003BC39
  8902 0001:0003BC3E  8904 0001:0003BC47  8906 0001:0003BC60  8907 0001:0003BC65
  8909 0001:0003BC8B  8913 0001:0003BC96  8916 0001:0003BC9F  8917 0001:0003BCAC
  8922 0001:0003BCD5  8924 0001:0003BCDF  8926 0001:0003BCF6  8927 0001:0003BCFB
  8929 0001:0003BD04  8931 0001:0003BD1D  8932 0001:0003BD22  8934 0001:0003BD48
  8938 0001:0003BD53  8941 0001:0003BD5C  8942 0001:0003BD69  8947 0001:0003BD92
  8949 0001:0003BD9C  8951 0001:0003BDB3  8952 0001:0003BDB8  8954 0001:0003BDC1
  8956 0001:0003BDDA  8957 0001:0003BDDF  8959 0001:0003BE05  8963 0001:0003BE10
  8966 0001:0003BE19  8967 0001:0003BE26  8972 0001:0003BE4F  8974 0001:0003BE59
  8976 0001:0003BE70  8977 0001:0003BE75  8979 0001:0003BE7E  8981 0001:0003BE97
  8982 0001:0003BE9C  8984 0001:0003BEC2  8988 0001:0003BECD  8991 0001:0003BED6
  8992 0001:0003BEE3  8997 0001:0003BF0C  8999 0001:0003BF16  9001 0001:0003BF2B
  9003 0001:0003BF38  9005 0001:0003BF43  9007 0001:0003BF4C  9009 0001:0003BF64
  9010 0001:0003BF69  9012 0001:0003BF8F  9014 0001:0003BF9A  9015 0001:0003BFA0
  9016 0001:0003BFA7  9020 0001:0003BFB1  9021 0001:0003BFB6  9026 0001:0003BFBD
  9027 0001:0003BFC3  9032 0001:0003BFCA  9034 0001:0003BFD3  9036 0001:0003BFEE
  9037 0001:0003BFF3  9042 0001:0003C01B  9043 0001:0003C021  9049 0001:0003C028
  9050 0001:0003C02E  9053 0001:0003C033  9054 0001:0003C040  9059 0001:0003C07F
  9061 0001:0003C089  9063 0001:0003C09E  9065 0001:0003C0AB  9067 0001:0003C0B6
  9069 0001:0003C0CE  9070 0001:0003C0D3  9072 0001:0003C0F9  9073 0001:0003C101
  9075 0001:0003C106  9076 0001:0003C113  9082 0001:0003C152  9084 0001:0003C16D
  9085 0001:0003C172  9088 0001:0003C198  9089 0001:0003C1A5  9096 0001:0003C1E4
  9097 0001:0003C1EA  9098 0001:0003C1EF  9102 0001:0003C1F9  9107 0001:0003C203
  9109 0001:0003C218  9111 0001:0003C221  9113 0001:0003C239  9114 0001:0003C23E
  9116 0001:0003C264  9117 0001:0003C26A  9119 0001:0003C272  9123 0001:0003C27A
  9125 0001:0003C280  9127 0001:0003C285  9128 0001:0003C292  9133 0001:0003C2BC
  9136 0001:0003C2C6  9138 0001:0003C2DB  9140 0001:0003C2E4  9142 0001:0003C2FD
  9143 0001:0003C302  9146 0001:0003C328  9149 0001:0003C32E  9151 0001:0003C336
  9155 0001:0003C33E  9157 0001:0003C344  9159 0001:0003C349  9160 0001:0003C356
  9165 0001:0003C380  9167 0001:0003C38A  9171 0001:0003C399  9172 0001:0003C3AB
  9174 0001:0003C3B0  9175 0001:0003C3BD  9180 0001:0003C3EB  9183 0001:0003C3F5
  9186 0001:0003C402  9187 0001:0003C40B  9190 0001:0003C42F  9191 0001:0003C435
  9194 0001:0003C43C  9200 0001:0003C443  9201 0001:0003C44C  9204 0001:0003C470
  9208 0001:0003C477  9212 0001:0003C4A7  9214 0001:0003C4AE  9215 0001:0003C4B5
  9217 0001:0003C4B7  9218 0001:0003C4BE  9219 0001:0003C4C9  9220 0001:0003C4D7
  9227 0001:0003C505  9248 0001:0003CB9C  9249 0001:0003CBB6  9250 0001:0003CBBE
  9252 0001:0003CBCC  9254 0001:0003CBD1  9255 0001:0003CBE5  9257 0001:0003CC08
  9258 0001:0003CC29  9250 0001:0003CC2E  9261 0001:0003CC33  9274 0001:0003CCEF
  9275 0001:0003CD05  9276 0001:0003CD27  9280 0001:0003CD47  9281 0001:0003CD90
  9287 0001:0003CDE0  9307 0001:0003CE04  9308 0001:0003CE17  9309 0001:0003CE25
  9311 0001:0003CE2D  9313 0001:0003CE5B  9314 0001:0003CE65  9317 0001:0003CE95
  9318 0001:0003CEA6  9320 0001:0003CEB3  9322 0001:0003CECE  9323 0001:0003CED6
  9325 0001:0003CEF7  9326 0001:0003CF3F  9336 0001:0003CFB4  9337 0001:0003CFCA
  9338 0001:0003CFE5  9339 0001:0003CFEF  9340 0001:0003D011  9342 0001:0003D018
  9343 0001:0003D03A  9344 0001:0003D047  9346 0001:0003D054  9347 0001:0003D06D
  9349 0001:0003D077  9350 0001:0003D07F  9353 0001:0003D0A1  9357 0001:0003D0BB
  9359 0001:0003D0CC  9360 0001:0003D0D6  9362 0001:0003D0E8  9364 0001:0003D0F9
  9365 0001:0003D103  9373 0001:0003D115  9376 0001:0003D126  9377 0001:0003D141
  9379 0001:0003D153  9381 0001:0003D165  9384 0001:0003D176  9385 0001:0003D189
  9387 0001:0003D19B  9389 0001:0003D1AD  9391 0001:0003D1BE  9393 0001:0003D1D0
  9395 0001:0003D1E1  9403 0001:0003D1F7  9405 0001:0003D208  9407 0001:0003D21A
  9409 0001:0003D22B  9410 0001:0003D246  9412 0001:0003D25C  9414 0001:0003D266
  9416 0001:0003D277  9417 0001:0003D281  9419 0001:0003D290  9421 0001:0003D2A1
  9422 0001:0003D2B0  9424 0001:0003D2BF  9442 0001:0003D2CC  9443 0001:0003D2D8
  9446 0001:0003D307  9447 0001:0003D350  9454 0001:0003D584  9455 0001:0003D59A
  9457 0001:0003D5AE  9459 0001:0003D5BC  9461 0001:0003D5CA  9463 0001:0003D5D8
  9465 0001:0003D60F  9516 0001:0003D664  9517 0001:0003D685  9522 0001:0003D68A
  9523 0001:0003D693  9524 0001:0003D6A1  9526 0001:0003D762  9528 0001:0003D777
  9530 0001:0003D780  9531 0001:0003D78E  9533 0001:0003D7A9  9534 0001:0003D7B0
  9536 0001:0003D7D8  9539 0001:0003D7E6  9541 0001:0003D7ED  9542 0001:0003D7FA
  9546 0001:0003D828  9554 0001:0003D834  9555 0001:0003D841  9557 0001:0003D84C
  9562 0001:0003D858  9564 0001:0003D867  9566 0001:0003D872  9567 0001:0003D87F
  9571 0001:0003D8A9  9574 0001:0003D8B5  9579 0001:0003D8D0  9583 0001:0003D8EB
  9586 0001:0003D906  9588 0001:0003D91D  9590 0001:0003D929  9591 0001:0003D937
  9593 0001:0003D952  9594 0001:0003D959  9598 0001:0003D983  9599 0001:0003D98A
  9602 0001:0003D990  9603 0001:0003D99B  9605 0001:0003D9A1  9606 0001:0003D9AC
  9608 0001:0003D9B2  9609 0001:0003D9BB  9611 0001:0003D9C1  9614 0001:0003D9CA
  9615 0001:0003D9D7  9619 0001:0003DA08  9622 0001:0003DA14  9627 0001:0003DA23
  9630 0001:0003DA3D  9634 0001:0003DA49  9635 0001:0003DA52  9638 0001:0003DA77
  9642 0001:0003DA9A  9643 0001:0003DAA9  9645 0001:0003DAB9  9647 0001:0003DAC5
  9648 0001:0003DAD4  9650 0001:0003DAE4  9652 0001:0003DAF0  9655 0001:0003DB0B
  9658 0001:0003DB17  9665 0001:0003DB32  9671 0001:0003DB49  9672 0001:0003DB55
  9677 0001:0003DB5F  9679 0001:0003DB68  9685 0001:0003DB76  9686 0001:0003DB7E
  9697 0001:0003DBB6  9709 0001:0003DBC3  9710 0001:0003DBD0  9717 0001:0003DC08
  9719 0001:0003DC14  9721 0001:0003DC29  9723 0001:0003DC32  9724 0001:0003DC40
  9726 0001:0003DC5F  9727 0001:0003DC66  9731 0001:0003DC90  9733 0001:0003DC97
  9734 0001:0003DCA4  9738 0001:0003DCCB  9741 0001:0003DCD7  9745 0001:0003DCF2
  9746 0001:0003DD01  9748 0001:0003DD0D  9750 0001:0003DD19  9753 0001:0003DD26
  9754 0001:0003DD2F  9756 0001:0003DD62  9758 0001:0003DD6B  9759 0001:0003DD79
  9763 0001:0003DD86  9764 0001:0003DD8C  9769 0001:0003DD99  9770 0001:0003DDA1
  9773 0001:0003DDAD  9776 0001:0003DDB4  9777 0001:0003DDBD  9779 0001:0003DDE2
  9783 0001:0003DE05  9785 0001:0003DE11  9788 0001:0003DE2C  9790 0001:0003DE41
  9791 0001:0003DE53  9793 0001:0003DE63  9795 0001:0003DE6D  9797 0001:0003DE86
  9798 0001:0003DE8D  9800 0001:0003DEB6  9803 0001:0003DEC3  9804 0001:0003DED0
  9808 0001:0003DEFA  9812 0001:0003DF06  9814 0001:0003DF15  9815 0001:0003DF27
  9818 0001:0003DF34  9820 0001:0003DF40  9823 0001:0003DF5B  9826 0001:0003DF76
  9828 0001:0003DF83  9830 0001:0003DF95  9831 0001:0003DFA2  9835 0001:0003DFC9
  9839 0001:0003DFD5  9842 0001:0003DFDC  9843 0001:0003DFE5  9845 0001:0003E018
  9849 0001:0003E03E  9852 0001:0003E04A  9854 0001:0003E055  9856 0001:0003E061
  9857 0001:0003E073  9862 0001:0003E096  9866 0001:0003E0B0  9867 0001:0003E0BD
  9871 0001:0003E0FA  9873 0001:0003E106  9875 0001:0003E111  9876 0001:0003E11D
  9880 0001:0003E140  9884 0001:0003E15A  9885 0001:0003E167  9889 0001:0003E1A4
  9891 0001:0003E1B0  9894 0001:0003E1B7  9895 0001:0003E1C0  9897 0001:0003E1F3
  9901 0001:0003E219  9903 0001:0003E225  9911 0001:0003E22C  9913 0001:0003E260
  9914 0001:0003E26D  9918 0001:0003E2AA  9920 0001:0003E2B6  9921 0001:0003E2BD
  9923 0001:0003E2C9  9925 0001:0003E2D5  9927 0001:0003E2E4  9928 0001:0003E2F1
  9930 0001:0003E2FF  9933 0001:0003E309  9936 0001:0003E315  9939 0001:0003E31C
  9940 0001:0003E325  9942 0001:0003E34A  9946 0001:0003E36D  9949 0001:0003E379
  9950 0001:0003E388  9952 0001:0003E39B  9954 0001:0003E3A7  9957 0001:0003E3C2
  9960 0001:0003E3DD  9963 0001:0003E3F8  9966 0001:0003E413  9967 0001:0003E420
  9969 0001:0003E433  9971 0001:0003E43F  9974 0001:0003E44C  9975 0001:0003E455
  9977 0001:0003E493  9980 0001:0003E4A3  9984 0001:0003E4AC  9986 0001:0003E4B5
  9987 0001:0003E4BC  9989 0001:0003E4C5  9992 0001:0003E4CE 10005 0001:0003E52B
 10007 0001:0003E534 10008 0001:0003E53D 10010 0001:0003E53F 10011 0001:0003E546
 10012 0001:0003E551 10013 0001:0003E55F 10021 0001:0003E598 10024 0001:0003EEFC
 10025 0001:0003EF0D 10027 0001:0003EF0F 10028 0001:0003EF1D 10030 0001:0003EF24
 10031 0001:0003EF36 10032 0001:0003EF4C 10034 0001:0003EF87 10036 0001:0003EF89
 10037 0001:0003EF90 10038 0001:0003EF98 10039 0001:0003EFA3 10040 0001:0003EFB1
 10048 0001:0003EFBD 10051 0001:0003EFF8 10052 0001:0003F009 10054 0001:0003F00B
 10055 0001:0003F019 10057 0001:0003F020 10058 0001:0003F032 10059 0001:0003F048
 10061 0001:0003F085 10063 0001:0003F087 10064 0001:0003F08E 10065 0001:0003F096
 10066 0001:0003F0A1 10067 0001:0003F0AF 10075 0001:0003F0BB 10091 0001:0003F0F8
 10092 0001:0003F110 10095 0001:0003F128 10097 0001:0003F142 10098 0001:0003F17F
 10107 0001:0003F184 10108 0001:0003F1A5 10109 0001:0003F1B2 10114 0001:0003F1C2
 10115 0001:0003F1C4 10122 0001:0003F1E8 10124 0001:0003F1FD 10125 0001:0003F22C
 10126 0001:0003F242 10132 0001:0003F24C 10134 0001:0003F25A 10135 0001:0003F25E
 10137 0001:0003F26E 10138 0001:0003F284 10140 0001:0003F2C7 10141 0001:0003F2F7
 10142 0001:0003F308 10147 0001:0003F30C 10148 0001:0003F31C 10150 0001:0003F32A
 10157 0001:0003F343 10159 0001:0003F360 10170 0001:0003F3A1 10172 0001:0003F3AA
 10173 0001:0003F3C7 10175 0001:0003F3D4 10178 0001:0003F405 10179 0001:0003F418
 10183 0001:0003F448 10186 0001:0003F47B 10187 0001:0003F491 10192 0001:0003F4DD
 10193 0001:0003F4F3 10198 0001:0003F53F 10199 0001:0003F55D 10204 0001:0003F596
 10205 0001:0003F5A9 10210 0001:0003F5F2 10211 0001:0003F608 10212 0001:0003F62D
 10220 0001:0003F650 10222 0001:0003F65C 10148 0001:0003F661 10225 0001:0003F66A
 10226 0001:0003F670 10228 0001:0003F689 10229 0001:0003F6E9 10280 0001:0003F774
 10281 0001:0003F795 10286 0001:0003F797 10287 0001:0003F7A0 10288 0001:0003F7AE
 10291 0001:0003F867 10293 0001:0003F874 10294 0001:0003F87A 10296 0001:0003F881
 10299 0001:0003F888 10300 0001:0003F891 10303 0001:0003F8BA 10305 0001:0003F8C8
 10306 0001:0003F8DF 10307 0001:0003F8E4 10310 0001:0003F909 10330 0001:0003F911
 10331 0001:0003F926 10332 0001:0003F92B 10335 0001:0003F950 10336 0001:0003F956
 10337 0001:0003F95F 10340 0001:0003F970 10344 0001:0003F97A 10351 0001:0003F995
 10353 0001:0003F99E 10354 0001:0003F9AB 10359 0001:0003F9CF 10368 0001:0003F9EA
 10370 0001:0003F9F1 10374 0001:0003FA03 10375 0001:0003FA13 10380 0001:0003FA25
 10383 0001:0003FA40 10385 0001:0003FA5D 10391 0001:0003FA6C 10393 0001:0003FA73
 10399 0001:0003FA82 10401 0001:0003FA89 10407 0001:0003FA98 10409 0001:0003FA9F
 10415 0001:0003FAAE 10417 0001:0003FABB 10423 0001:0003FAEA 10424 0001:0003FAF3
 10428 0001:0003FB15 10430 0001:0003FB23 10431 0001:0003FB3A 10432 0001:0003FB3F
 10435 0001:0003FB64 10437 0001:0003FB70 10439 0001:0003FB7E 10441 0001:0003FB90
 10442 0001:0003FBA0 10448 0001:0003FBC4 10449 0001:0003FBD8 10450 0001:0003FBDD
 10452 0001:0003FBFE 10439 0001:0003FC01 10454 0001:0003FC07 10455 0001:0003FC1C
 10456 0001:0003FC25 10462 0001:0003FC4F 10468 0001:0003FC6A 10475 0001:0003FC85
 10481 0001:0003FCA1 10483 0001:0003FCB9 10484 0001:0003FCC0 10487 0001:0003FCFB
 10489 0001:0003FD00 10491 0001:0003FD09 10492 0001:0003FD2D 10499 0001:0003FD6B
 10501 0001:0003FD83 10502 0001:0003FD8A 10505 0001:0003FDD1 10507 0001:0003FDD6
 10509 0001:0003FDDF 10510 0001:0003FE03 10514 0001:0003FE4D 10517 0001:0003FE68
 10522 0001:0003FE83 10530 0001:0003FE9E 10534 0001:0003FEB9 10539 0001:0003FED4
 10544 0001:0003FEEF 10547 0001:0003FF0A 10550 0001:0003FF25 10553 0001:0003FF40
 10557 0001:0003FF5B 10560 0001:0003FF76 10563 0001:0003FF91 10568 0001:0003FFAC
 10573 0001:0003FFC6 10575 0001:0003FFE1 10576 0001:0003FFEA 10579 0001:0004001D
 10580 0001:0004003D 10582 0001:0004006A 10583 0001:00040077 10587 0001:000400AF
 10593 0001:000400BF 10596 0001:000400CA 10597 0001:000400D3 10600 0001:000400F5
 10601 0001:00040114 10603 0001:0004011E 10605 0001:00040127 10606 0001:00040137
 10610 0001:0004014C 10611 0001:0004015A 10612 0001:00040165 10616 0001:0004018E
 10618 0001:0004019C 10620 0001:000401B2 10621 0001:000401C2 10626 0001:000401E0
 10628 0001:000401FC 10630 0001:00040215 10631 0001:0004021A 10634 0001:0004023B
 10618 0001:0004023E 10637 0001:00040248 10639 0001:00040262 10640 0001:00040267
 10642 0001:0004028C 10648 0001:0004029C 10649 0001:000402A9 10658 0001:000402E1
 10661 0001:000402EC 10664 0001:000402F8 10666 0001:00040305 10667 0001:0004030B
 10669 0001:0004031C 10674 0001:0004032E 10676 0001:0004033B 10678 0001:00040354
 10679 0001:00040361 10685 0001:0004038B 10686 0001:00040398 10690 0001:000403C1
 10695 0001:000403DC 10700 0001:000403F7 10705 0001:00040412 10709 0001:0004042D
 10712 0001:0004043E 10714 0001:00040459 10715 0001:00040462 10717 0001:00040484
 10719 0001:0004048E 10721 0001:000404B1 10723 0001:000404B5 10724 0001:000404C4
 10728 0001:000404D0 10729 0001:000404D9 10735 0001:000404E5 10740 0001:0004052A
 10741 0001:00040537 10746 0001:00040583 10750 0001:000405DC 10752 0001:000405DE
 10753 0001:000405E5 10754 0001:000405F0 10755 0001:000405FE 10763 0001:00040644
 10771 0001:000412BC 10773 0001:000412C6 10775 0001:000412D2 10779 0001:000412EC
 10781 0001:000412F9 10782 0001:000412FC 10787 0001:00041304 10791 0001:0004131D
 10793 0001:00041329 10794 0001:0004132B 10797 0001:0004132F 10800 0001:00041339
 10801 0001:0004133E 10802 0001:00041353 10803 0001:00041358 10806 0001:00041379
 10808 0001:0004137F 10810 0001:00041393 10811 0001:00041398 10814 0001:000413B9
 10815 0001:000413BF 10816 0001:000413C6 10823 0001:000413D0 10826 0001:00041460
 10827 0001:00041466 10828 0001:00041469 10831 0001:00041470 10832 0001:00041476
 10833 0001:0004147C 10839 0001:00041480 10841 0001:0004149B 10842 0001:000414A1
 10843 0001:000414B0 10844 0001:000414B8 10845 0001:000414C0 10847 0001:000414D3
 10848 0001:000414ED 10850 0001:000414F7 10851 0001:00041502 10853 0001:0004150A
 10845 0001:0004150B 10854 0001:0004150E 10855 0001:00041514 10856 0001:0004151F
 10861 0001:00041549 10864 0001:00041554 10865 0001:0004155A 10866 0001:0004155F
 10869 0001:00041564 10870 0001:0004156B 10871 0001:00041576 10874 0001:0004157C
 10875 0001:00041582 10876 0001:00041585 10879 0001:0004158C 10880 0001:00041592
 10881 0001:00041595 10884 0001:0004159C 10885 0001:000415A2 10886 0001:000415A5
 10889 0001:000415AC 10890 0001:000415B2 10891 0001:000415B8 10894 0001:000415BC
 10895 0001:000415C3 10896 0001:000415CE 10899 0001:000415D4 10900 0001:000415DB
 10901 0001:000415E9 10904 0001:000415F0 10905 0001:000415F6 10906 0001:000415FC
 10909 0001:00041600 10910 0001:00041606 10911 0001:0004160C 10914 0001:00041610
 10915 0001:00041616 10916 0001:0004161C 10919 0001:00041620 10920 0001:00041626
 10921 0001:0004162C 10924 0001:00041630 10925 0001:00041637 10926 0001:00041645
 10929 0001:0004164C 10930 0001:00041653 10931 0001:0004165E 10934 0001:00041664
 10935 0001:0004166A 10936 0001:00041670 10939 0001:00041674 10940 0001:0004167A
 10941 0001:00041683 10944 0001:00041688 10945 0001:0004168E 10946 0001:00041694
 10949 0001:00041698 10950 0001:0004169E 10951 0001:000416A4 10954 0001:000416A8
 10955 0001:000416AE 10956 0001:000416B2 10959 0001:000416B8 10960 0001:000416BE
 10961 0001:000416C4 10964 0001:000416C8 10965 0001:000416CE 10966 0001:000416D1
 10969 0001:000416D8 10970 0001:000416DF 10971 0001:000416ED 10974 0001:000416F4
 10975 0001:000416FA 10976 0001:00041700 10985 0001:00041704 10987 0001:00041719
 10988 0001:00041722 10989 0001:00041726 10991 0001:0004172B 10992 0001:00041730
 10993 0001:00041736 10994 0001:0004173F 10995 0001:00041744 10996 0001:00041749
 10997 0001:00041752 10998 0001:00041756 10999 0001:0004175D 11000 0001:00041764
 11003 0001:0004176B 11009 0001:00041792 11016 0001:00041798 11019 0001:000417A3
 11020 0001:000417AA 11021 0001:000417B1 11022 0001:000417BA 11024 0001:000417C6
 11025 0001:000417DF 11026 0001:000417E9 11027 0001:000417F2 11029 0001:000417FA
 11030 0001:00041803 11033 0001:00041828 11034 0001:0004182F 11036 0001:00041849
 11039 0001:00041854 11042 0001:0004186A 11043 0001:0004186F 11045 0001:0004189B
 11047 0001:000418A4 11048 0001:000418AB 11049 0001:000418B9 11050 0001:000418C0
 11052 0001:000418DC 11056 0001:000418EB 11057 0001:000418FB 11062 0001:00041906
 11067 0001:0004190C 11069 0001:00041919 11070 0001:0004191D 11071 0001:00041921
 11072 0001:0004192B 11074 0001:00041931 11082 0001:0004193B 11084 0001:00041941
 11086 0001:00041948 11087 0001:00041951 11089 0001:00041973 11090 0001:0004197D
 11092 0001:00041982 11095 0001:000419A3 11096 0001:000419AF 11099 0001:000419B4
 11101 0001:000419D5 11103 0001:000419DB 11104 0001:000419E9 11107 0001:000419EE
 11109 0001:00041A0F 11110 0001:00041A1D 11113 0001:00041A22 11115 0001:00041A43
 11117 0001:00041A4B 11119 0001:00041A51 11120 0001:00041A58 11122 0001:00041A66
 11123 0001:00041A6C 11126 0001:00041A71 11127 0001:00041A75 11133 0001:00041A7C
 11139 0001:00041AAC 11141 0001:00041AB1 11143 0001:00041AB8 11145 0001:00041AC1
 11146 0001:00041ACD 11147 0001:00041AD9 11148 0001:00041AE0 11143 0001:00041AE1
 11149 0001:00041AE6 11155 0001:00041AEE 11158 0001:00041AF4 11160 0001:00041AFF
 11161 0001:00041B05 11166 0001:00041B1C 11169 0001:00041B20 11170 0001:00041B26
 11171 0001:00041B31 11172 0001:00041B3F 11175 0001:00041B44 11176 0001:00041B48
 11178 0001:00041B67 11181 0001:00041B6C 11183 0001:00041B73 11184 0001:00041B82
 11185 0001:00041B8A 11186 0001:00041B95 11192 0001:00041B9C 11193 0001:00041B9E
 11199 0001:00041BA4 11200 0001:00041BCA 11201 0001:00041BD6 11202 0001:00041BDC
 11203 0001:00041BE8 11204 0001:00041BF4 11205 0001:00041BFA 11207 0001:00041C2E
 11208 0001:00041C48 11211 0001:00041C7A 11212 0001:00041C84 11214 0001:00041C90
 11215 0001:00041C97 11217 0001:00041C9C 11218 0001:00041C9E 11219 0001:00041CA2
 11220 0001:00041CA8 11221 0001:00041CA9 11222 0001:00041CAD 11223 0001:00041CBA
 11224 0001:00041CC0 11225 0001:00041CCC 11226 0001:00041CD8 11222 0001:00041CDB
 11229 0001:00041CDE 11231 0001:00041CEA 11232 0001:00041CF3 11234 0001:00041D35
 11242 0001:00041DD0 11243 0001:00041DD7 11245 0001:00041DDB 11259 0001:00041DE1
 11260 0001:00041DE3 11264 0001:00041DE9 11266 0001:00041DF4 11267 0001:00041E00
 11269 0001:00041E05 11270 0001:00041E11 11272 0001:00041E23 11273 0001:00041E46
 11275 0001:00041E48 11276 0001:00041E56 11278 0001:00041E5B 11279 0001:00041E7E
 11281 0001:00041E80 11282 0001:00041E81 11284 0001:00041E89 11285 0001:00041E8D
 11264 0001:00041E8F 11293 0001:00041E9C 11305 0001:00041EBC 11309 0001:00041ED8
 11310 0001:00041EF6 11312 0001:00041F16 11314 0001:00041F2F 11315 0001:00041F42
 11333 0001:00041F51 11342 0001:00041F95 11343 0001:00041F9F 11344 0001:00041FB8
 11346 0001:00041FC2 11312 0001:00041FC3 11348 0001:00041FE7 11351 0001:0004200C
 11353 0001:00042016 11354 0001:0004201D 11355 0001:00042027 11358 0001:00042031
 11359 0001:0004203A 11362 0001:00042068 11365 0001:00042094 11371 0001:000420B1
 11373 0001:000420BB 11375 0001:000420C0 11377 0001:000420E5 11378 0001:000420EC
 11379 0001:000420F4 11380 0001:000420FD 11382 0001:0004210B 11383 0001:00042112
 11384 0001:0004211C 11386 0001:00042137 11387 0001:0004213E 11389 0001:00042145
 11390 0001:0004214C 11391 0001:00042151 11396 0001:0004215E 11397 0001:00042165
 11399 0001:00042176 11401 0001:00042185 11402 0001:00042196 11403 0001:000421AC
 11407 0001:000421C4 11409 0001:000421CA 11410 0001:000421E9 11411 0001:000421F7
 11415 0001:0004220C 11416 0001:0004222C 11417 0001:0004223A 11421 0001:0004224D
 11422 0001:00042254 11425 0001:0004225B 11426 0001:00042261 11427 0001:00042275
 11430 0001:0004227C 11431 0001:000422B0 11434 0001:000422B6 11435 0001:000422BB
 11436 0001:000422CF 11439 0001:000422D6 11440 0001:0004230A 11442 0001:0004230F
 11443 0001:00042315 11445 0001:00042320 11448 0001:00042328 11449 0001:00042334
 11452 0001:0004235E 11454 0001:00042368 11461 0001:0004237E 11463 0001:0004238B
 11464 0001:00042394 11466 0001:0004239F 11470 0001:000423AA 11473 0001:000423BB
 11474 0001:000423BF 11476 0001:000423CA 11478 0001:000423D3 11479 0001:000423DF
 11481 0001:000423E7 11486 0001:000423ED 11488 0001:000423F8 11491 0001:00042422
 11496 0001:00042431 11497 0001:0004243D 11498 0001:00042445 11500 0001:00042450
 11501 0001:0004245A 11502 0001:00042460 11503 0001:00042474 11504 0001:0004247B
 11506 0001:0004248E 11507 0001:0004249A 11509 0001:000424BA 11511 0001:000424C5
 11512 0001:000424CE 11514 0001:000424D8 11515 0001:000424E4 11518 0001:00042509
 11530 0001:0004252B 11531 0001:00042534 11534 0001:0004253E 11535 0001:0004254A
 11538 0001:0004256C 11541 0001:0004258C 11542 0001:00042593 11544 0001:000425B0
 11546 0001:000425B2 11547 0001:000425B9 11548 0001:000425C1 11549 0001:000425CB
 11551 0001:000425D0 11553 0001:000425D8 11554 0001:000425E4 11563 0001:00042627
 11566 0001:0004275C 11569 0001:00042774 11570 0001:0004277D 11573 0001:0004279C
 11579 0001:000427C9 11582 0001:000427F0 11583 0001:000427F3 11584 0001:000427F9
 11585 0001:00042802 11586 0001:00042808 11587 0001:0004280D 11588 0001:00042811
 11589 0001:00042815 11590 0001:0004281C 11594 0001:00042820 11596 0001:0004282D
 11600 0001:00042830 11602 0001:00042841 11636 0001:00042844 11637 0001:00042863
 11638 0001:00042880 11639 0001:00042894 11641 0001:000428B0 11642 0001:000428D1
 11643 0001:000428E0 11644 0001:000428E8 11645 0001:00042909 11646 0001:0004292A
 11651 0001:0004292C 11652 0001:00042942 11653 0001:0004295E 11655 0001:00042961
 11656 0001:00042977 11657 0001:00042993 11659 0001:00042996 11660 0001:000429AC
 11661 0001:000429C8 11663 0001:000429CB 11664 0001:000429E1 11665 0001:000429FD
 11667 0001:00042A00 11668 0001:00042A16 11669 0001:00042A32 11671 0001:00042A35
 11673 0001:00042A5F 11675 0001:00042A63 11677 0001:00042A8A 11678 0001:00042A9E
 11679 0001:00042AE2 11685 0001:00042BE4 11686 0001:00042BFE 11687 0001:00042C1B
 11688 0001:00042C2F 11690 0001:00042C4B 11691 0001:00042C6C 11692 0001:00042C8D
 11694 0001:00042CAE 11699 0001:00042CD6 11700 0001:00042CEA 11701 0001:00042D21
 11707 0001:00042D68 11708 0001:00042D82 11709 0001:00042D9F 11710 0001:00042DB3
 11713 0001:00042DE5 11714 0001:00042E06 11715 0001:00042E27 11716 0001:00042E48
 11720 0001:00042E72 11721 0001:00042E86 11722 0001:00042EBD 11728 0001:00042F04
 11729 0001:00042F20 11730 0001:00042F3D 11731 0001:00042F51 11734 0001:00042F83
 11735 0001:00042FA4 11736 0001:00042FC5 11737 0001:00042FE6 11738 0001:00043007
 11743 0001:00043038 11744 0001:0004304C 11745 0001:00043083 11747 0001:000430DC
 11766 0001:000430EF 11767 0001:00043106 11768 0001:0004310F 11769 0001:00043126
 11781 0001:0004312F 11782 0001:00043146 11783 0001:0004314F 11784 0001:00043166
 11856 0001:0004318A 11858 0001:000431E4 11859 0001:00043200 11860 0001:00043209
 11862 0001:00043219 11863 0001:00043232 11864 0001:00043246 11865 0001:00043254
 11866 0001:0004325F 11868 0001:00043265 11869 0001:0004326C 11872 0001:00043286
 11874 0001:000432BE 11877 0001:000432C4 11882 0001:000432EF 11885 0001:000432F6
 11887 0001:00043309 11889 0001:0004331D 11890 0001:0004332B 11891 0001:00043335
 11892 0001:00043340 11894 0001:00043344 11895 0001:00043349 11897 0001:00043360
 11901 0001:00043372 11905 0001:0004337C 11906 0001:00043384 11907 0001:0004338D
 11909 0001:0004339B 11911 0001:000433AD 11912 0001:000433B5 11915 0001:000433BF
 11917 0001:000433C8 11920 0001:000433D0 11921 0001:000433D7 11923 0001:000433DD
 11925 0001:000433EB 11926 0001:000433F6 11930 0001:00043409 11932 0001:00043422
 11935 0001:0004342D 11936 0001:00043434 11937 0001:00043445 11938 0001:0004344C
 11940 0001:00043455 11941 0001:00043459 11942 0001:00043472 11943 0001:00043478
 11947 0001:0004348B 11948 0001:0004349C 11949 0001:000434A2 11952 0001:000434B3
 11953 0001:000434BD 11955 0001:000434C3 11958 0001:000434DE 11959 0001:000434E9
 11963 0001:000434FC 11966 0001:00043518 11967 0001:00043523 11971 0001:00043534
 11975 0001:0004353B 11976 0001:00043541 11977 0001:00043551 11980 0001:00043556
 11981 0001:00043587 11984 0001:0004358D 11985 0001:00043592 11986 0001:000435A2
 11989 0001:000435A7 11990 0001:000435D8 11992 0001:000435DD 11993 0001:000435E3
 11995 0001:000435EE 11998 0001:000435F6 11999 0001:00043602 12002 0001:0004362C
 12004 0001:00043636 12011 0001:0004364C 12013 0001:00043659 12014 0001:00043662
 12016 0001:0004366D 12020 0001:00043678 12023 0001:00043689 12024 0001:0004368D
 12026 0001:00043698 12028 0001:000436A1 12029 0001:000436AD 12031 0001:000436B5
 12036 0001:000436BB 12038 0001:000436C6 12039 0001:000436CE 12042 0001:000436F8
 12045 0001:00043707 12047 0001:00043712 12048 0001:0004371A 12049 0001:00043722
 12051 0001:0004372B 12052 0001:00043735 12053 0001:0004373B 12054 0001:0004374B
 12055 0001:00043750 12057 0001:00043761 12058 0001:0004376D 12060 0001:0004378D
 12062 0001:00043798 12063 0001:000437A1 12065 0001:000437AB 12066 0001:000437B7
 12069 0001:000437DC 12082 0001:000437FE 12083 0001:00043807 12086 0001:00043811
 12087 0001:0004381D 12090 0001:0004383F 12093 0001:0004385F 12094 0001:00043866
 12096 0001:00043883 12098 0001:00043885 12099 0001:0004388C 12100 0001:00043894
 12101 0001:0004389E 12103 0001:000438A3 12105 0001:000438AB 12106 0001:000438B7
 12115 0001:00043907 12118 0001:00043A48 12121 0001:00043A66 12122 0001:00043A6F
 12125 0001:00043A98 12126 0001:00043A9C 12128 0001:00043AAE 12134 0001:00043AD7
 12139 0001:00043B08 12141 0001:00043B0F 12144 0001:00043B15 12145 0001:00043B1D
 12146 0001:00043B22 12154 0001:00043B32 12158 0001:00043B4C 12159 0001:00043B53
 12161 0001:00043B5A 12162 0001:00043B5C 12168 0001:00043B60 12170 0001:00043B6E
 12173 0001:00043B77 12174 0001:00043B7B 12177 0001:00043B81 12179 0001:00043B85
 12180 0001:00043B89 12182 0001:00043B8B 12184 0001:00043B8D 12185 0001:00043B92
 12187 0001:00043BA7 12189 0001:00043BB1 12190 0001:00043BC1 12192 0001:00043BC8
 12193 0001:00043BCD 12200 0001:00043BF3 12206 0001:00043BFC 12208 0001:00043C04
 12211 0001:00043C0A 12213 0001:00043C10 12214 0001:00043C15 12216 0001:00043C27
 12218 0001:00043C2C 12222 0001:00043C31 12223 0001:00043C54 12228 0001:00043C59
 12236 0001:00043C62 12239 0001:00043C68 12240 0001:00043C83 12241 0001:00043C87
 12242 0001:00043CA6 12243 0001:00043CB1 12244 0001:00043CD2 12247 0001:00043CDC
 12248 0001:00043CF3 12249 0001:00043D0F 12250 0001:00043D30 12261 0001:00043D38
 12262 0001:00043D3F 12264 0001:00043D41 12265 0001:00043D48 12266 0001:00043D51
 12268 0001:00043D5F 12269 0001:00043D6B 12271 0001:00043D7A 12273 0001:00043D8D
 12274 0001:00043D92 12277 0001:00043D9F 12278 0001:00043DA4 12280 0001:00043DAE
 12284 0001:00043DB0 12286 0001:00043DB5 12287 0001:00043DBD 12292 0001:00043DDC
 12294 0001:00043DE8 12295 0001:00043DED 12300 0001:00043DFA 12302 0001:00043E04
 12303 0001:00043E0A 12305 0001:00043E14 12306 0001:00043E20 12307 0001:00043E25
 12310 0001:00043E36 12313 0001:00043E3D 12317 0001:00043E44 12318 0001:00043E4D
 12320 0001:00043E57 12321 0001:00043E63 12324 0001:00043E85 12328 0001:00043EC0
 12330 0001:00043EC2 12331 0001:00043EC9 12332 0001:00043ED1 12333 0001:00043EDB
 12341 0001:00043EE7 12353 0001:00043F50 12354 0001:00043F70 12359 0001:00043F72
 12360 0001:00043F7B 12361 0001:00043F89 12362 0001:00043F91 12364 0001:00043FF2
 12366 0001:00044001 12367 0001:0004400C 12370 0001:00044019 12372 0001:00044023
 12374 0001:00044032 12375 0001:0004403D 12378 0001:0004404A 12380 0001:00044054
 12382 0001:00044061 12383 0001:0004406C 12386 0001:00044079 12388 0001:00044083
 12391 0001:0004409E 12393 0001:000440AD 12400 0001:000440BD 12403 0001:000440C7
 12404 0001:000440CE 12406 0001:000440D6 12407 0001:000440E6 12411 0001:0004410C
 12413 0001:00044116 12415 0001:00044125 12416 0001:00044130 12419 0001:0004413D
 12421 0001:00044147 12423 0001:00044152 12425 0001:0004415F 12426 0001:00044165
 12427 0001:0004416C 12429 0001:00044170 12430 0001:00044187 12431 0001:0004418C
 12432 0001:0004419D 12434 0001:000441A7 12435 0001:000441CC 12439 0001:00044208
 12441 0001:00044212 12443 0001:00044221 12444 0001:00044233 12446 0001:0004423B
 12447 0001:0004424B 12451 0001:0004426E 12453 0001:00044278 12457 0001:00044293
 12459 0001:000442A2 12460 0001:000442B3 12462 0001:000442BB 12463 0001:000442CB
 12467 0001:000442EE 12470 0001:000442F8 12473 0001:000442FF 12475 0001:0004431D
 12476 0001:0004432D 12480 0001:00044361 12482 0001:0004436B 12484 0001:0004437A
 12485 0001:00044386 12488 0001:00044393 12490 0001:0004439D 12493 0001:000443B8
 12496 0001:000443BF 12498 0001:000443DD 12499 0001:000443ED 12503 0001:00044421
 12505 0001:0004442B 12508 0001:00044432 12510 0001:00044450 12511 0001:00044460
 12515 0001:00044494 12517 0001:0004449E 12520 0001:000444B6 12525 0001:000444CE
 12528 0001:000444E6 12532 0001:000444FE 12538 0001:00044566 12539 0001:0004456E
 12540 0001:00044575 12544 0001:0004457C 12545 0001:00044584 12549 0001:0004458B
 12550 0001:00044593 12551 0001:0004459A 12553 0001:000445A1 12555 0001:000445A3
 12556 0001:000445AA 12557 0001:000445B2 12558 0001:000445B9 12559 0001:000445C3
 12567 0001:000445F1 12575 0001:000449E4 12576 0001:00044A06 12577 0001:00044A0B
 12583 0001:00044A14 12584 0001:00044A20 12586 0001:00044A3F 12588 0001:00044A43
 12589 0001:00044A4D 12590 0001:00044A54 12592 0001:00044A59 12593 0001:00044A6D
 12594 0001:00044A73 12595 0001:00044A77 12596 0001:00044A85 12598 0001:00044A9B
 12600 0001:00044AAC 12601 0001:00044AB8 12606 0001:00044AF7 12609 0001:00044AFD
 12612 0001:00044B12 12614 0001:00044B21 12618 0001:00044B25 12619 0001:00044B2C
 12622 0001:00044B33 12624 0001:00044B36 12629 0001:00044BEF 12632 0001:00044C02
 12633 0001:00044C09 12634 0001:00044C10 12637 0001:00044C17 12646 0001:00044C37
 12647 0001:00044C40 12650 0001:00044C45 12652 0001:00044C4D 12653 0001:00044C56
 12654 0001:00044C5D 12662 0001:00044C6C 12665 0001:00044C7F 12666 0001:00044C86
 12667 0001:00044C8D 12670 0001:00044C94 12679 0001:00044CB4 12680 0001:00044CBD
 12683 0001:00044CC2 12685 0001:00044CCA 12686 0001:00044CD3 12688 0001:00044CDA
 12693 0001:00044CE9 12697 0001:00044CF3 12701 0001:00044CFF 12705 0001:00044D0F
 12714 0001:00044D1F 12717 0001:00044D3E 12719 0001:00044D51 12720 0001:00044D56
 12722 0001:00044D78 12723 0001:00044D7B 12725 0001:00044DA0 12726 0001:00044DA3
 12727 0001:00044DAB 12728 0001:00044DB3 12729 0001:00044DBB 12730 0001:00044DC3
 12731 0001:00044DCB 12732 0001:00044DD3 12735 0001:00044DE6 12736 0001:00044DEB
 12740 0001:00044E35 12741 0001:00044E3F 12742 0001:00044E43 12743 0001:00044E4B
 12745 0001:00044E54 12747 0001:00044E58 12748 0001:00044E60 12750 0001:00044E63
 12756 0001:00044E71 12757 0001:00044E7B 12758 0001:00044E7F 12759 0001:00044E87
 12761 0001:00044E90 12763 0001:00044E94 12764 0001:00044E9C 12766 0001:00044EA2
 12768 0001:00044EA8 12770 0001:00044EAB 12773 0001:00044EB5 12777 0001:00044EC3
 12781 0001:00044ECA 12782 0001:00044ED3 12783 0001:00044EDA 12788 0001:00044EFF
 12790 0001:00044F01 12791 0001:00044F08 12792 0001:00044F11 12793 0001:00044F1B
 12801 0001:00044F47 12804 0001:00045004 12805 0001:0004500A 12807 0001:0004500C
 12812 0001:00045016 12818 0001:0004501C 12819 0001:00045024 12821 0001:0004502B
 12822 0001:00045034 12821 0001:00045044 12823 0001:00045049 12826 0001:00045051
 12828 0001:00045056 12829 0001:00045067 12830 0001:00045073 12832 0001:0004507B
 12833 0001:00045089 12834 0001:00045095 12835 0001:0004509C 12830 0001:0004509D
 12837 0001:000450A0 12843 0001:000450A8 12844 0001:000450B0 12845 0001:000450B7
 12846 0001:000450C2 12848 0001:000450CA 12849 0001:000450D1 12850 0001:000450D7
 12852 0001:000450DE 12853 0001:000450EC 12854 0001:000450F8 12855 0001:000450FF
 12850 0001:00045100 12857 0001:00045103 12862 0001:00045108 12863 0001:00045133
 12870 0001:00045135 12872 0001:00045139 12873 0001:0004513E 12875 0001:00045143
 12876 0001:0004514F 12878 0001:0004515D 12881 0001:00045185 12884 0001:0004518D
 12885 0001:00045194 12886 0001:0004519E 12888 0001:000451A4 12890 0001:000451B1
 12891 0001:000451BC 12895 0001:000451CF 12897 0001:000451E7 12900 0001:000451F2
 12901 0001:000451F6 12902 0001:00045207 12904 0001:0004520E 12905 0001:00045214
 12907 0001:00045220 12909 0001:0004522D 12910 0001:00045238 12922 0001:00045247
 12923 0001:00045260 12925 0001:00045266 12926 0001:00045277 12928 0001:00045288
 12930 0001:00045290 12932 0001:00045296 12933 0001:000452B6 12935 0001:000452BB
 12936 0001:000452CC 12941 0001:000452DF 12942 0001:000452FE 12943 0001:00045303
 12946 0001:00045314 12950 0001:00045320 12951 0001:00045331 12952 0001:00045337
 12953 0001:00045348 12954 0001:00045356 12956 0001:0004535E 12958 0001:00045364
 12959 0001:00045384 12961 0001:00045389 12962 0001:0004539A 12967 0001:000453AD
 12968 0001:000453CC 12969 0001:000453D1 12972 0001:000453E2 12976 0001:00045404
 12978 0001:00045406 12979 0001:0004540D 12980 0001:00045417 12982 0001:0004541C
 12990 0001:0004544D 12993 0001:00045480 12996 0001:000454A5 12997 0001:000454AE
 12999 0001:000454E4 13001 0001:000454E8 13002 0001:000454ED 13004 0001:000454EF
 13009 0001:00045529 13026 0001:00045568 13027 0001:00045570 13028 0001:0004557D
 13030 0001:00045585 13031 0001:00045587 13033 0001:0004558B 13034 0001:00045595
 13036 0001:0004559D 13038 0001:000455B1 13039 0001:000455BF 13040 0001:000455D1
 13042 0001:000455D8 13034 0001:000455D9 13044 0001:000455DC 13070 0001:000455E4
 13071 0001:00045605 13076 0001:00045607 13077 0001:00045610 13078 0001:0004561E
 13083 0001:00045677 13084 0001:00045680 13086 0001:0004568B 13087 0001:00045697
 13089 0001:000456A0 13090 0001:000456A6 13091 0001:000456AF 13092 0001:000456C7
 13093 0001:000456CE 13096 0001:000456DD 13098 0001:00045701 13099 0001:00045705
 13100 0001:0004570C 13102 0001:00045728 13104 0001:00045742 13106 0001:00045747
 13107 0001:0004574E 13108 0001:0004575B 13109 0001:00045762 13111 0001:00045793
 13113 0001:000457A0 13115 0001:000457A6 13117 0001:000457B0 13119 0001:000457C6
 13121 0001:000457CF 13123 0001:000457D6 13124 0001:000457DD 13133 0001:00045810
 13135 0001:00045816 13137 0001:0004582C 13139 0001:00045831 13140 0001:00045838
 13141 0001:0004583F 13151 0001:00045850 13160 0001:0004585E 13162 0001:00045867
 13163 0001:00045877 13168 0001:0004589A 13170 0001:000458A9 13171 0001:000458BF
 13173 0001:000458CB 13177 0001:000458D6 13183 0001:000458F1 13185 0001:000458FA
 13187 0001:00045907 13189 0001:00045913 13190 0001:00045923 13195 0001:00045944
 13199 0001:0004595F 13203 0001:0004597A 13204 0001:0004598E 13205 0001:00045993
 13207 0001:000459A4 13208 0001:000459B4 13213 0001:000459EF 13214 0001:000459F6
 13216 0001:00045A02 13218 0001:00045A0A 13219 0001:00045A1A 13223 0001:00045A41
 13232 0001:00045A5C 13234 0001:00045A6A 13235 0001:00045A7A 13240 0001:00045AAE
 13243 0001:00045ABC 13247 0001:00045AD7 13249 0001:00045AE5 13250 0001:00045AF5
 13255 0001:00045B29 13257 0001:00045B42 13258 0001:00045B52 13262 0001:00045B83
 13265 0001:00045B9B 13269 0001:00045BB3 13274 0001:00045C08 13275 0001:00045C0F
 13277 0001:00045C11 13278 0001:00045C18 13279 0001:00045C22 13287 0001:00045C50
 13320 0001:00046090 13334 0001:00046093 13335 0001:000460A5 13337 0001:000460A9
 13338 0001:000460B2 13340 0001:000460B9 13341 0001:000460BE 13342 0001:000460CD
 13345 0001:000460E7 13347 0001:000460F0 13348 0001:000460FE 13352 0001:0004610C
 13355 0001:0004611B 13358 0001:00046120 13359 0001:00046125 13363 0001:0004613B
 13364 0001:00046144 13365 0001:0004614D 13367 0001:00046161 13368 0001:00046176
 13370 0001:00046187 13371 0001:00046196 13372 0001:000461AB 13373 0001:000461BD
 13376 0001:000461DA 13384 0001:000461E0 13385 0001:000461E6 13386 0001:000461F4
 13387 0001:0004621B 13388 0001:0004621F 13390 0001:00046230 13391 0001:0004623B
 13393 0001:00046240 13394 0001:00046253 13396 0001:0004625C 13400 0001:0004627A
 13404 0001:00046290 13405 0001:0004629C 13406 0001:000462A5 13408 0001:000462B3
 13411 0001:000462DC 13414 0001:000462E0 13415 0001:0004631D 13417 0001:0004631F
 13425 0001:00046326 13426 0001:00046332 13427 0001:00046346 13428 0001:0004634C
 13430 0001:00046350 13434 0001:00046355 13437 0001:00046359 13438 0001:00046363
 13441 0001:00046375 13444 0001:00046385 13448 0001:00046391 13452 0001:0004639D
 13453 0001:000463A7 13457 0001:000463B0 13458 0001:000463B7 13459 0001:000463BE
 13463 0001:000463CA 13468 0001:000463E0 13469 0001:000463F5 13471 0001:00046401
 13472 0001:0004640C 13474 0001:00046417 13475 0001:0004641F 13476 0001:00046428
 13477 0001:00046435 13479 0001:00046440 13480 0001:0004644C 13483 0001:00046453
 13484 0001:0004645F 13486 0001:00046470 13488 0001:0004647B 13489 0001:00046481
 13491 0001:0004648B 13492 0001:0004648F 13513 0001:0004653B 13520 0001:00046559
 13523 0001:00046561 13524 0001:00046567 13525 0001:0004656D 13526 0001:00046570
 13529 0001:00046576 13530 0001:0004657C 13532 0001:00046581 13535 0001:0004658B
 13537 0001:00046595 13540 0001:000465A1 13541 0001:000465A7 13543 0001:000465B4
 13544 0001:000465BF 13545 0001:000465C7 13548 0001:000465CF 13551 0001:000465DE
 13552 0001:000465E4 13554 0001:000465FB 13558 0001:00046612 13561 0001:00046618
 13564 0001:0004661F 13570 0001:00046622 13573 0001:0004662E 13577 0001:00046643
 13578 0001:00046648 13579 0001:0004664F 13587 0001:00046659 13590 0001:0004665F
 13600 0001:00046668 13601 0001:0004666E 13603 0001:00046679 13607 0001:00046684
 13608 0001:0004668D 13609 0001:00046693 13611 0001:0004669E 13618 0001:000466A7
 13620 0001:000466AD 13632 0001:000466F3 13633 0001:000466F8 13634 0001:000466FD
 13635 0001:00046704 13640 0001:00046710 13643 0001:0004672B 13644 0001:00046733
 13645 0001:0004673A 13646 0001:0004673F 13650 0001:00046747 13651 0001:0004674F
 13659 0001:00046756 13661 0001:00046773 13663 0001:00046779 13664 0001:00046780
 13665 0001:0004678B 13666 0001:00046796 13668 0001:0004679D 13670 0001:000467A3
 13671 0001:000467AA 13672 0001:000467B4 13674 0001:000467B9 13677 0001:000467D4
 13678 0001:000467DC 13679 0001:000467E3 13680 0001:000467E8 13684 0001:000467F0
 13685 0001:000467F8 13686 0001:000467FF 13687 0001:00046805 13689 0001:0004680D
 13693 0001:00046811 13695 0001:00046817 13696 0001:0004681E 13698 0001:00046824
 13699 0001:00046833 13704 0001:00046838 13705 0001:0004683E 13711 0001:00046846
 13713 0001:0004684C 13714 0001:00046852 13724 0001:00046858 13726 0001:00046863
 13728 0001:0004686F 13730 0001:0004687C 13733 0001:00046898 13736 0001:000468A4
 13741 0001:000468AF 13742 0001:000468BB 13761 0001:000468C6 13764 0001:000468E2
 13767 0001:000468EE 13772 0001:000468F9 13773 0001:00046905 13778 0001:0004690E
 13780 0001:0004692B 13781 0001:0004693A 13786 0001:00046944 13787 0001:0004694B
 13789 0001:00046956 13790 0001:0004695F 13791 0001:00046968 13792 0001:00046972
 13794 0001:0004697C 13795 0001:00046986 13800 0001:00046996 13801 0001:0004699D
 13803 0001:000469A8 13804 0001:000469B1 13805 0001:000469BA 13806 0001:000469C4
 13808 0001:000469CE 13809 0001:000469D8 13814 0001:000469EA 13815 0001:000469F1
 13817 0001:000469FC 13818 0001:00046A05 13819 0001:00046A0E 13820 0001:00046A18
 13822 0001:00046A22 13823 0001:00046A2C 13832 0001:00046A42 13833 0001:00046A4B
 13834 0001:00046A54 13835 0001:00046A5E 13837 0001:00046A68 13838 0001:00046A72
 13848 0001:00046A88 13851 0001:00046A97 13852 0001:00046AA4 13856 0001:00046AAD
 13857 0001:00046AB6 13860 0001:00046ABF 13861 0001:00046AC9 13863 0001:00046AD3
 13864 0001:00046ADD 13873 0001:00046AEA 13874 0001:00046B05 13875 0001:00046B10
 13876 0001:00046B1B 13881 0001:00046B2B 13884 0001:00046B3A 13885 0001:00046B47
 13889 0001:00046B50 13890 0001:00046B59 13893 0001:00046B62 13894 0001:00046B6C
 13897 0001:00046B76 13898 0001:00046B87 13899 0001:00046B91 13900 0001:00046BA3
 13901 0001:00046BBD 13906 0001:00046BD4 13909 0001:00046BE3 13910 0001:00046BF0
 13914 0001:00046BF9 13915 0001:00046C02 13918 0001:00046C0B 13919 0001:00046C15
 13920 0001:00046C1E 13923 0001:00046C30 13924 0001:00046C3A 13926 0001:00046C43
 13928 0001:00046C56 13929 0001:00046C60 13930 0001:00046C66 13931 0001:00046C6E
 13932 0001:00046C76 13933 0001:00046C7E 13934 0001:00046C86 13936 0001:00046C8E
 13937 0001:00046CBC 13946 0001:00046CCB 13947 0001:00046CD4 13948 0001:00046CDD
 13949 0001:00046CE7 13950 0001:00046CF0 13953 0001:00046D02 13954 0001:00046D0C
 13956 0001:00046D15 13959 0001:00046D25 13960 0001:00046D33 13961 0001:00046D45
 13962 0001:00046D51 13963 0001:00046D65 13964 0001:00046D7D 13965 0001:00046D84
 13966 0001:00046D8C 13967 0001:00046D94 13968 0001:00046D9C 13969 0001:00046DA4
 13971 0001:00046DAC 13972 0001:00046DD3 13978 0001:00046DE5 13979 0001:00046DEE
 13980 0001:00046DF7 13981 0001:00046E06 13982 0001:00046E0F 13983 0001:00046E18
 13984 0001:00046E23 13986 0001:00046E40 13987 0001:00046E4A 13995 0001:00046E76
 13996 0001:00046E7D 13997 0001:00046E87 14003 0001:00046EB4 14004 0001:00046EBE
 14010 0001:00046ECC 14011 0001:00046ED5 14012 0001:00046EDE 14013 0001:00046EE8
 14015 0001:00046EF2 14016 0001:00046EFC 14017 0001:00046F04 14019 0001:00046F10
 14040 0001:00046F1C 14041 0001:00046F2B 14042 0001:00046F31 14045 0001:00046F67
 14046 0001:00046F6D 14047 0001:00046F73 14048 0001:00046F79 14049 0001:00046F80
 14050 0001:00046F89 14052 0001:00046F92 14053 0001:00046F9D 14060 0001:00046FAC
 14061 0001:00046FB5 14063 0001:00046FBF 14064 0001:00046FC8 14065 0001:00046FD1
 14066 0001:00046FD6 14068 0001:00046FDC 14070 0001:00046FE2 14071 0001:00046FE9
 14073 0001:00046FF3 14074 0001:00046FF9 14076 0001:00046FFF 14077 0001:00047006
 14078 0001:0004700D 14084 0001:00047019 14086 0001:00047021 14088 0001:00047027
 14089 0001:0004702E 14090 0001:00047035 14092 0001:0004703F 14095 0001:00047045
 14099 0001:00047050 14100 0001:00047059 14101 0001:00047062 14103 0001:00047068
 14104 0001:0004706E 14105 0001:00047079 14106 0001:00047082 14107 0001:0004708B
 14108 0001:00047091 14112 0001:0004709A 14114 0001:0004709F 14115 0001:000470AF
 14116 0001:000470B5 14117 0001:000470BC 14118 0001:000470C4 14120 0001:000470CF
 14121 0001:000470DA 14123 0001:000470E0 14125 0001:000470F2 14126 0001:000470F7
 14127 0001:000470FE 14131 0001:00047108 14133 0001:00047121 14135 0001:00047127
 14136 0001:0004712B 14137 0001:00047134 14139 0001:0004713D 14141 0001:00047143
 14142 0001:00047159 14143 0001:00047164 14145 0001:0004716F 14147 0001:00047175
 14148 0001:0004717C 14149 0001:00047181 14151 0001:0004718D 14153 0001:00047193
 14157 0001:00047198 14158 0001:000471A4 14159 0001:000471AE 14161 0001:000471B8
 14166 0001:000471D1 14173 0001:000471EC 14174 0001:000471F2 14175 0001:000471F8
 14176 0001:000471FE 14177 0001:00047205 14178 0001:0004720C 14180 0001:00047217
 14181 0001:00047220 14182 0001:00047229 14183 0001:00047234 14188 0001:00047240
 14190 0001:0004724F 14191 0001:00047258 14192 0001:00047261 14193 0001:0004726B
 14195 0001:00047271 14196 0001:0004727B 14200 0001:00047288 14213 0001:0004728E
 14216 0001:00047292 14217 0001:00047298 14220 0001:000472D2 14221 0001:000472DE
 14224 0001:000472ED 14226 0001:000472F5 14228 0001:00047301 14229 0001:0004730D
 14232 0001:00047345 14233 0001:00047347 14238 0001:00047354 14239 0001:00047360
 14244 0001:00047398 14247 0001:000473A8 14248 0001:000473B1 14265 0001:000473B9
 14275 0001:0004740D 14276 0001:00047412 14278 0001:0004744C 14282 0001:00047476
 14283 0001:0004747D 14285 0001:0004747F 14286 0001:00047486 14287 0001:00047490
 14295 0001:000474D6 14300 0001:0004767C 14302 0001:00047694 14303 0001:0004769D
 14304 0001:000476A1 14305 0001:000476A7 14306 0001:000476B6 14311 0001:000476D0
 14314 0001:000476D8 14316 0001:000476E3 14317 0001:000476EB 14322 0001:00047702
 14328 0001:00047708 14329 0001:0004771A 14331 0001:0004771C 14333 0001:00047723
 14334 0001:00047732 14337 0001:0004774D 14338 0001:00047766 14340 0001:00047774
 14342 0001:00047783 14345 0001:000477B1 14346 0001:000477C0 14349 0001:000477D4
 14351 0001:00047801 14353 0001:00047803 14354 0001:0004780A 14355 0001:00047812
 14356 0001:0004781A 14357 0001:00047825 14358 0001:00047833 14366 0001:0004783F
 14369 0001:00047848 14370 0001:00047863 14372 0001:00047867 14373 0001:0004786C
 14375 0001:0004786E 14376 0001:0004788A 14377 0001:00047892 14378 0001:000478B3
 14381 0001:000478BC 14382 0001:000478D3 14383 0001:000478EC 14384 0001:0004790D
 14390 0001:00047914 14391 0001:00047926 14393 0001:00047928 14395 0001:0004792F
 14396 0001:0004793E 14399 0001:00047959 14400 0001:00047972 14402 0001:00047980
 14404 0001:0004798F 14405 0001:00047998 14408 0001:000479C6 14409 0001:000479D5
 14412 0001:000479E9 14414 0001:00047A16 14416 0001:00047A18 14417 0001:00047A1F
 14418 0001:00047A27 14419 0001:00047A2F 14420 0001:00047A3A 14421 0001:00047A48
 14429 0001:00047A54 14432 0001:00047A5C 14433 0001:00047A6A 14435 0001:00047A6F
 14440 0001:00047A76 14446 0001:00047A7C 14447 0001:00047A85 14452 0001:00047A87
 14453 0001:00047A95 14455 0001:00047AAE 14458 0001:00047ACD 14462 0001:00047AE9
 14466 0001:00047B05 14467 0001:00047B11 14470 0001:00047B27 14472 0001:00047B2C
 14473 0001:00047B32 14477 0001:00047B3C 14478 0001:00047B44 14484 0001:00047B4B
 14489 0001:00047B8E 14490 0001:00047B96 14494 0001:00047B9D 14495 0001:00047BA5
 14497 0001:00047BAC 14499 0001:00047BAE 14500 0001:00047BB5 14501 0001:00047BBD
 14502 0001:00047BC8 14503 0001:00047BD6 14511 0001:00047BE2 14517 0001:00047BEC
 14518 0001:00047BFE 14520 0001:00047C00 14522 0001:00047C07 14523 0001:00047C16
 14526 0001:00047C31 14527 0001:00047C4A 14529 0001:00047C58 14531 0001:00047C67
 14534 0001:00047C91 14535 0001:00047CA0 14538 0001:00047CB4 14540 0001:00047CE1
 14542 0001:00047CE3 14543 0001:00047CEA 14544 0001:00047CF2 14545 0001:00047CFA
 14546 0001:00047D05 14547 0001:00047D13 14555 0001:00047D1F 14561 0001:00047D28
 14562 0001:00047D3A 14564 0001:00047D3C 14566 0001:00047D43 14567 0001:00047D52
 14570 0001:00047D6D 14571 0001:00047D86 14573 0001:00047D94 14575 0001:00047DA3
 14577 0001:00047DB1 14578 0001:00047DC0 14581 0001:00047DD4 14583 0001:00047E01
 14585 0001:00047E03 14586 0001:00047E0A 14587 0001:00047E12 14588 0001:00047E1A
 14589 0001:00047E25 14590 0001:00047E33 14598 0001:00047E3F 14604 0001:00047E48
 14605 0001:00047E4F 14609 0001:00047E51 14611 0001:00047E58 14612 0001:00047E67
 14615 0001:00047E85 14616 0001:00047EA1 14617 0001:00047EAF 14620 0001:00047EC9
 14621 0001:00047ED8 14624 0001:00047EEC 14627 0001:00047F19 14629 0001:00047F1B
 14630 0001:00047F22 14631 0001:00047F2A 14632 0001:00047F31 14633 0001:00047F3C
 14634 0001:00047F4A 14642 0001:00047F56 14646 0001:00047F60 14650 0001:00047F72
 14655 0001:00047F8A 14675 0001:00047F90 14676 0001:00047FAA 14681 0001:00047FAC
 14682 0001:00047FBA 14684 0001:00048013 14687 0001:00048048 14688 0001:0004805B
 14690 0001:00048079 14693 0001:00048094 14697 0001:000480AF 14701 0001:000480CA
 14704 0001:000480E5 14707 0001:00048100 14710 0001:0004811B 14713 0001:00048136
 14716 0001:00048151 14719 0001:0004816C 14722 0001:00048184 14725 0001:0004819C
 14728 0001:000481B4 14731 0001:000481CC 14735 0001:000481E4 14740 0001:00048228
 14742 0001:0004822F 14743 0001:00048236 14745 0001:00048238 14746 0001:0004823F
 14747 0001:0004824A 14748 0001:00048258 14756 0001:00048286 14761 0001:0004872C
 14763 0001:00048741 14764 0001:0004874A 14766 0001:0004874E 14767 0001:00048751
 14768 0001:00048757 14769 0001:0004875D 14770 0001:00048763 14771 0001:00048767
 14773 0001:00048777 14774 0001:00048781 14775 0001:0004878A 14777 0001:00048793
 14778 0001:000487A5 14780 0001:000487AD 14782 0001:000487B4 14788 0001:000487D2
 14793 0001:000487D8 14795 0001:000487DE 14801 0001:000487E4 14802 0001:000487EE
 14803 0001:000487F7 14805 0001:00048800 14807 0001:00048809 14808 0001:0004880E
 14809 0001:00048813 14811 0001:0004881D 14814 0001:00048827 14815 0001:00048830
 14817 0001:00048839 14823 0001:0004883E 14829 0001:00048844 14833 0001:0004886A
 14834 0001:00048873 14837 0001:000488B3 14839 0001:000488BC 14841 0001:000488C3
 14843 0001:000488CC 14844 0001:000488D8 14845 0001:000488E4 14846 0001:000488EB
 14841 0001:000488EC 14847 0001:000488F1 14850 0001:000488F9 14851 0001:00048901
 14853 0001:00048919 14858 0001:00048950 14862 0001:00048994 14863 0001:00048998
 14865 0001:000489B8 14871 0001:000489C0 14872 0001:000489C4 14873 0001:00048AFC
 14874 0001:00048B0B 14875 0001:00048B1A 14876 0001:00048B29 14877 0001:00048B38
 14878 0001:00048B47 14879 0001:00048B56 14880 0001:00048B65 14881 0001:00048B74
 14882 0001:00048B83 14883 0001:00048B92 14884 0001:00048BA1 14885 0001:00048BB0
 14886 0001:00048BBF 14887 0001:00048BCE 14888 0001:00048BDD 14889 0001:00048BEC
 14890 0001:00048BFB 14891 0001:00048C0A 14892 0001:00048C19 14893 0001:00048C28
 14894 0001:00048C37 14895 0001:00048C46 14896 0001:00048C55 14897 0001:00048C64
 14898 0001:00048C73 14899 0001:00048C82 14900 0001:00048C91 14901 0001:00048CA0
 14902 0001:00048CAF 14903 0001:00048CBE 14904 0001:00048CCD 14905 0001:00048CDC
 14906 0001:00048CEB 14907 0001:00048CFA 14908 0001:00048D09 14909 0001:00048D18
 14910 0001:00048D27 14911 0001:00048D36 14914 0001:00048D45 14915 0001:00048D47
 14916 0001:00048D50 14919 0001:00048D8B 14920 0001:00048D8D 14924 0001:00048D9E
 14925 0001:00048DA0 14929 0001:00048DB1 14930 0001:00048DB3 14934 0001:00048DC4
 14935 0001:00048DC6 14939 0001:00048DD4 14940 0001:00048DD6 14944 0001:00048DE4
 14945 0001:00048DE6 14949 0001:00048DF4 14950 0001:00048DF6 14954 0001:00048E04
 14955 0001:00048E06 14959 0001:00048E14 14960 0001:00048E16 14964 0001:00048E24
 14965 0001:00048E26 14968 0001:00048E34 14969 0001:00048E39 14972 0001:00048E40
 14973 0001:00048E42 14976 0001:00048E4E 14977 0001:00048E52 14980 0001:00048E5E
 14983 0001:00049394 14984 0001:000493AD 14985 0001:000494F8 14986 0001:00049509
 14987 0001:0004951A 14988 0001:0004952B 14989 0001:0004953C 14990 0001:0004954D
 14991 0001:0004955E 14992 0001:0004956F 14993 0001:00049580 14994 0001:00049591
 14995 0001:000495A2 14996 0001:000495B3 14997 0001:000495C4 14998 0001:000495D5
 14999 0001:000495E6 15000 0001:000495F7 15001 0001:00049608 15002 0001:00049619
 15003 0001:0004962A 15004 0001:0004963B 15005 0001:0004964C 15006 0001:0004965D
 15007 0001:0004966E 15008 0001:0004967F 15009 0001:00049690 15010 0001:000496A1
 15011 0001:000496B2 15012 0001:000496C3 15013 0001:000496D4 15014 0001:000496E5
 15015 0001:000496F6 15016 0001:00049707 15017 0001:00049715 15018 0001:00049723
 15019 0001:00049731 15020 0001:0004973F 15021 0001:0004974D 15022 0001:0004975B
 15024 0001:00049769 15026 0001:00049777 15028 0001:000497A8 15057 0001:00049BC4
 15058 0001:00049BC8 15060 0001:00049BD4 15062 0001:00049BEA 15064 0001:00049BF2
 15074 0001:00049C1F 15075 0001:00049C32 15077 0001:00049C40 15078 0001:00049C4A
 15083 0001:00049C90 15085 0001:00049C94 15089 0001:00049CB8 15090 0001:00049CC4
 15093 0001:00049CE9 15094 0001:00049CEE 15095 0001:00049CF2 15096 0001:00049CFE
 15097 0001:00049D0C 15098 0001:00049D19 15100 0001:00049D25 15101 0001:00049D3D
 15102 0001:00049D44 15104 0001:00049D57 15106 0001:00049D60 15107 0001:00049D72
 15106 0001:00049D88 15108 0001:00049D8E 15110 0001:00049D99 15111 0001:00049DAD
 15112 0001:00049DBB 15115 0001:00049DBD 15117 0001:00049DD3 15118 0001:00049DE2
 15122 0001:00049DF2 15123 0001:00049DFD 15125 0001:00049E03 15129 0001:00049E49
 15131 0001:00049E54 15133 0001:00049E61 15135 0001:00049E95 15137 0001:00049EA4
 15138 0001:00049EAC 15139 0001:00049EB9 15141 0001:00049EC5 15145 0001:00049F0B
 15146 0001:00049F12 15149 0001:00049F27 15153 0001:00049F3A 15155 0001:00049F46
 15156 0001:00049F50 15158 0001:00049F55 15157 0001:00049F56 15159 0001:00049F5F
 15162 0001:00049F6A 15168 0001:00049F74 15169 0001:00049F8F 15170 0001:00049FA0
 15174 0001:00049FB3 15177 0001:00049FCF 15179 0001:00049FE7 15182 0001:0004A027
 15184 0001:0004A034 15186 0001:0004A046 15188 0001:0004A051 15194 0001:0004A05C
 15195 0001:0004A065 15197 0001:0004A070 15205 0001:0004A07B 15209 0001:0004A087
 15210 0001:0004A090 15212 0001:0004A09B 15241 0001:0004A0A6 15244 0001:0004A0B3
 15245 0001:0004A0C3 15261 0001:0004A0CC 15262 0001:0004A0DF 15264 0001:0004A0E8
 15265 0001:0004A0F4 15266 0001:0004A0FD 15271 0001:0004A104 15274 0001:0004A1C7
 15275 0001:0004A1D0 15276 0001:0004A1D9 15277 0001:0004A1E3 15297 0001:0004A1EF
 15306 0001:0004A20A 15307 0001:0004A213 15308 0001:0004A21C 15313 0001:0004A228
 15322 0001:0004A246 15323 0001:0004A24F 15324 0001:0004A258 15329 0001:0004A264
 15330 0001:0004A26D 15331 0001:0004A276 15332 0001:0004A280 15333 0001:0004A289
 15337 0001:0004A298 15341 0001:0004A2A4 15342 0001:0004A2AD 15343 0001:0004A2B6
 15344 0001:0004A2C0 15348 0001:0004A2CC 15353 0001:0004A2E4 15354 0001:0004A2ED
 15355 0001:0004A2F6 15358 0001:0004A305 15360 0001:0004A314 15361 0001:0004A31D
 15362 0001:0004A326 15363 0001:0004A33A 15364 0001:0004A340 15365 0001:0004A352
 15366 0001:0004A364 15367 0001:0004A36F 15371 0001:0004A383 15372 0001:0004A38C
 15377 0001:0004A3F0 15378 0001:0004A3F9 15401 0001:0004A402 15410 0001:0004A416
 15414 0001:0004A41C 15418 0001:0004A45A 15420 0001:0004A469 15450 0001:0004A478
 15453 0001:0004A498 15454 0001:0004A4A1 15455 0001:0004A4AA 15460 0001:0004A4B4
 15464 0001:0004A4BD 15465 0001:0004A4C6 15466 0001:0004A4CF 15469 0001:0004A4D9
 15470 0001:0004A4E8 15479 0001:0004A54C 15481 0001:0004A55F 15483 0001:0004A572
 15484 0001:0004A57B 15485 0001:0004A584 15487 0001:0004A590 15489 0001:0004A5A3
 15490 0001:0004A5AC 15491 0001:0004A5B5 15493 0001:0004A5C1 15495 0001:0004A5CA
 15496 0001:0004A5D3 15497 0001:0004A5DC 15501 0001:0004A5E6 15502 0001:0004A602
 15507 0001:0004A60E 15508 0001:0004A617 15509 0001:0004A620 15513 0001:0004A62F
 15514 0001:0004A638 15516 0001:0004A664 15518 0001:0004A66A 15520 0001:0004A676
 15524 0001:0004A681 15526 0001:0004A68A 15527 0001:0004A693 15528 0001:0004A69D
 15530 0001:0004A6A8 15532 0001:0004A6BC 15533 0001:0004A6C5 15537 0001:0004A6D0
 15540 0001:0004A6D9 15542 0001:0004A6E2 15549 0001:0004A6EC 15551 0001:0004A6FE
 15559 0001:0004A708 15563 0001:0004A723 15564 0001:0004A72C 15565 0001:0004A732
 15567 0001:0004A73D 15569 0001:0004A746 15571 0001:0004A752 15573 0001:0004A75E
 15582 0001:0004A767 15585 0001:0004A771 15586 0001:0004A77A 15587 0001:0004A781
 15588 0001:0004A785 15590 0001:0004A7A2 15591 0001:0004A7A7 15593 0001:0004A7C9
 15595 0001:0004A7D6 15596 0001:0004A7DA 15597 0001:0004A7E3 15598 0001:0004A7EC
 15599 0001:0004A7F6 15600 0001:0004A7FF 15603 0001:0004A808 15604 0001:0004A80F
 15607 0001:0004A849 15609 0001:0004A853 15610 0001:0004A861 15611 0001:0004A86B
 15619 0001:0004A879 15621 0001:0004A889 15623 0001:0004A88F 15624 0001:0004A898
 15625 0001:0004A8A1 15629 0001:0004A8AC 15630 0001:0004A8B5 15631 0001:0004A8BE
 15633 0001:0004A8C7 15637 0001:0004A8D3 15640 0001:0004A8E7 15642 0001:0004A8F6
 15646 0001:0004A8FF 15647 0001:0004A90C 15648 0001:0004A916 15650 0001:0004A924
 15651 0001:0004A931 15657 0001:0004A93D 15658 0001:0004A947 15660 0001:0004A952
 15661 0001:0004A95B 15662 0001:0004A964 15663 0001:0004A96D 15666 0001:0004A97B
 15667 0001:0004A98E 15669 0001:0004A996 15671 0001:0004A9AB 15673 0001:0004A9B7
 15676 0001:0004A9D3 15679 0001:0004A9E7 15682 0001:0004A9EE 15683 0001:0004A9FB
 15687 0001:0004AA07 15689 0001:0004AA10 15690 0001:0004AA26 15694 0001:0004AA35
 15696 0001:0004AA3E 15697 0001:0004AA55 15701 0001:0004AA64 15703 0001:0004AA6D
 15704 0001:0004AA84 15710 0001:0004AA93 15712 0001:0004AA9C 15713 0001:0004AAB3
 15717 0001:0004AAC2 15718 0001:0004AACB 15719 0001:0004AAD4 15723 0001:0004AAE3
 15725 0001:0004AB05 15727 0001:0004AB0B 15728 0001:0004AB14 15729 0001:0004AB1D
 15733 0001:0004AB28 15734 0001:0004AB31 15735 0001:0004AB3A 15737 0001:0004AB43
 15741 0001:0004AB4F 15744 0001:0004AB63 15745 0001:0004AB72 15748 0001:0004AB7B
 15749 0001:0004AB88 15750 0001:0004AB92 15753 0001:0004ABA0 15754 0001:0004ABAD
 15760 0001:0004ABB9 15761 0001:0004ABC2 15762 0001:0004ABCB 15765 0001:0004ABD4
 15766 0001:0004ABDB 15772 0001:0004ABE7 15773 0001:0004ABF0 15774 0001:0004ABF9
 15775 0001:0004AC03 15779 0001:0004AC11 15780 0001:0004AC15 15782 0001:0004AC28
 15787 0001:0004AC51 15788 0001:0004AC5A 15790 0001:0004AC7E 15792 0001:0004AC85
 15794 0001:0004ACB5 15819 0001:0004ACBF 15820 0001:0004ACC7 15837 0001:0004ACD0
 15839 0001:0004ACD9 15841 0001:0004ACFD 15843 0001:0004AD04 15845 0001:0004AD34
 15847 0001:0004AD3E 15848 0001:0004AD47 15849 0001:0004AD4F 15853 0001:0004AD53
 15855 0001:0004AD62 15858 0001:0004AD6F 15859 0001:0004AD78 15860 0001:0004AD80
 15861 0001:0004AD84 15865 0001:0004AD8D 15871 0001:0004AD97 15875 0001:0004ADB6
 15876 0001:0004ADC5 15877 0001:0004ADCD 15878 0001:0004ADD1 15882 0001:0004ADD6
 15890 0001:0004AE34 15891 0001:0004AE3B 15893 0001:0004AE46 15895 0001:0004AE47
 15896 0001:0004AE50 15898 0001:0004AE56 15902 0001:0004AE6B 15905 0001:0004AE72
 15906 0001:0004AE82 15920 0001:0004AFD1 15115 0001:0004AFD4 15922 0001:0004AFDB
 15923 0001:0004AFE8 15944 0001:0004AFEF 15945 0001:0004AFF9 15947 0001:0004B001
 15948 0001:0004B006 15949 0001:0004B00D 15951 0001:0004B012 15953 0001:0004B026
 15956 0001:0004B037 15958 0001:0004B040 15959 0001:0004B043 15962 0001:0004B051
 15964 0001:0004B05A 15965 0001:0004B063 15966 0001:0004B069 15969 0001:0004B06F
 15951 0001:0004B072 15970 0001:0004B075 15972 0001:0004B081 15974 0001:0004B08A
 15975 0001:0004B09F 15978 0001:0004B0A9 15980 0001:0004B0B2 15983 0001:0004B0CD
 15986 0001:0004B0D9 15989 0001:0004B0EC 15990 0001:0004B103 15991 0001:0004B10C
 16004 0001:0004B116 16007 0001:0004B123 16008 0001:0004B12C 16009 0001:0004B13A
 16012 0001:0004B144 16014 0001:0004B161 16016 0001:0004B168 16017 0001:0004B16F
 16019 0001:0004B1A3 16021 0001:0004B1A8 16028 0001:0004B1C7 16032 0001:0004B1D6
 16033 0001:0004B1DD 16034 0001:0004B1E8 16036 0001:0004B222 16039 0001:0004B227
 16041 0001:0004B247 16043 0001:0004B24E 16044 0001:0004B255 16046 0001:0004B289
 16048 0001:0004B28E 16050 0001:0004B2AD 16052 0001:0004B2BF 16053 0001:0004B2C6
 16054 0001:0004B2D1 16056 0001:0004B30B 16058 0001:0004B310 16059 0001:0004B330
 16066 0001:0004B372 16067 0001:0004B38D 16069 0001:0004B394 16009 0001:0004B396
 16071 0001:0004B3A0 16073 0001:0004B3AA 16076 0001:0004B3B4 16078 0001:0004B3CB
 16079 0001:0004B3E6 16081 0001:0004B3ED 16083 0001:0004B427 16085 0001:0004B442
 16086 0001:0004B449 16089 0001:0004B45C 16090 0001:0004B466 16091 0001:0004B473
 16092 0001:0004B47D 16095 0001:0004B4A8 16097 0001:0004B4AB 16098 0001:0004B4BD
 16100 0001:0004B4F7 16102 0001:0004B501 16105 0001:0004B51C 16106 0001:0004B523
 16109 0001:0004B55D 16110 0001:0004B578 16113 0001:0004B583 16115 0001:0004B5BD
 16117 0001:0004B5D8 16122 0001:0004B5DF 16127 0001:0004B619 16128 0001:0004B623
 16129 0001:0004B630 16130 0001:0004B63A 16135 0001:0004B64C 16137 0001:0004B655
 16138 0001:0004B65B 16139 0001:0004B667 16140 0001:0004B66D 16145 0001:0004B676
 16146 0001:0004B683 16151 0001:0004B695 16154 0001:0004B6A2 16157 0001:0004B6A8
 16159 0001:0004B6B8 16162 0001:0004B6C3 16164 0001:0004B6D7 16167 0001:0004B6E8
 16169 0001:0004B6FA 16174 0001:0004B706 16177 0001:0004B709 16162 0001:0004B70C
 16181 0001:0004B70F 16182 0001:0004B71D 16184 0001:0004B735 16187 0001:0004B746
 16189 0001:0004B753 16191 0001:0004B759 16193 0001:0004B767 16195 0001:0004B76D
 16197 0001:0004B77C 16201 0001:0004B7B2 16202 0001:0004B7B9 16205 0001:0004B7FE
 16182 0001:0004B801 16207 0001:0004B826 16209 0001:0004B829 16210 0001:0004B83B
 16212 0001:0004B86D 16213 0001:0004B883 16214 0001:0004B88A 16216 0001:0004B8BC
 16217 0001:0004B8C7 16219 0001:0004B8E2 16221 0001:0004B8F4 16222 0001:0004B905
 16223 0001:0004B915 16224 0001:0004B91D 16219 0001:0004B920 16225 0001:0004B926
 16227 0001:0004B931 16228 0001:0004B93B 16229 0001:0004B948 16230 0001:0004B952
 16233 0001:0004B95F 16241 0001:0004B971 16243 0001:0004B989 16246 0001:0004B99A
 16248 0001:0004B9A7 16250 0001:0004B9AD 16251 0001:0004B9BC 16253 0001:0004B9C9
 16257 0001:0004B9FF 16259 0001:0004BA0A 16260 0001:0004BA16 16263 0001:0004BA5D
 16265 0001:0004BA64 16272 0001:0004BA9E 16241 0001:0004BAA1 16275 0001:0004BAB5
 16283 0001:0004BAF2 16288 0001:0004BE0C 16290 0001:0004BE28 16294 0001:0004BE2E
 16297 0001:0004BE4D 16298 0001:0004BE58 16299 0001:0004BE8B 16305 0001:0004BEB1
 16311 0001:0004BEDC 16313 0001:0004BEFA 16314 0001:0004BEFB 16315 0001:0004BF08
 16317 0001:0004BF11 16320 0001:0004BF1B 16321 0001:0004BF38 16323 0001:0004BF41
 16326 0001:0004BF63 16327 0001:0004BF6E 16328 0001:0004BFA1 16334 0001:0004BFC7
 16341 0001:0004BFF4 16351 0001:0004BFFE 16353 0001:0004C00E 16354 0001:0004C018
 16356 0001:0004C022 16358 0001:0004C028 16359 0001:0004C02E 16362 0001:0004C039
 16365 0001:0004C051 16366 0001:0004C061 16368 0001:0004C078 16372 0001:0004C07C
 16375 0001:0004C093 16377 0001:0004C095 16381 0001:0004C0A3 16383 0001:0004C0A7
 16351 0001:0004C0A8 16388 0001:0004C0AF 16392 0001:0004C0B4 16393 0001:0004C0BC
 16407 0001:0004C0C0 16412 0001:0004C0C3 16413 0001:0004C0D5 16415 0001:0004C0F3
 16416 0001:0004C0FF 16418 0001:0004C112 16419 0001:0004C127 16422 0001:0004C150
 16423 0001:0004C166 16425 0001:0004C174 16430 0001:0004C180 16436 0001:0004C18A
 16439 0001:0004C18C 16440 0001:0004C18F 16443 0001:0004C19D 16444 0001:0004C1AE
 16447 0001:0004C1B8 16455 0001:0004C1C4 16456 0001:0004C1D9 16459 0001:0004C1E3
 16466 0001:0004C1ED 16468 0001:0004C1F0 16470 0001:0004C220 16496 0001:0004C22C
 16498 0001:0004C23A 16502 0001:0004C23F 16503 0001:0004C24B 16505 0001:0004C259
 16509 0001:0004C25E 16510 0001:0004C26E 16512 0001:0004C275 16513 0001:0004C287
 16521 0001:0004C28A 16523 0001:0004C28F 16524 0001:0004C29E 16532 0001:0004C2A0
 16534 0001:0004C2B4 16537 0001:0004C2BD 16540 0001:0004C2D3 16542 0001:0004C2DE
 16544 0001:0004C2E2 16545 0001:0004C2EC 16547 0001:0004C2F4 16548 0001:0004C306
 16552 0001:0004C310 16553 0001:0004C319 16554 0001:0004C324 16558 0001:0004C32D
 16560 0001:0004C338 16562 0001:0004C347 16564 0001:0004C34E 16565 0001:0004C357
 16567 0001:0004C35E 16570 0001:0004C367 16574 0001:0004C36E 16578 0001:0004C373
 16581 0001:0004C378 16583 0001:0004C380 16584 0001:0004C386 16585 0001:0004C390
 16586 0001:0004C39A 16589 0001:0004C3BC 16591 0001:0004C3C6 16592 0001:0004C3CF
 16595 0001:0004C3D5 16597 0001:0004C3E9 16600 0001:0004C3EC 16601 0001:0004C3F5
 16603 0001:0004C3FC 16605 0001:0004C404 16606 0001:0004C40C 16607 0001:0004C416
 16608 0001:0004C420 16611 0001:0004C442 16615 0001:0004C459 16616 0001:0004C46A
 16618 0001:0004C46C 16620 0001:0004C478 16621 0001:0004C47F 16623 0001:0004C48F
 16624 0001:0004C49B 16627 0001:0004C4AD 16628 0001:0004C4B5 16630 0001:0004C4BF
 16632 0001:0004C4C1 16593 0001:0004C4CA 16635 0001:0004C4CF 16637 0001:0004C4E0
 16638 0001:0004C4E9 16644 0001:0004C4F9 16645 0001:0004C50A 16647 0001:0004C50C
 16649 0001:0004C518 16650 0001:0004C51F 16653 0001:0004C52F 16654 0001:0004C53A
 16656 0001:0004C552 16659 0001:0004C55A 16675 0001:0004C56A 16676 0001:0004C570
 16677 0001:0004C57D 16678 0001:0004C587 16679 0001:0004C590 16681 0001:0004C5B8
 16682 0001:0004C5BB 16686 0001:0004C5C5 16687 0001:0004C5CE 16688 0001:0004C5D6
 16689 0001:0004C5D9 16691 0001:0004C5E1 16692 0001:0004C5F1 16694 0001:0004C5F7
 16695 0001:0004C603 16696 0001:0004C60D 16697 0001:0004C613 16702 0001:0004C635
 16706 0001:0004C646 16707 0001:0004C64F 16682 0001:0004C656 16710 0001:0004C660
 16711 0001:0004C671 16713 0001:0004C673 16715 0001:0004C67F 16716 0001:0004C686
 16719 0001:0004C696 16732 0001:0004C6A1 16733 0001:0004C6B2 16737 0001:0004C6B4
 16740 0001:0004C6D0 16747 0001:0004C72D 16748 0001:0004C732 16749 0001:0004C769
 16755 0001:0004C792 16762 0001:0004C868 16764 0001:0004C876 16765 0001:0004C877
 16768 0001:0004C884 16771 0001:0004C88A 16772 0001:0004C8A7 16774 0001:0004C8B0
 16780 0001:0004C8C0 16795 0001:0004C8C8 16797 0001:0004C8D4 16799 0001:0004C8D8
 16800 0001:0004C8DD 16802 0001:0004C8DF 16805 0001:0004C8EE 16806 0001:0004C8F4
 16807 0001:0004C8FF 16809 0001:0004C91D 16810 0001:0004C925 16812 0001:0004C92D
 16887 0001:0004C948 16893 0001:0004C94A 16899 0001:0004C954 16906 0001:0004C95D
 16907 0001:0004C96B 16911 0001:0004C97C 16912 0001:0004C982 16915 0001:0004C99B
 16917 0001:0004C9AE 16919 0001:0004C9CC 16921 0001:0004C9D2 16922 0001:0004C9DA
 16926 0001:0004C9E3 16929 0001:0004C9EA 16930 0001:0004C9F1 16934 0001:0004C9FD
 16936 0001:0004CA15 16937 0001:0004CA1C 16939 0001:0004CA28 16941 0001:0004CA35
 16944 0001:0004CA39 16948 0001:0004CA3D 16949 0001:0004CA5A 16950 0001:0004CA62
 16953 0001:0004CA6B 16954 0001:0004CA72 16956 0001:0004CA82 16958 0001:0004CA8C
 16962 0001:0004CAA9 16964 0001:0004CAAB 16965 0001:0004CAB2 16966 0001:0004CAB9
 16967 0001:0004CAC2 16968 0001:0004CACC 16976 0001:0004CAD8 16982 0001:0004CB44
 16990 0001:0004CB5F 16991 0001:0004CB6D 16995 0001:0004CB80 16996 0001:0004CB87
 17000 0001:0004CBB5 17001 0001:0004CBBB 17004 0001:0004CBD4 17005 0001:0004CBE8
 17006 0001:0004CBF0 17007 0001:0004CBF9 17008 0001:0004CC08 17010 0001:0004CC0F
 17012 0001:0004CC1D 17015 0001:0004CC3A 17017 0001:0004CC3C 17018 0001:0004CC43
 17019 0001:0004CC4A 17020 0001:0004CC53 17021 0001:0004CC5D 17029 0001:0004CC8B
 17034 0001:0004CCD8 17036 0001:0004CCE4 17038 0001:0004CCE8 17039 0001:0004CCED
 17041 0001:0004CCF2 17044 0001:0004CD01 17045 0001:0004CD07 17046 0001:0004CD12
 17048 0001:0004CD30 17050 0001:0004CD34 17051 0001:0004CD3C 17058 0001:0004CD42
 17060 0001:0004CD49 17062 0001:0004CD4F 17064 0001:0004CD5D 17066 0001:0004CD6C
 17069 0001:0004CD70 17075 0001:0004CD75 17078 0001:0004CD7C 17079 0001:0004CD82
 17080 0001:0004CD8C 17081 0001:0004CD8E 17086 0001:0004CD94 17088 0001:0004CDB1
 17089 0001:0004CDBF 17092 0001:0004CDD2 17096 0001:0004CE9F 17101 0001:0004CEAD
 17105 0001:0004CEC5 17109 0001:0004CED3 17110 0001:0004CEDA 17112 0001:0004CEE4
 17116 0001:0004CEF2 17120 0001:0004CF00 17124 0001:0004CF0E 17128 0001:0004CF1C
 17132 0001:0004CF2A 17136 0001:0004CF42 17140 0001:0004CF4F 17144 0001:0004CF5D
 17148 0001:0004CF6B 17152 0001:0004CF79 17156 0001:0004CF87 17160 0001:0004CF95
 17161 0001:0004CF9C 17163 0001:0004CFA6 17167 0001:0004CFB4 17171 0001:0004CFC1
 17175 0001:0004CFCE 17179 0001:0004CFDC 17183 0001:0004CFEA 17187 0001:0004CFF7
 17188 0001:0004CFFE 17190 0001:0004D008 17194 0001:0004D016 17198 0001:0004D023
 17205 0001:0004D030 17209 0001:0004D03E 17215 0001:0004D056 17219 0001:0004D06B
 17220 0001:0004D07D 17226 0001:0004D0DC 17227 0001:0004D0E4 17228 0001:0004D0ED
 17230 0001:0004D10A 17232 0001:0004D10C 17233 0001:0004D113 17234 0001:0004D11A
 17235 0001:0004D124 17243 0001:0004D152 17247 0001:0004D1CC 17249 0001:0004D1D3
 17250 0001:0004D1F0 17255 0001:0004D1F2 17258 0001:0004D1F8 17259 0001:0004D200
 17261 0001:0004D202 17266 0001:0004D22A 17272 0001:0004D230 17274 0001:0004D236
 17275 0001:0004D244 17278 0001:0004D254 17284 0001:0004D281 17285 0001:0004D284
 17286 0001:0004D288 17287 0001:0004D28D 17288 0001:0004D2A0 17290 0001:0004D2A8
 17298 0001:0004D2B2 17299 0001:0004D2B5 17300 0001:0004D2B9 17301 0001:0004D2BE
 17302 0001:0004D2D1 17304 0001:0004D2D9 17310 0001:0004D2E3 17317 0001:0004D2EB
 17319 0001:0004D308 17321 0001:0004D30A 17322 0001:0004D311 17323 0001:0004D319
 17324 0001:0004D323 17332 0001:0004D32F 17337 0001:0004D338 17339 0001:0004D33E
 17340 0001:0004D34C 17342 0001:0004D35C 17344 0001:0004D366 17350 0001:0004D372
 17352 0001:0004D37A 17354 0001:0004D397 17356 0001:0004D399 17357 0001:0004D3A0
 17358 0001:0004D3A8 17359 0001:0004D3B2 17367 0001:0004D3BE 17373 0001:0004D3C8
 17375 0001:0004D3D7 17377 0001:0004D3E2 17380 0001:0004D3EE 17381 0001:0004D3F5
 17383 0001:0004D3FF 17388 0001:0004D403 17389 0001:0004D408 17390 0001:0004D410
 17396 0001:0004D412 17402 0001:0004D41C 17404 0001:0004D428 17406 0001:0004D42E
 17407 0001:0004D433 17409 0001:0004D438 17412 0001:0004D446 17413 0001:0004D44C
 17414 0001:0004D455 17421 0001:0004D473 17422 0001:0004D47B 17424 0001:0004D484
 17427 0001:0004D489 17428 0001:0004D497 17433 0001:0004D4C5 17434 0001:0004D4CE
 17441 0001:0004D4DA 17447 0001:0004D4DC 17453 0001:0004D4E4 17455 0001:0004D4F0
 17457 0001:0004D4F4 17458 0001:0004D4F9 17460 0001:0004D4FB 17463 0001:0004D50A
 17464 0001:0004D510 17465 0001:0004D51B 17467 0001:0004D539 17468 0001:0004D541
 17470 0001:0004D54A 17471 0001:0004D557 17477 0001:0004D559 17480 0001:0004D560
 17481 0001:0004D57B 17483 0001:0004D57F 17484 0001:0004D584 17486 0001:0004D586
 17487 0001:0004D5A8 17488 0001:0004D5B6 17489 0001:0004D5D7 17492 0001:0004D5E0
 17493 0001:0004D5F7 17494 0001:0004D616 17495 0001:0004D637 17501 0001:0004D640
 17503 0001:0004D64C 17505 0001:0004D650 17506 0001:0004D655 17508 0001:0004D657
 17511 0001:0004D666 17512 0001:0004D66C 17513 0001:0004D677 17515 0001:0004D695
 17516 0001:0004D69D 17518 0001:0004D6A3 17520 0001:0004D6AA 17525 0001:0004D6AC
 17529 0001:0004D6B4 17530 0001:0004D6B7 17551 0001:0004D6BC 17557 0001:0004D6C0
 17559 0001:0004D6CC 17561 0001:0004D6D0 17562 0001:0004D6D5 17564 0001:0004D6D7
 17567 0001:0004D6E6 17568 0001:0004D6EC 17569 0001:0004D6F7 17571 0001:0004D715
 17572 0001:0004D71D 17573 0001:0004D724 17574 0001:0004D72B 17576 0001:0004D736
 17577 0001:0004D73F 17583 0001:0004D741 17595 0001:0004D748 17604 0001:0004D754
 17606 0001:0004D75A 17607 0001:0004D75F 17609 0001:0004D764 17612 0001:0004D772
 17614 0001:0004D778 17615 0001:0004D77E 17617 0001:0004D789 17620 0001:0004D796
 17623 0001:0004D7B2 17625 0001:0004D7B7 17628 0001:0004D7D0 17630 0001:0004D7DC
 17632 0001:0004D7E0 17633 0001:0004D7E7 17637 0001:0004D7EB 17638 0001:0004D7F4
 17643 0001:0004D7F8 17646 0001:0004D7FA 17648 0001:0004D802 17649 0001:0004D806
 17651 0001:0004D80E 17652 0001:0004D816 17653 0001:0004D826 17657 0001:0004D832
 17659 0001:0004D836 17660 0001:0004D83A 17662 0001:0004D845 17665 0001:0004D852
 17667 0001:0004D865 17668 0001:0004D86B 17671 0001:0004D871 17670 0001:0004D872
 17672 0001:0004D87C 17673 0001:0004D884 17674 0001:0004D888 17675 0001:0004D892
 17680 0001:0004D89E 17679 0001:0004D8A1 17681 0001:0004D8AC 17682 0001:0004D8BB
 17683 0001:0004D8BF 17684 0001:0004D8CE 17685 0001:0004D8D8 17690 0001:0004D8E1
 17692 0001:0004D8E5 17693 0001:0004D8F2 17694 0001:0004D8F5 17697 0001:0004D900
 17698 0001:0004D907 17699 0001:0004D913 17701 0001:0004D916 17705 0001:0004D91E
 17706 0001:0004D92E 17707 0001:0004D934 17711 0001:0004D942 17729 0001:0004D944
 17734 0001:0004D94C 17736 0001:0004D958 17738 0001:0004D95C 17739 0001:0004D961
 17741 0001:0004D963 17744 0001:0004D972 17745 0001:0004D978 17746 0001:0004D983
 17748 0001:0004D9A1 17749 0001:0004D9A9 17751 0001:0004D9AF 17752 0001:0004D9B2
 17753 0001:0004D9D2 17759 0001:0004D9D4 17765 0001:0004D9DC 17767 0001:0004D9E8
 17769 0001:0004D9EC 17770 0001:0004D9F1 17772 0001:0004D9F6 17775 0001:0004DA05
 17776 0001:0004DA0B 17777 0001:0004DA16 17779 0001:0004DA34 17780 0001:0004DA3C
 17786 0001:0004DA4C 17788 0001:0004DA4F 17790 0001:0004DA57 17791 0001:0004DA5C
 17792 0001:0004DA64 17793 0001:0004DA6C 17794 0001:0004DA74 17795 0001:0004DA7C
 17797 0001:0004DA84 17801 0001:0004DA94 17802 0001:0004DA9D 17807 0001:0004DAAB
 17812 0001:0004DAAD 17820 0001:0004DAB4 17822 0001:0004DABB 17823 0001:0004DAC4
 17824 0001:0004DAD2 17826 0001:0004DAE1 17827 0001:0004DAE8 17828 0001:0004DAEA
 17830 0001:0004DAF7 17831 0001:0004DB07 17836 0001:0004DB1D 17837 0001:0004DB24
 17838 0001:0004DB26 17841 0001:0004DB33 17842 0001:0004DB38 17850 0001:0004DB55
 17852 0001:0004DB6F 17853 0001:0004DB74 17855 0001:0004DBA5 17857 0001:0004DBC2
 17859 0001:0004DBC4 17860 0001:0004DBCB 17861 0001:0004DBD2 17862 0001:0004DBDC
 17870 0001:0004DBE8 17876 0001:0004DBF0 17878 0001:0004DBF8 17880 0001:0004DBFA
 17881 0001:0004DC07 17882 0001:0004DC19 17888 0001:0004DC20 17889 0001:0004DC28
 17891 0001:0004DC2A 17892 0001:0004DC37 17907 0001:0004DC4A 17918 0001:0004DC50
 17919 0001:0004DC56 17922 0001:0004DC58 17923 0001:0004DC66 17977 0001:0004DC88
 17979 0001:0004DC8A 17980 0001:0004DC91 17981 0001:0004DC9B 17989 0001:0004DCA7
 17997 0001:0004DCB0 17999 0001:0004DCB7 18001 0001:0004DCB9 18002 0001:0004DCC2
 18003 0001:0004DCD0 18004 0001:0004DCE0 18006 0001:0004DCFD 18007 0001:0004DD02
 18008 0001:0004DD13 18010 0001:0004DD3E 18012 0001:0004DD40 18013 0001:0004DD47
 18014 0001:0004DD51 18022 0001:0004DD5D 18051 0001:0004DD90 18052 0001:0004DDAB
 18054 0001:0004DDD9 18056 0001:0004DDEA 18058 0001:0004DDF8 18060 0001:0004DE06
 18062 0001:0004DE14 18064 0001:0004DE22 18066 0001:0004DE30 18068 0001:0004DE3E
 18070 0001:0004DE8E 18072 0001:0004DF74 18080 0001:0004DF94 18081 0001:0004DFA0
 18083 0001:0004DFAE 18085 0001:0004DFC3 18086 0001:0004DFCA 18089 0001:0004DFD7
 18095 0001:0004DFEA 18097 0001:0004DFF7 18099 0001:0004E004 18100 0001:0004E00A
 18101 0001:0004E01A 18104 0001:0004E020 18118 0001:0004E028 18119 0001:0004E030
 18120 0001:0004E039 18126 0001:0004E03F 18133 0001:0004E050 18134 0001:0004E058
 18138 0001:0004E061 18140 0001:0004E070 18143 0001:0004E07F 18145 0001:0004E085
 18147 0001:0004E08B 18148 0001:0004E09B 18150 0001:0004E0A1 18153 0001:0004E0AF
 18138 0001:0004E0B0 18158 0001:0004E0B5 18159 0001:0004E0B9 18162 0001:0004E0C1
 18164 0001:0004E0CB 18165 0001:0004E0DB 18168 0001:0004E0ED 18174 0001:0004E0F7
 18176 0001:0004E115 18178 0001:0004E11F 18181 0001:0004E129 18182 0001:0004E130
 18183 0001:0004E139 18189 0001:0004E14F 18190 0001:0004E156 18194 0001:0004E165
 18195 0001:0004E16C 18196 0001:0004E175 18203 0001:0004E18B 18205 0001:0004E194
 18206 0001:0004E1B0 18207 0001:0004E1B5 18210 0001:0004E20F 18212 0001:0004E22D
 18214 0001:0004E237 18217 0001:0004E241 18227 0001:0004E2B8 18228 0001:0004E2C8
 18230 0001:0004E2DA 18233 0001:0004E2E1 18238 0001:0004E2E8 18241 0001:0004E2F1
 18242 0001:0004E2F8 18243 0001:0004E2FD 18249 0001:0004E30E 18251 0001:0004E31F
 18252 0001:0004E32E 18263 0001:0004E332 18249 0001:0004E333 18268 0001:0004E336
 18275 0001:0004E35E 18279 0001:0004E383 18281 0001:0004E385 18282 0001:0004E38C
 18283 0001:0004E396 18288 0001:0004E3A2 18290 0001:0004E3B4 18318 0001:0004E421
 18323 0001:0004E550 18327 0001:0004E556 18328 0001:0004E564 18333 0001:0004E595
 18334 0001:0004E59F 18342 0001:0004E5AB 18347 0001:0004E5EC 18349 0001:0004E605
 18350 0001:0004E60E 18352 0001:0004E612 18353 0001:0004E619 18354 0001:0004E61C
 18355 0001:0004E621 18356 0001:0004E630 18357 0001:0004E636 18358 0001:0004E63C
 18364 0001:0004E65B 18367 0001:0004E664 18369 0001:0004E66F 18370 0001:0004E677
 18375 0001:0004E68E 18378 0001:0004E694 18379 0001:0004E697 18380 0001:0004E6A1
 18381 0001:0004E6AB 18382 0001:0004E6B5 18385 0001:0004E6B8 18386 0001:0004E6BF
 18387 0001:0004E6D9 18389 0001:0004E6DD 18390 0001:0004E6E0 18392 0001:0004E6F2
 18393 0001:0004E6FB 18394 0001:0004E6FF 18396 0001:0004E70B 18400 0001:0004E712
 18401 0001:0004E719 18405 0001:0004E720 18407 0001:0004E73B 18409 0001:0004E73E
 18411 0001:0004E740 18415 0001:0004E744 18417 0001:0004E75A 18419 0001:0004E75D
 18421 0001:0004E75F 18425 0001:0004E760 18426 0001:0004E763 18430 0001:0004E764
 18431 0001:0004E769 18434 0001:0004E76C 18435 0001:0004E777 18436 0001:0004E784
 18438 0001:0004E797 18439 0001:0004E79E 18442 0001:0004E7A4 18443 0001:0004E7AD
 18444 0001:0004E7BD 18447 0001:0004E7C4 18448 0001:0004E7D1 18449 0001:0004E7DB
 18450 0001:0004E7E1 18451 0001:0004E7F2 18452 0001:0004E7F6 18453 0001:0004E800
 18456 0001:0004E806 18458 0001:0004E826 18460 0001:0004E82C 18462 0001:0004E838
 18467 0001:0004E840 18469 0001:0004E85D 18470 0001:0004E864 18472 0001:0004E86D
 18474 0001:0004E88F 18477 0001:0004E89B 18479 0001:0004E8A8 18481 0001:0004E8B5
 18486 0001:0004E8E4 18491 0001:0004E8EC 18492 0001:0004E8FA 18493 0001:0004E904
 18494 0001:0004E90D 18496 0001:0004E916 18497 0001:0004E918 18499 0001:0004E91A
 18500 0001:0004E92A 18501 0001:0004E936 18502 0001:0004E940 18503 0001:0004E950
 18504 0001:0004E95D 18516 0001:0004E968 18518 0001:0004E98C 18521 0001:0004E995
 18522 0001:0004E9A2 18525 0001:0004E9D3 18526 0001:0004E9D9 18528 0001:0004E9DD
 18530 0001:0004E9E3 18532 0001:0004EA05 18534 0001:0004EA07 18536 0001:0004EA15
 18537 0001:0004EA23 18538 0001:0004EA43 18539 0001:0004EA49 18540 0001:0004EA4D
 18541 0001:0004EA53 18543 0001:0004EA63 18551 0001:0004EAA4 18563 0001:0004EAE4
 18564 0001:0004EB08 18566 0001:0004EB0A 18569 0001:0004EB13 18572 0001:0004EB23
 18573 0001:0004EB30 18576 0001:0004EB64 18577 0001:0004EB6A 18579 0001:0004EB6E
 18581 0001:0004EB74 18583 0001:0004EB96 18585 0001:0004EB9B 18587 0001:0004EBA9
 18588 0001:0004EBB9 18589 0001:0004EBDB 18590 0001:0004EBE1 18591 0001:0004EBE5
 18592 0001:0004EBEB 18594 0001:0004EBFB 18602 0001:0004EC3C 18614 0001:0004EC7C
 18616 0001:0004ECC4 18619 0001:0004ECCD 18622 0001:0004ECFC 18623 0001:0004ED02
 18625 0001:0004ED06 18627 0001:0004ED0C 18629 0001:0004ED2E 18631 0001:0004ED33
 18634 0001:0004ED41 18639 0001:0004ED4C 18643 0001:0004ED68 18645 0001:0004ED72
 18649 0001:0004EDD4 18651 0001:0004EDE1 18652 0001:0004EDE3 18654 0001:0004EDED
 18658 0001:0004EE4F 18660 0001:0004EE6A 18661 0001:0004EE70 18663 0001:0004EE74
 18665 0001:0004EE7A 18667 0001:0004EE9C 18669 0001:0004EE9E 18677 0001:0004EED3
 18689 0001:0004EF8C 18691 0001:0004EFD4 18694 0001:0004EFDD 18697 0001:0004F00C
 18698 0001:0004F012 18700 0001:0004F016 18702 0001:0004F01C 18704 0001:0004F03E
 18706 0001:0004F043 18716 0001:0004F051 18719 0001:0004F05E 18720 0001:0004F060
 18722 0001:0004F06A 18726 0001:0004F0CC 18728 0001:0004F0D9 18729 0001:0004F0DB
 18731 0001:0004F0E5 18735 0001:0004F147 18737 0001:0004F162 18738 0001:0004F168
 18740 0001:0004F16C 18742 0001:0004F172 18744 0001:0004F194 18746 0001:0004F196
 18754 0001:0004F1CB 18757 0001:0004F284 18758 0001:0004F28E 18762 0001:0004F290
 18763 0001:0004F29B 18764 0001:0004F2A0 18772 0001:0004F2A8 18775 0001:0004F2B0
 18776 0001:0004F2B3 18780 0001:0004F2B5 18788 0001:0004F2BE 18791 0001:0004F2C4
 18792 0001:0004F2C7 18796 0001:0004F2C9 18797 0001:0004F2D0 18805 0001:0004F2D9
 18808 0001:0004F2E0 18809 0001:0004F2EA 18813 0001:0004F2EC 18814 0001:0004F2F7
 18815 0001:0004F2FC 18823 0001:0004F302 18826 0001:0004F308 18827 0001:0004F311
 18828 0001:0004F317 18830 0001:0004F320 18831 0001:0004F327 18832 0001:0004F329
 18835 0001:0004F330 18836 0001:0004F33C 18838 0001:0004F33E 18840 0001:0004F34C
 18841 0001:0004F358 18844 0001:0004F367 18845 0001:0004F369 18846 0001:0004F36E
 18847 0001:0004F374 18848 0001:0004F380 18852 0001:0004F384 18857 0001:0004F38B
 18860 0001:0004F394 18861 0001:0004F39C 18863 0001:0004F39E 18864 0001:0004F3B2
 18867 0001:0004F3CB 18868 0001:0004F3D1 18869 0001:0004F3D7 18875 0001:0004F3DE
 18878 0001:0004F3E4 18879 0001:0004F3EC 18881 0001:0004F3EE 18882 0001:0004F3FC
 18884 0001:0004F41E 18889 0001:0004F425 18894 0001:0004F42C 18895 0001:0004F434
 18897 0001:0004F436 18899 0001:0004F444 18905 0001:0004F478 18906 0001:0004F47E
 18907 0001:0004F482 18908 0001:0004F487 18909 0001:0004F48E 18911 0001:0004F496
 18919 0001:0004F4A0 18922 0001:0004F4AA 18926 0001:0004F4B4 18931 0001:0004F4BB
 18936 0001:0004F4C4 18937 0001:0004F4D0 18940 0001:0004F4D2 18943 0001:0004F4EF
 18944 0001:0004F4F9 18945 0001:0004F4FD 18946 0001:0004F502 18947 0001:0004F509
 18949 0001:0004F50E 18952 0001:0004F515 18957 0001:0004F51C 18960 0001:0004F524
 18961 0001:0004F530 18963 0001:0004F532 18965 0001:0004F540 18966 0001:0004F548
 18970 0001:0004F558 18971 0001:0004F560 18972 0001:0004F565 18978 0001:0004F56C
 18981 0001:0004F574 18982 0001:0004F57E 18986 0001:0004F580 18987 0001:0004F58B
 18988 0001:0004F590 18996 0001:0004F596 18999 0001:0004F59C 19000 0001:0004F5A6
 19004 0001:0004F5A8 19005 0001:0004F5B3 19006 0001:0004F5B8 19014 0001:0004F5C1
 19017 0001:0004F5C8 19018 0001:0004F5E3 19020 0001:0004F5E7 19021 0001:0004F5EC
 19023 0001:0004F5EE 19024 0001:0004F60A 19025 0001:0004F612 19026 0001:0004F633
 19029 0001:0004F63C 19030 0001:0004F653 19031 0001:0004F66C 19032 0001:0004F68D
 19035 0001:0004F694 19036 0001:0004F69E 19040 0001:0004F6A0 19041 0001:0004F6AB
 19042 0001:0004F6B0 19050 0001:0004F6B6 19053 0001:0004F6BC 19054 0001:0004F6BF
 19072 0001:0004F6C4 19075 0001:0004F6C8 19076 0001:0004F6D2 19080 0001:0004F6D4
 19081 0001:0004F6DF 19082 0001:0004F6E4 19090 0001:0004F6EB 19093 0001:0004F6F0
 19094 0001:0004F700 19096 0001:0004F705 19097 0001:0004F709 19098 0001:0004F729
 19101 0001:0004F737 19102 0001:0004F73B 19104 0001:0004F740 19110 0001:0004F749
 19113 0001:0004F754 19114 0001:0004F764 19116 0001:0004F769 19117 0001:0004F76D
 19118 0001:0004F78E 19121 0001:0004F79D 19122 0001:0004F7A1 19124 0001:0004F7A8
 19130 0001:0004F7B1 19133 0001:0004F7BC 19134 0001:0004F7C6 19138 0001:0004F7C8
 19139 0001:0004F7D3 19140 0001:0004F7D8 19148 0001:0004F7E7 19151 0001:0004F7EC
 19152 0001:0004F7F6 19156 0001:0004F7F8 19157 0001:0004F803 19158 0001:0004F808
 19166 0001:0004F80E 19169 0001:0004F814 19170 0001:0004F81E 19174 0001:0004F820
 19175 0001:0004F82B 19176 0001:0004F830 19184 0001:0004F840 19187 0001:0004F848
 19188 0001:0004F84B 19190 0001:0004F84D 19195 0001:0004F854 19198 0001:0004F858
 19199 0001:0004F85B 19201 0001:0004F85D 19206 0001:0004F864 19209 0001:0004F868
 19210 0001:0004F86B 19212 0001:0004F86D 19217 0001:0004F874 19220 0001:0004F878
 19221 0001:0004F87B 19223 0001:0004F87D 19228 0001:0004F886 19242 0001:0004F88C
 19243 0001:0004F88F 19245 0001:0004F891 19250 0001:0004F898 19253 0001:0004F89C
 19254 0001:0004F8A2 19256 0001:0004F8A4 19257 0001:0004F8AD 19259 0001:0004F8B2
 19264 0001:0004F8B9 19267 0001:0004F8C0 19271 0001:0004F8C6 19272 0001:0004F8D4
 19278 0001:0004F905 19279 0001:0004F913 19287 0001:0004F91F 19292 0001:0004F96C
 19293 0001:0004F98E 19298 0001:0004F9A2 19299 0001:0004F9AD 19301 0001:0004F9CE
 19305 0001:0004F9F2 19306 0001:0004F9FE 19307 0001:0004FA07 19308 0001:0004FA15
 19310 0001:0004FA3E 19314 0001:0004FA77 19319 0001:0004FABC 19321 0001:0004FACE
 19322 0001:0004FAD7 19327 0001:0004FAF4 19330 0001:0004FAF8 19332 0001:0004FB03
 19334 0001:0004FB0F 19335 0001:0004FB17 19337 0001:0004FB1C 19338 0001:0004FB24
 19343 0001:0004FB3B 19348 0001:0004FB40 19350 0001:0004FB52 19351 0001:0004FB5B
 19356 0001:0004FB78 19359 0001:0004FB7C 19361 0001:0004FB87 19362 0001:0004FB8F
 19367 0001:0004FBA6 19384 0001:0004FBAC 19388 0001:0004FBE6 19390 0001:0004FBEB
 19392 0001:0004FBEF 19393 0001:0004FBF4 19395 0001:0004FC05 19397 0001:0004FC07
 19398 0001:0004FC17 19400 0001:0004FC24 19401 0001:0004FC28 19409 0001:0004FC2C
 19410 0001:0004FC3B 19412 0001:0004FC41 19415 0001:0004FC60 19417 0001:0004FC64
 19418 0001:0004FC73 19422 0001:0004FC77 19424 0001:0004FC7D 19425 0001:0004FC81
 19429 0001:0004FC85 19430 0001:0004FC8F 19432 0001:0004FC9B 19434 0001:0004FCA5
 19435 0001:0004FCB1 19437 0001:0004FCBE 19439 0001:0004FCC8 19440 0001:0004FCCE
 19442 0001:0004FCDB 19445 0001:0004FCE5 19447 0001:0004FD09 19448 0001:0004FD15
 19450 0001:0004FD24 19452 0001:0004FD2C 19453 0001:0004FD32 19462 0001:0004FD48
 19463 0001:0004FD53 19464 0001:0004FD5E 19465 0001:0004FD69 19466 0001:0004FD74
 19472 0001:0004FDBA 19487 0001:0004FDC4 19491 0001:0004FDFF 19492 0001:0004FE04
 19494 0001:0004FE08 19495 0001:0004FE0E 19497 0001:0004FE1F 19499 0001:0004FE21
 19500 0001:0004FE31 19502 0001:0004FE3E 19503 0001:0004FE42 19511 0001:0004FE46
 19512 0001:0004FE55 19514 0001:0004FE5B 19517 0001:0004FE8B 19519 0001:0004FE8F
 19520 0001:0004FE9E 19524 0001:0004FEA2 19526 0001:0004FEA8 19527 0001:0004FEAC
 19531 0001:0004FEB0 19532 0001:0004FEBA 19534 0001:0004FED1 19536 0001:0004FEDB
 19537 0001:0004FEE7 19539 0001:0004FEFF 19541 0001:0004FF09 19542 0001:0004FF0F
 19544 0001:0004FF27 19547 0001:0004FF31 19549 0001:0004FF55 19550 0001:0004FF61
 19553 0001:0004FF7B 19556 0001:0004FF83 19557 0001:0004FF89 19566 0001:0004FF94
 19567 0001:0004FF9F 19568 0001:0004FFAA 19569 0001:0004FFB5 19570 0001:0004FFC0
 19576 0001:00050023 19579 0001:0005002C 19581 0001:00050037 19582 0001:0005003F
 19587 0001:00050056 19592 0001:0005005C 19596 0001:00050071 19598 0001:00050079
 19599 0001:00050085 19600 0001:00050092 19601 0001:0005009F 19603 0001:000500AC
 19604 0001:000500B7 19605 0001:000500C2 19606 0001:000500CD 19611 0001:000500EF
 19614 0001:000500F8 19618 0001:0005010D 19620 0001:00050115 19621 0001:00050121
 19622 0001:0005012E 19623 0001:0005013B 19625 0001:00050148 19626 0001:00050153
 19627 0001:0005015E 19628 0001:00050169 19633 0001:0005018B 19636 0001:00050194
 19638 0001:0005019F 19643 0001:000501B6 19649 0001:000501BC 19653 0001:000501D1
 19655 0001:000501D4 19656 0001:000501E1 19657 0001:000501EE 19658 0001:000501FB
 19659 0001:00050208 19661 0001:00050215 19662 0001:00050222 19663 0001:0005022F
 19664 0001:0005023C 19665 0001:00050249 19671 0001:0005026D 19675 0001:00050274
 19679 0001:00050289 19681 0001:0005028C 19682 0001:00050299 19683 0001:000502A6
 19684 0001:000502B3 19685 0001:000502C0 19687 0001:000502CD 19688 0001:000502DA
 19689 0001:000502E7 19690 0001:000502F4 19691 0001:00050301 19697 0001:00050325
 19700 0001:0005032C 19702 0001:00050337 19707 0001:0005034E 19712 0001:00050354
 19716 0001:00050369 19717 0001:00050375 19718 0001:00050382 19720 0001:0005038F
 19722 0001:00050395 19723 0001:000503A2 19724 0001:000503AF 19729 0001:000503D3
 19732 0001:000503DC 19736 0001:000503F1 19737 0001:000503FD 19738 0001:0005040A
 19740 0001:00050417 19742 0001:0005041D 19743 0001:0005042A 19744 0001:00050437
 19749 0001:0005045B 19752 0001:00050464 19754 0001:0005046F 19759 0001:00050486
 19764 0001:0005048C 19766 0001:0005049E 19767 0001:000504A3 19768 0001:000504AF
 19773 0001:000504D3 19776 0001:000504D8 19778 0001:000504EA 19779 0001:000504EF
 19780 0001:000504FB 19785 0001:0005051F 19788 0001:00050524 19790 0001:0005052F
 19795 0001:00050546 19831 0001:0005054C 19833 0001:00050564 19835 0001:00050574
 19837 0001:00050577 19838 0001:0005057D 19840 0001:00050583 19844 0001:00050587
 19845 0001:0005058E 19846 0001:00050595 19847 0001:000505AF 19848 0001:000505C9
 19850 0001:000505E3 19851 0001:000505F0 19852 0001:000505F8 19854 0001:00050601
 19855 0001:00050611 19856 0001:00050618 19858 0001:00050622 19859 0001:00050632
 19860 0001:00050639 19862 0001:00050643 19863 0001:00050653 19864 0001:0005065A
 19866 0001:00050664 19867 0001:00050674 19868 0001:0005067D 19870 0001:00050687
 19871 0001:00050697 19872 0001:0005069E 19876 0001:000506A8 19882 0001:000506C3
 19885 0001:00050740 19887 0001:0005074B 19888 0001:00050752 19893 0001:00050769
 19898 0001:0005076C 19900 0001:00050770 19902 0001:00050777 19904 0001:00050780
 19905 0001:0005078F 19906 0001:0005079B 19902 0001:0005079C 19907 0001:000507A1
 19913 0001:000507A9 19979 0001:000507AC 19980 0001:000507AF 19982 0001:000507BA
 19983 0001:000507C7 19986 0001:000507D8 19987 0001:000507DA 19994 0001:000507DC
 19998 0001:000507E3 20000 0001:000507F1 20002 0001:000507F9 20003 0001:00050802
 20005 0001:0005080C 19998 0001:0005080D 20007 0001:00050812 20014 0001:00050818
 20018 0001:0005081F 20020 0001:0005082D 20022 0001:00050835 20024 0001:0005084B
 20018 0001:0005084C 20026 0001:00050851 20035 0001:00050858 20036 0001:000508A3
 20037 0001:000508A7 20038 0001:000508B5 20039 0001:000508CC 20040 0001:000508D8
 20041 0001:000508E5 20042 0001:000508F8 20043 0001:00050905 20044 0001:00050911
 20045 0001:0005091E 20046 0001:0005092D 20049 0001:00050945 20050 0001:0005098B
 20052 0001:0005099B 20054 0001:000509C3 20055 0001:000509DB 20056 0001:000509E5
 20058 0001:000509F3 20063 0001:00050A0C 20064 0001:00050A44 20065 0001:00050A55
 20070 0001:00050A87 20071 0001:00050AC0 20072 0001:00050AD2 20074 0001:00050AE8
 20076 0001:00050AF3 20077 0001:00050B0B 20078 0001:00050B0F 20080 0001:00050B25
 20084 0001:00050B45 20085 0001:00050B9B 20089 0001:00050BB8 20090 0001:00050BD8
 20091 0001:00050BDF 20092 0001:00050BE4 20093 0001:00050BF0 20094 0001:00050BF5
 20095 0001:00050C01 20096 0001:00050C06 20098 0001:00050C12 20099 0001:00050C17
 20101 0001:00050C23 20102 0001:00050C28 20103 0001:00050C34 20104 0001:00050C39
 20105 0001:00050C45 20106 0001:00050C4A 20108 0001:00050C56 20109 0001:00050C61
 20110 0001:00050C76 20111 0001:00050C7A 20112 0001:00050CAF 20114 0001:00050D54
 20120 0001:00050D85 20121 0001:00050D95 20126 0001:00050E33 20129 0001:00050E61
 20131 0001:00050E66 20132 0001:00050E74 20133 0001:00050E79 20134 0001:00050E82
 20138 0001:00050E84 20139 0001:00050E8C 20140 0001:00050E91 20141 0001:00050E96
 20142 0001:00050E9B 20143 0001:00050EA0 20144 0001:00050EA5 20145 0001:00050EAD
 20147 0001:00050EB2 20148 0001:00050EBB 20150 0001:00050EC9 20152 0001:00050EF6
 20153 0001:00050EFB 20154 0001:00050F00 20156 0001:00050F0D 20157 0001:00050F15
 20158 0001:00050F21 20161 0001:00050F26 20163 0001:00050F3C 20165 0001:00050F44
 20166 0001:00050F4A 20168 0001:00050F51 20170 0001:00050F6E 20172 0001:00050F7D
 20173 0001:00050F89 20176 0001:00050F91 20177 0001:00050F97 20179 0001:00050FA4
 20181 0001:00050FA9 20182 0001:00050FB6 20184 0001:00050FBB 20186 0001:00050FC0
 20213 0001:00050FC6 20216 0001:00050FD2 20218 0001:00050FD8 20220 0001:00050FDC
 20221 0001:00050FF8 20224 0001:00051005 20227 0001:0005100B 20229 0001:00051015
 20231 0001:00051019 20232 0001:00051035 20235 0001:00051042 20239 0001:0005104A
 20241 0001:00051059 20243 0001:0005106E 20244 0001:00051072 20247 0001:00051088
 20248 0001:0005109C 20253 0001:000510A7 20255 0001:000510AB 20257 0001:000510B1
 20258 0001:000510BB 20259 0001:000510C5 20263 0001:000510D2 20264 0001:000510DC
 20265 0001:000510E6 20267 0001:000510F1 20268 0001:000510FD 20270 0001:000510FF
 20271 0001:0005110A 20273 0001:00051134 20274 0001:00051141 20275 0001:0005114B
 20276 0001:00051153 20279 0001:0005115B 20281 0001:0005115F 20283 0001:00051165
 20285 0001:0005116D 20287 0001:00051171 20288 0001:0005117E 20292 0001:0005118B
 20296 0001:00051190 20298 0001:00051195 20299 0001:00051199 20302 0001:0005119E
 20303 0001:000511B9 20307 0001:000511C4 20309 0001:000511CC 20315 0001:000511F4
 20318 0001:000511FF 20324 0001:0005122E 20326 0001:00051234 20327 0001:0005123F
 20329 0001:0005124A 20335 0001:00051273 20338 0001:0005127A 20343 0001:000512A7
 20344 0001:000512AC 20345 0001:000512B1 20346 0001:000512B6 20347 0001:000512BB
 20349 0001:000512C0 20351 0001:000512CB 20353 0001:000512D3 20354 0001:000512E2
 20355 0001:000512F7 20356 0001:0005130C 20357 0001:00051321 20358 0001:00051336
 20362 0001:0005134D 20363 0001:0005135C 20364 0001:00051371 20365 0001:00051386
 20366 0001:0005139B 20367 0001:000513B0 20371 0001:000513C5 20374 0001:000513D7
 20375 0001:000513DE 20377 0001:000513EE 20378 0001:000513F9 20381 0001:0005140A
 20385 0001:0005141B 20387 0001:0005142D 20389 0001:0005143F 20393 0001:0005144F
 20395 0001:00051458 20398 0001:0005147C 20401 0001:00051485 20402 0001:0005148C
 20405 0001:0005149D 20407 0001:000514A8 20409 0001:000514B3 20410 0001:000514BA
 20412 0001:000514CB 20413 0001:000514EB 20414 0001:000514F5 20415 0001:00051515
 20416 0001:0005151F 20420 0001:0005155F 20423 0001:00051564 20425 0001:00051574
 20427 0001:0005157E 20429 0001:00051582 20430 0001:00051592 20434 0001:0005159D
 20435 0001:000515AD 20440 0001:000515BA 20441 0001:000515DA 20443 0001:000515E1
 20444 0001:00051601 20446 0001:00051608 20447 0001:00051628 20448 0001:0005162F
 20449 0001:0005164F 20452 0001:00051656 20454 0001:0005165B 20455 0001:0005165F
 20457 0001:00051687 20459 0001:000516AD 20460 0001:000516BC 20462 0001:000516CC
 20464 0001:000516D4 20407 0001:000516E5 20470 0001:000516F0 20471 0001:000516F7
 20472 0001:000516FE 20473 0001:00051705 20474 0001:0005170C 20476 0001:00051710
 20478 0001:00051725 20479 0001:00051735 20480 0001:00051743 20481 0001:00051751
 20482 0001:0005175F 20483 0001:0005176D 20476 0001:0005176E 20487 0001:00051773
 20489 0001:00051784 20490 0001:00051794 20491 0001:000517A2 20492 0001:000517B0
 20493 0001:000517BE 20494 0001:000517CC 20487 0001:000517CD 20499 0001:000517D0
 20501 0001:000517DB 20502 0001:000517E0 20503 0001:000517E3 20504 0001:000517EE
 20505 0001:000517F1 20506 0001:000517FC 20507 0001:000517FF 20508 0001:0005180A
 20510 0001:0005180D 20511 0001:00051819 20512 0001:00051825 20513 0001:00051831
 20516 0001:0005184A 20517 0001:00051852 20518 0001:0005185A 20519 0001:00051862
 20520 0001:0005186A 20522 0001:00051872 20525 0001:0005187B 20526 0001:0005188F
 20529 0001:000518A2 20536 0001:0005193C 20539 0001:00051A70 20541 0001:00051A88
 20542 0001:00051A96 20544 0001:00051AA5 20545 0001:00051AA7 20548 0001:00051AB9
 20549 0001:00051AC4 20553 0001:00051ACD 20554 0001:00051ADB 20558 0001:00051AE4
 20559 0001:00051AEB 20566 0001:00051B1D 20568 0001:00051B3D 20570 0001:00051B3F
 20571 0001:00051B46 20572 0001:00051B54 20580 0001:00051B82 20585 0001:00051BCC
 20586 0001:00051BEF 20587 0001:00051BF9 20589 0001:00051C04 20591 0001:00051C20
 20592 0001:00051C26 20594 0001:00051C33 20596 0001:00051C3D 20597 0001:00051C43
 20599 0001:00051C50 20602 0001:00051C5A 20604 0001:00051C66 20605 0001:00051C69
 20608 0001:00051C85 20611 0001:00051C95 20614 0001:00051CA0 20615 0001:00051CD1
 20620 0001:00051CD8 20621 0001:00051CF9 20622 0001:00051D03 20624 0001:00051D0E
 20626 0001:00051D2E 20627 0001:00051D34 20629 0001:00051D41 20631 0001:00051D4B
 20632 0001:00051D51 20634 0001:00051D5E 20637 0001:00051D68 20639 0001:00051D74
 20640 0001:00051D77 20643 0001:00051D9E 20646 0001:00051DAE 20649 0001:00051DB9
 20650 0001:00051DF2 20656 0001:00051DFC 20657 0001:00051E08 20659 0001:00051E16
 20661 0001:00051E39 20665 0001:00051E48 20669 0001:00051E50 20674 0001:00051E64
 20675 0001:00051E66 20676 0001:00051E6B 20677 0001:00051E71 20678 0001:00051E7D
 20686 0001:00051E81 20689 0001:00051E88 20691 0001:00051E90 20693 0001:00051E93
 20696 0001:00051EA2 20700 0001:00051EA9 20701 0001:00051EB7 20707 0001:00051EB9
 20803 0001:00051EC0 20805 0001:00051ED7 20807 0001:00051EE4 20808 0001:00051EEA
 20810 0001:00051EF0 20814 0001:00051EF4 20815 0001:00051EFB 20816 0001:00051F02
 20817 0001:00051F1C 20818 0001:00051F36 20820 0001:00051F50 20821 0001:00051F5D
 20822 0001:00051F65 20824 0001:00051F6E 20825 0001:00051F7E 20826 0001:00051F85
 20828 0001:00051F8F 20829 0001:00051F9F 20830 0001:00051FA6 20832 0001:00051FB0
 20833 0001:00051FC0 20834 0001:00051FC7 20836 0001:00051FD1 20837 0001:00051FE1
 20838 0001:00051FE8 20840 0001:00051FF2 20841 0001:00052002 20842 0001:0005200B
 20844 0001:00052015 20845 0001:00052025 20846 0001:0005202E 20848 0001:00052038
 20849 0001:00052048 20850 0001:00052051 20852 0001:0005205B 20853 0001:0005206B
 20854 0001:00052072 20856 0001:0005207C 20857 0001:0005208C 20858 0001:00052095
 20860 0001:0005209F 20861 0001:000520AF 20862 0001:000520B8 20864 0001:000520C2
 20865 0001:000520D2 20866 0001:000520DB 20868 0001:000520E5 20869 0001:000520F5
 20870 0001:000520FE 20872 0001:00052108 20873 0001:00052118 20874 0001:00052121
 20876 0001:0005212B 20877 0001:0005213B 20878 0001:00052142 20880 0001:0005214C
 20881 0001:0005215C 20882 0001:00052163 20890 0001:00052186 20893 0001:000522F0
 20895 0001:000522FB 20896 0001:00052302 20901 0001:00052319 20906 0001:0005231C
 20908 0001:00052320 20910 0001:00052327 20912 0001:00052330 20913 0001:0005233F
 20914 0001:0005234B 20910 0001:0005234C 20915 0001:00052351 20917 0001:00052359
 20919 0001:00052360 20921 0001:00052369 20922 0001:00052378 20923 0001:00052384
 20919 0001:00052385 20924 0001:0005238A 20930 0001:00052392 20982 0001:00052398
 20986 0001:000523E8 20987 0001:000523F0 20988 0001:000523F5 20989 0001:000523FA
 20990 0001:000523FF 20991 0001:00052404 20992 0001:00052409 20993 0001:0005240E
 20994 0001:00052413 20995 0001:0005241B 20998 0001:00052420 20999 0001:00052430
 21005 0001:000524DF 21006 0001:000524EE 21010 0001:000524FC 21011 0001:00052501
 21012 0001:00052506 21014 0001:00052513 21015 0001:0005251B 21016 0001:00052527
 21019 0001:0005252C 21021 0001:00052542 21022 0001:00052551 21024 0001:00052553
 21026 0001:00052560 21027 0001:00052566 21028 0001:0005256E 21030 0001:00052573
 21036 0001:000525B5 21037 0001:000525BA 21039 0001:000525C9 21040 0001:000525D8
 21041 0001:000525ED 21042 0001:000525FA 21043 0001:0005260F 21044 0001:00052624
 21045 0001:00052639 21046 0001:0005264E 21047 0001:00052663 21048 0001:00052678
 21049 0001:0005268D 21050 0001:000526A2 21051 0001:000526B7 21053 0001:000526CC
 21055 0001:000526DB 21056 0001:000526E0 21057 0001:000526E7 21064 0001:000526F3
 21065 0001:00052701 21066 0001:00052716 21067 0001:0005272B 21069 0001:0005274F
 21071 0001:0005275F 21072 0001:00052764 21073 0001:0005276B 21077 0001:00052777
 21078 0001:00052789 21080 0001:0005279B 21082 0001:000527AC 21084 0001:000527B6
 21085 0001:000527BB 21096 0001:000527CA 21097 0001:000527D0 21099 0001:000527DC
 21100 0001:000527DE 21103 0001:000527FF 21104 0001:00052810 21108 0001:00052815
 21109 0001:00052819 21110 0001:0005281B 21112 0001:00052832 21113 0001:00052841
 21117 0001:0005286E 21118 0001:00052872 21120 0001:00052874 21110 0001:00052875
 21121 0001:0005287D 21123 0001:00052883 21124 0001:000528A7 21127 0001:000528B4
 21128 0001:000528D6 21129 0001:000528E3 21130 0001:000528E6 21131 0001:000528EC
 21133 0001:000528F5 21135 0001:000528FB 21136 0001:00052901 21138 0001:00052909
 21139 0001:00052911 21140 0001:00052917 21143 0001:00052920 21146 0001:0005292D
 21148 0001:00052941 21151 0001:00052947 21153 0001:00052953 21155 0001:0005295B
 21157 0001:00052963 21160 0001:00052969 21162 0001:0005298A 21164 0001:00052991
 21177 0001:000529A0 21185 0001:000529FA 21187 0001:00052A03 21190 0001:00052A0A
 21191 0001:00052A13 21207 0001:00052A1A 21208 0001:00052A20 21209 0001:00052A25
 21082 0001:00052A36 21212 0001:00052A40 21213 0001:00052A51 21214 0001:00052A56
 21215 0001:00052A65 21216 0001:00052A7A 21217 0001:00052A7F 21302 0001:00052A8E
 21303 0001:00052A95 21304 0001:00052A9F 21305 0001:00052AA9 21306 0001:00052AB3
 21307 0001:00052ABD 21308 0001:00052AC7 21309 0001:00052AD1 21311 0001:00052AE8
 21312 0001:00052AF7 21313 0001:00052B02 21314 0001:00052B10 21315 0001:00052B1E
 21309 0001:00052B1F 21316 0001:00052B27 21318 0001:00052B3E 21319 0001:00052B4D
 21320 0001:00052B5B 21321 0001:00052B69 21322 0001:00052B77 21323 0001:00052B85
 21316 0001:00052B86 21327 0001:00052B8E 21329 0001:00052B99 21330 0001:00052B9E
 21331 0001:00052BA1 21332 0001:00052BAF 21333 0001:00052BB5 21334 0001:00052BC3
 21335 0001:00052BC9 21336 0001:00052BD7 21337 0001:00052BDD 21338 0001:00052BEB
 21339 0001:00052BF1 21340 0001:00052BFF 21342 0001:00052C05 21343 0001:00052C11
 21344 0001:00052C20 21345 0001:00052C2F 21346 0001:00052C3E 21347 0001:00052C4D
 21350 0001:00052C69 21351 0001:00052C71 21352 0001:00052C79 21353 0001:00052C81
 21354 0001:00052C89 21355 0001:00052C91 21356 0001:00052C99 21358 0001:00052CA1
 21361 0001:00052CAA 21362 0001:00052CBE 21365 0001:00052CD1 21373 0001:00052D06
 21376 0001:00052DE0 21377 0001:00052DE6 21379 0001:00052DE8 21380 0001:00052DF6
 21382 0001:00052E09 21384 0001:00052E13 21387 0001:00052E34 21388 0001:00052E3B
 21392 0001:00052E4B 21393 0001:00052E52 21397 0001:00052E66 21399 0001:00052E76
 21400 0001:00052E7F 21404 0001:00052E88 21405 0001:00052E8F 21410 0001:00052E96
 21412 0001:00052EA6 21413 0001:00052EAF 21417 0001:00052EB8 21418 0001:00052EBF
 21423 0001:00052EC6 21424 0001:00052ED1 21433 0001:00052EDC 21437 0001:00052EE7
 21439 0001:00052F07 21441 0001:00052F09 21442 0001:00052F10 21443 0001:00052F16
 21444 0001:00052F1D 21445 0001:00052F26 21446 0001:00052F34 21454 0001:00052F40
 21457 0001:00052F48 21458 0001:00052F4E 21460 0001:00052F50 21461 0001:00052F5E
 21463 0001:00052F71 21465 0001:00052F7B 21468 0001:00052FB6 21469 0001:00052FBD
 21473 0001:00052FD2 21474 0001:00052FD9 21478 0001:00052FEE 21479 0001:00052FF5
 21483 0001:00053007 21485 0001:00053017 21486 0001:00053020 21490 0001:0005302A
 21491 0001:00053031 21496 0001:00053039 21497 0001:00053040 21501 0001:00053052
 21502 0001:0005305A 21511 0001:00053065 21515 0001:00053070 21517 0001:00053090
 21519 0001:00053092 21520 0001:00053099 21521 0001:0005309F 21522 0001:000530A7
 21523 0001:000530B0 21524 0001:000530BE 21532 0001:000530CA 21537 0001:000530D4
 21538 0001:000530F7 21539 0001:00053101 21541 0001:00053116 21543 0001:00053169
 21545 0001:00053176 21547 0001:00053183 21549 0001:00053190 21551 0001:000531A0
 21553 0001:000531B0 21555 0001:000531C0 21558 0001:000531CE 21559 0001:000531FF
 21564 0001:00053208 21565 0001:0005322B 21566 0001:00053235 21568 0001:0005324A
 21570 0001:0005329D 21572 0001:000532AA 21574 0001:000532B7 21576 0001:000532C4
 21578 0001:000532D4 21580 0001:000532E4 21582 0001:000532F4 21585 0001:00053302
 21586 0001:00053333 21589 0001:0005333C 21591 0001:00053345 21592 0001:00053348
 21594 0001:00053357 21598 0001:0005335E 21599 0001:0005336E 21600 0001:00053374
 21606 0001:00053376 21727 0001:00053380 21729 0001:00053398 21731 0001:000533A5
 21732 0001:000533AB 21734 0001:000533B1 21738 0001:000533B5 21739 0001:000533BD
 21740 0001:000533D4 21741 0001:000533EE 21743 0001:00053408 21744 0001:00053415
 21745 0001:0005341D 21747 0001:00053426 21748 0001:00053436 21749 0001:0005343D
 21751 0001:00053447 21752 0001:00053457 21753 0001:0005345E 21755 0001:00053468
 21756 0001:00053478 21757 0001:0005347F 21759 0001:00053489 21760 0001:00053499
 21761 0001:000534A0 21763 0001:000534AA 21764 0001:000534BA 21765 0001:000534C1
 21767 0001:000534CB 21768 0001:000534DB 21769 0001:000534E2 21771 0001:000534EC
 21772 0001:000534FC 21773 0001:00053505 21775 0001:0005350F 21776 0001:0005351F
 21777 0001:00053528 21779 0001:00053532 21780 0001:00053542 21781 0001:00053549
 21783 0001:00053553 21784 0001:00053563 21785 0001:0005356A 21789 0001:00053574
 21790 0001:00053583 21796 0001:000535AB 21799 0001:00053690 21801 0001:0005369B
 21802 0001:000536A2 21807 0001:000536B9 21812 0001:000536BC 21814 0001:000536C0
 21816 0001:000536C7 21818 0001:000536D0 21819 0001:000536DF 21820 0001:000536EB
 21816 0001:000536EC 21821 0001:000536F1 21823 0001:000536F9 21825 0001:00053700
 21827 0001:00053709 21828 0001:00053718 21829 0001:00053724 21825 0001:00053725
 21830 0001:0005372A 21836 0001:00053732 21921 0001:00053738 21922 0001:0005374C
 21924 0001:0005376E 21925 0001:000537A2 21926 0001:000537A6 21928 0001:000537B7
 21929 0001:000537D8 21933 0001:000537E8 21934 0001:000537EE 21936 0001:00053813
 21940 0001:00053818 21941 0001:0005383C 21942 0001:000538BA 21947 0001:000538D0
 21948 0001:000538EC 21950 0001:000538F5 21951 0001:00053908 21952 0001:0005391A
 21955 0001:00053930 21956 0001:00053932 21959 0001:00053934 21960 0001:00053955
 21969 0001:00053960 21970 0001:00053963 21973 0001:0005396C 21974 0001:00053971
 21976 0001:00053974 21985 0001:000539A7 21987 0001:000539AF 21988 0001:000539B4
 21989 0001:000539B9 21990 0001:000539BE 21991 0001:000539C3 21993 0001:000539C8
 21994 0001:000539CD 21995 0001:000539D2 21996 0001:000539D7 21997 0001:000539DC
 21998 0001:000539E1 22000 0001:000539E6 22002 0001:000539EE 22003 0001:000539F8
 22004 0001:00053A02 22005 0001:00053A0C 22006 0001:00053A16 22007 0001:00053A20
 22010 0001:00053A2A 22011 0001:00053A34 22012 0001:00053A3E 22013 0001:00053A43
 22016 0001:00053A48 22018 0001:00053A58 22020 0001:00053A6B 22022 0001:00053A7A
 22024 0001:00053A89 22026 0001:00053A98 22028 0001:00053AA5 22034 0001:00053B55
 22035 0001:00053B64 22039 0001:00053B72 22041 0001:00053B78 22042 0001:00053B87
 22043 0001:00053B8B 22046 0001:00053B95 22047 0001:00053BA1 22049 0001:00053BA6
 22053 0001:00053BB5 22054 0001:00053BBD 22055 0001:00053BC5 22057 0001:00053BD2
 22058 0001:00053BDD 22059 0001:00053BE9 22062 0001:00053BF1 22064 0001:00053C0A
 22065 0001:00053C19 22067 0001:00053C1B 22069 0001:00053C29 22070 0001:00053C3C
 22072 0001:00053C46 22075 0001:00053C55 22077 0001:00053C60 22122 0001:00053C69
 22125 0001:00053CA5 22127 0001:00053CB2 22129 0001:00053CD5 22131 0001:00053CE8
 22137 0001:00053D24 22138 0001:00053D2C 22142 0001:00053D34 22144 0001:00053D47
 22151 0001:00053D7C 22153 0001:00053D85 22154 0001:00053D94 22155 0001:00053DA9
 22156 0001:00053DBE 22157 0001:00053DD3 22158 0001:00053DE8 22159 0001:00053DFD
 22162 0001:00053E0C 22163 0001:00053E19 22164 0001:00053E3F 22165 0001:00053E44
 22168 0001:00053E55 22170 0001:00053E6A 22176 0001:00053E7D 22178 0001:00053E87
 22180 0001:00053E8C 22181 0001:00053E91 22183 0001:00053EA0 22228 0001:00053ECC
 22230 0001:00053EDE 22231 0001:00053EED 22233 0001:00053F16 22234 0001:00053F18
 22239 0001:00053F45 22240 0001:00053F5D 22245 0001:00053F89 22247 0001:00053F93
 22248 0001:00053F99 22249 0001:00053FA8 22251 0001:00053FB6 22252 0001:00053FBC
 22253 0001:00053FC2 22255 0001:00053FCD 22257 0001:00053FD8 22258 0001:00053FE1
 22259 0001:00053FE8 22261 0001:00053FF5 22263 0001:00054027 22176 0001:0005403A
 22266 0001:00054044 22267 0001:00054057 22268 0001:0005405C 22269 0001:0005406B
 22270 0001:00054082 22271 0001:00054087 22278 0001:00054096 22285 0001:000540D5
 22286 0001:000540DA 22291 0001:00054105 22293 0001:0005410E 22294 0001:0005411D
 22295 0001:00054135 22296 0001:0005414D 22297 0001:00054165 22298 0001:0005417A
 22299 0001:0005418F 22302 0001:000541A7 22304 0001:000541BF 22305 0001:000541D4
 22307 0001:000541F7 22308 0001:000541FC 22309 0001:0005420B 22311 0001:00054220
 22312 0001:00054233 22314 0001:0005423D 22315 0001:00054242 22317 0001:00054251
 22319 0001:0005425F 22326 0001:000542A9 22328 0001:000542BB 22334 0001:0005439C
 22336 0001:000543B8 22338 0001:000543E4 22339 0001:000543EA 22340 0001:000543F9
 22341 0001:00054407 22343 0001:00054412 22345 0001:0005441D 22346 0001:00054426
 22348 0001:0005443E 22351 0001:00054464 22352 0001:00054470 22354 0001:00054489
 22355 0001:00054494 22358 0001:000544DD 22361 0001:000544E8 22364 0001:000544F1
 22365 0001:000544FC 22367 0001:00054505 22369 0001:0005450C 22370 0001:00054512
 22373 0001:00054523 22377 0001:00054536 22379 0001:00054547 22381 0001:00054557
 22383 0001:00054561 22385 0001:00054567 22389 0001:00054587 22395 0001:00054591
 22399 0001:000545D9 22400 0001:000545E7 22402 0001:000545F2 22404 0001:00054605
 22405 0001:00054610 22407 0001:00054619 22408 0001:0005461F 22410 0001:00054630
 22411 0001:00054635 22413 0001:00054645 22415 0001:00054671 22416 0001:00054681
 22417 0001:00054687 22420 0001:00054698 22381 0001:0005469D 22427 0001:000546A7
 22312 0001:000546BA 22430 0001:000546C4 22431 0001:000546D7 22432 0001:000546DC
 22433 0001:000546EB 22434 0001:00054702 22435 0001:00054707 22437 0001:00054716
 22127 0001:0005471C 22441 0001:00054728 22443 0001:00054747 22445 0001:0005475A
 22446 0001:0005476E 22447 0001:00054782 22448 0001:00054796 22441 0001:0005479C
 22449 0001:000547A4 22451 0001:000547C7 22453 0001:000547DB 22454 0001:000547F2
 22456 0001:0005480C 22457 0001:00054823 22459 0001:0005483D 22460 0001:00054854
 22462 0001:0005486E 22463 0001:00054885 22464 0001:0005489C 22465 0001:000548AD
 22449 0001:000548B3 22469 0001:000548BF 22471 0001:000548CE 22472 0001:000548D6
 22473 0001:000548DC 22474 0001:000548EA 22475 0001:000548F0 22476 0001:000548FE
 22477 0001:00054904 22478 0001:00054912 22479 0001:00054918 22480 0001:00054926
 22481 0001:0005492C 22482 0001:0005493A 22483 0001:00054940 22484 0001:0005494E
 22485 0001:0005495A 22486 0001:00054968 22488 0001:00054974 22489 0001:00054983
 22490 0001:00054992 22491 0001:000549A1 22492 0001:000549B0 22493 0001:000549BF
 22494 0001:000549CE 22497 0001:000549DD 22500 0001:000549F9 22501 0001:00054A01
 22507 0001:00054A09 22508 0001:00054A11 22509 0001:00054A19 22510 0001:00054A21
 22511 0001:00054A29 22512 0001:00054A31 22513 0001:00054A39 22514 0001:00054A41
 22515 0001:00054A49 22516 0001:00054A51 22517 0001:00054A59 22519 0001:00054A61
 22522 0001:00054A6A 22523 0001:00054A81 22526 0001:00054A94 22533 0001:00054AE2
 22539 0001:00054C6C 22540 0001:00054C8F 22541 0001:00054C99 22543 0001:00054CA4
 22546 0001:00054CE3 22549 0001:00054D16 22551 0001:00054D1E 22552 0001:00054D2D
 22554 0001:00054D40 22559 0001:00054D56 22562 0001:00054D7D 22564 0001:00054D85
 22565 0001:00054D94 22567 0001:00054DA7 22572 0001:00054DBD 22573 0001:00054DC9
 22575 0001:00054DD9 22578 0001:00054DEC 22581 0001:00054DF9 22586 0001:00054E1D
 22590 0001:00054E33 22592 0001:00054E40 22594 0001:00054E4D 22597 0001:00054E58
 22598 0001:00054E89 22604 0001:00054E90 22605 0001:00054EB3 22606 0001:00054EBD
 22608 0001:00054EC8 22611 0001:00054F07 22614 0001:00054F3A 22616 0001:00054F42
 22617 0001:00054F51 22619 0001:00054F64 22624 0001:00054F7A 22627 0001:00054FA1
 22629 0001:00054FA9 22630 0001:00054FB8 22632 0001:00054FCB 22637 0001:00054FE1
 22638 0001:00054FED 22640 0001:00054FFD 22643 0001:00055010 22646 0001:0005501D
 22651 0001:00055041 22655 0001:00055057 22657 0001:00055064 22659 0001:00055071
 22662 0001:0005507C 22663 0001:000550AD 22666 0001:000550B4 22668 0001:000550CF
 22670 0001:000550D5 22671 0001:000550DA 22673 0001:000550DF 22674 0001:000550ED
 22676 0001:00055103 22677 0001:00055105 22680 0001:00055110 22681 0001:0005511B
 22684 0001:00055124 22690 0001:00055154 22692 0001:00055174 22694 0001:00055176
 22695 0001:0005517D 22696 0001:00055184 22697 0001:0005518D 22698 0001:0005519B
 22706 0001:000551C9 22710 0001:00055214 22712 0001:0005522F 22714 0001:00055235
 22715 0001:0005523A 22717 0001:0005523F 22718 0001:0005524D 22720 0001:00055267
 22721 0001:00055269 22724 0001:00055279 22725 0001:00055289 22729 0001:00055292
 22730 0001:000552A2 22733 0001:000552AB 22739 0001:000552DB 22741 0001:000552FB
 22743 0001:000552FD 22744 0001:00055304 22745 0001:0005530D 22746 0001:00055315
 22747 0001:00055323 22755 0001:00055351 22758 0001:000553A0 22760 0001:000553A8
 22761 0001:000553AB 22763 0001:000553BA 22764 0001:000553C8 22767 0001:000553CC
 22772 0001:000553D1 22819 0001:000553D8 22821 0001:000553F0 22823 0001:000553FD
 22824 0001:00055403 22826 0001:00055409 22830 0001:0005540D 22831 0001:00055415
 22832 0001:0005542C 22833 0001:00055446 22835 0001:00055460 22836 0001:0005546D
 22837 0001:00055475 22839 0001:0005547E 22840 0001:0005548E 22841 0001:00055495
 22843 0001:0005549F 22844 0001:000554AF 22845 0001:000554B6 22847 0001:000554C0
 22848 0001:000554D0 22849 0001:000554D7 22851 0001:000554E1 22852 0001:000554F1
 22853 0001:000554FA 22855 0001:00055504 22856 0001:00055514 22857 0001:0005551D
 22859 0001:00055527 22860 0001:00055537 22861 0001:00055540 22869 0001:00055563
 22874 0001:000555F8 22876 0001:00055604 22878 0001:0005560B 22880 0001:00055614
 22881 0001:00055623 22882 0001:0005562F 22878 0001:00055630 22883 0001:00055635
 22885 0001:0005563D 22890 0001:00055654 22912 0001:00055658 22914 0001:00055684
 22915 0001:00055689 22916 0001:0005568E 22917 0001:00055693 22918 0001:00055698
 22919 0001:000556A0 22922 0001:000556A5 22923 0001:000556B1 22927 0001:000556E3
 22928 0001:000556EC 22932 0001:000556FA 22933 0001:000556FF 22934 0001:00055704
 22936 0001:00055711 22937 0001:00055719 22938 0001:00055725 22941 0001:0005572A
 22952 0001:00055740 22956 0001:0005575E 22957 0001:00055772 22960 0001:00055779
 22965 0001:00055796 22966 0001:0005579B 22968 0001:000557AA 22969 0001:000557AF
 22970 0001:000557BE 22971 0001:000557D3 22972 0001:000557E8 22973 0001:000557FD
 22975 0001:00055812 22976 0001:00055817 22977 0001:0005581C 22979 0001:00055821
 22980 0001:00055833 22982 0001:00055840 22983 0001:00055847 22984 0001:0005584E
 22986 0001:00055855 22989 0001:0005585F 22990 0001:00055864 22992 0001:00055873
 22993 0001:0005588F 22995 0001:0005589B 22996 0001:000558B1 22997 0001:000558C7
 22999 0001:000558DD 22986 0001:000558EA 23004 0001:000558F4 23006 0001:000558FF
 23007 0001:00055904 23008 0001:00055907 23009 0001:00055912 23010 0001:00055915
 23011 0001:00055920 23013 0001:00055923 23014 0001:0005592F 23015 0001:0005593B
 23017 0001:00055954 23018 0001:0005595C 23019 0001:00055964 23021 0001:0005596C
 23024 0001:00055975 23025 0001:00055989 23028 0001:0005599C 23036 0001:000559CE
 23039 0001:00055A2C 23040 0001:00055A32 23042 0001:00055A34 23043 0001:00055A42
 23045 0001:00055A51 23047 0001:00055A57 23050 0001:00055A69 23051 0001:00055A74
 23056 0001:00055A7D 23057 0001:00055A86 23061 0001:00055A8F 23062 0001:00055A98
 23070 0001:00055AA1 23073 0001:00055AAC 23075 0001:00055ACC 23077 0001:00055ACE
 23078 0001:00055AD5 23079 0001:00055ADC 23080 0001:00055AEA 23088 0001:00055AF6
 23091 0001:00055B00 23092 0001:00055B06 23094 0001:00055B08 23095 0001:00055B16
 23097 0001:00055B25 23099 0001:00055B2B 23102 0001:00055B3C 23103 0001:00055B44
 23107 0001:00055B4D 23108 0001:00055B55 23112 0001:00055B5E 23113 0001:00055B66
 23122 0001:00055B71 23126 0001:00055B7C 23128 0001:00055B9C 23130 0001:00055B9E
 23131 0001:00055BA5 23132 0001:00055BAC 23133 0001:00055BBA 23141 0001:00055BC6
 23146 0001:00055BD0 23147 0001:00055BF3 23148 0001:00055BFD 23150 0001:00055C04
 23152 0001:00055C17 23154 0001:00055C24 23156 0001:00055C31 23159 0001:00055C3C
 23160 0001:00055C6D 23165 0001:00055C74 23166 0001:00055C97 23167 0001:00055CA1
 23169 0001:00055CA8 23171 0001:00055CBB 23173 0001:00055CC8 23175 0001:00055CD5
 23178 0001:00055CE0 23179 0001:00055D11 23182 0001:00055D18 23184 0001:00055D20
 23185 0001:00055D23 23187 0001:00055D32 23188 0001:00055D40 23191 0001:00055D44
 23196 0001:00055D49 23350 0001:00055D50 23352 0001:00055D68 23354 0001:00055D75
 23355 0001:00055D7B 23357 0001:00055D81 23361 0001:00055D85 23362 0001:00055D8D
 23363 0001:00055DA4 23364 0001:00055DBE 23366 0001:00055DD8 23367 0001:00055DE5
 23368 0001:00055DED 23370 0001:00055DF6 23371 0001:00055E06 23372 0001:00055E0D
 23374 0001:00055E17 23375 0001:00055E27 23376 0001:00055E2E 23378 0001:00055E38
 23379 0001:00055E48 23380 0001:00055E4F 23382 0001:00055E59 23383 0001:00055E69
 23384 0001:00055E70 23386 0001:00055E7A 23387 0001:00055E8A 23388 0001:00055E93
 23390 0001:00055E9D 23391 0001:00055EAD 23392 0001:00055EB6 23394 0001:00055EC0
 23395 0001:00055ED0 23396 0001:00055ED9 23398 0001:00055EE3 23399 0001:00055EF3
 23400 0001:00055EFA 23402 0001:00055F04 23403 0001:00055F14 23404 0001:00055F1D
 23406 0001:00055F27 23407 0001:00055F37 23408 0001:00055F40 23410 0001:00055F4A
 23411 0001:00055F5A 23412 0001:00055F63 23414 0001:00055F6D 23415 0001:00055F7D
 23416 0001:00055F86 23418 0001:00055F90 23419 0001:00055FA0 23420 0001:00055FA9
 23428 0001:00055FCC 23433 0001:000560F0 23435 0001:000560FC 23437 0001:00056103
 23439 0001:0005610C 23440 0001:0005611B 23441 0001:00056127 23437 0001:00056128
 23442 0001:0005612D 23444 0001:00056135 23446 0001:0005613C 23448 0001:00056145
 23449 0001:00056154 23450 0001:00056160 23446 0001:00056161 23451 0001:00056166
 23453 0001:0005616E 23458 0001:00056185 23530 0001:0005618C 23531 0001:000561A8
 23532 0001:000561BC 23534 0001:000561D2 23535 0001:000561ED 23537 0001:000561FF
 23538 0001:00056206 23539 0001:00056215 23541 0001:0005621B 23542 0001:0005622A
 23543 0001:00056238 23544 0001:0005624B 23545 0001:00056254 23547 0001:00056258
 23548 0001:00056273 23549 0001:00056279 23551 0001:0005628C 23555 0001:00056296
 23558 0001:000562BB 23560 0001:000562C0 23565 0001:000562EB 23566 0001:000562F0
 23567 0001:000562F5 23568 0001:000562FA 23569 0001:000562FF 23570 0001:00056304
 23571 0001:0005630C 23574 0001:00056314 23575 0001:00056324 23580 0001:000563C0
 23581 0001:000563CF 23585 0001:000563DD 23586 0001:000563E5 23587 0001:000563ED
 23589 0001:000563FA 23590 0001:00056405 23591 0001:00056411 23594 0001:00056419
 23596 0001:00056432 23597 0001:00056434 23600 0001:00056442 23603 0001:00056444
 23605 0001:0005644C 23607 0001:00056455 23608 0001:00056470 23610 0001:0005647A
 23612 0001:00056483 23613 0001:0005649E 23615 0001:000564A8 23617 0001:000564BE
 23618 0001:000564DA 23620 0001:000564EC 23623 0001:0005652E 23624 0001:00056546
 23625 0001:00056553 23628 0001:0005655D 23630 0001:00056568 23632 0001:00056576
 23633 0001:00056592 23637 0001:0005659D 23638 0001:000565A3 23639 0001:000565AB
 23641 0001:000565B0 23642 0001:000565BF 23644 0001:000565C1 23645 0001:000565D1
 23648 0001:000565DB 23649 0001:000565EB 23654 0001:0005668F 23659 0001:000566D3
 23660 0001:000566D8 23662 0001:000566E7 23663 0001:000566F6 23664 0001:0005670B
 23665 0001:00056718 23666 0001:0005672D 23667 0001:00056742 23668 0001:00056757
 23669 0001:0005676C 23670 0001:00056781 23672 0001:00056796 23673 0001:000567AB
 23674 0001:000567C0 23675 0001:000567D5 23681 0001:000567EA 23682 0001:000567F0
 23683 0001:000567F6 23684 0001:000567FB 23687 0001:00056800 23688 0001:00056815
 23689 0001:00056823 23690 0001:00056838 23692 0001:0005684B 23693 0001:00056852
 23696 0001:0005685B 23697 0001:0005686D 23699 0001:0005687F 23705 0001:00056890
 23708 0001:0005689A 23709 0001:0005689F 23717 0001:000568AE 23718 0001:000568B4
 23720 0001:000568C0 23721 0001:000568C2 23724 0001:000568E3 23729 0001:000568F4
 23733 0001:000568F9 23735 0001:00056904 23736 0001:0005691F 23737 0001:0005692C
 23738 0001:0005693D 23740 0001:0005694A 23741 0001:0005694D 23743 0001:00056975
 23745 0001:0005697C 23747 0001:00056985 23749 0001:0005698E 23751 0001:00056997
 23756 0001:0005699E 23757 0001:000569A4 23759 0001:000569AD 23761 0001:000569B3
 23762 0001:000569B9 23764 0001:000569C1 23766 0001:000569C9 23767 0001:000569CF
 23770 0001:000569D8 23771 0001:000569E5 23773 0001:000569F9 23775 0001:000569FF
 23778 0001:00056A26 23779 0001:00056A30 23781 0001:00056A6C 23782 0001:00056A77
 23783 0001:00056A82 23785 0001:00056A8F 23786 0001:00056A96 23788 0001:00056A9E
 23789 0001:00056AA4 23790 0001:00056AAA 23791 0001:00056AAD 23795 0001:00056AB5
 23796 0001:00056ABB 23797 0001:00056AC1 23799 0001:00056AC6 23802 0001:00056ACB
 23705 0001:00056ADC 23813 0001:00056AE6 23819 0001:00056B71 23824 0001:00056B73
 23828 0001:00056BCD 23830 0001:00056BD2 23832 0001:00056BDA 23833 0001:00056BE3
 23842 0001:00056BFB 23844 0001:00056C07 23846 0001:00056C39 23849 0001:00056C48
 23850 0001:00056C53 23852 0001:00056C75 23854 0001:00056C91 23855 0001:00056C97
 23856 0001:00056C9A 23857 0001:00056CD9 23858 0001:00056CE6 23859 0001:00056CE9
 23861 0001:00056D16 23863 0001:00056D1F 23865 0001:00056D28 23867 0001:00056D31
 23869 0001:00056D3A 23872 0001:00056D41 23873 0001:00056D4F 23874 0001:00056D5D
 23875 0001:00056D6C 23876 0001:00056D78 23877 0001:00056D86 23878 0001:00056D8C
 23879 0001:00056D9C 23882 0001:00056E2A 23883 0001:00056E36 23885 0001:00056E4B
 23888 0001:00056E60 23891 0001:00056E75 23893 0001:00056E8A 23895 0001:00056E9F
 23897 0001:00056EB4 23899 0001:00056EC9 23901 0001:00056EDE 23903 0001:00056EF3
 23905 0001:00056F46 23907 0001:00056F5B 23909 0001:00056FAE 23911 0001:00056FC3
 23913 0001:00056FD8 23915 0001:00056FED 23917 0001:00057002 23919 0001:00057017
 23921 0001:0005702C 23923 0001:00057041 23925 0001:00057053 23927 0001:00057065
 23929 0001:00057077 23931 0001:00057089 23933 0001:0005709B 23936 0001:000570AD
 23938 0001:000570BF 23941 0001:000570CF 23942 0001:000570DF 23943 0001:000570E7
 23850 0001:000570E8 23951 0001:000570F4 23952 0001:00057100 23958 0001:0005712E
 23959 0001:00057138 23960 0001:00057142 23961 0001:0005714C 23962 0001:00057156
 23963 0001:00057160 23965 0001:00057177 23966 0001:00057186 23967 0001:00057194
 23968 0001:000571A2 23969 0001:000571B0 23963 0001:000571B1 23970 0001:000571B9
 23972 0001:000571D0 23973 0001:000571DF 23974 0001:000571ED 23975 0001:000571FB
 23970 0001:000571FC 23979 0001:00057204 23981 0001:0005720F 23982 0001:00057217
 23983 0001:0005721D 23984 0001:0005722B 23985 0001:00057231 23986 0001:0005723F
 23987 0001:00057245 23988 0001:00057253 23989 0001:00057259 23990 0001:00057267
 23992 0001:0005726D 23993 0001:0005727C 23994 0001:0005728B 23995 0001:0005729A
 23996 0001:000572A9 23998 0001:000572C5 23999 0001:000572CD 24000 0001:000572D5
 24001 0001:000572DD 24002 0001:000572E5 24004 0001:000572ED 24007 0001:000572F6
 24008 0001:0005730D 24011 0001:00057320 24018 0001:00057378 24021 0001:000575D0
 24022 0001:000575D6 24024 0001:000575D8 24025 0001:000575E6 24027 0001:000575F5
 24029 0001:000575FB 24032 0001:00057613 24033 0001:0005761E 24037 0001:00057627
 24038 0001:00057635 24042 0001:0005763E 24043 0001:0005764C 24047 0001:00057655
 24048 0001:0005765C 24057 0001:00057667 24061 0001:00057672 24063 0001:00057692
 24065 0001:00057694 24066 0001:0005769B 24067 0001:000576A2 24068 0001:000576AB
 24069 0001:000576B9 24077 0001:000576C5 24081 0001:000576CC 24082 0001:000576D2
 24084 0001:000576D4 24085 0001:000576E2 24087 0001:000576F5 24089 0001:000576FF
 24092 0001:0005773B 24093 0001:0005774B 24097 0001:00057757 24098 0001:00057767
 24102 0001:00057773 24103 0001:00057783 24107 0001:0005778C 24108 0001:0005779C
 24112 0001:000577A5 24113 0001:000577B5 24117 0001:000577BE 24118 0001:000577CE
 24122 0001:000577D7 24123 0001:000577DF 24132 0001:000577EA 24136 0001:000577F5
 24138 0001:00057815 24140 0001:00057817 24141 0001:0005781E 24142 0001:00057826
 24143 0001:0005782F 24144 0001:0005783D 24152 0001:00057849 24157 0001:00057850
 24158 0001:00057873 24159 0001:0005787D 24160 0001:0005788E 24162 0001:00057890
 24164 0001:000578C3 24166 0001:000578D3 24168 0001:000578E3 24170 0001:000578F3
 24172 0001:00057900 24175 0001:0005790B 24176 0001:0005793C 24181 0001:00057944
 24182 0001:00057967 24183 0001:00057971 24184 0001:00057982 24186 0001:00057984
 24188 0001:000579B7 24190 0001:000579C7 24192 0001:000579D7 24194 0001:000579E7
 24196 0001:000579F4 24199 0001:000579FF 24200 0001:00057A30 24203 0001:00057A38
 24205 0001:00057A40 24206 0001:00057A43 24208 0001:00057A52 24209 0001:00057A60
 24212 0001:00057A64 24217 0001:00057A69 24224 0001:00057A70 24225 0001:00057A79
 24227 0001:00057A83 24228 0001:00057A85 24229 0001:00057A88 24231 0001:00057A8D
 24232 0001:00057A93 24234 0001:00057A9B 24235 0001:00057A9E 24236 0001:00057AA1
 24240 0001:00057AAA 24245 0001:00057AB0 24248 0001:00057ABA 24249 0001:00057ABC
 24250 0001:00057AC2 24251 0001:00057AC9 24246 0001:00057AD5 24259 0001:00057ADC
 24260 0001:00057AE1 24263 0001:00057AE8 24264 0001:00057AF3 24265 0001:00057AF9
 24266 0001:00057B10 24269 0001:00057B14 24270 0001:00057B1D 24271 0001:00057B2F
 24277 0001:00057B38 24278 0001:00057B43 24280 0001:00057B48 24281 0001:00057B4A
 24282 0001:00057B4D 24285 0001:00057B51 24287 0001:00057B5D 24289 0001:00057B60
 24282 0001:00057B63 24291 0001:00057B67 24296 0001:00057B70 24297 0001:00057B8D
 24298 0001:00057B9B 24317 0001:00057BB0 24324 0001:00057BB8 24325 0001:00057BD8
 24327 0001:00057BEE 24331 0001:00057BFE 24332 0001:00057C0C 24333 0001:00057C0F
 24335 0001:00057C13 24336 0001:00057C18 24337 0001:00057C2C 24339 0001:00057C30
 24340 0001:00057C3A 24342 0001:00057C42 24333 0001:00057C45 24345 0001:00057C6C
 24351 0001:00057C74 24354 0001:00057C7E 24360 0001:00057C80 24363 0001:00057C8A
 24388 0001:00057C8C 24389 0001:00057CAB 24390 0001:00057CB2 24391 0001:00057CBA
 24392 0001:00057CDF 24393 0001:00057D04 24395 0001:00057D29 24396 0001:00057D4E
 24397 0001:00057D73 24398 0001:00057D98 24401 0001:00057DBD 24402 0001:00057DE8
 24413 0001:00057DF5 24415 0001:00057E28 24416 0001:00057E4D 24417 0001:00057E72
 24418 0001:00057E97 24420 0001:00057EBC 24421 0001:00057EC8 24434 0001:00057EFE
 24440 0001:00058184 24445 0001:000581F4 24436 0001:0005821C 24437 0001:00058225
 24439 0001:0005822A

Line numbers for DbxOpenOdbcStatic(DbxOpenOdbcStatic.pas) segment .text

    83 0001:0005822C    84 0001:00058236    90 0001:00058238    91 0001:00058251
    92 0001:00058280    94 0001:00058288    95 0001:000582B5   101 0001:000582D4
   102 0001:000582EF   103 0001:00058329   105 0001:00058331   106 0001:00058366
   112 0001:00058388   113 0001:0005838E   114 0001:0005839F   116 0001:000583A8
   117 0001:000583AB   127 0001:000583B0   128 0001:000583CA   129 0001:000583D8
   130 0001:000583FE   132 0001:0005842F   134 0001:00058446   136 0001:00058453
   138 0001:00058459   139 0001:00058461   272 0001:00058466   274 0001:00058475
   277 0001:00058485   279 0001:00058494   283 0001:000584A1   285 0001:000584B0
   288 0001:000584BD   290 0001:000584CC   294 0001:000584D9   296 0001:000584E8
   299 0001:000584F5   301 0001:00058504   305 0001:00058511   306 0001:0005853B
   308 0001:000585F0   313 0001:000585F8   315 0001:00058609   316 0001:00058610
   319 0001:00058616   320 0001:00058627   325 0001:00058630   327 0001:00058639
   328 0001:00058640   330 0001:00058648   331 0001:00058654   332 0001:0005865E
   334 0001:00058666   337 0001:00058670   338 0001:00058677   340 0001:0005867F
   341 0001:00058689   342 0001:00058693   343 0001:0005869D   345 0001:000586A7
   351 0001:000586A8   354 0001:000586B6   364 0001:0005872A   365 0001:00058736
   367 0001:0005873F   368 0001:00058747   371 0001:00058748   375 0001:0005874D
   376 0001:0005875E   386 0001:000587EA   387 0001:000587F6   389 0001:000587FF
   390 0001:00058807   393 0001:00058808   395 0001:0005880D   405 0001:000588D0
   407 0001:00058903   397 0001:00058908   398 0001:00058917   399 0001:0005891C
   400 0001:00058926   402 0001:0005894D   404 0001:00058972

Line numbers for dbxoodbc_emb(.\..\..\..\source\packages\pkg\dbxoodbc.dpk) segment .text

    77 0001:00058BD4

Bound resource files

dbxoodbc_man_icn.res
dbxoodbc_ver.res
C:\TEMP\dtfF32.tmp


Program entry point at 0001:00058BD4
