
 Start         Length     Name                   Class
 0001:00401000 00040540H .text                   CODE
 0002:00442000 000002D4H .itext                  ICODE
 0003:00443000 000005E0H .data                   DATA
 0004:00444000 00000044H .bss                    BSS
 0005:00000000 00000000H .tls                    TLS
 0006:00400000 00000000H .pdata                  PDATA


Detailed map of segments

 0001:00000000 00000238 C=CODE     S=.text    G=(none)   M=System   ACBP=A9
 0001:00000238 00000CEC C=CODE     S=.text    G=(none)   M=SysInit  ACBP=A9
 0001:00000F24 00000008 C=CODE     S=.text    G=(none)   M=System.UITypes ACBP=A9
 0001:00000F2C 00000194 C=CODE     S=.text    G=(none)   M=Winapi.Windows ACBP=A9
 0001:000010C0 00000024 C=CODE     S=.text    G=(none)   M=Winapi.PsAPI ACBP=A9
 0001:000010E4 00000008 C=CODE     S=.text    G=(none)   M=System.Character ACBP=A9
 0001:000010EC 00000008 C=CODE     S=.text    G=(none)   M=System.Internal.ExcUtils ACBP=A9
 0001:000010F4 000000E0 C=CODE     S=.text    G=(none)   M=System.SysUtils ACBP=A9
 0001:000011D4 00000008 C=CODE     S=.text    G=(none)   M=System.VarUtils ACBP=A9
 0001:000011DC 00000008 C=CODE     S=.text    G=(none)   M=System.Variants ACBP=A9
 0001:000011E4 00000008 C=CODE     S=.text    G=(none)   M=System.Math ACBP=A9
 0001:000011EC 00000010 C=CODE     S=.text    G=(none)   M=System.Rtti ACBP=A9
 0001:000011FC 00000008 C=CODE     S=.text    G=(none)   M=System.TypInfo ACBP=A9
 0001:00001204 00000010 C=CODE     S=.text    G=(none)   M=System.Generics.Defaults ACBP=A9
 0001:00001214 00000070 C=CODE     S=.text    G=(none)   M=System.Classes ACBP=A9
 0001:00001284 00000030 C=CODE     S=.text    G=(none)   M=Data.DBXClassRegistry ACBP=A9
 0001:000012B4 00000008 C=CODE     S=.text    G=(none)   M=System.TimeSpan ACBP=A9
 0001:000012BC 00000010 C=CODE     S=.text    G=(none)   M=System.DateUtils ACBP=A9
 0001:000012CC 00000008 C=CODE     S=.text    G=(none)   M=System.StrUtils ACBP=A9
 0001:000012D4 00000008 C=CODE     S=.text    G=(none)   M=Data.SqlTimSt ACBP=A9
 0001:000012DC 00000008 C=CODE     S=.text    G=(none)   M=Data.FmtBcd ACBP=A9
 0001:000012E4 00000008 C=CODE     S=.text    G=(none)   M=Data.DB  ACBP=A9
 0001:000012EC 00000008 C=CODE     S=.text    G=(none)   M=System.SyncObjs ACBP=A9
 0001:000012F4 00000030 C=CODE     S=.text    G=(none)   M=Data.DBXPlatform ACBP=A9
 0001:00001324 00000008 C=CODE     S=.text    G=(none)   M=System.IOUtils ACBP=A9
 0001:0000132C 00000008 C=CODE     S=.text    G=(none)   M=System.IniFiles ACBP=A9
 0001:00001334 00000008 C=CODE     S=.text    G=(none)   M=System.JSON ACBP=A9
 0001:0000133C 00000008 C=CODE     S=.text    G=(none)   M=System.JSON.Types ACBP=A9
 0001:00001344 00000008 C=CODE     S=.text    G=(none)   M=System.NetEncoding ACBP=A9
 0001:0000134C 00000008 C=CODE     S=.text    G=(none)   M=System.JSON.Utils ACBP=A9
 0001:00001354 00000008 C=CODE     S=.text    G=(none)   M=System.JSON.Readers ACBP=A9
 0001:0000135C 00000008 C=CODE     S=.text    G=(none)   M=System.JSON.Writers ACBP=A9
 0001:00001364 00000008 C=CODE     S=.text    G=(none)   M=System.Win.Registry ACBP=A9
 0001:0000136C 000002C8 C=CODE     S=.text    G=(none)   M=Data.DBXCommon ACBP=A9
 0001:00001634 00000018 C=CODE     S=.text    G=(none)   M=Data.DBXDynalinkNative ACBP=A9
 0001:0000164C 00000080 C=CODE     S=.text    G=(none)   M=Data.DBXDynalink ACBP=A9
 0001:000016CC 00000328 C=CODE     S=.text    G=(none)   M=Data.DBXMetaDataReader ACBP=A9
 0001:000019F4 000000C0 C=CODE     S=.text    G=(none)   M=Data.DBXMetaDataCommandFactory ACBP=A9
 0001:00001AB4 000377CC C=CODE     S=.text    G=(none)   M=Dbx34DrvDbms ACBP=A9
 0001:00039280 000056C8 C=CODE     S=.text    G=(none)   M=Dbx34Drv ACBP=A9
 0001:0003E948 0000000C C=CODE     S=.text    G=(none)   M=DbxXXDrv ACBP=A9
 0001:0003E954 00001750 C=CODE     S=.text    G=(none)   M=DbxOpenOdbcApiHook ACBP=A9
 0001:000400A4 00000008 C=CODE     S=.text    G=(none)   M=DbxDBFix ACBP=A9
 0001:000400AC 00000494 C=CODE     S=.text    G=(none)   M=.dbxoodbc ACBP=A9
 0002:00000000 00000008 C=ICODE    S=.itext   G=(none)   M=System   ACBP=A9
 0002:00000008 00000008 C=ICODE    S=.itext   G=(none)   M=SysInit  ACBP=A9
 0002:00000010 00000008 C=ICODE    S=.itext   G=(none)   M=System.UITypes ACBP=A9
 0002:00000018 00000018 C=ICODE    S=.itext   G=(none)   M=Winapi.Windows ACBP=A9
 0002:00000030 00000008 C=ICODE    S=.itext   G=(none)   M=Winapi.PsAPI ACBP=A9
 0002:00000038 00000008 C=ICODE    S=.itext   G=(none)   M=System.Character ACBP=A9
 0002:00000040 00000008 C=ICODE    S=.itext   G=(none)   M=System.Internal.ExcUtils ACBP=A9
 0002:00000048 00000028 C=ICODE    S=.itext   G=(none)   M=System.SysUtils ACBP=A9
 0002:00000070 00000008 C=ICODE    S=.itext   G=(none)   M=System.VarUtils ACBP=A9
 0002:00000078 00000008 C=ICODE    S=.itext   G=(none)   M=System.Variants ACBP=A9
 0002:00000080 00000008 C=ICODE    S=.itext   G=(none)   M=System.Math ACBP=A9
 0002:00000088 00000010 C=ICODE    S=.itext   G=(none)   M=System.Rtti ACBP=A9
 0002:00000098 00000008 C=ICODE    S=.itext   G=(none)   M=System.TypInfo ACBP=A9
 0002:000000A0 00000010 C=ICODE    S=.itext   G=(none)   M=System.Generics.Defaults ACBP=A9
 0002:000000B0 00000038 C=ICODE    S=.itext   G=(none)   M=System.Classes ACBP=A9
 0002:000000E8 00000008 C=ICODE    S=.itext   G=(none)   M=Data.DBXClassRegistry ACBP=A9
 0002:000000F0 00000008 C=ICODE    S=.itext   G=(none)   M=System.TimeSpan ACBP=A9
 0002:000000F8 00000010 C=ICODE    S=.itext   G=(none)   M=System.DateUtils ACBP=A9
 0002:00000108 00000008 C=ICODE    S=.itext   G=(none)   M=Data.SqlTimSt ACBP=A9
 0002:00000110 00000008 C=ICODE    S=.itext   G=(none)   M=Data.FmtBcd ACBP=A9
 0002:00000118 00000008 C=ICODE    S=.itext   G=(none)   M=Data.DB  ACBP=A9
 0002:00000120 00000008 C=ICODE    S=.itext   G=(none)   M=System.SyncObjs ACBP=A9
 0002:00000128 00000008 C=ICODE    S=.itext   G=(none)   M=System.IOUtils ACBP=A9
 0002:00000130 00000008 C=ICODE    S=.itext   G=(none)   M=System.IniFiles ACBP=A9
 0002:00000138 00000008 C=ICODE    S=.itext   G=(none)   M=System.JSON ACBP=A9
 0002:00000140 00000008 C=ICODE    S=.itext   G=(none)   M=System.JSON.Types ACBP=A9
 0002:00000148 00000008 C=ICODE    S=.itext   G=(none)   M=System.NetEncoding ACBP=A9
 0002:00000150 00000008 C=ICODE    S=.itext   G=(none)   M=System.JSON.Utils ACBP=A9
 0002:00000158 00000008 C=ICODE    S=.itext   G=(none)   M=System.JSON.Readers ACBP=A9
 0002:00000160 00000008 C=ICODE    S=.itext   G=(none)   M=System.JSON.Writers ACBP=A9
 0002:00000168 00000008 C=ICODE    S=.itext   G=(none)   M=System.Win.Registry ACBP=A9
 0002:00000170 00000010 C=ICODE    S=.itext   G=(none)   M=Data.DBXCommon ACBP=A9
 0002:00000180 00000008 C=ICODE    S=.itext   G=(none)   M=Data.DBXDynalink ACBP=A9
 0002:00000188 00000084 C=ICODE    S=.itext   G=(none)   M=Dbx34DrvDbms ACBP=A9
 0002:0000020C 000000A8 C=ICODE    S=.itext   G=(none)   M=Dbx34Drv ACBP=A9
 0002:000002B4 00000008 C=ICODE    S=.itext   G=(none)   M=DbxXXDrv ACBP=A9
 0002:000002BC 00000008 C=ICODE    S=.itext   G=(none)   M=DbxOpenOdbcApiHook ACBP=A9
 0002:000002C4 00000008 C=ICODE    S=.itext   G=(none)   M=DbxDBFix ACBP=A9
 0002:000002CC 00000008 C=ICODE    S=.itext   G=(none)   M=.dbxoodbc ACBP=A9
 0003:00000000 00000088 C=DATA     S=.data    G=DGROUP   M=SysInit  ACBP=A9
 0003:00000088 0000000C C=DATA     S=.data    G=DGROUP   M=Winapi.Windows ACBP=A9
 0003:00000094 00000004 C=DATA     S=.data    G=DGROUP   M=Dbx34Drv ACBP=A9
 0003:00000098 00000540 C=DATA     S=.data    G=DGROUP   M=DbxOpenOdbcApiHook ACBP=A9
 0004:00000000 00000020 C=BSS      S=.bss     G=DGROUP   M=SysInit  ACBP=A9
 0004:00000020 00000008 C=BSS      S=.bss     G=DGROUP   M=Winapi.Windows ACBP=A9
 0004:00000028 00000008 C=BSS      S=.bss     G=DGROUP   M=Winapi.PsAPI ACBP=A9
 0004:00000030 00000004 C=BSS      S=.bss     G=DGROUP   M=Dbx34DrvDbms ACBP=A9
 0004:00000034 00000004 C=BSS      S=.bss     G=DGROUP   M=Dbx34Drv ACBP=A9
 0004:00000038 00000004 C=BSS      S=.bss     G=DGROUP   M=DbxXXDrv ACBP=A9
 0004:0000003C 00000004 C=BSS      S=.bss     G=DGROUP   M=DbxOpenOdbcApiHook ACBP=A9
 0004:00000040 00000004 C=BSS      S=.bss     G=DGROUP   M=DbxDBFix ACBP=A9


  Address             Publics by Name

 0002:000002CC       .dbxoodbc..dbxoodbc
 0001:00040520       .dbxoodbc.@GetPackageInfoTable
 0001:00040528       .dbxoodbc.@PackageLoad
 0001:00040534       .dbxoodbc.@PackageUnload
 0002:00000118       Data.DB.Data.DB
 0001:000012E4       Data.DB.Finalization
 0002:000000E8       Data.DBXClassRegistry.Data.DBXClassRegistry
 0001:000012AC       Data.DBXClassRegistry.Finalization
 0001:00001284       Data.DBXClassRegistry.TClassRegistry.CreateInstance
 0001:0000128C       Data.DBXClassRegistry.TClassRegistry.GetClassRegistry
 0001:00001294       Data.DBXClassRegistry.TClassRegistry.HasClass
 0001:0000129C       Data.DBXClassRegistry.TClassRegistry.RegisterRegistryClass
 0001:000012A4       Data.DBXClassRegistry.TClassRegistry.UnregisterClass
 0002:00000178       Data.DBXCommon.Data.DBXCommon
 0001:0000162C       Data.DBXCommon.Finalization
 0001:00001544       Data.DBXCommon.TDBXCommand.Close
 0001:000014F4       Data.DBXCommon.TDBXCommand.CloseReader
 0001:000014BC       Data.DBXCommon.TDBXCommand.CreateParameter
 0001:000014C4       Data.DBXCommon.TDBXCommand.CreateParameterRow
 0001:000014CC       Data.DBXCommon.TDBXCommand.CreateParameters
 0001:0000153C       Data.DBXCommon.TDBXCommand.DerivedClearParameters
 0001:000014DC       Data.DBXCommon.TDBXCommand.ExecuteQuery
 0001:000014E4       Data.DBXCommon.TDBXCommand.ExecuteUpdate
 0001:000014EC       Data.DBXCommon.TDBXCommand.FreeOnExecute
 0001:0000161C       Data.DBXCommon.TDBXCommand.GetCommandTimeout
 0001:000014FC       Data.DBXCommon.TDBXCommand.GetCommandType
 0001:00001504       Data.DBXCommon.TDBXCommand.GetErrorEvent
 0001:0000150C       Data.DBXCommon.TDBXCommand.GetNextReader
 0001:00001514       Data.DBXCommon.TDBXCommand.GetParameters
 0001:0000151C       Data.DBXCommon.TDBXCommand.GetText
 0001:00001534       Data.DBXCommon.TDBXCommand.Open
 0001:00001524       Data.DBXCommon.TDBXCommand.Prepare
 0001:00001624       Data.DBXCommon.TDBXCommand.SetCommandTimeout
 0001:000014D4       Data.DBXCommon.TDBXCommand.SetCommandType
 0001:0000152C       Data.DBXCommon.TDBXCommand.SetText
 0001:00001444       Data.DBXCommon.TDBXConnection.BeginTransaction
 0001:0000143C       Data.DBXCommon.TDBXConnection.BeginTransaction
 0001:00001454       Data.DBXCommon.TDBXConnection.CommitFreeAndNil
 0001:0000144C       Data.DBXCommon.TDBXConnection.CommitTransaction
 0001:00001414       Data.DBXCommon.TDBXConnection.CreateCommand
 0001:0000140C       Data.DBXCommon.TDBXConnection.CreateMorphCommand
 0001:00001404       Data.DBXCommon.TDBXConnection.Destroy
 0001:00001474       Data.DBXCommon.TDBXConnection.GetConnectionProperties
 0001:0000148C       Data.DBXCommon.TDBXConnection.GetConnectionProperty
 0001:00001424       Data.DBXCommon.TDBXConnection.GetDatabaseMetaData
 0001:000014A4       Data.DBXCommon.TDBXConnection.GetDBXFormatter
 0001:0000147C       Data.DBXCommon.TDBXConnection.GetErrorEvent
 0001:00001484       Data.DBXCommon.TDBXConnection.GetIsOpen
 0001:0000142C       Data.DBXCommon.TDBXConnection.GetTraceFlags
 0001:00001434       Data.DBXCommon.TDBXConnection.GetTraceInfoEvent
 0001:0000141C       Data.DBXCommon.TDBXConnection.Open
 0001:0000145C       Data.DBXCommon.TDBXConnection.RollbackFreeAndNil
 0001:00001464       Data.DBXCommon.TDBXConnection.RollbackIncompleteFreeAndNil
 0001:0000146C       Data.DBXCommon.TDBXConnection.RollbackTransaction
 0001:0000149C       Data.DBXCommon.TDBXConnection.SetConnectionProperties
 0001:000014AC       Data.DBXCommon.TDBXConnection.SetDBXFormatter
 0001:00001494       Data.DBXCommon.TDBXConnection.SetErrorEvent
 0001:000014B4       Data.DBXCommon.TDBXConnection.SetTraceFlags
 0001:00001604       Data.DBXCommon.TDBXConnectionBuilder.GetConnectionProperties
 0002:00000170       Data.DBXCommon.TDBXConnectionFactory.Create@
 0001:0000136C       Data.DBXCommon.TDBXConnectionFactory.Destroy@
 0001:000015FC       Data.DBXCommon.TDBXContext.Error
 0001:000013B4       Data.DBXCommon.TDBXDriver.AddCommandFactory
 0001:000013BC       Data.DBXCommon.TDBXDriver.CreateMorphCommand
 0001:000013C4       Data.DBXCommon.TDBXDriver.GetDriverClass
 0001:000013CC       Data.DBXCommon.TDBXDriver.GetDriverName
 0001:000013D4       Data.DBXCommon.TDBXDriver.GetDriverProperties
 0001:000013DC       Data.DBXCommon.TDBXDriver.GetDriverPropertyNames
 0001:000013EC       Data.DBXCommon.TDBXDriver.InitDriverProperties
 0001:000013E4       Data.DBXCommon.TDBXDriver.SetDriverName
 0001:0000160C       Data.DBXCommon.TDBXDriverHelp.GetMetaDataReader
 0001:00001614       Data.DBXCommon.TDBXDriverHelp.SetMetaDataReader
 0001:000013F4       Data.DBXCommon.TDBXDriverRegistry.RegisterDriverClass
 0001:000013FC       Data.DBXCommon.TDBXDriverRegistry.UnregisterDriverClass
 0001:000015F4       Data.DBXCommon.TDBXMorphicCommand.CloseReader
 0001:0000154C       Data.DBXCommon.TDBXMorphicCommand.Create
 0001:0000157C       Data.DBXCommon.TDBXMorphicCommand.CreateParameterRow
 0001:00001554       Data.DBXCommon.TDBXMorphicCommand.CreateParameters
 0001:000015A4       Data.DBXCommon.TDBXMorphicCommand.DerivedClose
 0001:000015AC       Data.DBXCommon.TDBXMorphicCommand.DerivedExecuteQuery
 0001:000015B4       Data.DBXCommon.TDBXMorphicCommand.DerivedExecuteUpdate
 0001:000015BC       Data.DBXCommon.TDBXMorphicCommand.DerivedGetNextReader
 0001:000015C4       Data.DBXCommon.TDBXMorphicCommand.DerivedOpen
 0001:000015CC       Data.DBXCommon.TDBXMorphicCommand.DerivedPrepare
 0001:0000155C       Data.DBXCommon.TDBXMorphicCommand.Destroy
 0001:00001564       Data.DBXCommon.TDBXMorphicCommand.ExecuteQuery
 0001:0000156C       Data.DBXCommon.TDBXMorphicCommand.ExecuteUpdate
 0001:0000158C       Data.DBXCommon.TDBXMorphicCommand.FreeOnExecute
 0001:0000159C       Data.DBXCommon.TDBXMorphicCommand.GetNextReader
 0001:00001574       Data.DBXCommon.TDBXMorphicCommand.GetParameters
 0001:00001584       Data.DBXCommon.TDBXMorphicCommand.GetRowsAffected
 0001:00001594       Data.DBXCommon.TDBXMorphicCommand.Prepare
 0001:000015E4       Data.DBXCommon.TDBXMorphicCommand.SetCommandType
 0001:000015D4       Data.DBXCommon.TDBXMorphicCommand.SetMaxBlobSize
 0001:000015DC       Data.DBXCommon.TDBXMorphicCommand.SetRowSetSize
 0001:000015EC       Data.DBXCommon.TDBXMorphicCommand.SetText
 0001:00001374       Data.DBXCommon.TDBXProperties.Create
 0001:0000137C       Data.DBXCommon.TDBXProperties.Create
 0001:00001384       Data.DBXCommon.TDBXProperties.Destroy
 0001:0000138C       Data.DBXCommon.TDBXProperties.DoOnChange
 0001:00001394       Data.DBXCommon.TDBXProperties.GetLists
 0001:000013A4       Data.DBXCommon.TDBXProperties.GetProperties
 0001:0000139C       Data.DBXCommon.TDBXProperties.GetValue
 0001:000013AC       Data.DBXCommon.TDBXProperties.SetValue
 0002:00000180       Data.DBXDynalink.Data.DBXDynalink
 0001:000016C4       Data.DBXDynalink.Finalization
 0001:0000168C       Data.DBXDynalink.TDBXDynalinkConnection.Close
 0001:00001694       Data.DBXDynalink.TDBXDynalinkConnection.Commit
 0001:000016AC       Data.DBXDynalink.TDBXDynalinkConnection.Create
 0001:00001684       Data.DBXDynalink.TDBXDynalinkConnection.CreateAndBeginTransaction
 0001:000016B4       Data.DBXDynalink.TDBXDynalinkConnection.DerivedOpen
 0001:000016BC       Data.DBXDynalink.TDBXDynalinkConnection.GetVendorProperty
 0001:0000169C       Data.DBXDynalink.TDBXDynalinkConnection.Rollback
 0001:000016A4       Data.DBXDynalink.TDBXDynalinkConnection.SetTraceInfoEvent
 0001:0000164C       Data.DBXDynalink.TDBXDynalinkDriver.CheckResult
 0001:00001654       Data.DBXDynalink.TDBXDynalinkDriver.Close
 0001:0000165C       Data.DBXDynalink.TDBXDynalinkDriver.Destroy
 0001:00001664       Data.DBXDynalink.TDBXDynalinkDriver.GetDriverVersion
 0001:0000166C       Data.DBXDynalink.TDBXDynalinkDriverCommonLoader.Create
 0001:00001674       Data.DBXDynalink.TDBXDynalinkDriverCommonLoader.Load
 0001:0000167C       Data.DBXDynalink.TDBXDynalinkDriverCommonLoader.LoadDriverLibrary
 0001:0000163C       Data.DBXDynalinkNative.TDBXDynalinkDriverLoader.CreateDynalinkDriver
 0001:00001644       Data.DBXDynalinkNative.TDBXDynalinkDriverLoader.CreateMethodTable
 0001:00001634       Data.DBXDynalinkNative.TDBXDynalinkDriverNative.Create
 0001:00001A44       Data.DBXMetaDataCommandFactory.TDBXDataExpressProviderContext.Commit
 0001:00001A04       Data.DBXMetaDataCommandFactory.TDBXDataExpressProviderContext.Create
 0001:00001A2C       Data.DBXMetaDataCommandFactory.TDBXDataExpressProviderContext.CreateRowStorage
 0001:00001A24       Data.DBXMetaDataCommandFactory.TDBXDataExpressProviderContext.CreateTableStorage
 0001:00001A0C       Data.DBXMetaDataCommandFactory.TDBXDataExpressProviderContext.Destroy
 0001:00001A1C       Data.DBXMetaDataCommandFactory.TDBXDataExpressProviderContext.ExecuteQuery
 0001:00001A14       Data.DBXMetaDataCommandFactory.TDBXDataExpressProviderContext.GetPlatformTypeName
 0001:00001A54       Data.DBXMetaDataCommandFactory.TDBXDataExpressProviderContext.GetVendorProperty
 0001:00001A4C       Data.DBXMetaDataCommandFactory.TDBXDataExpressProviderContext.Rollback
 0001:00001A3C       Data.DBXMetaDataCommandFactory.TDBXDataExpressProviderContext.StartSerializedTransaction
 0001:00001A34       Data.DBXMetaDataCommandFactory.TDBXDataExpressProviderContext.StartTransaction
 0001:00001A5C       Data.DBXMetaDataCommandFactory.TDBXMetaDataCommand.Create
 0001:00001A94       Data.DBXMetaDataCommandFactory.TDBXMetaDataCommand.DerivedClose
 0001:00001AA4       Data.DBXMetaDataCommandFactory.TDBXMetaDataCommand.DerivedExecuteQuery
 0001:00001AAC       Data.DBXMetaDataCommandFactory.TDBXMetaDataCommand.DerivedExecuteUpdate
 0001:00001A84       Data.DBXMetaDataCommandFactory.TDBXMetaDataCommand.DerivedGetNextReader
 0001:00001A8C       Data.DBXMetaDataCommandFactory.TDBXMetaDataCommand.DerivedOpen
 0001:00001A9C       Data.DBXMetaDataCommandFactory.TDBXMetaDataCommand.DerivedPrepare
 0001:00001A64       Data.DBXMetaDataCommandFactory.TDBXMetaDataCommand.Destroy
 0001:00001A7C       Data.DBXMetaDataCommandFactory.TDBXMetaDataCommand.GetRowsAffected
 0001:00001A74       Data.DBXMetaDataCommandFactory.TDBXMetaDataCommand.SetMaxBlobSize
 0001:00001A6C       Data.DBXMetaDataCommandFactory.TDBXMetaDataCommand.SetRowSetSize
 0001:000019F4       Data.DBXMetaDataCommandFactory.TDBXMetaDataCommandFactory.RegisterMetaDataCommandFactory
 0001:000019FC       Data.DBXMetaDataCommandFactory.TDBXMetaDataCommandFactory.UnRegisterMetaDataCommandFactory
 0001:000017FC       Data.DBXMetaDataReader.TDBXBaseMetaDataReader.AreCatalogFunctionsSupported
 0001:00001804       Data.DBXMetaDataReader.TDBXBaseMetaDataReader.AreCatalogsSupported
 0001:0000180C       Data.DBXMetaDataReader.TDBXBaseMetaDataReader.AreSchemasSupported
 0001:000017E4       Data.DBXMetaDataReader.TDBXBaseMetaDataReader.CompareVersion
 0001:000017AC       Data.DBXMetaDataReader.TDBXBaseMetaDataReader.Destroy
 0001:0000187C       Data.DBXMetaDataReader.TDBXBaseMetaDataReader.FetchCatalogs
 0001:0000185C       Data.DBXMetaDataReader.TDBXBaseMetaDataReader.FetchCollection
 0001:0000186C       Data.DBXMetaDataReader.TDBXBaseMetaDataReader.FetchCollectionWithStorage
 0001:000018A4       Data.DBXMetaDataReader.TDBXBaseMetaDataReader.FetchColumnConstraints
 0001:0000189C       Data.DBXMetaDataReader.TDBXBaseMetaDataReader.FetchColumns
 0001:00001874       Data.DBXMetaDataReader.TDBXBaseMetaDataReader.FetchDataTypes
 0001:000018C4       Data.DBXMetaDataReader.TDBXBaseMetaDataReader.FetchForeignKeyColumns
 0001:000018BC       Data.DBXMetaDataReader.TDBXBaseMetaDataReader.FetchForeignKeys
 0001:000018B4       Data.DBXMetaDataReader.TDBXBaseMetaDataReader.FetchIndexColumns
 0001:000018AC       Data.DBXMetaDataReader.TDBXBaseMetaDataReader.FetchIndexes
 0001:000018FC       Data.DBXMetaDataReader.TDBXBaseMetaDataReader.FetchPackageProcedureParameters
 0001:000018F4       Data.DBXMetaDataReader.TDBXBaseMetaDataReader.FetchPackageProcedures
 0001:000018EC       Data.DBXMetaDataReader.TDBXBaseMetaDataReader.FetchPackages
 0001:00001904       Data.DBXMetaDataReader.TDBXBaseMetaDataReader.FetchPackageSources
 0001:000018E4       Data.DBXMetaDataReader.TDBXBaseMetaDataReader.FetchProcedureParameters
 0001:000018D4       Data.DBXMetaDataReader.TDBXBaseMetaDataReader.FetchProcedures
 0001:000018DC       Data.DBXMetaDataReader.TDBXBaseMetaDataReader.FetchProcedureSources
 0001:0000191C       Data.DBXMetaDataReader.TDBXBaseMetaDataReader.FetchReservedWords
 0001:00001914       Data.DBXMetaDataReader.TDBXBaseMetaDataReader.FetchRoles
 0001:00001884       Data.DBXMetaDataReader.TDBXBaseMetaDataReader.FetchSchemas
 0001:000018CC       Data.DBXMetaDataReader.TDBXBaseMetaDataReader.FetchSynonyms
 0001:0000188C       Data.DBXMetaDataReader.TDBXBaseMetaDataReader.FetchTables
 0001:0000190C       Data.DBXMetaDataReader.TDBXBaseMetaDataReader.FetchUsers
 0001:00001894       Data.DBXMetaDataReader.TDBXBaseMetaDataReader.FetchViews
 0001:000017BC       Data.DBXMetaDataReader.TDBXBaseMetaDataReader.GetContext
 0001:00001924       Data.DBXMetaDataReader.TDBXBaseMetaDataReader.GetDataTypeDescriptions
 0001:00001844       Data.DBXMetaDataReader.TDBXBaseMetaDataReader.GetDataTypeHash
 0001:0000184C       Data.DBXMetaDataReader.TDBXBaseMetaDataReader.GetDataTypes
 0001:000017C4       Data.DBXMetaDataReader.TDBXBaseMetaDataReader.GetProductName
 0001:0000192C       Data.DBXMetaDataReader.TDBXBaseMetaDataReader.GetReservedWords
 0001:000017DC       Data.DBXMetaDataReader.TDBXBaseMetaDataReader.GetSqlDefaultParameterMarker
 0001:0000193C       Data.DBXMetaDataReader.TDBXBaseMetaDataReader.GetSqlForCatalogs
 0001:00001964       Data.DBXMetaDataReader.TDBXBaseMetaDataReader.GetSqlForColumnConstraints
 0001:0000195C       Data.DBXMetaDataReader.TDBXBaseMetaDataReader.GetSqlForColumns
 0001:00001934       Data.DBXMetaDataReader.TDBXBaseMetaDataReader.GetSqlForDataTypes
 0001:00001984       Data.DBXMetaDataReader.TDBXBaseMetaDataReader.GetSqlForForeignKeyColumns
 0001:0000197C       Data.DBXMetaDataReader.TDBXBaseMetaDataReader.GetSqlForForeignKeys
 0001:00001974       Data.DBXMetaDataReader.TDBXBaseMetaDataReader.GetSqlForIndexColumns
 0001:0000196C       Data.DBXMetaDataReader.TDBXBaseMetaDataReader.GetSqlForIndexes
 0001:000019BC       Data.DBXMetaDataReader.TDBXBaseMetaDataReader.GetSqlForPackageProcedureParameters
 0001:000019B4       Data.DBXMetaDataReader.TDBXBaseMetaDataReader.GetSqlForPackageProcedures
 0001:000019AC       Data.DBXMetaDataReader.TDBXBaseMetaDataReader.GetSqlForPackages
 0001:000019C4       Data.DBXMetaDataReader.TDBXBaseMetaDataReader.GetSqlForPackageSources
 0001:000019A4       Data.DBXMetaDataReader.TDBXBaseMetaDataReader.GetSqlForProcedureParameters
 0001:00001994       Data.DBXMetaDataReader.TDBXBaseMetaDataReader.GetSqlForProcedures
 0001:0000199C       Data.DBXMetaDataReader.TDBXBaseMetaDataReader.GetSqlForProcedureSources
 0001:000019DC       Data.DBXMetaDataReader.TDBXBaseMetaDataReader.GetSqlForReservedWords
 0001:000019D4       Data.DBXMetaDataReader.TDBXBaseMetaDataReader.GetSqlForRoles
 0001:00001944       Data.DBXMetaDataReader.TDBXBaseMetaDataReader.GetSqlForSchemas
 0001:0000198C       Data.DBXMetaDataReader.TDBXBaseMetaDataReader.GetSqlForSynonyms
 0001:0000194C       Data.DBXMetaDataReader.TDBXBaseMetaDataReader.GetSqlForTables
 0001:000019CC       Data.DBXMetaDataReader.TDBXBaseMetaDataReader.GetSqlForUsers
 0001:00001954       Data.DBXMetaDataReader.TDBXBaseMetaDataReader.GetSqlForViews
 0001:00001834       Data.DBXMetaDataReader.TDBXBaseMetaDataReader.GetSynonymType
 0001:00001824       Data.DBXMetaDataReader.TDBXBaseMetaDataReader.GetSystemTableType
 0001:0000182C       Data.DBXMetaDataReader.TDBXBaseMetaDataReader.GetSystemViewType
 0001:00001814       Data.DBXMetaDataReader.TDBXBaseMetaDataReader.GetTableType
 0001:000017CC       Data.DBXMetaDataReader.TDBXBaseMetaDataReader.GetVersion
 0001:0000181C       Data.DBXMetaDataReader.TDBXBaseMetaDataReader.GetViewType
 0001:000017EC       Data.DBXMetaDataReader.TDBXBaseMetaDataReader.IsQuotedIdentifiersSupported
 0001:000017F4       Data.DBXMetaDataReader.TDBXBaseMetaDataReader.IsSPReturnCodeSupported
 0001:00001864       Data.DBXMetaDataReader.TDBXBaseMetaDataReader.MakeStorage
 0001:0000183C       Data.DBXMetaDataReader.TDBXBaseMetaDataReader.MakeTableTypeString
 0001:00001854       Data.DBXMetaDataReader.TDBXBaseMetaDataReader.PopulateDataTypes
 0001:000017B4       Data.DBXMetaDataReader.TDBXBaseMetaDataReader.SetContext
 0001:000017D4       Data.DBXMetaDataReader.TDBXBaseMetaDataReader.SetVersion
 0001:000016CC       Data.DBXMetaDataReader.TDBXCustomMetaDataTable.Create
 0001:000016D4       Data.DBXMetaDataReader.TDBXDataTypeCursor.Create
 0001:000016DC       Data.DBXMetaDataReader.TDBXDataTypeDescription.Create
 0001:000016E4       Data.DBXMetaDataReader.TDBXDataTypeDescription.Create
 0001:000016EC       Data.DBXMetaDataReader.TDBXDataTypeDescription.SetUnicodeOptionSupported
 0001:000016F4       Data.DBXMetaDataReader.TDBXEmptyTableCursor.Create
 0001:00001704       Data.DBXMetaDataReader.TDBXMetaDataCollectionColumns.CreateCatalogsColumns
 0001:00001734       Data.DBXMetaDataReader.TDBXMetaDataCollectionColumns.CreateColumnConstraintsColumns
 0001:0000172C       Data.DBXMetaDataReader.TDBXMetaDataCollectionColumns.CreateColumnsColumns
 0001:000016FC       Data.DBXMetaDataReader.TDBXMetaDataCollectionColumns.CreateDataTypesColumns
 0001:00001754       Data.DBXMetaDataReader.TDBXMetaDataCollectionColumns.CreateForeignKeyColumnsColumns
 0001:0000174C       Data.DBXMetaDataReader.TDBXMetaDataCollectionColumns.CreateForeignKeysColumns
 0001:00001744       Data.DBXMetaDataReader.TDBXMetaDataCollectionColumns.CreateIndexColumnsColumns
 0001:0000173C       Data.DBXMetaDataReader.TDBXMetaDataCollectionColumns.CreateIndexesColumns
 0001:00001784       Data.DBXMetaDataReader.TDBXMetaDataCollectionColumns.CreatePackageProcedureParametersColumns
 0001:0000177C       Data.DBXMetaDataReader.TDBXMetaDataCollectionColumns.CreatePackageProceduresColumns
 0001:00001774       Data.DBXMetaDataReader.TDBXMetaDataCollectionColumns.CreatePackagesColumns
 0001:0000178C       Data.DBXMetaDataReader.TDBXMetaDataCollectionColumns.CreatePackageSourcesColumns
 0001:0000176C       Data.DBXMetaDataReader.TDBXMetaDataCollectionColumns.CreateProcedureParametersColumns
 0001:0000175C       Data.DBXMetaDataReader.TDBXMetaDataCollectionColumns.CreateProceduresColumns
 0001:00001764       Data.DBXMetaDataReader.TDBXMetaDataCollectionColumns.CreateProcedureSourcesColumns
 0001:000017A4       Data.DBXMetaDataReader.TDBXMetaDataCollectionColumns.CreateReservedWordsColumns
 0001:0000179C       Data.DBXMetaDataReader.TDBXMetaDataCollectionColumns.CreateRolesColumns
 0001:0000170C       Data.DBXMetaDataReader.TDBXMetaDataCollectionColumns.CreateSchemasColumns
 0001:00001724       Data.DBXMetaDataReader.TDBXMetaDataCollectionColumns.CreateSynonymsColumns
 0001:00001714       Data.DBXMetaDataReader.TDBXMetaDataCollectionColumns.CreateTablesColumns
 0001:00001794       Data.DBXMetaDataReader.TDBXMetaDataCollectionColumns.CreateUsersColumns
 0001:0000171C       Data.DBXMetaDataReader.TDBXMetaDataCollectionColumns.CreateViewsColumns
 0001:000019E4       Data.DBXMetaDataReader.TDBXReservedWordsCursor.Create
 0001:000019EC       Data.DBXMetaDataReader.TDBXTableTypeParser.ParseTableTypes
 0001:000012FC       Data.DBXPlatform.FreeObjectArray
 0001:000012F4       Data.DBXPlatform.IncrAfter
 0001:00001304       Data.DBXPlatform.TDBXObjectStore.SetObjectByName
 0001:00001314       Data.DBXPlatform.TDBXPlatform.CopyWideStringBuilder
 0001:0000130C       Data.DBXPlatform.TDBXPlatform.CreateWideStringBuilder
 0001:0000131C       Data.DBXPlatform.TDBXPlatform.FreeAndNilWideStringBuilder
 0002:00000110       Data.FmtBcd.Data.FmtBcd
 0001:000012DC       Data.FmtBcd.Finalization
 0002:00000108       Data.SqlTimSt.Data.SqlTimSt
 0001:000012D4       Data.SqlTimSt.Finalization
 0004:00000034       Dbx34Drv..71
 0001:00039280       Dbx34Drv..EDBXError
 0001:0003931C       Dbx34Drv..EDbxOODBCDriverError
 0001:00039C78       Dbx34Drv..TDBXCustomOpenODBCMetaDataReader
 0001:00039B84       Dbx34Drv..TDBXDataExpressProviderContextOpenOdbc
 0001:000398F4       Dbx34Drv..TDBXDynalinkConnectionOpenOdbc
 0001:0003981C       Dbx34Drv..TDBXDynalinkDriverLoaderOpenOdbc
 0001:00039A58       Dbx34Drv..TDBXMorphicCommandOpenOdbc
 0001:00039528       Dbx34Drv..TDbxOpenOdbcDriver
 0001:00039E90       Dbx34Drv..TDBXOpenODBCMetaDataCommand
 0001:0003A034       Dbx34Drv..TDBXOpenODBCMetaDataCommandFactory
 0001:0003A140       Dbx34Drv..TDBXOpenODBCMetaDataCommandFactoryCustom
 0001:0003A224       Dbx34Drv..TDBXOpenODBCMetaDataReader
 0001:000395FC       Dbx34Drv..TDBXOpenOdbcProperties
 0001:000393D0       Dbx34Drv..TDBXOpenOdbcPropertyNames
 0001:00039484       Dbx34Drv..TDBXPropertyNames
 0003:00000094       Dbx34Drv.bIsDbx34Drv
 0001:0003A7AC       Dbx34Drv.CheckGetVendorPropertyCommand
 0001:0003AA94       Dbx34Drv.CheckLibraryName
 0001:0003AA08       Dbx34Drv.CheckLibraryPath
 0001:0003A848       Dbx34Drv.CheckPathEnvironmet
 0001:0003AAE0       Dbx34Drv.CheckVendorLib
 0002:0000020C       Dbx34Drv.Dbx34Drv
 0001:0003A51C       Dbx34Drv.DBXStringArrayToErrorInfo
 0001:0003A420       Dbx34Drv.DBXStringArrayToNamedQueryParams
 0001:0003A668       Dbx34Drv.ErrorGetVendorPropertyCommand
 0001:0003E8B4       Dbx34Drv.Finalization
 0001:0003B734       Dbx34Drv.RaiseDriverVersionFailed
 0001:0003BFA4       Dbx34Drv.TDBXCustomOpenODBCMetaDataReader.CheckMetadata
 0001:0003C040       Dbx34Drv.TDBXCustomOpenODBCMetaDataReader.GetProductName
 0001:0003C0C0       Dbx34Drv.TDBXCustomOpenODBCMetaDataReader.GetSqlIdentifierQuoteChar
 0001:0003C084       Dbx34Drv.TDBXCustomOpenODBCMetaDataReader.GetSqlIdentifierQuotePrefix
 0001:0003C098       Dbx34Drv.TDBXCustomOpenODBCMetaDataReader.GetSqlIdentifierQuoteSuffix
 0001:0003C0D4       Dbx34Drv.TDBXCustomOpenODBCMetaDataReader.GetSqlProcedureQuoteChar
 0001:0003C0F8       Dbx34Drv.TDBXCustomOpenODBCMetaDataReader.GetUseAnsiStrings
 0001:0003BECC       Dbx34Drv.TDBXCustomOpenODBCMetaDataReader.InitMetadata
 0001:0003C0BC       Dbx34Drv.TDBXCustomOpenODBCMetaDataReader.IsDescendingIndexColumnsSupported
 0001:0003C0B8       Dbx34Drv.TDBXCustomOpenODBCMetaDataReader.IsDescendingIndexSupported
 0001:0003C0B0       Dbx34Drv.TDBXCustomOpenODBCMetaDataReader.IsLowerCaseIdentifiersSupported
 0001:0003C0E8       Dbx34Drv.TDBXCustomOpenODBCMetaDataReader.IsMultipleCommandsSupported
 0001:0003C0F0       Dbx34Drv.TDBXCustomOpenODBCMetaDataReader.IsNestedTransactionsSupported
 0001:0003C0AC       Dbx34Drv.TDBXCustomOpenODBCMetaDataReader.IsParameterMetadataSupported
 0001:0003C0F4       Dbx34Drv.TDBXCustomOpenODBCMetaDataReader.IsSetRowSizeSupported
 0001:0003C0EC       Dbx34Drv.TDBXCustomOpenODBCMetaDataReader.IsTransactionsSupported
 0001:0003C0B4       Dbx34Drv.TDBXCustomOpenODBCMetaDataReader.IsUpperCaseIdentifiersSupported
 0001:0003C028       Dbx34Drv.TDBXCustomOpenODBCMetaDataReader.SetContext
 0001:0003BDEC       Dbx34Drv.TDBXDynalinkConnectionOpenOdbc.Close
 0001:0003BDE0       Dbx34Drv.TDBXDynalinkConnectionOpenOdbc.DerivedClose
 0001:0003BDF4       Dbx34Drv.TDBXDynalinkConnectionOpenOdbc.DerivedCreateCommand
 0001:0003B72C       Dbx34Drv.TDBXDynalinkConnectionOpenOdbc.DerivedGetCommands
 0001:0003B730       Dbx34Drv.TDBXDynalinkConnectionOpenOdbc.DerivedGetCommandTypes
 0001:0003B7B8       Dbx34Drv.TDBXDynalinkConnectionOpenOdbc.DerivedOpen
 0001:0003BCF4       Dbx34Drv.TDBXDynalinkConnectionOpenOdbc.DoDerivedOpenAfter
 0001:0003B92C       Dbx34Drv.TDBXDynalinkConnectionOpenOdbc.DoDerivedOpenBefore
 0001:0003BDE4       Dbx34Drv.TDBXDynalinkConnectionOpenOdbc.GetDatabaseMetaData
 0001:0003B6F4       Dbx34Drv.TDBXDynalinkConnectionOpenOdbc.GetProductName
 0001:0003B6E0       Dbx34Drv.TDBXDynalinkConnectionOpenOdbc.GetProductVersion
 0001:0003BE08       Dbx34Drv.TDBXDynalinkConnectionOpenOdbc.GetVendorProperty
 0001:0003B6C8       Dbx34Drv.TDBXDynalinkDriverLoaderOpenOdbc.FreeOldLibrary
 0001:0003B42C       Dbx34Drv.TDBXDynalinkDriverLoaderOpenOdbc.LoadDriverLibraryAndMethodTable
 0001:0003BE84       Dbx34Drv.TDBXMorphicCommandOpenOdbc.Create
 0001:0003BEC4       Dbx34Drv.TDBXMorphicCommandOpenOdbc.DerivedExecuteQuery
 0001:0003AB28       Dbx34Drv.TDbxOpenOdbcDriver.Create
 0001:0003AC08       Dbx34Drv.TDbxOpenOdbcDriver.CreateCommandOpenOdbc
 0001:0003AC20       Dbx34Drv.TDbxOpenOdbcDriver.CreateConnection
 0001:0003ACF0       Dbx34Drv.TDbxOpenOdbcDriver.GetDriverPropertyNames
 0001:0003ACF8       Dbx34Drv.TDbxOpenOdbcDriver.GetDriverVersion
 0001:0003AC64       Dbx34Drv.TDbxOpenOdbcDriver.LoadDriverWithConnectionBuilder
 0001:0003C100       Dbx34Drv.TDBXOpenODBCMetaDataCommand.DerivedExecuteQuery
 0001:0003C314       Dbx34Drv.TDBXOpenODBCMetaDataCommandFactory.CreateCommand
 0001:0003C42C       Dbx34Drv.TDBXOpenODBCMetaDataCommandFactory.CreateMetaDataReader
 0001:0003C680       Dbx34Drv.TDBXOpenODBCMetaDataCommandFactory.CreateMetaDataReader
 0001:0003C11C       Dbx34Drv.TDBXOpenODBCMetaDataCommandFactory.GetMetaDataReaderClass
 0001:0003C3F4       Dbx34Drv.TDBXOpenODBCMetaDataCommandFactory.GetProductName
 0001:0003C124       Dbx34Drv.TDBXOpenODBCMetaDataCommandFactory.InitMetaDataReaderClass
 0001:0003C68C       Dbx34Drv.TDBXOpenODBCMetaDataCommandFactory.RegisterMetaDataCommandFactory
 0001:0003C694       Dbx34Drv.TDBXOpenODBCMetaDataCommandFactory.UnRegisterMetaDataCommandFactory
 0001:0003C108       Dbx34Drv.TDBXOpenODBCMetaDataCommandFactoryCustom.CreateMetaDataReader
 0001:0003C69C       Dbx34Drv.TDBXOpenODBCMetaDataReader.Create
 0001:0003C740       Dbx34Drv.TDBXOpenODBCMetaDataReader.FetchCatalogs
 0001:0003D01C       Dbx34Drv.TDBXOpenODBCMetaDataReader.FetchColumnConstraints
 0001:0003CEE4       Dbx34Drv.TDBXOpenODBCMetaDataReader.FetchColumns
 0001:0003C6D8       Dbx34Drv.TDBXOpenODBCMetaDataReader.FetchDataTypes
 0001:0003D154       Dbx34Drv.TDBXOpenODBCMetaDataReader.FetchForeignKeyColumns
 0001:0003D2A4       Dbx34Drv.TDBXOpenODBCMetaDataReader.FetchForeignKeys
 0001:0003D3D0       Dbx34Drv.TDBXOpenODBCMetaDataReader.FetchIndexColumns
 0001:0003D774       Dbx34Drv.TDBXOpenODBCMetaDataReader.FetchIndexes
 0001:0003E204       Dbx34Drv.TDBXOpenODBCMetaDataReader.FetchPackageProcedureParameters
 0001:0003E0C4       Dbx34Drv.TDBXOpenODBCMetaDataReader.FetchPackageProcedures
 0001:0003DF9C       Dbx34Drv.TDBXOpenODBCMetaDataReader.FetchPackages
 0001:0003E370       Dbx34Drv.TDBXOpenODBCMetaDataReader.FetchPackageSources
 0001:0003DE48       Dbx34Drv.TDBXOpenODBCMetaDataReader.FetchProcedureParameters
 0001:0003DAB8       Dbx34Drv.TDBXOpenODBCMetaDataReader.FetchProcedures
 0001:0003DBE8       Dbx34Drv.TDBXOpenODBCMetaDataReader.FetchProcedureSources
 0001:0003E654       Dbx34Drv.TDBXOpenODBCMetaDataReader.FetchReservedWords
 0001:0003E57C       Dbx34Drv.TDBXOpenODBCMetaDataReader.FetchRoles
 0001:0003C7C0       Dbx34Drv.TDBXOpenODBCMetaDataReader.FetchSchemas
 0001:0003DD20       Dbx34Drv.TDBXOpenODBCMetaDataReader.FetchSynonyms
 0001:0003C8E0       Dbx34Drv.TDBXOpenODBCMetaDataReader.FetchTables
 0001:0003E4A4       Dbx34Drv.TDBXOpenODBCMetaDataReader.FetchUsers
 0001:0003CDBC       Dbx34Drv.TDBXOpenODBCMetaDataReader.FetchViews
 0001:0003E788       Dbx34Drv.TDBXOpenODBCMetaDataReader.GetProductName
 0001:0003E7C0       Dbx34Drv.TDBXOpenODBCMetaDataReader.GetReservedWords
 0001:0003E7D4       Dbx34Drv.TDBXOpenODBCMetaDataReader.GetSqlForColumns
 0001:0003E7E0       Dbx34Drv.TDBXOpenODBCMetaDataReader.GetSqlForForeignKeyColumns
 0001:0003E7EC       Dbx34Drv.TDBXOpenODBCMetaDataReader.GetSqlForForeignKeys
 0001:0003E7F8       Dbx34Drv.TDBXOpenODBCMetaDataReader.GetSqlForIndexColumns
 0001:0003E804       Dbx34Drv.TDBXOpenODBCMetaDataReader.GetSqlForIndexes
 0001:0003E810       Dbx34Drv.TDBXOpenODBCMetaDataReader.GetSqlForPackageProcedureParameters
 0001:0003E81C       Dbx34Drv.TDBXOpenODBCMetaDataReader.GetSqlForPackageProcedures
 0001:0003E828       Dbx34Drv.TDBXOpenODBCMetaDataReader.GetSqlForPackages
 0001:0003E834       Dbx34Drv.TDBXOpenODBCMetaDataReader.GetSqlForPackageSources
 0001:0003E840       Dbx34Drv.TDBXOpenODBCMetaDataReader.GetSqlForProcedureParameters
 0001:0003E84C       Dbx34Drv.TDBXOpenODBCMetaDataReader.GetSqlForProcedures
 0001:0003E858       Dbx34Drv.TDBXOpenODBCMetaDataReader.GetSqlForProcedureSources
 0001:0003E864       Dbx34Drv.TDBXOpenODBCMetaDataReader.GetSqlForRoles
 0001:0003E870       Dbx34Drv.TDBXOpenODBCMetaDataReader.GetSqlForSchemas
 0001:0003E87C       Dbx34Drv.TDBXOpenODBCMetaDataReader.GetSqlForSynonyms
 0001:0003E888       Dbx34Drv.TDBXOpenODBCMetaDataReader.GetSqlForTables
 0001:0003E894       Dbx34Drv.TDBXOpenODBCMetaDataReader.GetSqlForUsers
 0001:0003E8A0       Dbx34Drv.TDBXOpenODBCMetaDataReader.GetSqlForViews
 0001:0003E8AC       Dbx34Drv.TDBXOpenODBCMetaDataReader.IsNestedTransactionsSupported
 0001:0003E8B0       Dbx34Drv.TDBXOpenODBCMetaDataReader.IsSetRowSizeSupported
 0001:0003AD34       Dbx34Drv.TDBXOpenOdbcProperties.Create
 0001:0003B09C       Dbx34Drv.TDBXOpenOdbcProperties.GetBlobSize
 0001:0003AEDC       Dbx34Drv.TDBXOpenOdbcProperties.GetConnectionString
 0001:0003B3B4       Dbx34Drv.TDBXOpenOdbcProperties.GetCustomString
 0001:0003AF64       Dbx34Drv.TDBXOpenOdbcProperties.GetDatabase
 0001:0003B240       Dbx34Drv.TDBXOpenOdbcProperties.GetDecimalSeparator
 0001:0003B190       Dbx34Drv.TDBXOpenOdbcProperties.GetOdbcTransIsolation
 0001:0003B034       Dbx34Drv.TDBXOpenOdbcProperties.GetPassWord
 0001:0003B2C8       Dbx34Drv.TDBXOpenOdbcProperties.GetTrimChar
 0001:0003AFCC       Dbx34Drv.TDBXOpenOdbcProperties.GetUserName
 0001:0003B118       Dbx34Drv.TDBXOpenOdbcProperties.SetBlobSize
 0001:0003AF24       Dbx34Drv.TDBXOpenOdbcProperties.SetConnectionString
 0001:0003B3F4       Dbx34Drv.TDBXOpenOdbcProperties.SetCustomString
 0001:0003AF9C       Dbx34Drv.TDBXOpenOdbcProperties.SetDatabase
 0001:0003B288       Dbx34Drv.TDBXOpenOdbcProperties.SetDecimalSeparator
 0001:0003B1EC       Dbx34Drv.TDBXOpenOdbcProperties.SetOdbcTransIsolation
 0001:0003B06C       Dbx34Drv.TDBXOpenOdbcProperties.SetPassWord
 0001:0003B33C       Dbx34Drv.TDBXOpenOdbcProperties.SetTrimChar
 0001:0003B004       Dbx34Drv.TDBXOpenOdbcProperties.SetUserName
 0004:00000030       Dbx34DrvDbms..52
 0001:00002F68       Dbx34DrvDbms..TDBXOpenODBCMetaDataCommandFactoryDataStorage
 0001:00002978       Dbx34DrvDbms..TDBXOpenODBCMetaDataCommandFactoryDB2
 0001:0000326C       Dbx34DrvDbms..TDBXOpenODBCMetaDataCommandFactoryFirebird
 0001:00002C5C       Dbx34DrvDbms..TDBXOpenODBCMetaDataCommandFactoryInformix
 0001:00003578       Dbx34DrvDbms..TDBXOpenODBCMetaDataCommandFactoryInterbase
 0001:00001DA8       Dbx34DrvDbms..TDBXOpenODBCMetaDataCommandFactoryMSSQL
 0001:00002094       Dbx34DrvDbms..TDBXOpenODBCMetaDataCommandFactoryMySQL
 0001:00001AB4       Dbx34DrvDbms..TDBXOpenODBCMetaDataCommandFactoryOracle
 0001:00003B78       Dbx34DrvDbms..TDBXOpenODBCMetaDataCommandFactoryPostgreSQL
 0001:00003884       Dbx34DrvDbms..TDBXOpenODBCMetaDataCommandFactorySQLite
 0001:00002380       Dbx34DrvDbms..TDBXOpenODBCMetaDataCommandFactorySybaseASA
 0001:0000267C       Dbx34DrvDbms..TDBXOpenODBCMetaDataCommandFactorySybaseASE
 0001:00003058       Dbx34DrvDbms..TDBXOpenODBCMetaDataReaderDataStorage
 0001:00002A58       Dbx34DrvDbms..TDBXOpenODBCMetaDataReaderDB2
 0001:00003358       Dbx34DrvDbms..TDBXOpenODBCMetaDataReaderFirebird
 0001:00002D48       Dbx34DrvDbms..TDBXOpenODBCMetaDataReaderInformix
 0001:00003664       Dbx34DrvDbms..TDBXOpenODBCMetaDataReaderInterbase
 0001:00001E8C       Dbx34DrvDbms..TDBXOpenODBCMetaDataReaderMSSQL
 0001:00002178       Dbx34DrvDbms..TDBXOpenODBCMetaDataReaderMySQL
 0001:00001B9C       Dbx34DrvDbms..TDBXOpenODBCMetaDataReaderOracle
 0001:00003C68       Dbx34DrvDbms..TDBXOpenODBCMetaDataReaderPostgreSQL
 0001:0000396C       Dbx34DrvDbms..TDBXOpenODBCMetaDataReaderSQLite
 0001:0000246C       Dbx34DrvDbms..TDBXOpenODBCMetaDataReaderSybaseASA
 0001:00002768       Dbx34DrvDbms..TDBXOpenODBCMetaDataReaderSybaseASE
 0002:00000188       Dbx34DrvDbms.Dbx34DrvDbms
 0001:000391FC       Dbx34DrvDbms.Finalization
 0001:0002C744       Dbx34DrvDbms.TDBXOpenODBCMetaDataCommandFactoryDataStorage.GetMetaDataReaderClass
 0001:0001F040       Dbx34DrvDbms.TDBXOpenODBCMetaDataCommandFactoryDB2.GetMetaDataReaderClass
 0001:0002CA80       Dbx34DrvDbms.TDBXOpenODBCMetaDataCommandFactoryFirebird.GetMetaDataReaderClass
 0001:00024024       Dbx34DrvDbms.TDBXOpenODBCMetaDataCommandFactoryInformix.GetMetaDataReaderClass
 0001:0003192C       Dbx34DrvDbms.TDBXOpenODBCMetaDataCommandFactoryInterbase.GetMetaDataReaderClass
 0001:00006CD4       Dbx34DrvDbms.TDBXOpenODBCMetaDataCommandFactoryMSSQL.GetMetaDataReaderClass
 0001:0000F164       Dbx34DrvDbms.TDBXOpenODBCMetaDataCommandFactoryMySQL.GetMetaDataReaderClass
 0001:00003E7C       Dbx34DrvDbms.TDBXOpenODBCMetaDataCommandFactoryOracle.GetMetaDataReaderClass
 0001:000367EC       Dbx34DrvDbms.TDBXOpenODBCMetaDataCommandFactoryPostgreSQL.GetMetaDataReaderClass
 0001:000367D8       Dbx34DrvDbms.TDBXOpenODBCMetaDataCommandFactorySQLite.GetMetaDataReaderClass
 0001:00013B54       Dbx34DrvDbms.TDBXOpenODBCMetaDataCommandFactorySybaseASA.GetMetaDataReaderClass
 0001:00019718       Dbx34DrvDbms.TDBXOpenODBCMetaDataCommandFactorySybaseASE.GetMetaDataReaderClass
 0001:0002C864       Dbx34DrvDbms.TDBXOpenODBCMetaDataReaderDataStorage.GetSqlForColumns
 0001:0002C9B8       Dbx34DrvDbms.TDBXOpenODBCMetaDataReaderDataStorage.GetSqlForIndexColumns
 0001:0002C914       Dbx34DrvDbms.TDBXOpenODBCMetaDataReaderDataStorage.GetSqlForIndexes
 0001:0002C74C       Dbx34DrvDbms.TDBXOpenODBCMetaDataReaderDataStorage.GetSqlForTables
 0001:00023A2C       Dbx34DrvDbms.TDBXOpenODBCMetaDataReaderDB2.GetDataTypeDescriptions
 0001:0001F048       Dbx34DrvDbms.TDBXOpenODBCMetaDataReaderDB2.GetProductName
 0001:00020198       Dbx34DrvDbms.TDBXOpenODBCMetaDataReaderDB2.GetReservedWords
 0001:0001F618       Dbx34DrvDbms.TDBXOpenODBCMetaDataReaderDB2.GetSqlForColumns
 0001:0001FD3C       Dbx34DrvDbms.TDBXOpenODBCMetaDataReaderDB2.GetSqlForIndexColumns
 0001:0001F99C       Dbx34DrvDbms.TDBXOpenODBCMetaDataReaderDB2.GetSqlForIndexes
 0001:0001F070       Dbx34DrvDbms.TDBXOpenODBCMetaDataReaderDB2.GetSqlForTables
 0001:00023A20       Dbx34DrvDbms.TDBXOpenODBCMetaDataReaderDB2.GetSqlProcedureQuoteChar
 0001:000239E8       Dbx34DrvDbms.TDBXOpenODBCMetaDataReaderDB2.GetSystemTableType
 0001:00023978       Dbx34DrvDbms.TDBXOpenODBCMetaDataReaderDB2.GetTableType
 0001:000239B0       Dbx34DrvDbms.TDBXOpenODBCMetaDataReaderDB2.GetViewType
 0001:0002CABC       Dbx34DrvDbms.TDBXOpenODBCMetaDataReaderFirebird.Destroy
 0001:00031254       Dbx34DrvDbms.TDBXOpenODBCMetaDataReaderFirebird.GetAllDataTypes
 0001:0003186C       Dbx34DrvDbms.TDBXOpenODBCMetaDataReaderFirebird.GetDataTypeDescriptions
 0001:0002CA88       Dbx34DrvDbms.TDBXOpenODBCMetaDataReaderFirebird.GetProductName
 0001:0002DD40       Dbx34DrvDbms.TDBXOpenODBCMetaDataReaderFirebird.GetReservedWords
 0001:0002CF18       Dbx34DrvDbms.TDBXOpenODBCMetaDataReaderFirebird.GetSqlForColumns
 0001:0002D824       Dbx34DrvDbms.TDBXOpenODBCMetaDataReaderFirebird.GetSqlForIndexColumns
 0001:0002D3CC       Dbx34DrvDbms.TDBXOpenODBCMetaDataReaderFirebird.GetSqlForIndexes
 0001:0002CAE8       Dbx34DrvDbms.TDBXOpenODBCMetaDataReaderFirebird.GetSqlForTables
 0001:000311A4       Dbx34DrvDbms.TDBXOpenODBCMetaDataReaderFirebird.IsDescendingIndexColumnsSupported
 0001:000311A8       Dbx34DrvDbms.TDBXOpenODBCMetaDataReaderFirebird.SetContext
 0001:0002407C       Dbx34DrvDbms.TDBXOpenODBCMetaDataReaderInformix.Destroy
 0001:0002BDE0       Dbx34DrvDbms.TDBXOpenODBCMetaDataReaderInformix.GetAllDataTypes
 0001:0002C640       Dbx34DrvDbms.TDBXOpenODBCMetaDataReaderInformix.GetDataTypeDescriptions
 0001:0002402C       Dbx34DrvDbms.TDBXOpenODBCMetaDataReaderInformix.GetProductName
 0001:00026128       Dbx34DrvDbms.TDBXOpenODBCMetaDataReaderInformix.GetReservedWords
 0001:0002467C       Dbx34DrvDbms.TDBXOpenODBCMetaDataReaderInformix.GetSqlForColumns
 0001:00024F58       Dbx34DrvDbms.TDBXOpenODBCMetaDataReaderInformix.GetSqlForIndexColumns
 0001:00024AC4       Dbx34DrvDbms.TDBXOpenODBCMetaDataReaderInformix.GetSqlForIndexes
 0001:000240A8       Dbx34DrvDbms.TDBXOpenODBCMetaDataReaderInformix.GetSqlForTables
 0001:0002BDA4       Dbx34DrvDbms.TDBXOpenODBCMetaDataReaderInformix.GetSynonymType
 0001:0002BD6C       Dbx34DrvDbms.TDBXOpenODBCMetaDataReaderInformix.GetSystemTableType
 0001:0002BCFC       Dbx34DrvDbms.TDBXOpenODBCMetaDataReaderInformix.GetTableType
 0001:0002BD34       Dbx34DrvDbms.TDBXOpenODBCMetaDataReaderInformix.GetViewType
 0001:0002BDDC       Dbx34DrvDbms.TDBXOpenODBCMetaDataReaderInformix.IsUpperCaseIdentifiersSupported
 0001:00031968       Dbx34DrvDbms.TDBXOpenODBCMetaDataReaderInterbase.Destroy
 0001:00036100       Dbx34DrvDbms.TDBXOpenODBCMetaDataReaderInterbase.GetAllDataTypes
 0001:00036718       Dbx34DrvDbms.TDBXOpenODBCMetaDataReaderInterbase.GetDataTypeDescriptions
 0001:00031934       Dbx34DrvDbms.TDBXOpenODBCMetaDataReaderInterbase.GetProductName
 0001:00032BEC       Dbx34DrvDbms.TDBXOpenODBCMetaDataReaderInterbase.GetReservedWords
 0001:00031DC4       Dbx34DrvDbms.TDBXOpenODBCMetaDataReaderInterbase.GetSqlForColumns
 0001:000326D0       Dbx34DrvDbms.TDBXOpenODBCMetaDataReaderInterbase.GetSqlForIndexColumns
 0001:00032278       Dbx34DrvDbms.TDBXOpenODBCMetaDataReaderInterbase.GetSqlForIndexes
 0001:00031994       Dbx34DrvDbms.TDBXOpenODBCMetaDataReaderInterbase.GetSqlForTables
 0001:00036050       Dbx34DrvDbms.TDBXOpenODBCMetaDataReaderInterbase.IsDescendingIndexColumnsSupported
 0001:00036054       Dbx34DrvDbms.TDBXOpenODBCMetaDataReaderInterbase.SetContext
 0001:0000E1B4       Dbx34DrvDbms.TDBXOpenODBCMetaDataReaderMSSQL.GetDataTypeDescriptions
 0001:00006CDC       Dbx34DrvDbms.TDBXOpenODBCMetaDataReaderMSSQL.GetProductName
 0001:00009994       Dbx34DrvDbms.TDBXOpenODBCMetaDataReaderMSSQL.GetReservedWords
 0001:00007640       Dbx34DrvDbms.TDBXOpenODBCMetaDataReaderMSSQL.GetSqlForColumns
 0001:00008F18       Dbx34DrvDbms.TDBXOpenODBCMetaDataReaderMSSQL.GetSqlForIndexColumns
 0001:000083F0       Dbx34DrvDbms.TDBXOpenODBCMetaDataReaderMSSQL.GetSqlForIndexes
 0001:00006D28       Dbx34DrvDbms.TDBXOpenODBCMetaDataReaderMSSQL.GetSqlForTables
 0001:0000E050       Dbx34DrvDbms.TDBXOpenODBCMetaDataReaderMSSQL.GetSqlIdentifierQuotePrefix
 0001:0000E074       Dbx34DrvDbms.TDBXOpenODBCMetaDataReaderMSSQL.GetSqlIdentifierQuoteSuffix
 0001:0000E178       Dbx34DrvDbms.TDBXOpenODBCMetaDataReaderMSSQL.GetSynonymType
 0001:0000E108       Dbx34DrvDbms.TDBXOpenODBCMetaDataReaderMSSQL.GetSystemTableType
 0001:0000E140       Dbx34DrvDbms.TDBXOpenODBCMetaDataReaderMSSQL.GetSystemViewType
 0001:0000E098       Dbx34DrvDbms.TDBXOpenODBCMetaDataReaderMSSQL.GetTableType
 0001:0000E0D0       Dbx34DrvDbms.TDBXOpenODBCMetaDataReaderMSSQL.GetViewType
 0001:00012E18       Dbx34DrvDbms.TDBXOpenODBCMetaDataReaderMySQL.GetDataTypeDescriptions
 0001:0000F16C       Dbx34DrvDbms.TDBXOpenODBCMetaDataReaderMySQL.GetProductName
 0001:000102F8       Dbx34DrvDbms.TDBXOpenODBCMetaDataReaderMySQL.GetReservedWords
 0001:0000F540       Dbx34DrvDbms.TDBXOpenODBCMetaDataReaderMySQL.GetSqlForColumns
 0001:0000FF54       Dbx34DrvDbms.TDBXOpenODBCMetaDataReaderMySQL.GetSqlForIndexColumns
 0001:0000FBA4       Dbx34DrvDbms.TDBXOpenODBCMetaDataReaderMySQL.GetSqlForIndexes
 0001:0000F198       Dbx34DrvDbms.TDBXOpenODBCMetaDataReaderMySQL.GetSqlForTables
 0001:00012C54       Dbx34DrvDbms.TDBXOpenODBCMetaDataReaderMySQL.GetSqlIdentifierQuoteChar
 0001:00012C0C       Dbx34DrvDbms.TDBXOpenODBCMetaDataReaderMySQL.GetSqlIdentifierQuotePrefix
 0001:00012C30       Dbx34DrvDbms.TDBXOpenODBCMetaDataReaderMySQL.GetSqlIdentifierQuoteSuffix
 0001:00012C78       Dbx34DrvDbms.TDBXOpenODBCMetaDataReaderMySQL.GetTableType
 0001:00012CC4       Dbx34DrvDbms.TDBXOpenODBCMetaDataReaderMySQL.IsDescendingIndexColumnsSupported
 0001:00012CCC       Dbx34DrvDbms.TDBXOpenODBCMetaDataReaderMySQL.IsMultipleCommandsSupported
 0001:00012CC8       Dbx34DrvDbms.TDBXOpenODBCMetaDataReaderMySQL.IsUpperCaseIdentifiersSupported
 0001:00012D7C       Dbx34DrvDbms.TDBXOpenODBCMetaDataReaderMySQL.PopulateDataTypes
 0001:00012CD0       Dbx34DrvDbms.TDBXOpenODBCMetaDataReaderMySQL.SetContext
 0001:00005FB4       Dbx34DrvDbms.TDBXOpenODBCMetaDataReaderOracle.GetDataTypeDescriptions
 0001:00003E84       Dbx34DrvDbms.TDBXOpenODBCMetaDataReaderOracle.GetProductName
 0001:000050C8       Dbx34DrvDbms.TDBXOpenODBCMetaDataReaderOracle.GetReservedWords
 0001:000044E4       Dbx34DrvDbms.TDBXOpenODBCMetaDataReaderOracle.GetSqlForColumns
 0001:00004C00       Dbx34DrvDbms.TDBXOpenODBCMetaDataReaderOracle.GetSqlForIndexColumns
 0001:00004804       Dbx34DrvDbms.TDBXOpenODBCMetaDataReaderOracle.GetSqlForIndexes
 0001:00003EB4       Dbx34DrvDbms.TDBXOpenODBCMetaDataReaderOracle.GetSqlForSchemas
 0001:00003F90       Dbx34DrvDbms.TDBXOpenODBCMetaDataReaderOracle.GetSqlForTables
 0001:00005E80       Dbx34DrvDbms.TDBXOpenODBCMetaDataReaderOracle.PopulateDataTypes
 0001:00038A80       Dbx34DrvDbms.TDBXOpenODBCMetaDataReaderPostgreSQL.GetReservedWords
 0001:00036D98       Dbx34DrvDbms.TDBXOpenODBCMetaDataReaderPostgreSQL.GetSqlForColumns
 0001:00037B94       Dbx34DrvDbms.TDBXOpenODBCMetaDataReaderPostgreSQL.GetSqlForIndexColumns
 0001:0003758C       Dbx34DrvDbms.TDBXOpenODBCMetaDataReaderPostgreSQL.GetSqlForIndexes
 0001:000367F4       Dbx34DrvDbms.TDBXOpenODBCMetaDataReaderPostgreSQL.GetSqlForTables
 0001:000367E0       Dbx34DrvDbms.TDBXOpenODBCMetaDataReaderSQLite.GetSqlForTables
 0001:00018B6C       Dbx34DrvDbms.TDBXOpenODBCMetaDataReaderSybaseASA.GetDataTypeDescriptions
 0001:00013B5C       Dbx34DrvDbms.TDBXOpenODBCMetaDataReaderSybaseASA.GetProductName
 0001:000162B0       Dbx34DrvDbms.TDBXOpenODBCMetaDataReaderSybaseASA.GetReservedWords
 0001:000142DC       Dbx34DrvDbms.TDBXOpenODBCMetaDataReaderSybaseASA.GetSqlForColumns
 0001:0001542C       Dbx34DrvDbms.TDBXOpenODBCMetaDataReaderSybaseASA.GetSqlForIndexColumns
 0001:000147C8       Dbx34DrvDbms.TDBXOpenODBCMetaDataReaderSybaseASA.GetSqlForIndexes
 0001:00013D10       Dbx34DrvDbms.TDBXOpenODBCMetaDataReaderSybaseASA.GetSqlForTables
 0001:00018AEC       Dbx34DrvDbms.TDBXOpenODBCMetaDataReaderSybaseASA.GetSystemTableType
 0001:00018B2C       Dbx34DrvDbms.TDBXOpenODBCMetaDataReaderSybaseASA.GetSystemViewType
 0001:00018A6C       Dbx34DrvDbms.TDBXOpenODBCMetaDataReaderSybaseASA.GetTableType
 0001:00018AAC       Dbx34DrvDbms.TDBXOpenODBCMetaDataReaderSybaseASA.GetViewType
 0001:00013BB0       Dbx34DrvDbms.TDBXOpenODBCMetaDataReaderSybaseASA.SetContext
 0001:0001E3F8       Dbx34DrvDbms.TDBXOpenODBCMetaDataReaderSybaseASE.GetDataTypeDescriptions
 0001:00019720       Dbx34DrvDbms.TDBXOpenODBCMetaDataReaderSybaseASE.GetProductName
 0001:0001A8DC       Dbx34DrvDbms.TDBXOpenODBCMetaDataReaderSybaseASE.GetReservedWords
 0001:00019ADC       Dbx34DrvDbms.TDBXOpenODBCMetaDataReaderSybaseASE.GetSqlForColumns
 0001:0001A3F4       Dbx34DrvDbms.TDBXOpenODBCMetaDataReaderSybaseASE.GetSqlForIndexColumns
 0001:0001A088       Dbx34DrvDbms.TDBXOpenODBCMetaDataReaderSybaseASE.GetSqlForIndexes
 0001:00019764       Dbx34DrvDbms.TDBXOpenODBCMetaDataReaderSybaseASE.GetSqlForTables
 0001:0001E3C0       Dbx34DrvDbms.TDBXOpenODBCMetaDataReaderSybaseASE.GetSystemTableType
 0001:0001E350       Dbx34DrvDbms.TDBXOpenODBCMetaDataReaderSybaseASE.GetTableType
 0001:0001E388       Dbx34DrvDbms.TDBXOpenODBCMetaDataReaderSybaseASE.GetViewType
 0004:00000040       DbxDBFix..1
 0002:000002C4       DbxDBFix.DbxDBFix
 0001:000400A4       DbxDBFix.Finalization
 0004:0000003C       DbxOpenOdbcApiHook..2
 0001:0003EA80       DbxOpenOdbcApiHook..TIATPatch
 0002:000002BC       DbxOpenOdbcApiHook.DbxOpenOdbcApiHook
 0001:0004009C       DbxOpenOdbcApiHook.Finalization
 0001:0004000C       DbxOpenOdbcApiHook.FindVirtualMethodIndex
 0001:00040084       DbxOpenOdbcApiHook.FxtGetStubAddress
 0001:0003F09C       DbxOpenOdbcApiHook.GetNativeAddr
 0001:0003FF78       DbxOpenOdbcApiHook.GetVirtualMethodAddress
 0001:0004006C       DbxOpenOdbcApiHook.GetVirtualMethodOffset
 0001:0003EE90       DbxOpenOdbcApiHook.HookCode
 0001:0003EFA0       DbxOpenOdbcApiHook.HookProc
 0001:0003F284       DbxOpenOdbcApiHook.IsJumpFromCode
 0001:0003F0C0       DbxOpenOdbcApiHook.JumpFromCode
 0003:00000098       DbxOpenOdbcApiHook.Opcodes1
 0003:00000298       DbxOpenOdbcApiHook.Opcodes2
 0003:00000498       DbxOpenOdbcApiHook.Opcodes3
 0001:0003F198       DbxOpenOdbcApiHook.RestoreSavedCode
 0001:0003EE48       DbxOpenOdbcApiHook.SaveOldFunction
 0001:0003FF84       DbxOpenOdbcApiHook.SetVirtualMethodAddress
 0001:0003EB60       DbxOpenOdbcApiHook.SizeOfCode
 0001:0003EE24       DbxOpenOdbcApiHook.SizeOfProc
 0001:0003F628       DbxOpenOdbcApiHook.TIATPatch.BuildIATPatchList
 0001:0003FC04       DbxOpenOdbcApiHook.TIATPatch.Clear
 0001:0003F300       DbxOpenOdbcApiHook.TIATPatch.CompareLibraryNames
 0001:0003FE84       DbxOpenOdbcApiHook.TIATPatch.Create
 0001:0003FB2C       DbxOpenOdbcApiHook.TIATPatch.Delete
 0001:0003FED8       DbxOpenOdbcApiHook.TIATPatch.Destroy
 0001:0003F448       DbxOpenOdbcApiHook.TIATPatch.EnumIATList
 0001:0003F9F8       DbxOpenOdbcApiHook.TIATPatch.Find
 0001:0003FE2C       DbxOpenOdbcApiHook.TIATPatch.GetCount
 0001:0003FD24       DbxOpenOdbcApiHook.TIATPatch.GetPatchRecord
 0001:0003FD84       DbxOpenOdbcApiHook.TIATPatch.GetUnpatchOnFree
 0001:0003F2E0       DbxOpenOdbcApiHook.TIATPatch.ListContainsIAT
 0001:0003F2AC       DbxOpenOdbcApiHook.TIATPatch.NextFunctionName
 0001:0003F7D8       DbxOpenOdbcApiHook.TIATPatch.Patch
 0001:0003FDDC       DbxOpenOdbcApiHook.TIATPatch.SetUnpatchOnFree
 0001:0003F6BC       DbxOpenOdbcApiHook.TIATPatch.Unpatch
 0001:0003F3C8       DbxOpenOdbcApiHook.TIATPatch.UpdateEntry
 0001:0003F414       DbxOpenOdbcApiHook.TIATPatch.UpdatePatch
 0001:0003EFE8       DbxOpenOdbcApiHook.UnhookCode
 0004:00000038       DbxXXDrv..1
 0002:000002B4       DbxXXDrv.DbxXXDrv
 0001:0003E94C       DbxXXDrv.Finalization
 0001:0003E948       DbxXXDrv.IsDbxDrvFixed
 0001:00000DFC       SysInit...
 0003:00000034       SysInit...
 0001:00000F04       SysInit...
 0001:00000EF4       SysInit...
 0001:00000E0C       SysInit...
 0001:00000ED0       SysInit...
 0001:00000E1C       SysInit...
 0001:00000EA8       SysInit...
 0001:00000E2C       SysInit...
 0001:00000E3C       SysInit...
 0001:00000E4C       SysInit...
 0001:00000E60       SysInit...
 0001:00000E90       SysInit...
 0004:00000018       SysInit..1
 0001:000008D0       SysInit.@InitPkg
 0001:00000934       SysInit.@PackageLoad
 0001:00000940       SysInit.@PackageUnload
 0001:000003B0       SysInit.@_dbkDummyProc
 0001:000003B4       SysInit.@_dbkFCallArgs
 0001:000007A4       SysInit.@_dbk_fcall_wrapper
 0001:0000094C       SysInit.@_delayLoadHelper2
 0001:00000C2C       SysInit.@_FUnloadDelayLoadedDLL2
 0001:00000D3C       SysInit.@_HrLoadAllImportsForDll
 0004:00000014       SysInit.@_pfnDliFailureHook2
 0004:00000010       SysInit.@_pfnDliNotifyHook2
 0001:000002A0       SysInit.AllocTlsBuffer
 0004:0000000C       SysInit.dbkFCallWrapperAddr
 0001:0000035C       SysInit.ExitProcessTLS
 0001:00000324       SysInit.ExitThreadTLS
 0001:00000F14       SysInit.Finalization
 0001:00000248       SysInit.FreeLibrary
 0001:00000280       SysInit.GetLastError
 0001:00000298       SysInit.GetProcAddress
 0001:000002AC       SysInit.GetTlsSize
 0004:00000004       SysInit.HInstance
 0001:00000380       SysInit.InitializeModule
 0001:000002F8       SysInit.InitProcessTLS
 0001:000002B4       SysInit.InitThreadTLS
 0001:00000238       SysInit.InterlockedExchange
 0001:00000288       SysInit.LoadLibraryA
 0001:00000250       SysInit.LocalAlloc
 0001:00000258       SysInit.LocalFree
 0003:00000008       SysInit.Module
 0004:00000000       SysInit.ModuleIsLib
 0004:00000001       SysInit.ModuleIsPackage
 0003:00000004       SysInit.PtrToNil
 0001:00000290       SysInit.RaiseException
 0001:00000DF4       SysInit.ShutdownDelayHelp2
 0002:00000008       SysInit.SysInit
 0001:00000260       SysInit.TlsAlloc
 0004:0000001C       SysInit.tlsBuffer
 0001:00000268       SysInit.TlsFree
 0001:00000270       SysInit.TlsGetValue
 0003:00000000       SysInit.TlsIndex
 0005:00000000       SysInit.TlsLast
 0003:00000024       SysInit.TlsProc
 0001:00000278       SysInit.TlsSetValue
 0001:0000038C       SysInit.UninitializeModule
 0004:FFFBC000       SysInit.__ImageBase
 0001:000001E8       System.@AddRefRecord
 0001:000000C0       System.@AfterConstruction
 0001:000000C8       System.@BeforeDestruction
 0001:000000B0       System.@ClassCreate
 0001:000000B8       System.@ClassDestroy
 0001:000000F8       System.@DoneExcept
 0001:00000218       System.@DynArrayAddRef
 0001:00000210       System.@DynArrayAsg
 0001:00000208       System.@DynArrayClear
 0001:000001F8       System.@DynArrayHigh
 0001:000001F0       System.@DynArrayLength
 0001:00000200       System.@DynArraySetLength
 0001:00000020       System.@FillChar
 0001:000001E0       System.@FinalizeArray
 0001:000001D8       System.@FinalizeRecord
 0001:00000010       System.@FreeMem
 0001:00000008       System.@GetMem
 0001:000000D0       System.@HandleAnyException
 0001:000000E0       System.@HandleFinally
 0001:000000D8       System.@HandleOnException
 0001:00000070       System.@IsClass
 0001:00000130       System.@LStrArrayClr
 0001:00000120       System.@LStrClr
 0001:00000160       System.@LStrFromPWChar
 0001:00000178       System.@LStrFromUStr
 0001:00000158       System.@LStrLen
 0001:00000170       System.@LStrSetLength
 0001:00000168       System.@LStrToPChar
 0001:00000100       System.@PackageLoad
 0001:00000108       System.@PackageUnload
 0001:000000F0       System.@RaiseAgain
 0001:000000E8       System.@RaiseExcept
 0001:00000110       System.@RunError
 0001:00000138       System.@UStrAddRef
 0001:00000128       System.@UStrArrayClr
 0001:00000140       System.@UStrAsg
 0001:000001A8       System.@UStrCat3
 0001:000001B0       System.@UStrCatN
 0001:00000118       System.@UStrClr
 0001:000001B8       System.@UStrCmp
 0001:000001C8       System.@UStrCopy
 0001:000001C0       System.@UStrEqual
 0001:00000198       System.@UStrFromLStr
 0001:00000188       System.@UStrFromPWChar
 0001:00000190       System.@UStrFromWArray
 0001:00000148       System.@UStrLAsg
 0001:00000150       System.@UStrLen
 0001:000001A0       System.@UStrSetLength
 0001:00000180       System.@UStrToPWChar
 0001:00000000       System.AllocMem
 0001:00000230       System.Finalization
 0001:00000018       System.Move
 0001:000001D0       System.Pos
 0001:00000220       System.RegisterModule
 0002:00000000       System.System
 0001:00000098       System.TObject.AfterConstruction
 0001:000000A0       System.TObject.BeforeDestruction
 0001:00000030       System.TObject.ClassName
 0001:00000028       System.TObject.ClassType
 0001:00000048       System.TObject.Create
 0001:00000090       System.TObject.DefaultHandler
 0001:00000050       System.TObject.Destroy
 0001:000000A8       System.TObject.Dispatch
 0001:00000060       System.TObject.Equals
 0001:00000058       System.TObject.Free
 0001:00000040       System.TObject.FreeInstance
 0001:00000068       System.TObject.GetHashCode
 0001:00000078       System.TObject.InheritsFrom
 0001:00000038       System.TObject.NewInstance
 0001:00000080       System.TObject.SafeCallException
 0001:00000088       System.TObject.ToString
 0001:00000228       System.UnregisterModule
 0001:000010E4       System.Character.Finalization
 0002:00000038       System.Character.System.Character
 0001:0000127C       System.Classes.Finalization
 0002:000000E0       System.Classes.System.Classes
 0002:000000D8       System.Classes.TBaseAsyncResult.Create@
 0001:00001274       System.Classes.TBaseAsyncResult.Destroy@
 0002:000000B8       System.Classes.TBinaryWriter.Create@
 0001:0000125C       System.Classes.TBinaryWriter.Destroy@
 0002:000000C8       System.Classes.TComponent.Create@
 0001:00001214       System.Classes.TComponent.Destroy@
 0001:0000121C       System.Classes.TList.Add
 0001:00001224       System.Classes.TList.Delete
 0001:0000122C       System.Classes.TList.Get
 0001:00001234       System.Classes.TList.Remove
 0002:000000D0       System.Classes.TLoginCredentialService.Create@
 0001:00001264       System.Classes.TLoginCredentialService.Destroy@
 0002:000000B0       System.Classes.TObserverMapping.Create@
 0001:0000126C       System.Classes.TObserverMapping.Destroy@
 0001:0000123C       System.Classes.TPersistent.Assign
 0001:00001244       System.Classes.TPersistent.AssignTo
 0001:0000124C       System.Classes.TPersistent.DefineProperties
 0002:000000C0       System.Classes.TThread.Create@
 0001:00001254       System.Classes.TThread.Destroy@
 0001:000012C4       System.DateUtils.Finalization
 0002:00000100       System.DateUtils.System.DateUtils
 0002:000000F8       System.DateUtils.TTimeZone.Create@
 0001:000012BC       System.DateUtils.TTimeZone.Destroy@
 0002:000000A8       System.Generics.Defaults.TIStringComparer.Create@
 0001:0000120C       System.Generics.Defaults.TIStringComparer.Destroy@
 0002:000000A0       System.Generics.Defaults.TStringComparer.Create@
 0001:00001204       System.Generics.Defaults.TStringComparer.Destroy@
 0001:0000132C       System.IniFiles.Finalization
 0002:00000130       System.IniFiles.System.IniFiles
 0001:000010EC       System.Internal.ExcUtils.Finalization
 0002:00000040       System.Internal.ExcUtils.System.Internal.ExcUtils
 0002:00000128       System.IOUtils.TPath.Create@
 0001:00001324       System.IOUtils.TPath.Destroy@
 0001:00001334       System.JSON.Finalization
 0002:00000138       System.JSON.System.JSON
 0001:00001354       System.JSON.Readers.Finalization
 0002:00000158       System.JSON.Readers.System.JSON.Readers
 0001:0000133C       System.JSON.Types.Finalization
 0002:00000140       System.JSON.Types.System.JSON.Types
 0002:00000150       System.JSON.Utils.TJsonTextUtils.Create@
 0001:0000134C       System.JSON.Utils.TJsonTextUtils.Destroy@
 0002:00000160       System.JSON.Writers.TJsonWriter.Create@
 0001:0000135C       System.JSON.Writers.TJsonWriter.Destroy@
 0001:000011E4       System.Math.Finalization
 0002:00000080       System.Math.System.Math
 0002:00000148       System.NetEncoding.TNetEncoding.Create@
 0001:00001344       System.NetEncoding.TNetEncoding.Destroy@
 0001:000011F4       System.Rtti.Finalization
 0002:00000090       System.Rtti.System.Rtti
 0002:00000088       System.Rtti.TRttiContext.Create@
 0001:000011EC       System.Rtti.TRttiContext.Destroy@
 0001:000012CC       System.StrUtils.PosEx
 0001:000012EC       System.SyncObjs.Finalization
 0002:00000120       System.SyncObjs.System.SyncObjs
 0001:00001174       System.SysUtils.Abort
 0001:00001134       System.SysUtils.BoolToStr
 0001:00001144       System.SysUtils.ChangeFileExt
 0001:00001104       System.SysUtils.CompareText
 0001:0000117C       System.SysUtils.Exception.Create
 0002:00000058       System.SysUtils.Exception.Create@
 0001:00001184       System.SysUtils.Exception.Destroy
 0001:000011A4       System.SysUtils.Exception.Destroy@
 0001:0000118C       System.SysUtils.Exception.GetBaseException
 0001:00001194       System.SysUtils.Exception.RaisingException
 0001:0000119C       System.SysUtils.Exception.ToString
 0001:00001154       System.SysUtils.ExtractFileName
 0001:0000114C       System.SysUtils.ExtractFilePath
 0001:0000113C       System.SysUtils.FileExists
 0001:000011CC       System.SysUtils.Finalization
 0001:000011B4       System.SysUtils.FreeAndNil
 0001:0000111C       System.SysUtils.IntToStr
 0001:0000110C       System.SysUtils.SameText
 0001:0000115C       System.SysUtils.StrEnd
 0001:0000116C       System.SysUtils.StrIComp
 0001:00001164       System.SysUtils.StrPLCopy
 0001:0000112C       System.SysUtils.StrToBoolDef
 0001:00001124       System.SysUtils.StrToIntDef
 0002:00000068       System.SysUtils.System.SysUtils
 0002:00000050       System.SysUtils.TEncoding.Create@
 0001:000011C4       System.SysUtils.TEncoding.Destroy@
 0002:00000048       System.SysUtils.TLanguages.Create@
 0001:000011BC       System.SysUtils.TLanguages.Destroy@
 0002:00000060       System.SysUtils.TOSVersion.Create@
 0001:000010F4       System.SysUtils.TOSVersion.Destroy@
 0001:00001114       System.SysUtils.Trim
 0001:000010FC       System.SysUtils.UpperCase
 0001:000011AC       System.SysUtils.Win32Platform
 0002:000000F0       System.TimeSpan.TTimeSpan.Create@
 0001:000012B4       System.TimeSpan.TTimeSpan.Destroy@
 0001:000011FC       System.TypInfo.Finalization
 0002:00000098       System.TypInfo.System.TypInfo
 0001:00000F24       System.UITypes.Finalization
 0002:00000010       System.UITypes.System.UITypes
 0001:000011DC       System.Variants.Finalization
 0002:00000078       System.Variants.System.Variants
 0001:000011D4       System.VarUtils.Finalization
 0002:00000070       System.VarUtils.System.VarUtils
 0002:00000168       System.Win.Registry.TRegistry.Create@
 0001:00001364       System.Win.Registry.TRegistry.Destroy@
 0004:00000028       Winapi.PsAPI..1
 0001:000010C0       Winapi.PsAPI.Finalization
 0004:0000002C       Winapi.PsAPI.hPSAPI
 0002:00000030       Winapi.PsAPI.Winapi.PsAPI
 0004:00000020       Winapi.Windows..2
 0001:0000105C       Winapi.Windows.CopyMemory
 0001:00000F2C       Winapi.Windows.DeleteCriticalSection
 0001:00000F34       Winapi.Windows.EnterCriticalSection
 0001:000010A0       Winapi.Windows.Finalization
 0001:00000F3C       Winapi.Windows.FlushInstructionCache
 0001:00000F44       Winapi.Windows.FreeLibrary
 0001:00000F4C       Winapi.Windows.GetCurrentProcess
 0001:00000F54       Winapi.Windows.GetEnvironmentVariableA
 0001:00000F5C       Winapi.Windows.GetEnvironmentVariableW
 0001:00000F64       Winapi.Windows.GetModuleHandle
 0001:00000F6C       Winapi.Windows.GetProcAddress
 0001:00000F74       Winapi.Windows.GetProcAddress
 0001:00001024       Winapi.Windows.GetVersion
 0001:0000102C       Winapi.Windows.GetVersionEx
 0004:00000024       Winapi.Windows.HtmlHelpModule
 0001:00001034       Winapi.Windows.InitializeCriticalSection
 0001:00001064       Winapi.Windows.InitVersionInfo
 0001:0000103C       Winapi.Windows.LeaveCriticalSection
 0001:00001044       Winapi.Windows.LoadLibrary
 0001:00001054       Winapi.Windows.VirtualProtect
 0001:0000104C       Winapi.Windows.VirtualProtect
 0003:00000088       Winapi.Windows.Win32MajorVersion
 0003:0000008C       Winapi.Windows.Win32MinorVersion
 0003:00000090       Winapi.Windows.Win32Platform
 0002:00000018       Winapi.Windows.Winapi.Windows


  Address             Publics by Value

 0001:00000000       System.AllocMem
 0001:00000008       System.@GetMem
 0001:00000010       System.@FreeMem
 0001:00000018       System.Move
 0001:00000020       System.@FillChar
 0001:00000028       System.TObject.ClassType
 0001:00000030       System.TObject.ClassName
 0001:00000038       System.TObject.NewInstance
 0001:00000040       System.TObject.FreeInstance
 0001:00000048       System.TObject.Create
 0001:00000050       System.TObject.Destroy
 0001:00000058       System.TObject.Free
 0001:00000060       System.TObject.Equals
 0001:00000068       System.TObject.GetHashCode
 0001:00000070       System.@IsClass
 0001:00000078       System.TObject.InheritsFrom
 0001:00000080       System.TObject.SafeCallException
 0001:00000088       System.TObject.ToString
 0001:00000090       System.TObject.DefaultHandler
 0001:00000098       System.TObject.AfterConstruction
 0001:000000A0       System.TObject.BeforeDestruction
 0001:000000A8       System.TObject.Dispatch
 0001:000000B0       System.@ClassCreate
 0001:000000B8       System.@ClassDestroy
 0001:000000C0       System.@AfterConstruction
 0001:000000C8       System.@BeforeDestruction
 0001:000000D0       System.@HandleAnyException
 0001:000000D8       System.@HandleOnException
 0001:000000E0       System.@HandleFinally
 0001:000000E8       System.@RaiseExcept
 0001:000000F0       System.@RaiseAgain
 0001:000000F8       System.@DoneExcept
 0001:00000100       System.@PackageLoad
 0001:00000108       System.@PackageUnload
 0001:00000110       System.@RunError
 0001:00000118       System.@UStrClr
 0001:00000120       System.@LStrClr
 0001:00000128       System.@UStrArrayClr
 0001:00000130       System.@LStrArrayClr
 0001:00000138       System.@UStrAddRef
 0001:00000140       System.@UStrAsg
 0001:00000148       System.@UStrLAsg
 0001:00000150       System.@UStrLen
 0001:00000158       System.@LStrLen
 0001:00000160       System.@LStrFromPWChar
 0001:00000168       System.@LStrToPChar
 0001:00000170       System.@LStrSetLength
 0001:00000178       System.@LStrFromUStr
 0001:00000180       System.@UStrToPWChar
 0001:00000188       System.@UStrFromPWChar
 0001:00000190       System.@UStrFromWArray
 0001:00000198       System.@UStrFromLStr
 0001:000001A0       System.@UStrSetLength
 0001:000001A8       System.@UStrCat3
 0001:000001B0       System.@UStrCatN
 0001:000001B8       System.@UStrCmp
 0001:000001C0       System.@UStrEqual
 0001:000001C8       System.@UStrCopy
 0001:000001D0       System.Pos
 0001:000001D8       System.@FinalizeRecord
 0001:000001E0       System.@FinalizeArray
 0001:000001E8       System.@AddRefRecord
 0001:000001F0       System.@DynArrayLength
 0001:000001F8       System.@DynArrayHigh
 0001:00000200       System.@DynArraySetLength
 0001:00000208       System.@DynArrayClear
 0001:00000210       System.@DynArrayAsg
 0001:00000218       System.@DynArrayAddRef
 0001:00000220       System.RegisterModule
 0001:00000228       System.UnregisterModule
 0001:00000230       System.Finalization
 0001:00000238       SysInit.InterlockedExchange
 0001:00000248       SysInit.FreeLibrary
 0001:00000250       SysInit.LocalAlloc
 0001:00000258       SysInit.LocalFree
 0001:00000260       SysInit.TlsAlloc
 0001:00000268       SysInit.TlsFree
 0001:00000270       SysInit.TlsGetValue
 0001:00000278       SysInit.TlsSetValue
 0001:00000280       SysInit.GetLastError
 0001:00000288       SysInit.LoadLibraryA
 0001:00000290       SysInit.RaiseException
 0001:00000298       SysInit.GetProcAddress
 0001:000002A0       SysInit.AllocTlsBuffer
 0001:000002AC       SysInit.GetTlsSize
 0001:000002B4       SysInit.InitThreadTLS
 0001:000002F8       SysInit.InitProcessTLS
 0001:00000324       SysInit.ExitThreadTLS
 0001:0000035C       SysInit.ExitProcessTLS
 0001:00000380       SysInit.InitializeModule
 0001:0000038C       SysInit.UninitializeModule
 0001:000003B0       SysInit.@_dbkDummyProc
 0001:000003B4       SysInit.@_dbkFCallArgs
 0001:000007A4       SysInit.@_dbk_fcall_wrapper
 0001:000008D0       SysInit.@InitPkg
 0001:00000934       SysInit.@PackageLoad
 0001:00000940       SysInit.@PackageUnload
 0001:0000094C       SysInit.@_delayLoadHelper2
 0001:00000C2C       SysInit.@_FUnloadDelayLoadedDLL2
 0001:00000D3C       SysInit.@_HrLoadAllImportsForDll
 0001:00000DF4       SysInit.ShutdownDelayHelp2
 0001:00000DFC       SysInit...
 0001:00000E0C       SysInit...
 0001:00000E1C       SysInit...
 0001:00000E2C       SysInit...
 0001:00000E3C       SysInit...
 0001:00000E4C       SysInit...
 0001:00000E60       SysInit...
 0001:00000E90       SysInit...
 0001:00000EA8       SysInit...
 0001:00000ED0       SysInit...
 0001:00000EF4       SysInit...
 0001:00000F04       SysInit...
 0001:00000F14       SysInit.Finalization
 0001:00000F24       System.UITypes.Finalization
 0001:00000F2C       Winapi.Windows.DeleteCriticalSection
 0001:00000F34       Winapi.Windows.EnterCriticalSection
 0001:00000F3C       Winapi.Windows.FlushInstructionCache
 0001:00000F44       Winapi.Windows.FreeLibrary
 0001:00000F4C       Winapi.Windows.GetCurrentProcess
 0001:00000F54       Winapi.Windows.GetEnvironmentVariableA
 0001:00000F5C       Winapi.Windows.GetEnvironmentVariableW
 0001:00000F64       Winapi.Windows.GetModuleHandle
 0001:00000F6C       Winapi.Windows.GetProcAddress
 0001:00000F74       Winapi.Windows.GetProcAddress
 0001:00001024       Winapi.Windows.GetVersion
 0001:0000102C       Winapi.Windows.GetVersionEx
 0001:00001034       Winapi.Windows.InitializeCriticalSection
 0001:0000103C       Winapi.Windows.LeaveCriticalSection
 0001:00001044       Winapi.Windows.LoadLibrary
 0001:0000104C       Winapi.Windows.VirtualProtect
 0001:00001054       Winapi.Windows.VirtualProtect
 0001:0000105C       Winapi.Windows.CopyMemory
 0001:00001064       Winapi.Windows.InitVersionInfo
 0001:000010A0       Winapi.Windows.Finalization
 0001:000010C0       Winapi.PsAPI.Finalization
 0001:000010E4       System.Character.Finalization
 0001:000010EC       System.Internal.ExcUtils.Finalization
 0001:000010F4       System.SysUtils.TOSVersion.Destroy@
 0001:000010FC       System.SysUtils.UpperCase
 0001:00001104       System.SysUtils.CompareText
 0001:0000110C       System.SysUtils.SameText
 0001:00001114       System.SysUtils.Trim
 0001:0000111C       System.SysUtils.IntToStr
 0001:00001124       System.SysUtils.StrToIntDef
 0001:0000112C       System.SysUtils.StrToBoolDef
 0001:00001134       System.SysUtils.BoolToStr
 0001:0000113C       System.SysUtils.FileExists
 0001:00001144       System.SysUtils.ChangeFileExt
 0001:0000114C       System.SysUtils.ExtractFilePath
 0001:00001154       System.SysUtils.ExtractFileName
 0001:0000115C       System.SysUtils.StrEnd
 0001:00001164       System.SysUtils.StrPLCopy
 0001:0000116C       System.SysUtils.StrIComp
 0001:00001174       System.SysUtils.Abort
 0001:0000117C       System.SysUtils.Exception.Create
 0001:00001184       System.SysUtils.Exception.Destroy
 0001:0000118C       System.SysUtils.Exception.GetBaseException
 0001:00001194       System.SysUtils.Exception.RaisingException
 0001:0000119C       System.SysUtils.Exception.ToString
 0001:000011A4       System.SysUtils.Exception.Destroy@
 0001:000011AC       System.SysUtils.Win32Platform
 0001:000011B4       System.SysUtils.FreeAndNil
 0001:000011BC       System.SysUtils.TLanguages.Destroy@
 0001:000011C4       System.SysUtils.TEncoding.Destroy@
 0001:000011CC       System.SysUtils.Finalization
 0001:000011D4       System.VarUtils.Finalization
 0001:000011DC       System.Variants.Finalization
 0001:000011E4       System.Math.Finalization
 0001:000011EC       System.Rtti.TRttiContext.Destroy@
 0001:000011F4       System.Rtti.Finalization
 0001:000011FC       System.TypInfo.Finalization
 0001:00001204       System.Generics.Defaults.TStringComparer.Destroy@
 0001:0000120C       System.Generics.Defaults.TIStringComparer.Destroy@
 0001:00001214       System.Classes.TComponent.Destroy@
 0001:0000121C       System.Classes.TList.Add
 0001:00001224       System.Classes.TList.Delete
 0001:0000122C       System.Classes.TList.Get
 0001:00001234       System.Classes.TList.Remove
 0001:0000123C       System.Classes.TPersistent.Assign
 0001:00001244       System.Classes.TPersistent.AssignTo
 0001:0000124C       System.Classes.TPersistent.DefineProperties
 0001:00001254       System.Classes.TThread.Destroy@
 0001:0000125C       System.Classes.TBinaryWriter.Destroy@
 0001:00001264       System.Classes.TLoginCredentialService.Destroy@
 0001:0000126C       System.Classes.TObserverMapping.Destroy@
 0001:00001274       System.Classes.TBaseAsyncResult.Destroy@
 0001:0000127C       System.Classes.Finalization
 0001:00001284       Data.DBXClassRegistry.TClassRegistry.CreateInstance
 0001:0000128C       Data.DBXClassRegistry.TClassRegistry.GetClassRegistry
 0001:00001294       Data.DBXClassRegistry.TClassRegistry.HasClass
 0001:0000129C       Data.DBXClassRegistry.TClassRegistry.RegisterRegistryClass
 0001:000012A4       Data.DBXClassRegistry.TClassRegistry.UnregisterClass
 0001:000012AC       Data.DBXClassRegistry.Finalization
 0001:000012B4       System.TimeSpan.TTimeSpan.Destroy@
 0001:000012BC       System.DateUtils.TTimeZone.Destroy@
 0001:000012C4       System.DateUtils.Finalization
 0001:000012CC       System.StrUtils.PosEx
 0001:000012D4       Data.SqlTimSt.Finalization
 0001:000012DC       Data.FmtBcd.Finalization
 0001:000012E4       Data.DB.Finalization
 0001:000012EC       System.SyncObjs.Finalization
 0001:000012F4       Data.DBXPlatform.IncrAfter
 0001:000012FC       Data.DBXPlatform.FreeObjectArray
 0001:00001304       Data.DBXPlatform.TDBXObjectStore.SetObjectByName
 0001:0000130C       Data.DBXPlatform.TDBXPlatform.CreateWideStringBuilder
 0001:00001314       Data.DBXPlatform.TDBXPlatform.CopyWideStringBuilder
 0001:0000131C       Data.DBXPlatform.TDBXPlatform.FreeAndNilWideStringBuilder
 0001:00001324       System.IOUtils.TPath.Destroy@
 0001:0000132C       System.IniFiles.Finalization
 0001:00001334       System.JSON.Finalization
 0001:0000133C       System.JSON.Types.Finalization
 0001:00001344       System.NetEncoding.TNetEncoding.Destroy@
 0001:0000134C       System.JSON.Utils.TJsonTextUtils.Destroy@
 0001:00001354       System.JSON.Readers.Finalization
 0001:0000135C       System.JSON.Writers.TJsonWriter.Destroy@
 0001:00001364       System.Win.Registry.TRegistry.Destroy@
 0001:0000136C       Data.DBXCommon.TDBXConnectionFactory.Destroy@
 0001:00001374       Data.DBXCommon.TDBXProperties.Create
 0001:0000137C       Data.DBXCommon.TDBXProperties.Create
 0001:00001384       Data.DBXCommon.TDBXProperties.Destroy
 0001:0000138C       Data.DBXCommon.TDBXProperties.DoOnChange
 0001:00001394       Data.DBXCommon.TDBXProperties.GetLists
 0001:0000139C       Data.DBXCommon.TDBXProperties.GetValue
 0001:000013A4       Data.DBXCommon.TDBXProperties.GetProperties
 0001:000013AC       Data.DBXCommon.TDBXProperties.SetValue
 0001:000013B4       Data.DBXCommon.TDBXDriver.AddCommandFactory
 0001:000013BC       Data.DBXCommon.TDBXDriver.CreateMorphCommand
 0001:000013C4       Data.DBXCommon.TDBXDriver.GetDriverClass
 0001:000013CC       Data.DBXCommon.TDBXDriver.GetDriverName
 0001:000013D4       Data.DBXCommon.TDBXDriver.GetDriverProperties
 0001:000013DC       Data.DBXCommon.TDBXDriver.GetDriverPropertyNames
 0001:000013E4       Data.DBXCommon.TDBXDriver.SetDriverName
 0001:000013EC       Data.DBXCommon.TDBXDriver.InitDriverProperties
 0001:000013F4       Data.DBXCommon.TDBXDriverRegistry.RegisterDriverClass
 0001:000013FC       Data.DBXCommon.TDBXDriverRegistry.UnregisterDriverClass
 0001:00001404       Data.DBXCommon.TDBXConnection.Destroy
 0001:0000140C       Data.DBXCommon.TDBXConnection.CreateMorphCommand
 0001:00001414       Data.DBXCommon.TDBXConnection.CreateCommand
 0001:0000141C       Data.DBXCommon.TDBXConnection.Open
 0001:00001424       Data.DBXCommon.TDBXConnection.GetDatabaseMetaData
 0001:0000142C       Data.DBXCommon.TDBXConnection.GetTraceFlags
 0001:00001434       Data.DBXCommon.TDBXConnection.GetTraceInfoEvent
 0001:0000143C       Data.DBXCommon.TDBXConnection.BeginTransaction
 0001:00001444       Data.DBXCommon.TDBXConnection.BeginTransaction
 0001:0000144C       Data.DBXCommon.TDBXConnection.CommitTransaction
 0001:00001454       Data.DBXCommon.TDBXConnection.CommitFreeAndNil
 0001:0000145C       Data.DBXCommon.TDBXConnection.RollbackFreeAndNil
 0001:00001464       Data.DBXCommon.TDBXConnection.RollbackIncompleteFreeAndNil
 0001:0000146C       Data.DBXCommon.TDBXConnection.RollbackTransaction
 0001:00001474       Data.DBXCommon.TDBXConnection.GetConnectionProperties
 0001:0000147C       Data.DBXCommon.TDBXConnection.GetErrorEvent
 0001:00001484       Data.DBXCommon.TDBXConnection.GetIsOpen
 0001:0000148C       Data.DBXCommon.TDBXConnection.GetConnectionProperty
 0001:00001494       Data.DBXCommon.TDBXConnection.SetErrorEvent
 0001:0000149C       Data.DBXCommon.TDBXConnection.SetConnectionProperties
 0001:000014A4       Data.DBXCommon.TDBXConnection.GetDBXFormatter
 0001:000014AC       Data.DBXCommon.TDBXConnection.SetDBXFormatter
 0001:000014B4       Data.DBXCommon.TDBXConnection.SetTraceFlags
 0001:000014BC       Data.DBXCommon.TDBXCommand.CreateParameter
 0001:000014C4       Data.DBXCommon.TDBXCommand.CreateParameterRow
 0001:000014CC       Data.DBXCommon.TDBXCommand.CreateParameters
 0001:000014D4       Data.DBXCommon.TDBXCommand.SetCommandType
 0001:000014DC       Data.DBXCommon.TDBXCommand.ExecuteQuery
 0001:000014E4       Data.DBXCommon.TDBXCommand.ExecuteUpdate
 0001:000014EC       Data.DBXCommon.TDBXCommand.FreeOnExecute
 0001:000014F4       Data.DBXCommon.TDBXCommand.CloseReader
 0001:000014FC       Data.DBXCommon.TDBXCommand.GetCommandType
 0001:00001504       Data.DBXCommon.TDBXCommand.GetErrorEvent
 0001:0000150C       Data.DBXCommon.TDBXCommand.GetNextReader
 0001:00001514       Data.DBXCommon.TDBXCommand.GetParameters
 0001:0000151C       Data.DBXCommon.TDBXCommand.GetText
 0001:00001524       Data.DBXCommon.TDBXCommand.Prepare
 0001:0000152C       Data.DBXCommon.TDBXCommand.SetText
 0001:00001534       Data.DBXCommon.TDBXCommand.Open
 0001:0000153C       Data.DBXCommon.TDBXCommand.DerivedClearParameters
 0001:00001544       Data.DBXCommon.TDBXCommand.Close
 0001:0000154C       Data.DBXCommon.TDBXMorphicCommand.Create
 0001:00001554       Data.DBXCommon.TDBXMorphicCommand.CreateParameters
 0001:0000155C       Data.DBXCommon.TDBXMorphicCommand.Destroy
 0001:00001564       Data.DBXCommon.TDBXMorphicCommand.ExecuteQuery
 0001:0000156C       Data.DBXCommon.TDBXMorphicCommand.ExecuteUpdate
 0001:00001574       Data.DBXCommon.TDBXMorphicCommand.GetParameters
 0001:0000157C       Data.DBXCommon.TDBXMorphicCommand.CreateParameterRow
 0001:00001584       Data.DBXCommon.TDBXMorphicCommand.GetRowsAffected
 0001:0000158C       Data.DBXCommon.TDBXMorphicCommand.FreeOnExecute
 0001:00001594       Data.DBXCommon.TDBXMorphicCommand.Prepare
 0001:0000159C       Data.DBXCommon.TDBXMorphicCommand.GetNextReader
 0001:000015A4       Data.DBXCommon.TDBXMorphicCommand.DerivedClose
 0001:000015AC       Data.DBXCommon.TDBXMorphicCommand.DerivedExecuteQuery
 0001:000015B4       Data.DBXCommon.TDBXMorphicCommand.DerivedExecuteUpdate
 0001:000015BC       Data.DBXCommon.TDBXMorphicCommand.DerivedGetNextReader
 0001:000015C4       Data.DBXCommon.TDBXMorphicCommand.DerivedOpen
 0001:000015CC       Data.DBXCommon.TDBXMorphicCommand.DerivedPrepare
 0001:000015D4       Data.DBXCommon.TDBXMorphicCommand.SetMaxBlobSize
 0001:000015DC       Data.DBXCommon.TDBXMorphicCommand.SetRowSetSize
 0001:000015E4       Data.DBXCommon.TDBXMorphicCommand.SetCommandType
 0001:000015EC       Data.DBXCommon.TDBXMorphicCommand.SetText
 0001:000015F4       Data.DBXCommon.TDBXMorphicCommand.CloseReader
 0001:000015FC       Data.DBXCommon.TDBXContext.Error
 0001:00001604       Data.DBXCommon.TDBXConnectionBuilder.GetConnectionProperties
 0001:0000160C       Data.DBXCommon.TDBXDriverHelp.GetMetaDataReader
 0001:00001614       Data.DBXCommon.TDBXDriverHelp.SetMetaDataReader
 0001:0000161C       Data.DBXCommon.TDBXCommand.GetCommandTimeout
 0001:00001624       Data.DBXCommon.TDBXCommand.SetCommandTimeout
 0001:0000162C       Data.DBXCommon.Finalization
 0001:00001634       Data.DBXDynalinkNative.TDBXDynalinkDriverNative.Create
 0001:0000163C       Data.DBXDynalinkNative.TDBXDynalinkDriverLoader.CreateDynalinkDriver
 0001:00001644       Data.DBXDynalinkNative.TDBXDynalinkDriverLoader.CreateMethodTable
 0001:0000164C       Data.DBXDynalink.TDBXDynalinkDriver.CheckResult
 0001:00001654       Data.DBXDynalink.TDBXDynalinkDriver.Close
 0001:0000165C       Data.DBXDynalink.TDBXDynalinkDriver.Destroy
 0001:00001664       Data.DBXDynalink.TDBXDynalinkDriver.GetDriverVersion
 0001:0000166C       Data.DBXDynalink.TDBXDynalinkDriverCommonLoader.Create
 0001:00001674       Data.DBXDynalink.TDBXDynalinkDriverCommonLoader.Load
 0001:0000167C       Data.DBXDynalink.TDBXDynalinkDriverCommonLoader.LoadDriverLibrary
 0001:00001684       Data.DBXDynalink.TDBXDynalinkConnection.CreateAndBeginTransaction
 0001:0000168C       Data.DBXDynalink.TDBXDynalinkConnection.Close
 0001:00001694       Data.DBXDynalink.TDBXDynalinkConnection.Commit
 0001:0000169C       Data.DBXDynalink.TDBXDynalinkConnection.Rollback
 0001:000016A4       Data.DBXDynalink.TDBXDynalinkConnection.SetTraceInfoEvent
 0001:000016AC       Data.DBXDynalink.TDBXDynalinkConnection.Create
 0001:000016B4       Data.DBXDynalink.TDBXDynalinkConnection.DerivedOpen
 0001:000016BC       Data.DBXDynalink.TDBXDynalinkConnection.GetVendorProperty
 0001:000016C4       Data.DBXDynalink.Finalization
 0001:000016CC       Data.DBXMetaDataReader.TDBXCustomMetaDataTable.Create
 0001:000016D4       Data.DBXMetaDataReader.TDBXDataTypeCursor.Create
 0001:000016DC       Data.DBXMetaDataReader.TDBXDataTypeDescription.Create
 0001:000016E4       Data.DBXMetaDataReader.TDBXDataTypeDescription.Create
 0001:000016EC       Data.DBXMetaDataReader.TDBXDataTypeDescription.SetUnicodeOptionSupported
 0001:000016F4       Data.DBXMetaDataReader.TDBXEmptyTableCursor.Create
 0001:000016FC       Data.DBXMetaDataReader.TDBXMetaDataCollectionColumns.CreateDataTypesColumns
 0001:00001704       Data.DBXMetaDataReader.TDBXMetaDataCollectionColumns.CreateCatalogsColumns
 0001:0000170C       Data.DBXMetaDataReader.TDBXMetaDataCollectionColumns.CreateSchemasColumns
 0001:00001714       Data.DBXMetaDataReader.TDBXMetaDataCollectionColumns.CreateTablesColumns
 0001:0000171C       Data.DBXMetaDataReader.TDBXMetaDataCollectionColumns.CreateViewsColumns
 0001:00001724       Data.DBXMetaDataReader.TDBXMetaDataCollectionColumns.CreateSynonymsColumns
 0001:0000172C       Data.DBXMetaDataReader.TDBXMetaDataCollectionColumns.CreateColumnsColumns
 0001:00001734       Data.DBXMetaDataReader.TDBXMetaDataCollectionColumns.CreateColumnConstraintsColumns
 0001:0000173C       Data.DBXMetaDataReader.TDBXMetaDataCollectionColumns.CreateIndexesColumns
 0001:00001744       Data.DBXMetaDataReader.TDBXMetaDataCollectionColumns.CreateIndexColumnsColumns
 0001:0000174C       Data.DBXMetaDataReader.TDBXMetaDataCollectionColumns.CreateForeignKeysColumns
 0001:00001754       Data.DBXMetaDataReader.TDBXMetaDataCollectionColumns.CreateForeignKeyColumnsColumns
 0001:0000175C       Data.DBXMetaDataReader.TDBXMetaDataCollectionColumns.CreateProceduresColumns
 0001:00001764       Data.DBXMetaDataReader.TDBXMetaDataCollectionColumns.CreateProcedureSourcesColumns
 0001:0000176C       Data.DBXMetaDataReader.TDBXMetaDataCollectionColumns.CreateProcedureParametersColumns
 0001:00001774       Data.DBXMetaDataReader.TDBXMetaDataCollectionColumns.CreatePackagesColumns
 0001:0000177C       Data.DBXMetaDataReader.TDBXMetaDataCollectionColumns.CreatePackageProceduresColumns
 0001:00001784       Data.DBXMetaDataReader.TDBXMetaDataCollectionColumns.CreatePackageProcedureParametersColumns
 0001:0000178C       Data.DBXMetaDataReader.TDBXMetaDataCollectionColumns.CreatePackageSourcesColumns
 0001:00001794       Data.DBXMetaDataReader.TDBXMetaDataCollectionColumns.CreateUsersColumns
 0001:0000179C       Data.DBXMetaDataReader.TDBXMetaDataCollectionColumns.CreateRolesColumns
 0001:000017A4       Data.DBXMetaDataReader.TDBXMetaDataCollectionColumns.CreateReservedWordsColumns
 0001:000017AC       Data.DBXMetaDataReader.TDBXBaseMetaDataReader.Destroy
 0001:000017B4       Data.DBXMetaDataReader.TDBXBaseMetaDataReader.SetContext
 0001:000017BC       Data.DBXMetaDataReader.TDBXBaseMetaDataReader.GetContext
 0001:000017C4       Data.DBXMetaDataReader.TDBXBaseMetaDataReader.GetProductName
 0001:000017CC       Data.DBXMetaDataReader.TDBXBaseMetaDataReader.GetVersion
 0001:000017D4       Data.DBXMetaDataReader.TDBXBaseMetaDataReader.SetVersion
 0001:000017DC       Data.DBXMetaDataReader.TDBXBaseMetaDataReader.GetSqlDefaultParameterMarker
 0001:000017E4       Data.DBXMetaDataReader.TDBXBaseMetaDataReader.CompareVersion
 0001:000017EC       Data.DBXMetaDataReader.TDBXBaseMetaDataReader.IsQuotedIdentifiersSupported
 0001:000017F4       Data.DBXMetaDataReader.TDBXBaseMetaDataReader.IsSPReturnCodeSupported
 0001:000017FC       Data.DBXMetaDataReader.TDBXBaseMetaDataReader.AreCatalogFunctionsSupported
 0001:00001804       Data.DBXMetaDataReader.TDBXBaseMetaDataReader.AreCatalogsSupported
 0001:0000180C       Data.DBXMetaDataReader.TDBXBaseMetaDataReader.AreSchemasSupported
 0001:00001814       Data.DBXMetaDataReader.TDBXBaseMetaDataReader.GetTableType
 0001:0000181C       Data.DBXMetaDataReader.TDBXBaseMetaDataReader.GetViewType
 0001:00001824       Data.DBXMetaDataReader.TDBXBaseMetaDataReader.GetSystemTableType
 0001:0000182C       Data.DBXMetaDataReader.TDBXBaseMetaDataReader.GetSystemViewType
 0001:00001834       Data.DBXMetaDataReader.TDBXBaseMetaDataReader.GetSynonymType
 0001:0000183C       Data.DBXMetaDataReader.TDBXBaseMetaDataReader.MakeTableTypeString
 0001:00001844       Data.DBXMetaDataReader.TDBXBaseMetaDataReader.GetDataTypeHash
 0001:0000184C       Data.DBXMetaDataReader.TDBXBaseMetaDataReader.GetDataTypes
 0001:00001854       Data.DBXMetaDataReader.TDBXBaseMetaDataReader.PopulateDataTypes
 0001:0000185C       Data.DBXMetaDataReader.TDBXBaseMetaDataReader.FetchCollection
 0001:00001864       Data.DBXMetaDataReader.TDBXBaseMetaDataReader.MakeStorage
 0001:0000186C       Data.DBXMetaDataReader.TDBXBaseMetaDataReader.FetchCollectionWithStorage
 0001:00001874       Data.DBXMetaDataReader.TDBXBaseMetaDataReader.FetchDataTypes
 0001:0000187C       Data.DBXMetaDataReader.TDBXBaseMetaDataReader.FetchCatalogs
 0001:00001884       Data.DBXMetaDataReader.TDBXBaseMetaDataReader.FetchSchemas
 0001:0000188C       Data.DBXMetaDataReader.TDBXBaseMetaDataReader.FetchTables
 0001:00001894       Data.DBXMetaDataReader.TDBXBaseMetaDataReader.FetchViews
 0001:0000189C       Data.DBXMetaDataReader.TDBXBaseMetaDataReader.FetchColumns
 0001:000018A4       Data.DBXMetaDataReader.TDBXBaseMetaDataReader.FetchColumnConstraints
 0001:000018AC       Data.DBXMetaDataReader.TDBXBaseMetaDataReader.FetchIndexes
 0001:000018B4       Data.DBXMetaDataReader.TDBXBaseMetaDataReader.FetchIndexColumns
 0001:000018BC       Data.DBXMetaDataReader.TDBXBaseMetaDataReader.FetchForeignKeys
 0001:000018C4       Data.DBXMetaDataReader.TDBXBaseMetaDataReader.FetchForeignKeyColumns
 0001:000018CC       Data.DBXMetaDataReader.TDBXBaseMetaDataReader.FetchSynonyms
 0001:000018D4       Data.DBXMetaDataReader.TDBXBaseMetaDataReader.FetchProcedures
 0001:000018DC       Data.DBXMetaDataReader.TDBXBaseMetaDataReader.FetchProcedureSources
 0001:000018E4       Data.DBXMetaDataReader.TDBXBaseMetaDataReader.FetchProcedureParameters
 0001:000018EC       Data.DBXMetaDataReader.TDBXBaseMetaDataReader.FetchPackages
 0001:000018F4       Data.DBXMetaDataReader.TDBXBaseMetaDataReader.FetchPackageProcedures
 0001:000018FC       Data.DBXMetaDataReader.TDBXBaseMetaDataReader.FetchPackageProcedureParameters
 0001:00001904       Data.DBXMetaDataReader.TDBXBaseMetaDataReader.FetchPackageSources
 0001:0000190C       Data.DBXMetaDataReader.TDBXBaseMetaDataReader.FetchUsers
 0001:00001914       Data.DBXMetaDataReader.TDBXBaseMetaDataReader.FetchRoles
 0001:0000191C       Data.DBXMetaDataReader.TDBXBaseMetaDataReader.FetchReservedWords
 0001:00001924       Data.DBXMetaDataReader.TDBXBaseMetaDataReader.GetDataTypeDescriptions
 0001:0000192C       Data.DBXMetaDataReader.TDBXBaseMetaDataReader.GetReservedWords
 0001:00001934       Data.DBXMetaDataReader.TDBXBaseMetaDataReader.GetSqlForDataTypes
 0001:0000193C       Data.DBXMetaDataReader.TDBXBaseMetaDataReader.GetSqlForCatalogs
 0001:00001944       Data.DBXMetaDataReader.TDBXBaseMetaDataReader.GetSqlForSchemas
 0001:0000194C       Data.DBXMetaDataReader.TDBXBaseMetaDataReader.GetSqlForTables
 0001:00001954       Data.DBXMetaDataReader.TDBXBaseMetaDataReader.GetSqlForViews
 0001:0000195C       Data.DBXMetaDataReader.TDBXBaseMetaDataReader.GetSqlForColumns
 0001:00001964       Data.DBXMetaDataReader.TDBXBaseMetaDataReader.GetSqlForColumnConstraints
 0001:0000196C       Data.DBXMetaDataReader.TDBXBaseMetaDataReader.GetSqlForIndexes
 0001:00001974       Data.DBXMetaDataReader.TDBXBaseMetaDataReader.GetSqlForIndexColumns
 0001:0000197C       Data.DBXMetaDataReader.TDBXBaseMetaDataReader.GetSqlForForeignKeys
 0001:00001984       Data.DBXMetaDataReader.TDBXBaseMetaDataReader.GetSqlForForeignKeyColumns
 0001:0000198C       Data.DBXMetaDataReader.TDBXBaseMetaDataReader.GetSqlForSynonyms
 0001:00001994       Data.DBXMetaDataReader.TDBXBaseMetaDataReader.GetSqlForProcedures
 0001:0000199C       Data.DBXMetaDataReader.TDBXBaseMetaDataReader.GetSqlForProcedureSources
 0001:000019A4       Data.DBXMetaDataReader.TDBXBaseMetaDataReader.GetSqlForProcedureParameters
 0001:000019AC       Data.DBXMetaDataReader.TDBXBaseMetaDataReader.GetSqlForPackages
 0001:000019B4       Data.DBXMetaDataReader.TDBXBaseMetaDataReader.GetSqlForPackageProcedures
 0001:000019BC       Data.DBXMetaDataReader.TDBXBaseMetaDataReader.GetSqlForPackageProcedureParameters
 0001:000019C4       Data.DBXMetaDataReader.TDBXBaseMetaDataReader.GetSqlForPackageSources
 0001:000019CC       Data.DBXMetaDataReader.TDBXBaseMetaDataReader.GetSqlForUsers
 0001:000019D4       Data.DBXMetaDataReader.TDBXBaseMetaDataReader.GetSqlForRoles
 0001:000019DC       Data.DBXMetaDataReader.TDBXBaseMetaDataReader.GetSqlForReservedWords
 0001:000019E4       Data.DBXMetaDataReader.TDBXReservedWordsCursor.Create
 0001:000019EC       Data.DBXMetaDataReader.TDBXTableTypeParser.ParseTableTypes
 0001:000019F4       Data.DBXMetaDataCommandFactory.TDBXMetaDataCommandFactory.RegisterMetaDataCommandFactory
 0001:000019FC       Data.DBXMetaDataCommandFactory.TDBXMetaDataCommandFactory.UnRegisterMetaDataCommandFactory
 0001:00001A04       Data.DBXMetaDataCommandFactory.TDBXDataExpressProviderContext.Create
 0001:00001A0C       Data.DBXMetaDataCommandFactory.TDBXDataExpressProviderContext.Destroy
 0001:00001A14       Data.DBXMetaDataCommandFactory.TDBXDataExpressProviderContext.GetPlatformTypeName
 0001:00001A1C       Data.DBXMetaDataCommandFactory.TDBXDataExpressProviderContext.ExecuteQuery
 0001:00001A24       Data.DBXMetaDataCommandFactory.TDBXDataExpressProviderContext.CreateTableStorage
 0001:00001A2C       Data.DBXMetaDataCommandFactory.TDBXDataExpressProviderContext.CreateRowStorage
 0001:00001A34       Data.DBXMetaDataCommandFactory.TDBXDataExpressProviderContext.StartTransaction
 0001:00001A3C       Data.DBXMetaDataCommandFactory.TDBXDataExpressProviderContext.StartSerializedTransaction
 0001:00001A44       Data.DBXMetaDataCommandFactory.TDBXDataExpressProviderContext.Commit
 0001:00001A4C       Data.DBXMetaDataCommandFactory.TDBXDataExpressProviderContext.Rollback
 0001:00001A54       Data.DBXMetaDataCommandFactory.TDBXDataExpressProviderContext.GetVendorProperty
 0001:00001A5C       Data.DBXMetaDataCommandFactory.TDBXMetaDataCommand.Create
 0001:00001A64       Data.DBXMetaDataCommandFactory.TDBXMetaDataCommand.Destroy
 0001:00001A6C       Data.DBXMetaDataCommandFactory.TDBXMetaDataCommand.SetRowSetSize
 0001:00001A74       Data.DBXMetaDataCommandFactory.TDBXMetaDataCommand.SetMaxBlobSize
 0001:00001A7C       Data.DBXMetaDataCommandFactory.TDBXMetaDataCommand.GetRowsAffected
 0001:00001A84       Data.DBXMetaDataCommandFactory.TDBXMetaDataCommand.DerivedGetNextReader
 0001:00001A8C       Data.DBXMetaDataCommandFactory.TDBXMetaDataCommand.DerivedOpen
 0001:00001A94       Data.DBXMetaDataCommandFactory.TDBXMetaDataCommand.DerivedClose
 0001:00001A9C       Data.DBXMetaDataCommandFactory.TDBXMetaDataCommand.DerivedPrepare
 0001:00001AA4       Data.DBXMetaDataCommandFactory.TDBXMetaDataCommand.DerivedExecuteQuery
 0001:00001AAC       Data.DBXMetaDataCommandFactory.TDBXMetaDataCommand.DerivedExecuteUpdate
 0001:00001AB4       Dbx34DrvDbms..TDBXOpenODBCMetaDataCommandFactoryOracle
 0001:00001B9C       Dbx34DrvDbms..TDBXOpenODBCMetaDataReaderOracle
 0001:00001DA8       Dbx34DrvDbms..TDBXOpenODBCMetaDataCommandFactoryMSSQL
 0001:00001E8C       Dbx34DrvDbms..TDBXOpenODBCMetaDataReaderMSSQL
 0001:00002094       Dbx34DrvDbms..TDBXOpenODBCMetaDataCommandFactoryMySQL
 0001:00002178       Dbx34DrvDbms..TDBXOpenODBCMetaDataReaderMySQL
 0001:00002380       Dbx34DrvDbms..TDBXOpenODBCMetaDataCommandFactorySybaseASA
 0001:0000246C       Dbx34DrvDbms..TDBXOpenODBCMetaDataReaderSybaseASA
 0001:0000267C       Dbx34DrvDbms..TDBXOpenODBCMetaDataCommandFactorySybaseASE
 0001:00002768       Dbx34DrvDbms..TDBXOpenODBCMetaDataReaderSybaseASE
 0001:00002978       Dbx34DrvDbms..TDBXOpenODBCMetaDataCommandFactoryDB2
 0001:00002A58       Dbx34DrvDbms..TDBXOpenODBCMetaDataReaderDB2
 0001:00002C5C       Dbx34DrvDbms..TDBXOpenODBCMetaDataCommandFactoryInformix
 0001:00002D48       Dbx34DrvDbms..TDBXOpenODBCMetaDataReaderInformix
 0001:00002F68       Dbx34DrvDbms..TDBXOpenODBCMetaDataCommandFactoryDataStorage
 0001:00003058       Dbx34DrvDbms..TDBXOpenODBCMetaDataReaderDataStorage
 0001:0000326C       Dbx34DrvDbms..TDBXOpenODBCMetaDataCommandFactoryFirebird
 0001:00003358       Dbx34DrvDbms..TDBXOpenODBCMetaDataReaderFirebird
 0001:00003578       Dbx34DrvDbms..TDBXOpenODBCMetaDataCommandFactoryInterbase
 0001:00003664       Dbx34DrvDbms..TDBXOpenODBCMetaDataReaderInterbase
 0001:00003884       Dbx34DrvDbms..TDBXOpenODBCMetaDataCommandFactorySQLite
 0001:0000396C       Dbx34DrvDbms..TDBXOpenODBCMetaDataReaderSQLite
 0001:00003B78       Dbx34DrvDbms..TDBXOpenODBCMetaDataCommandFactoryPostgreSQL
 0001:00003C68       Dbx34DrvDbms..TDBXOpenODBCMetaDataReaderPostgreSQL
 0001:00003E7C       Dbx34DrvDbms.TDBXOpenODBCMetaDataCommandFactoryOracle.GetMetaDataReaderClass
 0001:00003E84       Dbx34DrvDbms.TDBXOpenODBCMetaDataReaderOracle.GetProductName
 0001:00003EB4       Dbx34DrvDbms.TDBXOpenODBCMetaDataReaderOracle.GetSqlForSchemas
 0001:00003F90       Dbx34DrvDbms.TDBXOpenODBCMetaDataReaderOracle.GetSqlForTables
 0001:000044E4       Dbx34DrvDbms.TDBXOpenODBCMetaDataReaderOracle.GetSqlForColumns
 0001:00004804       Dbx34DrvDbms.TDBXOpenODBCMetaDataReaderOracle.GetSqlForIndexes
 0001:00004C00       Dbx34DrvDbms.TDBXOpenODBCMetaDataReaderOracle.GetSqlForIndexColumns
 0001:000050C8       Dbx34DrvDbms.TDBXOpenODBCMetaDataReaderOracle.GetReservedWords
 0001:00005E80       Dbx34DrvDbms.TDBXOpenODBCMetaDataReaderOracle.PopulateDataTypes
 0001:00005FB4       Dbx34DrvDbms.TDBXOpenODBCMetaDataReaderOracle.GetDataTypeDescriptions
 0001:00006CD4       Dbx34DrvDbms.TDBXOpenODBCMetaDataCommandFactoryMSSQL.GetMetaDataReaderClass
 0001:00006CDC       Dbx34DrvDbms.TDBXOpenODBCMetaDataReaderMSSQL.GetProductName
 0001:00006D28       Dbx34DrvDbms.TDBXOpenODBCMetaDataReaderMSSQL.GetSqlForTables
 0001:00007640       Dbx34DrvDbms.TDBXOpenODBCMetaDataReaderMSSQL.GetSqlForColumns
 0001:000083F0       Dbx34DrvDbms.TDBXOpenODBCMetaDataReaderMSSQL.GetSqlForIndexes
 0001:00008F18       Dbx34DrvDbms.TDBXOpenODBCMetaDataReaderMSSQL.GetSqlForIndexColumns
 0001:00009994       Dbx34DrvDbms.TDBXOpenODBCMetaDataReaderMSSQL.GetReservedWords
 0001:0000E050       Dbx34DrvDbms.TDBXOpenODBCMetaDataReaderMSSQL.GetSqlIdentifierQuotePrefix
 0001:0000E074       Dbx34DrvDbms.TDBXOpenODBCMetaDataReaderMSSQL.GetSqlIdentifierQuoteSuffix
 0001:0000E098       Dbx34DrvDbms.TDBXOpenODBCMetaDataReaderMSSQL.GetTableType
 0001:0000E0D0       Dbx34DrvDbms.TDBXOpenODBCMetaDataReaderMSSQL.GetViewType
 0001:0000E108       Dbx34DrvDbms.TDBXOpenODBCMetaDataReaderMSSQL.GetSystemTableType
 0001:0000E140       Dbx34DrvDbms.TDBXOpenODBCMetaDataReaderMSSQL.GetSystemViewType
 0001:0000E178       Dbx34DrvDbms.TDBXOpenODBCMetaDataReaderMSSQL.GetSynonymType
 0001:0000E1B4       Dbx34DrvDbms.TDBXOpenODBCMetaDataReaderMSSQL.GetDataTypeDescriptions
 0001:0000F164       Dbx34DrvDbms.TDBXOpenODBCMetaDataCommandFactoryMySQL.GetMetaDataReaderClass
 0001:0000F16C       Dbx34DrvDbms.TDBXOpenODBCMetaDataReaderMySQL.GetProductName
 0001:0000F198       Dbx34DrvDbms.TDBXOpenODBCMetaDataReaderMySQL.GetSqlForTables
 0001:0000F540       Dbx34DrvDbms.TDBXOpenODBCMetaDataReaderMySQL.GetSqlForColumns
 0001:0000FBA4       Dbx34DrvDbms.TDBXOpenODBCMetaDataReaderMySQL.GetSqlForIndexes
 0001:0000FF54       Dbx34DrvDbms.TDBXOpenODBCMetaDataReaderMySQL.GetSqlForIndexColumns
 0001:000102F8       Dbx34DrvDbms.TDBXOpenODBCMetaDataReaderMySQL.GetReservedWords
 0001:00012C0C       Dbx34DrvDbms.TDBXOpenODBCMetaDataReaderMySQL.GetSqlIdentifierQuotePrefix
 0001:00012C30       Dbx34DrvDbms.TDBXOpenODBCMetaDataReaderMySQL.GetSqlIdentifierQuoteSuffix
 0001:00012C54       Dbx34DrvDbms.TDBXOpenODBCMetaDataReaderMySQL.GetSqlIdentifierQuoteChar
 0001:00012C78       Dbx34DrvDbms.TDBXOpenODBCMetaDataReaderMySQL.GetTableType
 0001:00012CC4       Dbx34DrvDbms.TDBXOpenODBCMetaDataReaderMySQL.IsDescendingIndexColumnsSupported
 0001:00012CC8       Dbx34DrvDbms.TDBXOpenODBCMetaDataReaderMySQL.IsUpperCaseIdentifiersSupported
 0001:00012CCC       Dbx34DrvDbms.TDBXOpenODBCMetaDataReaderMySQL.IsMultipleCommandsSupported
 0001:00012CD0       Dbx34DrvDbms.TDBXOpenODBCMetaDataReaderMySQL.SetContext
 0001:00012D7C       Dbx34DrvDbms.TDBXOpenODBCMetaDataReaderMySQL.PopulateDataTypes
 0001:00012E18       Dbx34DrvDbms.TDBXOpenODBCMetaDataReaderMySQL.GetDataTypeDescriptions
 0001:00013B54       Dbx34DrvDbms.TDBXOpenODBCMetaDataCommandFactorySybaseASA.GetMetaDataReaderClass
 0001:00013B5C       Dbx34DrvDbms.TDBXOpenODBCMetaDataReaderSybaseASA.GetProductName
 0001:00013BB0       Dbx34DrvDbms.TDBXOpenODBCMetaDataReaderSybaseASA.SetContext
 0001:00013D10       Dbx34DrvDbms.TDBXOpenODBCMetaDataReaderSybaseASA.GetSqlForTables
 0001:000142DC       Dbx34DrvDbms.TDBXOpenODBCMetaDataReaderSybaseASA.GetSqlForColumns
 0001:000147C8       Dbx34DrvDbms.TDBXOpenODBCMetaDataReaderSybaseASA.GetSqlForIndexes
 0001:0001542C       Dbx34DrvDbms.TDBXOpenODBCMetaDataReaderSybaseASA.GetSqlForIndexColumns
 0001:000162B0       Dbx34DrvDbms.TDBXOpenODBCMetaDataReaderSybaseASA.GetReservedWords
 0001:00018A6C       Dbx34DrvDbms.TDBXOpenODBCMetaDataReaderSybaseASA.GetTableType
 0001:00018AAC       Dbx34DrvDbms.TDBXOpenODBCMetaDataReaderSybaseASA.GetViewType
 0001:00018AEC       Dbx34DrvDbms.TDBXOpenODBCMetaDataReaderSybaseASA.GetSystemTableType
 0001:00018B2C       Dbx34DrvDbms.TDBXOpenODBCMetaDataReaderSybaseASA.GetSystemViewType
 0001:00018B6C       Dbx34DrvDbms.TDBXOpenODBCMetaDataReaderSybaseASA.GetDataTypeDescriptions
 0001:00019718       Dbx34DrvDbms.TDBXOpenODBCMetaDataCommandFactorySybaseASE.GetMetaDataReaderClass
 0001:00019720       Dbx34DrvDbms.TDBXOpenODBCMetaDataReaderSybaseASE.GetProductName
 0001:00019764       Dbx34DrvDbms.TDBXOpenODBCMetaDataReaderSybaseASE.GetSqlForTables
 0001:00019ADC       Dbx34DrvDbms.TDBXOpenODBCMetaDataReaderSybaseASE.GetSqlForColumns
 0001:0001A088       Dbx34DrvDbms.TDBXOpenODBCMetaDataReaderSybaseASE.GetSqlForIndexes
 0001:0001A3F4       Dbx34DrvDbms.TDBXOpenODBCMetaDataReaderSybaseASE.GetSqlForIndexColumns
 0001:0001A8DC       Dbx34DrvDbms.TDBXOpenODBCMetaDataReaderSybaseASE.GetReservedWords
 0001:0001E350       Dbx34DrvDbms.TDBXOpenODBCMetaDataReaderSybaseASE.GetTableType
 0001:0001E388       Dbx34DrvDbms.TDBXOpenODBCMetaDataReaderSybaseASE.GetViewType
 0001:0001E3C0       Dbx34DrvDbms.TDBXOpenODBCMetaDataReaderSybaseASE.GetSystemTableType
 0001:0001E3F8       Dbx34DrvDbms.TDBXOpenODBCMetaDataReaderSybaseASE.GetDataTypeDescriptions
 0001:0001F040       Dbx34DrvDbms.TDBXOpenODBCMetaDataCommandFactoryDB2.GetMetaDataReaderClass
 0001:0001F048       Dbx34DrvDbms.TDBXOpenODBCMetaDataReaderDB2.GetProductName
 0001:0001F070       Dbx34DrvDbms.TDBXOpenODBCMetaDataReaderDB2.GetSqlForTables
 0001:0001F618       Dbx34DrvDbms.TDBXOpenODBCMetaDataReaderDB2.GetSqlForColumns
 0001:0001F99C       Dbx34DrvDbms.TDBXOpenODBCMetaDataReaderDB2.GetSqlForIndexes
 0001:0001FD3C       Dbx34DrvDbms.TDBXOpenODBCMetaDataReaderDB2.GetSqlForIndexColumns
 0001:00020198       Dbx34DrvDbms.TDBXOpenODBCMetaDataReaderDB2.GetReservedWords
 0001:00023978       Dbx34DrvDbms.TDBXOpenODBCMetaDataReaderDB2.GetTableType
 0001:000239B0       Dbx34DrvDbms.TDBXOpenODBCMetaDataReaderDB2.GetViewType
 0001:000239E8       Dbx34DrvDbms.TDBXOpenODBCMetaDataReaderDB2.GetSystemTableType
 0001:00023A20       Dbx34DrvDbms.TDBXOpenODBCMetaDataReaderDB2.GetSqlProcedureQuoteChar
 0001:00023A2C       Dbx34DrvDbms.TDBXOpenODBCMetaDataReaderDB2.GetDataTypeDescriptions
 0001:00024024       Dbx34DrvDbms.TDBXOpenODBCMetaDataCommandFactoryInformix.GetMetaDataReaderClass
 0001:0002402C       Dbx34DrvDbms.TDBXOpenODBCMetaDataReaderInformix.GetProductName
 0001:0002407C       Dbx34DrvDbms.TDBXOpenODBCMetaDataReaderInformix.Destroy
 0001:000240A8       Dbx34DrvDbms.TDBXOpenODBCMetaDataReaderInformix.GetSqlForTables
 0001:0002467C       Dbx34DrvDbms.TDBXOpenODBCMetaDataReaderInformix.GetSqlForColumns
 0001:00024AC4       Dbx34DrvDbms.TDBXOpenODBCMetaDataReaderInformix.GetSqlForIndexes
 0001:00024F58       Dbx34DrvDbms.TDBXOpenODBCMetaDataReaderInformix.GetSqlForIndexColumns
 0001:00026128       Dbx34DrvDbms.TDBXOpenODBCMetaDataReaderInformix.GetReservedWords
 0001:0002BCFC       Dbx34DrvDbms.TDBXOpenODBCMetaDataReaderInformix.GetTableType
 0001:0002BD34       Dbx34DrvDbms.TDBXOpenODBCMetaDataReaderInformix.GetViewType
 0001:0002BD6C       Dbx34DrvDbms.TDBXOpenODBCMetaDataReaderInformix.GetSystemTableType
 0001:0002BDA4       Dbx34DrvDbms.TDBXOpenODBCMetaDataReaderInformix.GetSynonymType
 0001:0002BDDC       Dbx34DrvDbms.TDBXOpenODBCMetaDataReaderInformix.IsUpperCaseIdentifiersSupported
 0001:0002BDE0       Dbx34DrvDbms.TDBXOpenODBCMetaDataReaderInformix.GetAllDataTypes
 0001:0002C640       Dbx34DrvDbms.TDBXOpenODBCMetaDataReaderInformix.GetDataTypeDescriptions
 0001:0002C744       Dbx34DrvDbms.TDBXOpenODBCMetaDataCommandFactoryDataStorage.GetMetaDataReaderClass
 0001:0002C74C       Dbx34DrvDbms.TDBXOpenODBCMetaDataReaderDataStorage.GetSqlForTables
 0001:0002C864       Dbx34DrvDbms.TDBXOpenODBCMetaDataReaderDataStorage.GetSqlForColumns
 0001:0002C914       Dbx34DrvDbms.TDBXOpenODBCMetaDataReaderDataStorage.GetSqlForIndexes
 0001:0002C9B8       Dbx34DrvDbms.TDBXOpenODBCMetaDataReaderDataStorage.GetSqlForIndexColumns
 0001:0002CA80       Dbx34DrvDbms.TDBXOpenODBCMetaDataCommandFactoryFirebird.GetMetaDataReaderClass
 0001:0002CA88       Dbx34DrvDbms.TDBXOpenODBCMetaDataReaderFirebird.GetProductName
 0001:0002CABC       Dbx34DrvDbms.TDBXOpenODBCMetaDataReaderFirebird.Destroy
 0001:0002CAE8       Dbx34DrvDbms.TDBXOpenODBCMetaDataReaderFirebird.GetSqlForTables
 0001:0002CF18       Dbx34DrvDbms.TDBXOpenODBCMetaDataReaderFirebird.GetSqlForColumns
 0001:0002D3CC       Dbx34DrvDbms.TDBXOpenODBCMetaDataReaderFirebird.GetSqlForIndexes
 0001:0002D824       Dbx34DrvDbms.TDBXOpenODBCMetaDataReaderFirebird.GetSqlForIndexColumns
 0001:0002DD40       Dbx34DrvDbms.TDBXOpenODBCMetaDataReaderFirebird.GetReservedWords
 0001:000311A4       Dbx34DrvDbms.TDBXOpenODBCMetaDataReaderFirebird.IsDescendingIndexColumnsSupported
 0001:000311A8       Dbx34DrvDbms.TDBXOpenODBCMetaDataReaderFirebird.SetContext
 0001:00031254       Dbx34DrvDbms.TDBXOpenODBCMetaDataReaderFirebird.GetAllDataTypes
 0001:0003186C       Dbx34DrvDbms.TDBXOpenODBCMetaDataReaderFirebird.GetDataTypeDescriptions
 0001:0003192C       Dbx34DrvDbms.TDBXOpenODBCMetaDataCommandFactoryInterbase.GetMetaDataReaderClass
 0001:00031934       Dbx34DrvDbms.TDBXOpenODBCMetaDataReaderInterbase.GetProductName
 0001:00031968       Dbx34DrvDbms.TDBXOpenODBCMetaDataReaderInterbase.Destroy
 0001:00031994       Dbx34DrvDbms.TDBXOpenODBCMetaDataReaderInterbase.GetSqlForTables
 0001:00031DC4       Dbx34DrvDbms.TDBXOpenODBCMetaDataReaderInterbase.GetSqlForColumns
 0001:00032278       Dbx34DrvDbms.TDBXOpenODBCMetaDataReaderInterbase.GetSqlForIndexes
 0001:000326D0       Dbx34DrvDbms.TDBXOpenODBCMetaDataReaderInterbase.GetSqlForIndexColumns
 0001:00032BEC       Dbx34DrvDbms.TDBXOpenODBCMetaDataReaderInterbase.GetReservedWords
 0001:00036050       Dbx34DrvDbms.TDBXOpenODBCMetaDataReaderInterbase.IsDescendingIndexColumnsSupported
 0001:00036054       Dbx34DrvDbms.TDBXOpenODBCMetaDataReaderInterbase.SetContext
 0001:00036100       Dbx34DrvDbms.TDBXOpenODBCMetaDataReaderInterbase.GetAllDataTypes
 0001:00036718       Dbx34DrvDbms.TDBXOpenODBCMetaDataReaderInterbase.GetDataTypeDescriptions
 0001:000367D8       Dbx34DrvDbms.TDBXOpenODBCMetaDataCommandFactorySQLite.GetMetaDataReaderClass
 0001:000367E0       Dbx34DrvDbms.TDBXOpenODBCMetaDataReaderSQLite.GetSqlForTables
 0001:000367EC       Dbx34DrvDbms.TDBXOpenODBCMetaDataCommandFactoryPostgreSQL.GetMetaDataReaderClass
 0001:000367F4       Dbx34DrvDbms.TDBXOpenODBCMetaDataReaderPostgreSQL.GetSqlForTables
 0001:00036D98       Dbx34DrvDbms.TDBXOpenODBCMetaDataReaderPostgreSQL.GetSqlForColumns
 0001:0003758C       Dbx34DrvDbms.TDBXOpenODBCMetaDataReaderPostgreSQL.GetSqlForIndexes
 0001:00037B94       Dbx34DrvDbms.TDBXOpenODBCMetaDataReaderPostgreSQL.GetSqlForIndexColumns
 0001:00038A80       Dbx34DrvDbms.TDBXOpenODBCMetaDataReaderPostgreSQL.GetReservedWords
 0001:000391FC       Dbx34DrvDbms.Finalization
 0001:00039280       Dbx34Drv..EDBXError
 0001:0003931C       Dbx34Drv..EDbxOODBCDriverError
 0001:000393D0       Dbx34Drv..TDBXOpenOdbcPropertyNames
 0001:00039484       Dbx34Drv..TDBXPropertyNames
 0001:00039528       Dbx34Drv..TDbxOpenOdbcDriver
 0001:000395FC       Dbx34Drv..TDBXOpenOdbcProperties
 0001:0003981C       Dbx34Drv..TDBXDynalinkDriverLoaderOpenOdbc
 0001:000398F4       Dbx34Drv..TDBXDynalinkConnectionOpenOdbc
 0001:00039A58       Dbx34Drv..TDBXMorphicCommandOpenOdbc
 0001:00039B84       Dbx34Drv..TDBXDataExpressProviderContextOpenOdbc
 0001:00039C78       Dbx34Drv..TDBXCustomOpenODBCMetaDataReader
 0001:00039E90       Dbx34Drv..TDBXOpenODBCMetaDataCommand
 0001:0003A034       Dbx34Drv..TDBXOpenODBCMetaDataCommandFactory
 0001:0003A140       Dbx34Drv..TDBXOpenODBCMetaDataCommandFactoryCustom
 0001:0003A224       Dbx34Drv..TDBXOpenODBCMetaDataReader
 0001:0003A420       Dbx34Drv.DBXStringArrayToNamedQueryParams
 0001:0003A51C       Dbx34Drv.DBXStringArrayToErrorInfo
 0001:0003A668       Dbx34Drv.ErrorGetVendorPropertyCommand
 0001:0003A7AC       Dbx34Drv.CheckGetVendorPropertyCommand
 0001:0003A848       Dbx34Drv.CheckPathEnvironmet
 0001:0003AA08       Dbx34Drv.CheckLibraryPath
 0001:0003AA94       Dbx34Drv.CheckLibraryName
 0001:0003AAE0       Dbx34Drv.CheckVendorLib
 0001:0003AB28       Dbx34Drv.TDbxOpenOdbcDriver.Create
 0001:0003AC08       Dbx34Drv.TDbxOpenOdbcDriver.CreateCommandOpenOdbc
 0001:0003AC20       Dbx34Drv.TDbxOpenOdbcDriver.CreateConnection
 0001:0003AC64       Dbx34Drv.TDbxOpenOdbcDriver.LoadDriverWithConnectionBuilder
 0001:0003ACF0       Dbx34Drv.TDbxOpenOdbcDriver.GetDriverPropertyNames
 0001:0003ACF8       Dbx34Drv.TDbxOpenOdbcDriver.GetDriverVersion
 0001:0003AD34       Dbx34Drv.TDBXOpenOdbcProperties.Create
 0001:0003AEDC       Dbx34Drv.TDBXOpenOdbcProperties.GetConnectionString
 0001:0003AF24       Dbx34Drv.TDBXOpenOdbcProperties.SetConnectionString
 0001:0003AF64       Dbx34Drv.TDBXOpenOdbcProperties.GetDatabase
 0001:0003AF9C       Dbx34Drv.TDBXOpenOdbcProperties.SetDatabase
 0001:0003AFCC       Dbx34Drv.TDBXOpenOdbcProperties.GetUserName
 0001:0003B004       Dbx34Drv.TDBXOpenOdbcProperties.SetUserName
 0001:0003B034       Dbx34Drv.TDBXOpenOdbcProperties.GetPassWord
 0001:0003B06C       Dbx34Drv.TDBXOpenOdbcProperties.SetPassWord
 0001:0003B09C       Dbx34Drv.TDBXOpenOdbcProperties.GetBlobSize
 0001:0003B118       Dbx34Drv.TDBXOpenOdbcProperties.SetBlobSize
 0001:0003B190       Dbx34Drv.TDBXOpenOdbcProperties.GetOdbcTransIsolation
 0001:0003B1EC       Dbx34Drv.TDBXOpenOdbcProperties.SetOdbcTransIsolation
 0001:0003B240       Dbx34Drv.TDBXOpenOdbcProperties.GetDecimalSeparator
 0001:0003B288       Dbx34Drv.TDBXOpenOdbcProperties.SetDecimalSeparator
 0001:0003B2C8       Dbx34Drv.TDBXOpenOdbcProperties.GetTrimChar
 0001:0003B33C       Dbx34Drv.TDBXOpenOdbcProperties.SetTrimChar
 0001:0003B3B4       Dbx34Drv.TDBXOpenOdbcProperties.GetCustomString
 0001:0003B3F4       Dbx34Drv.TDBXOpenOdbcProperties.SetCustomString
 0001:0003B42C       Dbx34Drv.TDBXDynalinkDriverLoaderOpenOdbc.LoadDriverLibraryAndMethodTable
 0001:0003B6C8       Dbx34Drv.TDBXDynalinkDriverLoaderOpenOdbc.FreeOldLibrary
 0001:0003B6E0       Dbx34Drv.TDBXDynalinkConnectionOpenOdbc.GetProductVersion
 0001:0003B6F4       Dbx34Drv.TDBXDynalinkConnectionOpenOdbc.GetProductName
 0001:0003B72C       Dbx34Drv.TDBXDynalinkConnectionOpenOdbc.DerivedGetCommands
 0001:0003B730       Dbx34Drv.TDBXDynalinkConnectionOpenOdbc.DerivedGetCommandTypes
 0001:0003B734       Dbx34Drv.RaiseDriverVersionFailed
 0001:0003B7B8       Dbx34Drv.TDBXDynalinkConnectionOpenOdbc.DerivedOpen
 0001:0003B92C       Dbx34Drv.TDBXDynalinkConnectionOpenOdbc.DoDerivedOpenBefore
 0001:0003BCF4       Dbx34Drv.TDBXDynalinkConnectionOpenOdbc.DoDerivedOpenAfter
 0001:0003BDE0       Dbx34Drv.TDBXDynalinkConnectionOpenOdbc.DerivedClose
 0001:0003BDE4       Dbx34Drv.TDBXDynalinkConnectionOpenOdbc.GetDatabaseMetaData
 0001:0003BDEC       Dbx34Drv.TDBXDynalinkConnectionOpenOdbc.Close
 0001:0003BDF4       Dbx34Drv.TDBXDynalinkConnectionOpenOdbc.DerivedCreateCommand
 0001:0003BE08       Dbx34Drv.TDBXDynalinkConnectionOpenOdbc.GetVendorProperty
 0001:0003BE84       Dbx34Drv.TDBXMorphicCommandOpenOdbc.Create
 0001:0003BEC4       Dbx34Drv.TDBXMorphicCommandOpenOdbc.DerivedExecuteQuery
 0001:0003BECC       Dbx34Drv.TDBXCustomOpenODBCMetaDataReader.InitMetadata
 0001:0003BFA4       Dbx34Drv.TDBXCustomOpenODBCMetaDataReader.CheckMetadata
 0001:0003C028       Dbx34Drv.TDBXCustomOpenODBCMetaDataReader.SetContext
 0001:0003C040       Dbx34Drv.TDBXCustomOpenODBCMetaDataReader.GetProductName
 0001:0003C084       Dbx34Drv.TDBXCustomOpenODBCMetaDataReader.GetSqlIdentifierQuotePrefix
 0001:0003C098       Dbx34Drv.TDBXCustomOpenODBCMetaDataReader.GetSqlIdentifierQuoteSuffix
 0001:0003C0AC       Dbx34Drv.TDBXCustomOpenODBCMetaDataReader.IsParameterMetadataSupported
 0001:0003C0B0       Dbx34Drv.TDBXCustomOpenODBCMetaDataReader.IsLowerCaseIdentifiersSupported
 0001:0003C0B4       Dbx34Drv.TDBXCustomOpenODBCMetaDataReader.IsUpperCaseIdentifiersSupported
 0001:0003C0B8       Dbx34Drv.TDBXCustomOpenODBCMetaDataReader.IsDescendingIndexSupported
 0001:0003C0BC       Dbx34Drv.TDBXCustomOpenODBCMetaDataReader.IsDescendingIndexColumnsSupported
 0001:0003C0C0       Dbx34Drv.TDBXCustomOpenODBCMetaDataReader.GetSqlIdentifierQuoteChar
 0001:0003C0D4       Dbx34Drv.TDBXCustomOpenODBCMetaDataReader.GetSqlProcedureQuoteChar
 0001:0003C0E8       Dbx34Drv.TDBXCustomOpenODBCMetaDataReader.IsMultipleCommandsSupported
 0001:0003C0EC       Dbx34Drv.TDBXCustomOpenODBCMetaDataReader.IsTransactionsSupported
 0001:0003C0F0       Dbx34Drv.TDBXCustomOpenODBCMetaDataReader.IsNestedTransactionsSupported
 0001:0003C0F4       Dbx34Drv.TDBXCustomOpenODBCMetaDataReader.IsSetRowSizeSupported
 0001:0003C0F8       Dbx34Drv.TDBXCustomOpenODBCMetaDataReader.GetUseAnsiStrings
 0001:0003C100       Dbx34Drv.TDBXOpenODBCMetaDataCommand.DerivedExecuteQuery
 0001:0003C108       Dbx34Drv.TDBXOpenODBCMetaDataCommandFactoryCustom.CreateMetaDataReader
 0001:0003C11C       Dbx34Drv.TDBXOpenODBCMetaDataCommandFactory.GetMetaDataReaderClass
 0001:0003C124       Dbx34Drv.TDBXOpenODBCMetaDataCommandFactory.InitMetaDataReaderClass
 0001:0003C314       Dbx34Drv.TDBXOpenODBCMetaDataCommandFactory.CreateCommand
 0001:0003C3F4       Dbx34Drv.TDBXOpenODBCMetaDataCommandFactory.GetProductName
 0001:0003C42C       Dbx34Drv.TDBXOpenODBCMetaDataCommandFactory.CreateMetaDataReader
 0001:0003C680       Dbx34Drv.TDBXOpenODBCMetaDataCommandFactory.CreateMetaDataReader
 0001:0003C68C       Dbx34Drv.TDBXOpenODBCMetaDataCommandFactory.RegisterMetaDataCommandFactory
 0001:0003C694       Dbx34Drv.TDBXOpenODBCMetaDataCommandFactory.UnRegisterMetaDataCommandFactory
 0001:0003C69C       Dbx34Drv.TDBXOpenODBCMetaDataReader.Create
 0001:0003C6D8       Dbx34Drv.TDBXOpenODBCMetaDataReader.FetchDataTypes
 0001:0003C740       Dbx34Drv.TDBXOpenODBCMetaDataReader.FetchCatalogs
 0001:0003C7C0       Dbx34Drv.TDBXOpenODBCMetaDataReader.FetchSchemas
 0001:0003C8E0       Dbx34Drv.TDBXOpenODBCMetaDataReader.FetchTables
 0001:0003CDBC       Dbx34Drv.TDBXOpenODBCMetaDataReader.FetchViews
 0001:0003CEE4       Dbx34Drv.TDBXOpenODBCMetaDataReader.FetchColumns
 0001:0003D01C       Dbx34Drv.TDBXOpenODBCMetaDataReader.FetchColumnConstraints
 0001:0003D154       Dbx34Drv.TDBXOpenODBCMetaDataReader.FetchForeignKeyColumns
 0001:0003D2A4       Dbx34Drv.TDBXOpenODBCMetaDataReader.FetchForeignKeys
 0001:0003D3D0       Dbx34Drv.TDBXOpenODBCMetaDataReader.FetchIndexColumns
 0001:0003D774       Dbx34Drv.TDBXOpenODBCMetaDataReader.FetchIndexes
 0001:0003DAB8       Dbx34Drv.TDBXOpenODBCMetaDataReader.FetchProcedures
 0001:0003DBE8       Dbx34Drv.TDBXOpenODBCMetaDataReader.FetchProcedureSources
 0001:0003DD20       Dbx34Drv.TDBXOpenODBCMetaDataReader.FetchSynonyms
 0001:0003DE48       Dbx34Drv.TDBXOpenODBCMetaDataReader.FetchProcedureParameters
 0001:0003DF9C       Dbx34Drv.TDBXOpenODBCMetaDataReader.FetchPackages
 0001:0003E0C4       Dbx34Drv.TDBXOpenODBCMetaDataReader.FetchPackageProcedures
 0001:0003E204       Dbx34Drv.TDBXOpenODBCMetaDataReader.FetchPackageProcedureParameters
 0001:0003E370       Dbx34Drv.TDBXOpenODBCMetaDataReader.FetchPackageSources
 0001:0003E4A4       Dbx34Drv.TDBXOpenODBCMetaDataReader.FetchUsers
 0001:0003E57C       Dbx34Drv.TDBXOpenODBCMetaDataReader.FetchRoles
 0001:0003E654       Dbx34Drv.TDBXOpenODBCMetaDataReader.FetchReservedWords
 0001:0003E788       Dbx34Drv.TDBXOpenODBCMetaDataReader.GetProductName
 0001:0003E7C0       Dbx34Drv.TDBXOpenODBCMetaDataReader.GetReservedWords
 0001:0003E7D4       Dbx34Drv.TDBXOpenODBCMetaDataReader.GetSqlForColumns
 0001:0003E7E0       Dbx34Drv.TDBXOpenODBCMetaDataReader.GetSqlForForeignKeyColumns
 0001:0003E7EC       Dbx34Drv.TDBXOpenODBCMetaDataReader.GetSqlForForeignKeys
 0001:0003E7F8       Dbx34Drv.TDBXOpenODBCMetaDataReader.GetSqlForIndexColumns
 0001:0003E804       Dbx34Drv.TDBXOpenODBCMetaDataReader.GetSqlForIndexes
 0001:0003E810       Dbx34Drv.TDBXOpenODBCMetaDataReader.GetSqlForPackageProcedureParameters
 0001:0003E81C       Dbx34Drv.TDBXOpenODBCMetaDataReader.GetSqlForPackageProcedures
 0001:0003E828       Dbx34Drv.TDBXOpenODBCMetaDataReader.GetSqlForPackages
 0001:0003E834       Dbx34Drv.TDBXOpenODBCMetaDataReader.GetSqlForPackageSources
 0001:0003E840       Dbx34Drv.TDBXOpenODBCMetaDataReader.GetSqlForProcedureParameters
 0001:0003E84C       Dbx34Drv.TDBXOpenODBCMetaDataReader.GetSqlForProcedures
 0001:0003E858       Dbx34Drv.TDBXOpenODBCMetaDataReader.GetSqlForProcedureSources
 0001:0003E864       Dbx34Drv.TDBXOpenODBCMetaDataReader.GetSqlForRoles
 0001:0003E870       Dbx34Drv.TDBXOpenODBCMetaDataReader.GetSqlForSchemas
 0001:0003E87C       Dbx34Drv.TDBXOpenODBCMetaDataReader.GetSqlForSynonyms
 0001:0003E888       Dbx34Drv.TDBXOpenODBCMetaDataReader.GetSqlForTables
 0001:0003E894       Dbx34Drv.TDBXOpenODBCMetaDataReader.GetSqlForUsers
 0001:0003E8A0       Dbx34Drv.TDBXOpenODBCMetaDataReader.GetSqlForViews
 0001:0003E8AC       Dbx34Drv.TDBXOpenODBCMetaDataReader.IsNestedTransactionsSupported
 0001:0003E8B0       Dbx34Drv.TDBXOpenODBCMetaDataReader.IsSetRowSizeSupported
 0001:0003E8B4       Dbx34Drv.Finalization
 0001:0003E948       DbxXXDrv.IsDbxDrvFixed
 0001:0003E94C       DbxXXDrv.Finalization
 0001:0003EA80       DbxOpenOdbcApiHook..TIATPatch
 0001:0003EB60       DbxOpenOdbcApiHook.SizeOfCode
 0001:0003EE24       DbxOpenOdbcApiHook.SizeOfProc
 0001:0003EE48       DbxOpenOdbcApiHook.SaveOldFunction
 0001:0003EE90       DbxOpenOdbcApiHook.HookCode
 0001:0003EFA0       DbxOpenOdbcApiHook.HookProc
 0001:0003EFE8       DbxOpenOdbcApiHook.UnhookCode
 0001:0003F09C       DbxOpenOdbcApiHook.GetNativeAddr
 0001:0003F0C0       DbxOpenOdbcApiHook.JumpFromCode
 0001:0003F198       DbxOpenOdbcApiHook.RestoreSavedCode
 0001:0003F284       DbxOpenOdbcApiHook.IsJumpFromCode
 0001:0003F2AC       DbxOpenOdbcApiHook.TIATPatch.NextFunctionName
 0001:0003F2E0       DbxOpenOdbcApiHook.TIATPatch.ListContainsIAT
 0001:0003F300       DbxOpenOdbcApiHook.TIATPatch.CompareLibraryNames
 0001:0003F3C8       DbxOpenOdbcApiHook.TIATPatch.UpdateEntry
 0001:0003F414       DbxOpenOdbcApiHook.TIATPatch.UpdatePatch
 0001:0003F448       DbxOpenOdbcApiHook.TIATPatch.EnumIATList
 0001:0003F628       DbxOpenOdbcApiHook.TIATPatch.BuildIATPatchList
 0001:0003F6BC       DbxOpenOdbcApiHook.TIATPatch.Unpatch
 0001:0003F7D8       DbxOpenOdbcApiHook.TIATPatch.Patch
 0001:0003F9F8       DbxOpenOdbcApiHook.TIATPatch.Find
 0001:0003FB2C       DbxOpenOdbcApiHook.TIATPatch.Delete
 0001:0003FC04       DbxOpenOdbcApiHook.TIATPatch.Clear
 0001:0003FD24       DbxOpenOdbcApiHook.TIATPatch.GetPatchRecord
 0001:0003FD84       DbxOpenOdbcApiHook.TIATPatch.GetUnpatchOnFree
 0001:0003FDDC       DbxOpenOdbcApiHook.TIATPatch.SetUnpatchOnFree
 0001:0003FE2C       DbxOpenOdbcApiHook.TIATPatch.GetCount
 0001:0003FE84       DbxOpenOdbcApiHook.TIATPatch.Create
 0001:0003FED8       DbxOpenOdbcApiHook.TIATPatch.Destroy
 0001:0003FF78       DbxOpenOdbcApiHook.GetVirtualMethodAddress
 0001:0003FF84       DbxOpenOdbcApiHook.SetVirtualMethodAddress
 0001:0004000C       DbxOpenOdbcApiHook.FindVirtualMethodIndex
 0001:0004006C       DbxOpenOdbcApiHook.GetVirtualMethodOffset
 0001:00040084       DbxOpenOdbcApiHook.FxtGetStubAddress
 0001:0004009C       DbxOpenOdbcApiHook.Finalization
 0001:000400A4       DbxDBFix.Finalization
 0001:00040520       .dbxoodbc.@GetPackageInfoTable
 0001:00040528       .dbxoodbc.@PackageLoad
 0001:00040534       .dbxoodbc.@PackageUnload
 0002:00000000       System.System
 0002:00000008       SysInit.SysInit
 0002:00000010       System.UITypes.System.UITypes
 0002:00000018       Winapi.Windows.Winapi.Windows
 0002:00000030       Winapi.PsAPI.Winapi.PsAPI
 0002:00000038       System.Character.System.Character
 0002:00000040       System.Internal.ExcUtils.System.Internal.ExcUtils
 0002:00000048       System.SysUtils.TLanguages.Create@
 0002:00000050       System.SysUtils.TEncoding.Create@
 0002:00000058       System.SysUtils.Exception.Create@
 0002:00000060       System.SysUtils.TOSVersion.Create@
 0002:00000068       System.SysUtils.System.SysUtils
 0002:00000070       System.VarUtils.System.VarUtils
 0002:00000078       System.Variants.System.Variants
 0002:00000080       System.Math.System.Math
 0002:00000088       System.Rtti.TRttiContext.Create@
 0002:00000090       System.Rtti.System.Rtti
 0002:00000098       System.TypInfo.System.TypInfo
 0002:000000A0       System.Generics.Defaults.TStringComparer.Create@
 0002:000000A8       System.Generics.Defaults.TIStringComparer.Create@
 0002:000000B0       System.Classes.TObserverMapping.Create@
 0002:000000B8       System.Classes.TBinaryWriter.Create@
 0002:000000C0       System.Classes.TThread.Create@
 0002:000000C8       System.Classes.TComponent.Create@
 0002:000000D0       System.Classes.TLoginCredentialService.Create@
 0002:000000D8       System.Classes.TBaseAsyncResult.Create@
 0002:000000E0       System.Classes.System.Classes
 0002:000000E8       Data.DBXClassRegistry.Data.DBXClassRegistry
 0002:000000F0       System.TimeSpan.TTimeSpan.Create@
 0002:000000F8       System.DateUtils.TTimeZone.Create@
 0002:00000100       System.DateUtils.System.DateUtils
 0002:00000108       Data.SqlTimSt.Data.SqlTimSt
 0002:00000110       Data.FmtBcd.Data.FmtBcd
 0002:00000118       Data.DB.Data.DB
 0002:00000120       System.SyncObjs.System.SyncObjs
 0002:00000128       System.IOUtils.TPath.Create@
 0002:00000130       System.IniFiles.System.IniFiles
 0002:00000138       System.JSON.System.JSON
 0002:00000140       System.JSON.Types.System.JSON.Types
 0002:00000148       System.NetEncoding.TNetEncoding.Create@
 0002:00000150       System.JSON.Utils.TJsonTextUtils.Create@
 0002:00000158       System.JSON.Readers.System.JSON.Readers
 0002:00000160       System.JSON.Writers.TJsonWriter.Create@
 0002:00000168       System.Win.Registry.TRegistry.Create@
 0002:00000170       Data.DBXCommon.TDBXConnectionFactory.Create@
 0002:00000178       Data.DBXCommon.Data.DBXCommon
 0002:00000180       Data.DBXDynalink.Data.DBXDynalink
 0002:00000188       Dbx34DrvDbms.Dbx34DrvDbms
 0002:0000020C       Dbx34Drv.Dbx34Drv
 0002:000002B4       DbxXXDrv.DbxXXDrv
 0002:000002BC       DbxOpenOdbcApiHook.DbxOpenOdbcApiHook
 0002:000002C4       DbxDBFix.DbxDBFix
 0002:000002CC       .dbxoodbc..dbxoodbc
 0003:00000000       SysInit.TlsIndex
 0003:00000004       SysInit.PtrToNil
 0003:00000008       SysInit.Module
 0003:00000024       SysInit.TlsProc
 0003:00000034       SysInit...
 0003:00000088       Winapi.Windows.Win32MajorVersion
 0003:0000008C       Winapi.Windows.Win32MinorVersion
 0003:00000090       Winapi.Windows.Win32Platform
 0003:00000094       Dbx34Drv.bIsDbx34Drv
 0003:00000098       DbxOpenOdbcApiHook.Opcodes1
 0003:00000298       DbxOpenOdbcApiHook.Opcodes2
 0003:00000498       DbxOpenOdbcApiHook.Opcodes3
 0004:FFFBC000       SysInit.__ImageBase
 0004:00000000       SysInit.ModuleIsLib
 0004:00000001       SysInit.ModuleIsPackage
 0004:00000004       SysInit.HInstance
 0004:0000000C       SysInit.dbkFCallWrapperAddr
 0004:00000010       SysInit.@_pfnDliNotifyHook2
 0004:00000014       SysInit.@_pfnDliFailureHook2
 0004:00000018       SysInit..1
 0004:0000001C       SysInit.tlsBuffer
 0004:00000020       Winapi.Windows..2
 0004:00000024       Winapi.Windows.HtmlHelpModule
 0004:00000028       Winapi.PsAPI..1
 0004:0000002C       Winapi.PsAPI.hPSAPI
 0004:00000030       Dbx34DrvDbms..52
 0004:00000034       Dbx34Drv..71
 0004:00000038       DbxXXDrv..1
 0004:0000003C       DbxOpenOdbcApiHook..2
 0004:00000040       DbxDBFix..1
 0005:00000000       SysInit.TlsLast


Line numbers for SysInit(SysInit.pas) segment .text

   396 0001:00000238   397 0001:0000023B   398 0001:00000244   401 0001:00000248
   428 0001:00000250   431 0001:00000258   434 0001:00000260   437 0001:00000268
   440 0001:00000270   443 0001:00000278   458 0001:00000280   478 0001:00000288
   480 0001:00000290   481 0001:00000298   566 0001:000002A0   567 0001:000002A8
   701 0001:000002AC   705 0001:000002B1   712 0001:000002B4   713 0001:000002B5
   714 0001:000002BC   718 0001:000002C0   719 0001:000002C9   720 0001:000002D3
   721 0001:000002DA   722 0001:000002DE   724 0001:000002EA   725 0001:000002F6
   730 0001:000002F8   732 0001:00000301   733 0001:0000030B   734 0001:00000310
   735 0001:00000320   741 0001:00000324   743 0001:0000032D   745 0001:00000336
   746 0001:00000341   748 0001:00000345   749 0001:0000034B   752 0001:00000358
   756 0001:0000035C   758 0001:00000365   759 0001:0000036A   760 0001:00000373
   761 0001:0000037E   877 0001:00000380   878 0001:0000038A   889 0001:0000038C
   890 0001:00000396   891 0001:000003A7   892 0001:000003AD   974 0001:000003B0
   983 0001:000003B4   984 0001:000003B7   985 0001:000003CB   986 0001:000003DF
   987 0001:000003F3   988 0001:00000407   989 0001:0000041B   990 0001:0000042F
   991 0001:00000443   992 0001:00000457   993 0001:0000046B   994 0001:0000047F
   995 0001:00000493   996 0001:000004A7   997 0001:000004BB   998 0001:000004CF
   999 0001:000004E3  1000 0001:000004F7  1001 0001:0000050B  1002 0001:0000051F
  1003 0001:00000533  1004 0001:00000547  1005 0001:0000055B  1006 0001:0000056F
  1007 0001:00000583  1008 0001:00000597  1009 0001:000005AB  1010 0001:000005BF
  1011 0001:000005D3  1012 0001:000005E7  1013 0001:000005FB  1014 0001:0000060F
  1015 0001:00000623  1016 0001:00000637  1017 0001:0000064B  1018 0001:0000065F
  1019 0001:00000673  1020 0001:00000687  1021 0001:0000069B  1022 0001:000006AF
  1023 0001:000006C3  1024 0001:000006D7  1025 0001:000006EB  1026 0001:000006FF
  1027 0001:00000713  1028 0001:00000727  1029 0001:0000073B  1030 0001:0000074F
  1031 0001:00000763  1032 0001:00000777  1033 0001:0000078B  1035 0001:0000079F
  1175 0001:000007A4  1176 0001:000007AB  1177 0001:000007B0  1178 0001:000007BE
  1183 0001:0000084A  1188 0001:000008C9  1206 0001:000008D0  1207 0001:000008DB
  1208 0001:000008E2  1209 0001:000008E9  1210 0001:000008EE  1211 0001:000008F6
  1212 0001:000008FE  1213 0001:00000903  1214 0001:0000090C  1215 0001:00000915
  1216 0001:0000091A  1217 0001:00000921  1218 0001:00000925  1219 0001:0000092A
  1220 0001:0000092D  1274 0001:00000934  1275 0001:0000093E  1279 0001:00000940
  1280 0001:0000094A

Line numbers for SysInit(C:\Builds\tp\runtime\rtl\sys\delayhlp.cpp) segment .text

   223 0001:0000094C   231 0001:00000952   223 0001:00000957   231 0001:0000095A
   223 0001:0000095D   231 0001:00000960   242 0001:000009BF   231 0001:000009C2
   242 0001:000009C5   253 0001:000009E2   254 0001:000009E8   256 0001:000009F7
   262 0001:00000A09   265 0001:00000A10   271 0001:00000A13   265 0001:00000A1B
   271 0001:00000A1D   272 0001:00000A28   274 0001:00000A2B   276 0001:00000A33
   278 0001:00000A40   279 0001:00000A44   280 0001:00000A53   282 0001:00000A55
   288 0001:00000A60   290 0001:00000A62   291 0001:00000A6B   293 0001:00000A79
   294 0001:00000A7D   300 0001:00000A82   301 0001:00000A8A   302 0001:00000A93
   304 0001:00000AA1   305 0001:00000AA5   307 0001:00000AB0   308 0001:00000AB4
   309 0001:00000ABC   314 0001:00000AC5   317 0001:00000AD3   318 0001:00000AD7
   320 0001:00000AE5   331 0001:00000AF7   339 0001:00000AFF   340 0001:00000B09
   342 0001:00000B0D   345 0001:00000B13   347 0001:00000B3E   349 0001:00000B40
   356 0001:00000B46   357 0001:00000B49   358 0001:00000B52   360 0001:00000B60
   361 0001:00000B64   364 0001:00000B70   366 0001:00000B75   373 0001:00000B94
   374 0001:00000B9D   375 0001:00000BA1   380 0001:00000BA3   383 0001:00000BAF
   384 0001:00000BB3   385 0001:00000BBB   389 0001:00000BC4   391 0001:00000BD2
   392 0001:00000BD6   394 0001:00000BE4   405 0001:00000BF6   410 0001:00000BF9
   413 0001:00000BFE   414 0001:00000C07   415 0001:00000C0C   416 0001:00000C0F
   417 0001:00000C12   419 0001:00000C1E   420 0001:00000C20   424 0001:00000C2C
   426 0001:00000C32   424 0001:00000C34   426 0001:00000C3A   429 0001:00000C3D
   431 0001:00000C4F   432 0001:00000C5D   433 0001:00000C6C   439 0001:00000C76
   440 0001:00000C78   439 0001:00000C7A   440 0001:00000C7D   443 0001:00000CA1
   444 0001:00000CAE   445 0001:00000CB1   446 0001:00000CBE   448 0001:00000CC6
   452 0001:00000CF7   453 0001:00000D00   455 0001:00000D07   457 0001:00000D1A
   460 0001:00000D21   461 0001:00000D25   464 0001:00000D30   465 0001:00000D33
   469 0001:00000D3C   471 0001:00000D41   469 0001:00000D46   471 0001:00000D47
   469 0001:00000D4D   470 0001:00000D4E   475 0001:00000D55   478 0001:00000D62
   490 0001:00000D73   491 0001:00000D7C   492 0001:00000D85   495 0001:00000DA5
   500 0001:00000DA7   484 0001:00000DAA   503 0001:00000DB1   508 0001:00000DB7
   509 0001:00000DC3   510 0001:00000DCA   512 0001:00000DD1   513 0001:00000DD5
   512 0001:00000DDC   518 0001:00000DE3   521 0001:00000DE8   522 0001:00000DEB
   536 0001:00000DF4   537 0001:00000DFB

Line numbers for SysInit(SysInit.pas) segment .text

  1736 0001:00000F14  1738 0001:00000F21

Line numbers for SysInit(SysInit.pas) segment .itext

  1734 0002:00000008  1735 0002:0000000F

Line numbers for Winapi.Windows(Winapi.Windows.pas) segment .text

 37566 0001:00000F2C 37597 0001:00000F34 37728 0001:00000F3C 37740 0001:00000F44
 38121 0001:00000F4C 38179 0001:00000F54 38181 0001:00000F5C 38229 0001:00000F64
 38259 0001:00000F6C 38261 0001:00000F74 38262 0001:00000F95 38263 0001:00000F9C
 38265 0001:00000FA8 38266 0001:00000FFC 38376 0001:00001024 38377 0001:0000102C
 38465 0001:00001034 38507 0001:0000103C 38514 0001:00001044 38931 0001:0000104C
 38933 0001:00001054 40746 0001:0000105C 40747 0001:00001062 41504 0001:00001064
 41505 0001:0000106A 41506 0001:00001071 41509 0001:0000107B 41510 0001:00001084
 41511 0001:0000108D 41513 0001:00001096 41771 0001:000010A0 41772 0001:000010BC

Line numbers for Winapi.Windows(Winapi.Windows.pas) segment .itext

 41767 0002:00000018 41768 0002:00000021 41769 0002:00000026 41770 0002:0000002D

Line numbers for Winapi.PsAPI(Winapi.PsAPI.pas) segment .text

   436 0001:000010C0   438 0001:000010D1   439 0001:000010DC   442 0001:000010E3

Line numbers for Winapi.PsAPI(Winapi.PsAPI.pas) segment .itext

   433 0002:00000030   435 0002:00000037

Line numbers for Winapi.Messages(Winapi.Messages.pas) segment .text

  2232 0001:00000000

Line numbers for Winapi.ActiveX(Winapi.ActiveX.pas) segment .text

  7819 0001:00000000

Line numbers for Dbx34DrvDbms(Dbx34DrvDbms.pas) segment .text

   563 0001:00003E7C   564 0001:00003E81   569 0001:00003E84   570 0001:00003E87
   571 0001:00003E93   574 0001:00003EB4   575 0001:00003EB7   579 0001:00003EC3
   582 0001:00003F90   583 0001:00003F93   590 0001:00003F9F   593 0001:000044E4
   594 0001:000044E7   599 0001:000044F3   602 0001:00004804   603 0001:00004807
   609 0001:00004813   612 0001:00004C00   613 0001:00004C03   619 0001:00004C0F
   624 0001:000050C8   625 0001:000050DE   626 0001:000050F6   627 0001:00005103
   628 0001:00005113   629 0001:00005123   630 0001:00005133   631 0001:00005143
   632 0001:00005153   633 0001:00005163   634 0001:00005173   635 0001:00005183
   636 0001:00005193   637 0001:000051A3   638 0001:000051B3   639 0001:000051C3
   640 0001:000051D3   641 0001:000051E3   642 0001:000051F3   643 0001:00005203
   644 0001:00005213   645 0001:00005223   646 0001:00005233   647 0001:00005243
   648 0001:00005253   649 0001:00005263   650 0001:00005273   651 0001:00005283
   652 0001:00005293   653 0001:000052A3   654 0001:000052B3   655 0001:000052C3
   656 0001:000052D3   657 0001:000052E3   658 0001:000052F3   659 0001:00005305
   660 0001:00005317   661 0001:00005329   662 0001:0000533B   663 0001:0000534D
   664 0001:0000535F   665 0001:00005371   666 0001:00005383   667 0001:00005395
   668 0001:000053A7   669 0001:000053B9   670 0001:000053CB   671 0001:000053DD
   672 0001:000053EF   673 0001:00005401   674 0001:00005413   675 0001:00005425
   676 0001:00005437   677 0001:00005449   678 0001:0000545B   679 0001:0000546D
   680 0001:0000547F   681 0001:00005491   682 0001:000054A3   683 0001:000054B5
   684 0001:000054C7   685 0001:000054D9   686 0001:000054EB   687 0001:000054FD
   688 0001:0000550F   689 0001:00005521   690 0001:00005533   691 0001:00005545
   692 0001:00005557   693 0001:00005569   694 0001:0000557B   695 0001:0000558D
   696 0001:0000559F   697 0001:000055B1   698 0001:000055C3   699 0001:000055D5
   700 0001:000055E7   701 0001:000055F9   702 0001:0000560B   703 0001:0000561D
   704 0001:0000562F   705 0001:00005641   706 0001:00005653   707 0001:00005663
   717 0001:00005E80   718 0001:00005E86   719 0001:00005E91   720 0001:00005EBA
   721 0001:00005EC6   722 0001:00005EEF   723 0001:00005EFB   724 0001:00005F24
   725 0001:00005F30   730 0001:00005FB4   731 0001:00005FCA   732 0001:00005FE2
   733 0001:00006013   734 0001:00006045   735 0001:00006086   736 0001:000060B8
   737 0001:000060F3   738 0001:0000612B   739 0001:00006160   740 0001:00006195
   741 0001:000061D3   742 0001:00006211   743 0001:00006246   744 0001:0000627B
   745 0001:000062BC   746 0001:000062F1   747 0001:00006329   748 0001:0000636A
   749 0001:000063AB   750 0001:000063E9   751 0001:00006427   752 0001:00006465
   753 0001:000064A6   754 0001:000064DE   755 0001:000064EE   765 0001:00006CD4
   766 0001:00006CD9   771 0001:00006CDC   772 0001:00006CDF   773 0001:00006CEB
   778 0001:00006D28   779 0001:00006D41   780 0001:00006D4B   781 0001:00006D5A
   787 0001:00006D68   792 0001:00006D74   797 0001:00007640   798 0001:00007659
   799 0001:00007663   800 0001:00007672   805 0001:00007680   809 0001:0000768C
   814 0001:000083F0   815 0001:00008409   816 0001:00008413   817 0001:00008422
   823 0001:00008430   828 0001:0000843C   833 0001:00008F18   834 0001:00008F31
   835 0001:00008F3B   836 0001:00008F4A   842 0001:00008F58   847 0001:00008F64
   852 0001:00009994   853 0001:000099AA   854 0001:000099C5   855 0001:000099D2
   856 0001:000099E2   857 0001:000099F2   858 0001:00009A02   859 0001:00009A12
   860 0001:00009A22   861 0001:00009A32   862 0001:00009A42   863 0001:00009A52
   864 0001:00009A62   865 0001:00009A72   866 0001:00009A82   867 0001:00009A92
   868 0001:00009AA2   869 0001:00009AB2   870 0001:00009AC2   871 0001:00009AD2
   872 0001:00009AE2   873 0001:00009AF2   874 0001:00009B02   875 0001:00009B12
   876 0001:00009B22   877 0001:00009B32   878 0001:00009B42   879 0001:00009B52
   880 0001:00009B62   881 0001:00009B72   882 0001:00009B82   883 0001:00009B92
   884 0001:00009BA2   885 0001:00009BB2   886 0001:00009BC2   887 0001:00009BD4
   888 0001:00009BE6   889 0001:00009BF8   890 0001:00009C0A   891 0001:00009C1C
   892 0001:00009C2E   893 0001:00009C40   894 0001:00009C52   895 0001:00009C64
   896 0001:00009C76   897 0001:00009C88   898 0001:00009C9A   899 0001:00009CAC
   900 0001:00009CBE   901 0001:00009CD0   902 0001:00009CE2   903 0001:00009CF4
   904 0001:00009D06   905 0001:00009D18   906 0001:00009D2A   907 0001:00009D3C
   908 0001:00009D4E   909 0001:00009D60   910 0001:00009D72   911 0001:00009D84
   912 0001:00009D96   913 0001:00009DA8   914 0001:00009DBA   915 0001:00009DCC
   916 0001:00009DDE   917 0001:00009DF0   918 0001:00009E02   919 0001:00009E14
   920 0001:00009E26   921 0001:00009E38   922 0001:00009E4A   923 0001:00009E5C
   924 0001:00009E6E   925 0001:00009E80   926 0001:00009E92   927 0001:00009EA4
   928 0001:00009EB6   929 0001:00009EC8   930 0001:00009EDA   931 0001:00009EEC
   932 0001:00009EFE   933 0001:00009F10   934 0001:00009F22   935 0001:00009F34
   936 0001:00009F46   937 0001:00009F58   938 0001:00009F6A   939 0001:00009F7C
   940 0001:00009F8E   941 0001:00009FA0   942 0001:00009FB2   943 0001:00009FC4
   944 0001:00009FD6   945 0001:00009FE8   946 0001:00009FFA   947 0001:0000A00C
   948 0001:0000A01E   949 0001:0000A030   950 0001:0000A042   951 0001:0000A054
   952 0001:0000A066   953 0001:0000A078   954 0001:0000A08A   955 0001:0000A09C
   956 0001:0000A0AE   957 0001:0000A0C0   958 0001:0000A0D2   959 0001:0000A0E4
   960 0001:0000A0F6   961 0001:0000A108   962 0001:0000A11A   963 0001:0000A12C
   964 0001:0000A13E   965 0001:0000A150   966 0001:0000A162   967 0001:0000A174
   968 0001:0000A186   969 0001:0000A198   970 0001:0000A1AA   971 0001:0000A1BC
   972 0001:0000A1CE   973 0001:0000A1E0   974 0001:0000A1F2   975 0001:0000A204
   976 0001:0000A216   977 0001:0000A228   978 0001:0000A23A   979 0001:0000A24C
   980 0001:0000A25E   981 0001:0000A270   982 0001:0000A282   983 0001:0000A294
   984 0001:0000A2A6   985 0001:0000A2B8   986 0001:0000A2CA   987 0001:0000A2DC
   988 0001:0000A2EE   989 0001:0000A300   990 0001:0000A312   991 0001:0000A324
   992 0001:0000A336   993 0001:0000A348   994 0001:0000A35A   995 0001:0000A36C
   996 0001:0000A37E   997 0001:0000A390   998 0001:0000A3A2   999 0001:0000A3B4
  1000 0001:0000A3C6  1001 0001:0000A3D8  1002 0001:0000A3EA  1003 0001:0000A3FC
  1004 0001:0000A40E  1005 0001:0000A420  1006 0001:0000A432  1007 0001:0000A444
  1008 0001:0000A456  1009 0001:0000A468  1010 0001:0000A47A  1011 0001:0000A48C
  1012 0001:0000A49E  1013 0001:0000A4B0  1014 0001:0000A4C2  1015 0001:0000A4D4
  1016 0001:0000A4E6  1017 0001:0000A4F8  1018 0001:0000A50A  1019 0001:0000A51C
  1020 0001:0000A52E  1021 0001:0000A540  1022 0001:0000A552  1023 0001:0000A564
  1024 0001:0000A576  1025 0001:0000A588  1026 0001:0000A59A  1027 0001:0000A5AC
  1028 0001:0000A5BE  1029 0001:0000A5D0  1030 0001:0000A5E2  1031 0001:0000A5F4
  1032 0001:0000A606  1033 0001:0000A618  1034 0001:0000A62A  1035 0001:0000A63C
  1036 0001:0000A64E  1037 0001:0000A660  1038 0001:0000A672  1039 0001:0000A684
  1040 0001:0000A696  1041 0001:0000A6A8  1042 0001:0000A6BA  1043 0001:0000A6CC
  1044 0001:0000A6DE  1045 0001:0000A6F0  1046 0001:0000A702  1047 0001:0000A714
  1048 0001:0000A726  1049 0001:0000A738  1050 0001:0000A74A  1051 0001:0000A75C
  1052 0001:0000A76E  1053 0001:0000A780  1054 0001:0000A792  1055 0001:0000A7A4
  1056 0001:0000A7B6  1057 0001:0000A7C8  1058 0001:0000A7DA  1059 0001:0000A7EC
  1060 0001:0000A7FE  1061 0001:0000A810  1062 0001:0000A822  1063 0001:0000A834
  1064 0001:0000A846  1065 0001:0000A858  1066 0001:0000A86A  1067 0001:0000A87C
  1068 0001:0000A88E  1069 0001:0000A8A0  1070 0001:0000A8B2  1071 0001:0000A8C4
  1072 0001:0000A8D6  1073 0001:0000A8E8  1074 0001:0000A8FA  1075 0001:0000A90C
  1076 0001:0000A91E  1077 0001:0000A930  1078 0001:0000A942  1079 0001:0000A954
  1080 0001:0000A966  1081 0001:0000A978  1082 0001:0000A98A  1083 0001:0000A99C
  1084 0001:0000A9AE  1085 0001:0000A9C0  1086 0001:0000A9D2  1087 0001:0000A9E4
  1088 0001:0000A9F6  1089 0001:0000AA08  1090 0001:0000AA1A  1091 0001:0000AA2C
  1092 0001:0000AA3E  1093 0001:0000AA50  1094 0001:0000AA62  1095 0001:0000AA74
  1096 0001:0000AA86  1097 0001:0000AA98  1098 0001:0000AAAA  1099 0001:0000AABC
  1100 0001:0000AACE  1101 0001:0000AAE0  1102 0001:0000AAF2  1103 0001:0000AB04
  1104 0001:0000AB16  1105 0001:0000AB28  1106 0001:0000AB3A  1107 0001:0000AB4C
  1108 0001:0000AB5E  1109 0001:0000AB70  1110 0001:0000AB82  1111 0001:0000AB94
  1112 0001:0000ABA6  1113 0001:0000ABB8  1114 0001:0000ABCA  1115 0001:0000ABDC
  1116 0001:0000ABEE  1117 0001:0000AC00  1118 0001:0000AC12  1119 0001:0000AC24
  1120 0001:0000AC36  1121 0001:0000AC48  1122 0001:0000AC5A  1123 0001:0000AC6C
  1124 0001:0000AC7E  1125 0001:0000AC90  1126 0001:0000ACA2  1127 0001:0000ACB4
  1128 0001:0000ACC6  1129 0001:0000ACD8  1130 0001:0000ACEA  1131 0001:0000ACFC
  1132 0001:0000AD0E  1133 0001:0000AD20  1134 0001:0000AD32  1135 0001:0000AD44
  1136 0001:0000AD56  1137 0001:0000AD68  1138 0001:0000AD7A  1139 0001:0000AD8C
  1140 0001:0000AD9E  1141 0001:0000ADB0  1142 0001:0000ADC2  1143 0001:0000ADD4
  1144 0001:0000ADE6  1145 0001:0000ADF8  1146 0001:0000AE0A  1147 0001:0000AE1C
  1148 0001:0000AE2E  1149 0001:0000AE40  1150 0001:0000AE52  1151 0001:0000AE64
  1152 0001:0000AE76  1153 0001:0000AE88  1154 0001:0000AE9A  1155 0001:0000AEAC
  1156 0001:0000AEBE  1157 0001:0000AED0  1158 0001:0000AEE2  1159 0001:0000AEF4
  1160 0001:0000AF06  1161 0001:0000AF18  1162 0001:0000AF2A  1163 0001:0000AF3C
  1164 0001:0000AF4E  1165 0001:0000AF60  1166 0001:0000AF72  1167 0001:0000AF84
  1168 0001:0000AF96  1169 0001:0000AFA8  1170 0001:0000AFBA  1171 0001:0000AFCC
  1172 0001:0000AFDE  1173 0001:0000AFF0  1174 0001:0000B002  1175 0001:0000B014
  1176 0001:0000B026  1177 0001:0000B038  1178 0001:0000B04A  1179 0001:0000B05C
  1180 0001:0000B06E  1181 0001:0000B080  1182 0001:0000B092  1183 0001:0000B0A4
  1184 0001:0000B0B6  1185 0001:0000B0C8  1186 0001:0000B0DA  1187 0001:0000B0EC
  1188 0001:0000B0FE  1189 0001:0000B110  1190 0001:0000B122  1191 0001:0000B134
  1192 0001:0000B146  1193 0001:0000B158  1194 0001:0000B16A  1195 0001:0000B17C
  1196 0001:0000B18E  1197 0001:0000B1A0  1198 0001:0000B1B2  1199 0001:0000B1C4
  1200 0001:0000B1D6  1201 0001:0000B1E8  1202 0001:0000B1FA  1203 0001:0000B20C
  1204 0001:0000B21E  1205 0001:0000B230  1206 0001:0000B242  1207 0001:0000B254
  1208 0001:0000B266  1209 0001:0000B278  1210 0001:0000B28A  1211 0001:0000B29C
  1212 0001:0000B2AE  1213 0001:0000B2C0  1214 0001:0000B2D2  1215 0001:0000B2E4
  1216 0001:0000B2F6  1217 0001:0000B308  1218 0001:0000B31A  1219 0001:0000B32C
  1220 0001:0000B33E  1221 0001:0000B350  1222 0001:0000B362  1223 0001:0000B374
  1224 0001:0000B386  1225 0001:0000B398  1226 0001:0000B3AA  1227 0001:0000B3BC
  1228 0001:0000B3CE  1229 0001:0000B3E0  1230 0001:0000B3F2  1231 0001:0000B404
  1232 0001:0000B416  1233 0001:0000B428  1234 0001:0000B43A  1235 0001:0000B44C
  1236 0001:0000B45E  1237 0001:0000B470  1238 0001:0000B482  1239 0001:0000B494
  1240 0001:0000B4A6  1241 0001:0000B4B8  1242 0001:0000B4CA  1243 0001:0000B4DC
  1244 0001:0000B4EE  1245 0001:0000B500  1246 0001:0000B512  1247 0001:0000B524
  1248 0001:0000B534  1256 0001:0000E050  1257 0001:0000E053  1258 0001:0000E05F
  1261 0001:0000E074  1262 0001:0000E077  1263 0001:0000E083  1266 0001:0000E098
  1267 0001:0000E09E  1268 0001:0000E0A4  1270 0001:0000E0B3  1271 0001:0000E0BC
  1274 0001:0000E0D0  1275 0001:0000E0D6  1276 0001:0000E0DC  1278 0001:0000E0EB
  1279 0001:0000E0F4  1282 0001:0000E108  1283 0001:0000E10E  1284 0001:0000E114
  1286 0001:0000E123  1287 0001:0000E12C  1290 0001:0000E140  1291 0001:0000E146
  1292 0001:0000E14C  1294 0001:0000E15B  1295 0001:0000E164  1298 0001:0000E178
  1299 0001:0000E17E  1300 0001:0000E184  1302 0001:0000E193  1303 0001:0000E19C
  1308 0001:0000E1B4  1309 0001:0000E1CA  1310 0001:0000E1E2  1311 0001:0000E216
  1312 0001:0000E24B  1313 0001:0000E280  1314 0001:0000E2B8  1315 0001:0000E2ED
  1316 0001:0000E322  1317 0001:0000E357  1318 0001:0000E38C  1319 0001:0000E3C1
  1320 0001:0000E3F9  1321 0001:0000E437  1322 0001:0000E46F  1323 0001:0000E4AD
  1324 0001:0000E4EB  1325 0001:0000E523  1326 0001:0000E55B  1327 0001:0000E596
  1328 0001:0000E5D1  1329 0001:0000E606  1330 0001:0000E63E  1331 0001:0000E682
  1332 0001:0000E6C6  1333 0001:0000E70A  1334 0001:0000E74E  1335 0001:0000E792
  1336 0001:0000E7D6  1337 0001:0000E81A  1338 0001:0000E85E  1339 0001:0000E89F
  1340 0001:0000E8E0  1341 0001:0000E91B  1342 0001:0000E959  1343 0001:0000E99A
  1344 0001:0000E9DB  1345 0001:0000EA1C  1346 0001:0000EA5D  1347 0001:0000EA9E
  1348 0001:0000EADF  1349 0001:0000EAEF  1359 0001:0000F164  1360 0001:0000F169
  1365 0001:0000F16C  1366 0001:0000F16F  1367 0001:0000F17B  1372 0001:0000F198
  1373 0001:0000F1B1  1374 0001:0000F1BB  1375 0001:0000F1CA  1381 0001:0000F1D8
  1382 0001:0000F1DF  1387 0001:0000F540  1388 0001:0000F559  1389 0001:0000F563
  1390 0001:0000F572  1396 0001:0000F580  1397 0001:0000F587  1402 0001:0000FBA4
  1403 0001:0000FBBD  1404 0001:0000FBC7  1405 0001:0000FBD6  1412 0001:0000FBE4
  1413 0001:0000FBEB  1418 0001:0000FF54  1419 0001:0000FF6D  1420 0001:0000FF77
  1421 0001:0000FF86  1427 0001:0000FF94  1428 0001:0000FF9B  1433 0001:000102F8
  1434 0001:0001030E  1435 0001:00010329  1436 0001:00010336  1437 0001:00010346
  1438 0001:00010356  1439 0001:00010366  1440 0001:00010376  1441 0001:00010386
  1442 0001:00010396  1443 0001:000103A6  1444 0001:000103B6  1445 0001:000103C6
  1446 0001:000103D6  1447 0001:000103E6  1448 0001:000103F6  1449 0001:00010406
  1450 0001:00010416  1451 0001:00010426  1452 0001:00010436  1453 0001:00010446
  1454 0001:00010456  1455 0001:00010466  1456 0001:00010476  1457 0001:00010486
  1458 0001:00010496  1459 0001:000104A6  1460 0001:000104B6  1461 0001:000104C6
  1462 0001:000104D6  1463 0001:000104E6  1464 0001:000104F6  1465 0001:00010506
  1466 0001:00010516  1467 0001:00010526  1468 0001:00010538  1469 0001:0001054A
  1470 0001:0001055C  1471 0001:0001056E  1472 0001:00010580  1473 0001:00010592
  1474 0001:000105A4  1475 0001:000105B6  1476 0001:000105C8  1477 0001:000105DA
  1478 0001:000105EC  1479 0001:000105FE  1480 0001:00010610  1481 0001:00010622
  1482 0001:00010634  1483 0001:00010646  1484 0001:00010658  1485 0001:0001066A
  1486 0001:0001067C  1487 0001:0001068E  1488 0001:000106A0  1489 0001:000106B2
  1490 0001:000106C4  1491 0001:000106D6  1492 0001:000106E8  1493 0001:000106FA
  1494 0001:0001070C  1495 0001:0001071E  1496 0001:00010730  1497 0001:00010742
  1498 0001:00010754  1499 0001:00010766  1500 0001:00010778  1501 0001:0001078A
  1502 0001:0001079C  1503 0001:000107AE  1504 0001:000107C0  1505 0001:000107D2
  1506 0001:000107E4  1507 0001:000107F6  1508 0001:00010808  1509 0001:0001081A
  1510 0001:0001082C  1511 0001:0001083E  1512 0001:00010850  1513 0001:00010862
  1514 0001:00010874  1515 0001:00010886  1516 0001:00010898  1517 0001:000108AA
  1518 0001:000108BC  1519 0001:000108CE  1520 0001:000108E0  1521 0001:000108F2
  1522 0001:00010904  1523 0001:00010916  1524 0001:00010928  1525 0001:0001093A
  1526 0001:0001094C  1527 0001:0001095E  1528 0001:00010970  1529 0001:00010982
  1530 0001:00010994  1531 0001:000109A6  1532 0001:000109B8  1533 0001:000109CA
  1534 0001:000109DC  1535 0001:000109EE  1536 0001:00010A00  1537 0001:00010A12
  1538 0001:00010A24  1539 0001:00010A36  1540 0001:00010A48  1541 0001:00010A5A
  1542 0001:00010A6C  1543 0001:00010A7E  1544 0001:00010A90  1545 0001:00010AA2
  1546 0001:00010AB4  1547 0001:00010AC6  1548 0001:00010AD8  1549 0001:00010AEA
  1550 0001:00010AFC  1551 0001:00010B0E  1552 0001:00010B20  1553 0001:00010B32
  1554 0001:00010B44  1555 0001:00010B56  1556 0001:00010B68  1557 0001:00010B7A
  1558 0001:00010B8C  1559 0001:00010B9E  1560 0001:00010BB0  1561 0001:00010BC2
  1562 0001:00010BD4  1563 0001:00010BE6  1564 0001:00010BF8  1565 0001:00010C0A
  1566 0001:00010C1C  1567 0001:00010C2E  1568 0001:00010C40  1569 0001:00010C52
  1570 0001:00010C64  1571 0001:00010C76  1572 0001:00010C88  1573 0001:00010C9A
  1574 0001:00010CAC  1575 0001:00010CBE  1576 0001:00010CD0  1577 0001:00010CE2
  1578 0001:00010CF4  1579 0001:00010D06  1580 0001:00010D18  1581 0001:00010D2A
  1582 0001:00010D3C  1583 0001:00010D4E  1584 0001:00010D60  1585 0001:00010D72
  1586 0001:00010D84  1587 0001:00010D96  1588 0001:00010DA8  1589 0001:00010DBA
  1590 0001:00010DCC  1591 0001:00010DDE  1592 0001:00010DF0  1593 0001:00010E02
  1594 0001:00010E14  1595 0001:00010E26  1596 0001:00010E38  1597 0001:00010E4A
  1598 0001:00010E5C  1599 0001:00010E6E  1600 0001:00010E80  1601 0001:00010E92
  1602 0001:00010EA4  1603 0001:00010EB6  1604 0001:00010EC8  1605 0001:00010EDA
  1606 0001:00010EEC  1607 0001:00010EFE  1608 0001:00010F10  1609 0001:00010F22
  1610 0001:00010F34  1611 0001:00010F46  1612 0001:00010F58  1613 0001:00010F6A
  1614 0001:00010F7C  1615 0001:00010F8E  1616 0001:00010FA0  1617 0001:00010FB2
  1618 0001:00010FC4  1619 0001:00010FD6  1620 0001:00010FE8  1621 0001:00010FFA
  1622 0001:0001100C  1623 0001:0001101E  1624 0001:00011030  1625 0001:00011042
  1626 0001:00011054  1627 0001:00011066  1628 0001:00011078  1629 0001:0001108A
  1630 0001:0001109C  1631 0001:000110AE  1632 0001:000110C0  1633 0001:000110D2
  1634 0001:000110E4  1635 0001:000110F6  1636 0001:00011108  1637 0001:0001111A
  1638 0001:0001112C  1639 0001:0001113E  1640 0001:00011150  1641 0001:00011162
  1642 0001:00011174  1643 0001:00011186  1644 0001:00011198  1645 0001:000111AA
  1646 0001:000111BC  1647 0001:000111CE  1648 0001:000111E0  1649 0001:000111F2
  1650 0001:00011204  1651 0001:00011216  1652 0001:00011228  1653 0001:0001123A
  1654 0001:0001124C  1655 0001:0001125E  1656 0001:00011270  1657 0001:00011282
  1658 0001:00011294  1659 0001:000112A6  1660 0001:000112B8  1661 0001:000112C8
  1664 0001:00012C0C  1665 0001:00012C0F  1666 0001:00012C1B  1669 0001:00012C30
  1670 0001:00012C33  1671 0001:00012C3F  1674 0001:00012C54  1675 0001:00012C57
  1676 0001:00012C63  1679 0001:00012C78  1680 0001:00012C7E  1681 0001:00012C84
  1683 0001:00012C93  1684 0001:00012C9C  1688 0001:00012CC4  1689 0001:00012CC6
  1693 0001:00012CC8  1694 0001:00012CCA  1698 0001:00012CCC  1699 0001:00012CCE
  1702 0001:00012CD0  1703 0001:00012CE9  1704 0001:00012CF2  1705 0001:00012D14
  1711 0001:00012D7C  1712 0001:00012D8D  1713 0001:00012DA7  1715 0001:00012DB9
  1716 0001:00012DBF  1717 0001:00012DCC  1718 0001:00012DD3  1713 0001:00012DD4
  1719 0001:00012DD7  1720 0001:00012DE9  1726 0001:00012E18  1727 0001:00012E2F
  1728 0001:00012E34  1729 0001:00012E3A  1730 0001:00012E3F  1731 0001:00012E57
  1732 0001:00012E8B  1733 0001:00012EC0  1734 0001:00012EF5  1735 0001:00012F2A
  1736 0001:00012F5F  1737 0001:00012F94  1738 0001:00012FC9  1739 0001:00013001
  1740 0001:00013039  1741 0001:00013074  1742 0001:000130AF  1743 0001:000130EA
  1744 0001:00013125  1745 0001:00013160  1746 0001:000131A1  1747 0001:000131E2
  1748 0001:00013223  1749 0001:00013266  1750 0001:000132A9  1751 0001:000132EC
  1752 0001:00013329  1753 0001:00013366  1754 0001:000133A3  1755 0001:000133DD
  1756 0001:00013418  1757 0001:00013453  1758 0001:0001348E  1759 0001:000134C6
  1760 0001:000134FE  1761 0001:0001353E  1762 0001:0001357B  1763 0001:000135B6
  1764 0001:000135C6  1774 0001:00013B54  1775 0001:00013B59  1780 0001:00013B5C
  1781 0001:00013B5F  1782 0001:00013B6B  1785 0001:00013BB0  1786 0001:00013BCE
  1787 0001:00013BD7  1788 0001:00013BF9  1789 0001:00013C1B  1790 0001:00013C3D
  1793 0001:00013D10  1794 0001:00013D13  1800 0001:00013D1F  1803 0001:000142DC
  1804 0001:000142DF  1809 0001:000142EB  1814 0001:000147C8  1815 0001:000147E1
  1816 0001:000147EB  1817 0001:000147FA  1823 0001:00014808  1833 0001:00014814
  1838 0001:0001542C  1839 0001:00015445  1840 0001:0001544F  1841 0001:0001545E
  1847 0001:0001546C  1857 0001:00015478  1862 0001:000162B0  1863 0001:000162C6
  1864 0001:000162E1  1865 0001:000162EE  1866 0001:000162FE  1867 0001:0001630E
  1868 0001:0001631E  1869 0001:0001632E  1870 0001:0001633E  1871 0001:0001634E
  1872 0001:0001635E  1873 0001:0001636E  1874 0001:0001637E  1875 0001:0001638E
  1876 0001:0001639E  1877 0001:000163AE  1878 0001:000163BE  1879 0001:000163CE
  1880 0001:000163DE  1881 0001:000163EE  1882 0001:000163FE  1883 0001:0001640E
  1884 0001:0001641E  1885 0001:0001642E  1886 0001:0001643E  1887 0001:0001644E
  1888 0001:0001645E  1889 0001:0001646E  1890 0001:0001647E  1891 0001:0001648E
  1892 0001:0001649E  1893 0001:000164AE  1894 0001:000164BE  1895 0001:000164CE
  1896 0001:000164DE  1897 0001:000164F0  1898 0001:00016502  1899 0001:00016514
  1900 0001:00016526  1901 0001:00016538  1902 0001:0001654A  1903 0001:0001655C
  1904 0001:0001656E  1905 0001:00016580  1906 0001:00016592  1907 0001:000165A4
  1908 0001:000165B6  1909 0001:000165C8  1910 0001:000165DA  1911 0001:000165EC
  1912 0001:000165FE  1913 0001:00016610  1914 0001:00016622  1915 0001:00016634
  1916 0001:00016646  1917 0001:00016658  1918 0001:0001666A  1919 0001:0001667C
  1920 0001:0001668E  1921 0001:000166A0  1922 0001:000166B2  1923 0001:000166C4
  1924 0001:000166D6  1925 0001:000166E8  1926 0001:000166FA  1927 0001:0001670C
  1928 0001:0001671E  1929 0001:00016730  1930 0001:00016742  1931 0001:00016754
  1932 0001:00016766  1933 0001:00016778  1934 0001:0001678A  1935 0001:0001679C
  1936 0001:000167AE  1937 0001:000167C0  1938 0001:000167D2  1939 0001:000167E4
  1940 0001:000167F6  1941 0001:00016808  1942 0001:0001681A  1943 0001:0001682C
  1944 0001:0001683E  1945 0001:00016850  1946 0001:00016862  1947 0001:00016874
  1948 0001:00016886  1949 0001:00016898  1950 0001:000168AA  1951 0001:000168BC
  1952 0001:000168CE  1953 0001:000168E0  1954 0001:000168F2  1955 0001:00016904
  1956 0001:00016916  1957 0001:00016928  1958 0001:0001693A  1959 0001:0001694C
  1960 0001:0001695E  1961 0001:00016970  1962 0001:00016982  1963 0001:00016994
  1964 0001:000169A6  1965 0001:000169B8  1966 0001:000169CA  1967 0001:000169DC
  1968 0001:000169EE  1969 0001:00016A00  1970 0001:00016A12  1971 0001:00016A24
  1972 0001:00016A36  1973 0001:00016A48  1974 0001:00016A5A  1975 0001:00016A6C
  1976 0001:00016A7E  1977 0001:00016A90  1978 0001:00016AA2  1979 0001:00016AB4
  1980 0001:00016AC6  1981 0001:00016AD8  1982 0001:00016AEA  1983 0001:00016AFC
  1984 0001:00016B0E  1985 0001:00016B20  1986 0001:00016B32  1987 0001:00016B44
  1988 0001:00016B56  1989 0001:00016B68  1990 0001:00016B7A  1991 0001:00016B8C
  1992 0001:00016B9E  1993 0001:00016BB0  1994 0001:00016BC2  1995 0001:00016BD4
  1996 0001:00016BE6  1997 0001:00016BF8  1998 0001:00016C0A  1999 0001:00016C1C
  2000 0001:00016C2E  2001 0001:00016C40  2002 0001:00016C52  2003 0001:00016C64
  2004 0001:00016C76  2005 0001:00016C88  2006 0001:00016C9A  2007 0001:00016CAC
  2008 0001:00016CBE  2009 0001:00016CD0  2010 0001:00016CE2  2011 0001:00016CF4
  2012 0001:00016D06  2013 0001:00016D18  2014 0001:00016D2A  2015 0001:00016D3C
  2016 0001:00016D4E  2017 0001:00016D60  2018 0001:00016D72  2019 0001:00016D84
  2020 0001:00016D96  2021 0001:00016DA8  2022 0001:00016DBA  2023 0001:00016DCC
  2024 0001:00016DDE  2025 0001:00016DF0  2026 0001:00016E02  2027 0001:00016E14
  2028 0001:00016E26  2029 0001:00016E38  2030 0001:00016E4A  2031 0001:00016E5C
  2032 0001:00016E6E  2033 0001:00016E80  2034 0001:00016E92  2035 0001:00016EA4
  2036 0001:00016EB6  2037 0001:00016EC8  2038 0001:00016EDA  2039 0001:00016EEC
  2040 0001:00016EFE  2041 0001:00016F10  2042 0001:00016F22  2043 0001:00016F34
  2044 0001:00016F46  2045 0001:00016F58  2046 0001:00016F6A  2047 0001:00016F7C
  2048 0001:00016F8E  2049 0001:00016FA0  2050 0001:00016FB2  2051 0001:00016FC4
  2052 0001:00016FD6  2053 0001:00016FE8  2054 0001:00016FFA  2055 0001:0001700C
  2056 0001:0001701E  2057 0001:00017030  2058 0001:00017042  2059 0001:00017054
  2060 0001:00017066  2061 0001:00017078  2062 0001:0001708A  2063 0001:0001709C
  2064 0001:000170AE  2065 0001:000170C0  2066 0001:000170D2  2067 0001:000170E4
  2068 0001:000170F6  2069 0001:00017108  2070 0001:0001711A  2071 0001:0001712C
  2072 0001:0001713E  2073 0001:00017150  2074 0001:00017162  2075 0001:00017174
  2076 0001:00017186  2077 0001:00017198  2078 0001:000171AA  2079 0001:000171BC
  2080 0001:000171CE  2081 0001:000171E0  2082 0001:000171F2  2083 0001:00017204
  2084 0001:00017216  2085 0001:00017228  2086 0001:0001723A  2087 0001:0001724C
  2088 0001:0001725C  2091 0001:00018A6C  2092 0001:00018A72  2093 0001:00018A78
  2095 0001:00018A87  2096 0001:00018A90  2099 0001:00018AAC  2100 0001:00018AB2
  2101 0001:00018AB8  2103 0001:00018AC7  2104 0001:00018AD0  2107 0001:00018AEC
  2108 0001:00018AF2  2109 0001:00018AF8  2111 0001:00018B07  2112 0001:00018B10
  2115 0001:00018B2C  2116 0001:00018B32  2117 0001:00018B38  2119 0001:00018B47
  2120 0001:00018B50  2125 0001:00018B6C  2126 0001:00018B85  2127 0001:00018B9D
  2128 0001:00018BD1  2129 0001:00018C0F  2130 0001:00018C44  2131 0001:00018C4A
  2133 0001:00018C8D  2134 0001:00018CCE  2135 0001:00018D12  2136 0001:00018D4D
  2137 0001:00018D85  2138 0001:00018DBA  2139 0001:00018DF2  2140 0001:00018E27
  2141 0001:00018E62  2142 0001:00018E68  2144 0001:00018EA5  2145 0001:00018EE0
  2146 0001:00018F1E  2147 0001:00018F56  2148 0001:00018F8B  2149 0001:00018FC6
  2150 0001:00019001  2151 0001:00019036  2152 0001:00019074  2153 0001:0001907A
  2155 0001:000190BD  2156 0001:000190FE  2157 0001:00019142  2158 0001:0001917D
  2159 0001:000191BB  2160 0001:000191CB  2170 0001:00019718  2171 0001:0001971D
  2176 0001:00019720  2177 0001:00019723  2178 0001:0001972F  2181 0001:00019764
  2182 0001:00019767  2188 0001:00019773  2191 0001:00019ADC  2192 0001:00019ADF
  2197 0001:00019AEB  2200 0001:0001A088  2201 0001:0001A08B  2206 0001:0001A097
  2209 0001:0001A3F4  2210 0001:0001A3F7  2215 0001:0001A403  2220 0001:0001A8DC
  2221 0001:0001A8F2  2222 0001:0001A90D  2223 0001:0001A91A  2224 0001:0001A92A
  2225 0001:0001A93A  2226 0001:0001A94A  2227 0001:0001A95A  2228 0001:0001A96A
  2229 0001:0001A97A  2230 0001:0001A98A  2231 0001:0001A99A  2232 0001:0001A9AA
  2233 0001:0001A9BA  2234 0001:0001A9CA  2235 0001:0001A9DA  2236 0001:0001A9EA
  2237 0001:0001A9FA  2238 0001:0001AA0A  2239 0001:0001AA1A  2240 0001:0001AA2A
  2241 0001:0001AA3A  2242 0001:0001AA4A  2243 0001:0001AA5A  2244 0001:0001AA6A
  2245 0001:0001AA7A  2246 0001:0001AA8A  2247 0001:0001AA9A  2248 0001:0001AAAA
  2249 0001:0001AABA  2250 0001:0001AACA  2251 0001:0001AADA  2252 0001:0001AAEA
  2253 0001:0001AAFA  2254 0001:0001AB0A  2255 0001:0001AB1C  2256 0001:0001AB2E
  2257 0001:0001AB40  2258 0001:0001AB52  2259 0001:0001AB64  2260 0001:0001AB76
  2261 0001:0001AB88  2262 0001:0001AB9A  2263 0001:0001ABAC  2264 0001:0001ABBE
  2265 0001:0001ABD0  2266 0001:0001ABE2  2267 0001:0001ABF4  2268 0001:0001AC06
  2269 0001:0001AC18  2270 0001:0001AC2A  2271 0001:0001AC3C  2272 0001:0001AC4E
  2273 0001:0001AC60  2274 0001:0001AC72  2275 0001:0001AC84  2276 0001:0001AC96
  2277 0001:0001ACA8  2278 0001:0001ACBA  2279 0001:0001ACCC  2280 0001:0001ACDE
  2281 0001:0001ACF0  2282 0001:0001AD02  2283 0001:0001AD14  2284 0001:0001AD26
  2285 0001:0001AD38  2286 0001:0001AD4A  2287 0001:0001AD5C  2288 0001:0001AD6E
  2289 0001:0001AD80  2290 0001:0001AD92  2291 0001:0001ADA4  2292 0001:0001ADB6
  2293 0001:0001ADC8  2294 0001:0001ADDA  2295 0001:0001ADEC  2296 0001:0001ADFE
  2297 0001:0001AE10  2298 0001:0001AE22  2299 0001:0001AE34  2300 0001:0001AE46
  2301 0001:0001AE58  2302 0001:0001AE6A  2303 0001:0001AE7C  2304 0001:0001AE8E
  2305 0001:0001AEA0  2306 0001:0001AEB2  2307 0001:0001AEC4  2308 0001:0001AED6
  2309 0001:0001AEE8  2310 0001:0001AEFA  2311 0001:0001AF0C  2312 0001:0001AF1E
  2313 0001:0001AF30  2314 0001:0001AF42  2315 0001:0001AF54  2316 0001:0001AF66
  2317 0001:0001AF78  2318 0001:0001AF8A  2319 0001:0001AF9C  2320 0001:0001AFAE
  2321 0001:0001AFC0  2322 0001:0001AFD2  2323 0001:0001AFE4  2324 0001:0001AFF6
  2325 0001:0001B008  2326 0001:0001B01A  2327 0001:0001B02C  2328 0001:0001B03E
  2329 0001:0001B050  2330 0001:0001B062  2331 0001:0001B074  2332 0001:0001B086
  2333 0001:0001B098  2334 0001:0001B0AA  2335 0001:0001B0BC  2336 0001:0001B0CE
  2337 0001:0001B0E0  2338 0001:0001B0F2  2339 0001:0001B104  2340 0001:0001B116
  2341 0001:0001B128  2342 0001:0001B13A  2343 0001:0001B14C  2344 0001:0001B15E
  2345 0001:0001B170  2346 0001:0001B182  2347 0001:0001B194  2348 0001:0001B1A6
  2349 0001:0001B1B8  2350 0001:0001B1CA  2351 0001:0001B1DC  2352 0001:0001B1EE
  2353 0001:0001B200  2354 0001:0001B212  2355 0001:0001B224  2356 0001:0001B236
  2357 0001:0001B248  2358 0001:0001B25A  2359 0001:0001B26C  2360 0001:0001B27E
  2361 0001:0001B290  2362 0001:0001B2A2  2363 0001:0001B2B4  2364 0001:0001B2C6
  2365 0001:0001B2D8  2366 0001:0001B2EA  2367 0001:0001B2FC  2368 0001:0001B30E
  2369 0001:0001B320  2370 0001:0001B332  2371 0001:0001B344  2372 0001:0001B356
  2373 0001:0001B368  2374 0001:0001B37A  2375 0001:0001B38C  2376 0001:0001B39E
  2377 0001:0001B3B0  2378 0001:0001B3C2  2379 0001:0001B3D4  2380 0001:0001B3E6
  2381 0001:0001B3F8  2382 0001:0001B40A  2383 0001:0001B41C  2384 0001:0001B42E
  2385 0001:0001B440  2386 0001:0001B452  2387 0001:0001B464  2388 0001:0001B476
  2389 0001:0001B488  2390 0001:0001B49A  2391 0001:0001B4AC  2392 0001:0001B4BE
  2393 0001:0001B4D0  2394 0001:0001B4E2  2395 0001:0001B4F4  2396 0001:0001B506
  2397 0001:0001B518  2398 0001:0001B52A  2399 0001:0001B53C  2400 0001:0001B54E
  2401 0001:0001B560  2402 0001:0001B572  2403 0001:0001B584  2404 0001:0001B596
  2405 0001:0001B5A8  2406 0001:0001B5BA  2407 0001:0001B5CC  2408 0001:0001B5DE
  2409 0001:0001B5F0  2410 0001:0001B602  2411 0001:0001B614  2412 0001:0001B626
  2413 0001:0001B638  2414 0001:0001B64A  2415 0001:0001B65C  2416 0001:0001B66E
  2417 0001:0001B680  2418 0001:0001B692  2419 0001:0001B6A4  2420 0001:0001B6B6
  2421 0001:0001B6C8  2422 0001:0001B6DA  2423 0001:0001B6EC  2424 0001:0001B6FE
  2425 0001:0001B710  2426 0001:0001B722  2427 0001:0001B734  2428 0001:0001B746
  2429 0001:0001B758  2430 0001:0001B76A  2431 0001:0001B77C  2432 0001:0001B78E
  2433 0001:0001B7A0  2434 0001:0001B7B2  2435 0001:0001B7C4  2436 0001:0001B7D6
  2437 0001:0001B7E8  2438 0001:0001B7FA  2439 0001:0001B80C  2440 0001:0001B81E
  2441 0001:0001B830  2442 0001:0001B842  2443 0001:0001B854  2444 0001:0001B866
  2445 0001:0001B878  2446 0001:0001B88A  2447 0001:0001B89C  2448 0001:0001B8AE
  2449 0001:0001B8C0  2450 0001:0001B8D2  2451 0001:0001B8E4  2452 0001:0001B8F6
  2453 0001:0001B908  2454 0001:0001B91A  2455 0001:0001B92C  2456 0001:0001B93E
  2457 0001:0001B950  2458 0001:0001B962  2459 0001:0001B974  2460 0001:0001B986
  2461 0001:0001B998  2462 0001:0001B9AA  2463 0001:0001B9BC  2464 0001:0001B9CE
  2465 0001:0001B9E0  2466 0001:0001B9F2  2467 0001:0001BA04  2468 0001:0001BA16
  2469 0001:0001BA28  2470 0001:0001BA3A  2471 0001:0001BA4C  2472 0001:0001BA5E
  2473 0001:0001BA70  2474 0001:0001BA82  2475 0001:0001BA94  2476 0001:0001BAA6
  2477 0001:0001BAB8  2478 0001:0001BACA  2479 0001:0001BADC  2480 0001:0001BAEE
  2481 0001:0001BB00  2482 0001:0001BB12  2483 0001:0001BB24  2484 0001:0001BB36
  2485 0001:0001BB48  2486 0001:0001BB5A  2487 0001:0001BB6C  2488 0001:0001BB7E
  2489 0001:0001BB90  2490 0001:0001BBA2  2491 0001:0001BBB4  2492 0001:0001BBC6
  2493 0001:0001BBD8  2494 0001:0001BBEA  2495 0001:0001BBFC  2496 0001:0001BC0E
  2497 0001:0001BC20  2498 0001:0001BC32  2499 0001:0001BC44  2500 0001:0001BC56
  2501 0001:0001BC68  2502 0001:0001BC7A  2503 0001:0001BC8C  2504 0001:0001BC9E
  2505 0001:0001BCB0  2506 0001:0001BCC2  2507 0001:0001BCD4  2508 0001:0001BCE6
  2509 0001:0001BCF8  2510 0001:0001BD0A  2511 0001:0001BD1C  2512 0001:0001BD2E
  2513 0001:0001BD40  2514 0001:0001BD52  2515 0001:0001BD64  2516 0001:0001BD76
  2517 0001:0001BD88  2518 0001:0001BD9A  2519 0001:0001BDAC  2520 0001:0001BDBE
  2521 0001:0001BDD0  2522 0001:0001BDE2  2523 0001:0001BDF4  2524 0001:0001BE06
  2525 0001:0001BE18  2526 0001:0001BE2A  2527 0001:0001BE3C  2528 0001:0001BE4E
  2529 0001:0001BE60  2530 0001:0001BE72  2531 0001:0001BE84  2532 0001:0001BE96
  2533 0001:0001BEA8  2534 0001:0001BEBA  2535 0001:0001BECC  2536 0001:0001BEDE
  2537 0001:0001BEF0  2538 0001:0001BF02  2539 0001:0001BF14  2540 0001:0001BF26
  2541 0001:0001BF38  2542 0001:0001BF4A  2543 0001:0001BF5C  2544 0001:0001BF6E
  2545 0001:0001BF7E  2548 0001:0001E350  2549 0001:0001E356  2550 0001:0001E35C
  2552 0001:0001E36B  2553 0001:0001E374  2556 0001:0001E388  2557 0001:0001E38E
  2558 0001:0001E394  2560 0001:0001E3A3  2561 0001:0001E3AC  2564 0001:0001E3C0
  2565 0001:0001E3C6  2566 0001:0001E3CC  2568 0001:0001E3DB  2569 0001:0001E3E4
  2579 0001:0001E3F8  2580 0001:0001E40E  2581 0001:0001E426  2582 0001:0001E466
  2583 0001:0001E4A7  2584 0001:0001E4DC  2585 0001:0001E520  2586 0001:0001E564
  2587 0001:0001E59F  2588 0001:0001E5D7  2589 0001:0001E60C  2590 0001:0001E644
  2591 0001:0001E679  2592 0001:0001E6AE  2593 0001:0001E6E6  2594 0001:0001E72A
  2595 0001:0001E76E  2596 0001:0001E7B2  2597 0001:0001E7F6  2598 0001:0001E82B
  2599 0001:0001E866  2600 0001:0001E89B  2601 0001:0001E8D0  2602 0001:0001E90B
  2603 0001:0001E946  2604 0001:0001E987  2605 0001:0001E9BF  2606 0001:0001E9F4
  2607 0001:0001EA35  2608 0001:0001EA76  2609 0001:0001EABA  2610 0001:0001EAFE
  2611 0001:0001EB0E  2621 0001:0001F040  2622 0001:0001F045  2627 0001:0001F048
  2628 0001:0001F04B  2629 0001:0001F057  2632 0001:0001F070  2633 0001:0001F073
  2639 0001:0001F07F  2642 0001:0001F618  2643 0001:0001F61B  2647 0001:0001F627
  2650 0001:0001F99C  2651 0001:0001F99F  2655 0001:0001F9AB  2658 0001:0001FD3C
  2659 0001:0001FD3F  2664 0001:0001FD4B  2669 0001:00020198  2670 0001:000201AE
  2671 0001:000201C9  2672 0001:000201D6  2673 0001:000201E6  2674 0001:000201F6
  2675 0001:00020206  2676 0001:00020216  2677 0001:00020226  2678 0001:00020236
  2679 0001:00020246  2680 0001:00020256  2681 0001:00020266  2682 0001:00020276
  2683 0001:00020286  2684 0001:00020296  2685 0001:000202A6  2686 0001:000202B6
  2687 0001:000202C6  2688 0001:000202D6  2689 0001:000202E6  2690 0001:000202F6
  2691 0001:00020306  2692 0001:00020316  2693 0001:00020326  2694 0001:00020336
  2695 0001:00020346  2696 0001:00020356  2697 0001:00020366  2698 0001:00020376
  2699 0001:00020386  2700 0001:00020396  2701 0001:000203A6  2702 0001:000203B6
  2703 0001:000203C6  2704 0001:000203D8  2705 0001:000203EA  2706 0001:000203FC
  2707 0001:0002040E  2708 0001:00020420  2709 0001:00020432  2710 0001:00020444
  2711 0001:00020456  2712 0001:00020468  2713 0001:0002047A  2714 0001:0002048C
  2715 0001:0002049E  2716 0001:000204B0  2717 0001:000204C2  2718 0001:000204D4
  2719 0001:000204E6  2720 0001:000204F8  2721 0001:0002050A  2722 0001:0002051C
  2723 0001:0002052E  2724 0001:00020540  2725 0001:00020552  2726 0001:00020564
  2727 0001:00020576  2728 0001:00020588  2729 0001:0002059A  2730 0001:000205AC
  2731 0001:000205BE  2732 0001:000205D0  2733 0001:000205E2  2734 0001:000205F4
  2735 0001:00020606  2736 0001:00020618  2737 0001:0002062A  2738 0001:0002063C
  2739 0001:0002064E  2740 0001:00020660  2741 0001:00020672  2742 0001:00020684
  2743 0001:00020696  2744 0001:000206A8  2745 0001:000206BA  2746 0001:000206CC
  2747 0001:000206DE  2748 0001:000206F0  2749 0001:00020702  2750 0001:00020714
  2751 0001:00020726  2752 0001:00020738  2753 0001:0002074A  2754 0001:0002075C
  2755 0001:0002076E  2756 0001:00020780  2757 0001:00020792  2758 0001:000207A4
  2759 0001:000207B6  2760 0001:000207C8  2761 0001:000207DA  2762 0001:000207EC
  2763 0001:000207FE  2764 0001:00020810  2765 0001:00020822  2766 0001:00020834
  2767 0001:00020846  2768 0001:00020858  2769 0001:0002086A  2770 0001:0002087C
  2771 0001:0002088E  2772 0001:000208A0  2773 0001:000208B2  2774 0001:000208C4
  2775 0001:000208D6  2776 0001:000208E8  2777 0001:000208FA  2778 0001:0002090C
  2779 0001:0002091E  2780 0001:00020930  2781 0001:00020942  2782 0001:00020954
  2783 0001:00020966  2784 0001:00020978  2785 0001:0002098A  2786 0001:0002099C
  2787 0001:000209AE  2788 0001:000209C0  2789 0001:000209D2  2790 0001:000209E4
  2791 0001:000209F6  2792 0001:00020A08  2793 0001:00020A1A  2794 0001:00020A2C
  2795 0001:00020A3E  2796 0001:00020A50  2797 0001:00020A62  2798 0001:00020A74
  2799 0001:00020A86  2800 0001:00020A98  2801 0001:00020AAA  2802 0001:00020ABC
  2803 0001:00020ACE  2804 0001:00020AE0  2805 0001:00020AF2  2806 0001:00020B04
  2807 0001:00020B16  2808 0001:00020B28  2809 0001:00020B3A  2810 0001:00020B4C
  2811 0001:00020B5E  2812 0001:00020B70  2813 0001:00020B82  2814 0001:00020B94
  2815 0001:00020BA6  2816 0001:00020BB8  2817 0001:00020BCA  2818 0001:00020BDC
  2819 0001:00020BEE  2820 0001:00020C00  2821 0001:00020C12  2822 0001:00020C24
  2823 0001:00020C36  2824 0001:00020C48  2825 0001:00020C5A  2826 0001:00020C6C
  2827 0001:00020C7E  2828 0001:00020C90  2829 0001:00020CA2  2830 0001:00020CB4
  2831 0001:00020CC6  2832 0001:00020CD8  2833 0001:00020CEA  2834 0001:00020CFC
  2835 0001:00020D0E  2836 0001:00020D20  2837 0001:00020D32  2838 0001:00020D44
  2839 0001:00020D56  2840 0001:00020D68  2841 0001:00020D7A  2842 0001:00020D8C
  2843 0001:00020D9E  2844 0001:00020DB0  2845 0001:00020DC2  2846 0001:00020DD4
  2847 0001:00020DE6  2848 0001:00020DF8  2849 0001:00020E0A  2850 0001:00020E1C
  2851 0001:00020E2E  2852 0001:00020E40  2853 0001:00020E52  2854 0001:00020E64
  2855 0001:00020E76  2856 0001:00020E88  2857 0001:00020E9A  2858 0001:00020EAC
  2859 0001:00020EBE  2860 0001:00020ED0  2861 0001:00020EE2  2862 0001:00020EF4
  2863 0001:00020F06  2864 0001:00020F18  2865 0001:00020F2A  2866 0001:00020F3C
  2867 0001:00020F4E  2868 0001:00020F60  2869 0001:00020F72  2870 0001:00020F84
  2871 0001:00020F96  2872 0001:00020FA8  2873 0001:00020FBA  2874 0001:00020FCC
  2875 0001:00020FDE  2876 0001:00020FF0  2877 0001:00021002  2878 0001:00021014
  2879 0001:00021026  2880 0001:00021038  2881 0001:0002104A  2882 0001:0002105C
  2883 0001:0002106E  2884 0001:00021080  2885 0001:00021092  2886 0001:000210A4
  2887 0001:000210B6  2888 0001:000210C8  2889 0001:000210DA  2890 0001:000210EC
  2891 0001:000210FE  2892 0001:00021110  2893 0001:00021122  2894 0001:00021134
  2895 0001:00021146  2896 0001:00021158  2897 0001:0002116A  2898 0001:0002117C
  2899 0001:0002118E  2900 0001:000211A0  2901 0001:000211B2  2902 0001:000211C4
  2903 0001:000211D6  2904 0001:000211E8  2905 0001:000211FA  2906 0001:0002120C
  2907 0001:0002121E  2908 0001:00021230  2909 0001:00021242  2910 0001:00021254
  2911 0001:00021266  2912 0001:00021278  2913 0001:0002128A  2914 0001:0002129C
  2915 0001:000212AE  2916 0001:000212C0  2917 0001:000212D2  2918 0001:000212E4
  2919 0001:000212F6  2920 0001:00021308  2921 0001:0002131A  2922 0001:0002132C
  2923 0001:0002133E  2924 0001:00021350  2925 0001:00021362  2926 0001:00021374
  2927 0001:00021386  2928 0001:00021398  2929 0001:000213AA  2930 0001:000213BC
  2931 0001:000213CE  2932 0001:000213E0  2933 0001:000213F2  2934 0001:00021404
  2935 0001:00021416  2936 0001:00021428  2937 0001:0002143A  2938 0001:0002144C
  2939 0001:0002145E  2940 0001:00021470  2941 0001:00021482  2942 0001:00021494
  2943 0001:000214A6  2944 0001:000214B8  2945 0001:000214CA  2946 0001:000214DC
  2947 0001:000214EE  2948 0001:00021500  2949 0001:00021512  2950 0001:00021524
  2951 0001:00021536  2952 0001:00021548  2953 0001:0002155A  2954 0001:0002156C
  2955 0001:0002157E  2956 0001:00021590  2957 0001:000215A2  2958 0001:000215B4
  2959 0001:000215C6  2960 0001:000215D8  2961 0001:000215EA  2962 0001:000215FC
  2963 0001:0002160E  2964 0001:00021620  2965 0001:00021632  2966 0001:00021644
  2967 0001:00021656  2968 0001:00021668  2969 0001:0002167A  2970 0001:0002168C
  2971 0001:0002169E  2972 0001:000216B0  2973 0001:000216C2  2974 0001:000216D4
  2975 0001:000216E6  2976 0001:000216F8  2977 0001:0002170A  2978 0001:0002171C
  2979 0001:0002172E  2980 0001:00021740  2981 0001:00021752  2982 0001:00021762
  2985 0001:00023978  2986 0001:0002397E  2987 0001:00023984  2989 0001:00023993
  2990 0001:0002399C  2993 0001:000239B0  2994 0001:000239B6  2995 0001:000239BC
  2997 0001:000239CB  2998 0001:000239D4  3001 0001:000239E8  3002 0001:000239EE
  3003 0001:000239F4  3005 0001:00023A03  3006 0001:00023A0C  3009 0001:00023A20
  3010 0001:00023A23  3011 0001:00023A2A  3016 0001:00023A2C  3017 0001:00023A42
  3018 0001:00023A5A  3019 0001:00023A8E  3020 0001:00023AC3  3021 0001:00023AF8
  3022 0001:00023B2D  3023 0001:00023B62  3024 0001:00023B9A  3025 0001:00023BDB
  3026 0001:00023C1C  3027 0001:00023C5A  3028 0001:00023C92  3029 0001:00023CCA
  3030 0001:00023D05  3031 0001:00023D40  3032 0001:00023D7B  3033 0001:00023D8B
  3043 0001:00024024  3044 0001:00024029  3049 0001:0002402C  3050 0001:0002402F
  3051 0001:0002403B  3054 0001:0002407C  3055 0001:00024087  3056 0001:0002408F
  3057 0001:0002409A  3060 0001:000240A8  3061 0001:000240AB  3067 0001:000240B7
  3070 0001:0002467C  3071 0001:0002467F  3076 0001:0002468B  3079 0001:00024AC4
  3080 0001:00024AC7  3085 0001:00024AD3  3088 0001:00024F58  3089 0001:00024F5B
  3126 0001:00024F67  3131 0001:00026128  3132 0001:0002613E  3133 0001:00026159
  3134 0001:00026166  3135 0001:00026176  3136 0001:00026186  3137 0001:00026196
  3138 0001:000261A6  3139 0001:000261B6  3140 0001:000261C6  3141 0001:000261D6
  3142 0001:000261E6  3143 0001:000261F6  3144 0001:00026206  3145 0001:00026216
  3146 0001:00026226  3147 0001:00026236  3148 0001:00026246  3149 0001:00026256
  3150 0001:00026266  3151 0001:00026276  3152 0001:00026286  3153 0001:00026296
  3154 0001:000262A6  3155 0001:000262B6  3156 0001:000262C6  3157 0001:000262D6
  3158 0001:000262E6  3159 0001:000262F6  3160 0001:00026306  3161 0001:00026316
  3162 0001:00026326  3163 0001:00026336  3164 0001:00026346  3165 0001:00026356
  3166 0001:00026368  3167 0001:0002637A  3168 0001:0002638C  3169 0001:0002639E
  3170 0001:000263B0  3171 0001:000263C2  3172 0001:000263D4  3173 0001:000263E6
  3174 0001:000263F8  3175 0001:0002640A  3176 0001:0002641C  3177 0001:0002642E
  3178 0001:00026440  3179 0001:00026452  3180 0001:00026464  3181 0001:00026476
  3182 0001:00026488  3183 0001:0002649A  3184 0001:000264AC  3185 0001:000264BE
  3186 0001:000264D0  3187 0001:000264E2  3188 0001:000264F4  3189 0001:00026506
  3190 0001:00026518  3191 0001:0002652A  3192 0001:0002653C  3193 0001:0002654E
  3194 0001:00026560  3195 0001:00026572  3196 0001:00026584  3197 0001:00026596
  3198 0001:000265A8  3199 0001:000265BA  3200 0001:000265CC  3201 0001:000265DE
  3202 0001:000265F0  3203 0001:00026602  3204 0001:00026614  3205 0001:00026626
  3206 0001:00026638  3207 0001:0002664A  3208 0001:0002665C  3209 0001:0002666E
  3210 0001:00026680  3211 0001:00026692  3212 0001:000266A4  3213 0001:000266B6
  3214 0001:000266C8  3215 0001:000266DA  3216 0001:000266EC  3217 0001:000266FE
  3218 0001:00026710  3219 0001:00026722  3220 0001:00026734  3221 0001:00026746
  3222 0001:00026758  3223 0001:0002676A  3224 0001:0002677C  3225 0001:0002678E
  3226 0001:000267A0  3227 0001:000267B2  3228 0001:000267C4  3229 0001:000267D6
  3230 0001:000267E8  3231 0001:000267FA  3232 0001:0002680C  3233 0001:0002681E
  3234 0001:00026830  3235 0001:00026842  3236 0001:00026854  3237 0001:00026866
  3238 0001:00026878  3239 0001:0002688A  3240 0001:0002689C  3241 0001:000268AE
  3242 0001:000268C0  3243 0001:000268D2  3244 0001:000268E4  3245 0001:000268F6
  3246 0001:00026908  3247 0001:0002691A  3248 0001:0002692C  3249 0001:0002693E
  3250 0001:00026950  3251 0001:00026962  3252 0001:00026974  3253 0001:00026986
  3254 0001:00026998  3255 0001:000269AA  3256 0001:000269BC  3257 0001:000269CE
  3258 0001:000269E0  3259 0001:000269F2  3260 0001:00026A04  3261 0001:00026A16
  3262 0001:00026A28  3263 0001:00026A3A  3264 0001:00026A4C  3265 0001:00026A5E
  3266 0001:00026A70  3267 0001:00026A82  3268 0001:00026A94  3269 0001:00026AA6
  3270 0001:00026AB8  3271 0001:00026ACA  3272 0001:00026ADC  3273 0001:00026AEE
  3274 0001:00026B00  3275 0001:00026B12  3276 0001:00026B24  3277 0001:00026B36
  3278 0001:00026B48  3279 0001:00026B5A  3280 0001:00026B6C  3281 0001:00026B7E
  3282 0001:00026B90  3283 0001:00026BA2  3284 0001:00026BB4  3285 0001:00026BC6
  3286 0001:00026BD8  3287 0001:00026BEA  3288 0001:00026BFC  3289 0001:00026C0E
  3290 0001:00026C20  3291 0001:00026C32  3292 0001:00026C44  3293 0001:00026C56
  3294 0001:00026C68  3295 0001:00026C7A  3296 0001:00026C8C  3297 0001:00026C9E
  3298 0001:00026CB0  3299 0001:00026CC2  3300 0001:00026CD4  3301 0001:00026CE6
  3302 0001:00026CF8  3303 0001:00026D0A  3304 0001:00026D1C  3305 0001:00026D2E
  3306 0001:00026D40  3307 0001:00026D52  3308 0001:00026D64  3309 0001:00026D76
  3310 0001:00026D88  3311 0001:00026D9A  3312 0001:00026DAC  3313 0001:00026DBE
  3314 0001:00026DD0  3315 0001:00026DE2  3316 0001:00026DF4  3317 0001:00026E06
  3318 0001:00026E18  3319 0001:00026E2A  3320 0001:00026E3C  3321 0001:00026E4E
  3322 0001:00026E60  3323 0001:00026E72  3324 0001:00026E84  3325 0001:00026E96
  3326 0001:00026EA8  3327 0001:00026EBA  3328 0001:00026ECC  3329 0001:00026EDE
  3330 0001:00026EF0  3331 0001:00026F02  3332 0001:00026F14  3333 0001:00026F26
  3334 0001:00026F38  3335 0001:00026F4A  3336 0001:00026F5C  3337 0001:00026F6E
  3338 0001:00026F80  3339 0001:00026F92  3340 0001:00026FA4  3341 0001:00026FB6
  3342 0001:00026FC8  3343 0001:00026FDA  3344 0001:00026FEC  3345 0001:00026FFE
  3346 0001:00027010  3347 0001:00027022  3348 0001:00027034  3349 0001:00027046
  3350 0001:00027058  3351 0001:0002706A  3352 0001:0002707C  3353 0001:0002708E
  3354 0001:000270A0  3355 0001:000270B2  3356 0001:000270C4  3357 0001:000270D6
  3358 0001:000270E8  3359 0001:000270FA  3360 0001:0002710C  3361 0001:0002711E
  3362 0001:00027130  3363 0001:00027142  3364 0001:00027154  3365 0001:00027166
  3366 0001:00027178  3367 0001:0002718A  3368 0001:0002719C  3369 0001:000271AE
  3370 0001:000271C0  3371 0001:000271D2  3372 0001:000271E4  3373 0001:000271F6
  3374 0001:00027208  3375 0001:0002721A  3376 0001:0002722C  3377 0001:0002723E
  3378 0001:00027250  3379 0001:00027262  3380 0001:00027274  3381 0001:00027286
  3382 0001:00027298  3383 0001:000272AA  3384 0001:000272BC  3385 0001:000272CE
  3386 0001:000272E0  3387 0001:000272F2  3388 0001:00027304  3389 0001:00027316
  3390 0001:00027328  3391 0001:0002733A  3392 0001:0002734C  3393 0001:0002735E
  3394 0001:00027370  3395 0001:00027382  3396 0001:00027394  3397 0001:000273A6
  3398 0001:000273B8  3399 0001:000273CA  3400 0001:000273DC  3401 0001:000273EE
  3402 0001:00027400  3403 0001:00027412  3404 0001:00027424  3405 0001:00027436
  3406 0001:00027448  3407 0001:0002745A  3408 0001:0002746C  3409 0001:0002747E
  3410 0001:00027490  3411 0001:000274A2  3412 0001:000274B4  3413 0001:000274C6
  3414 0001:000274D8  3415 0001:000274EA  3416 0001:000274FC  3417 0001:0002750E
  3418 0001:00027520  3419 0001:00027532  3420 0001:00027544  3421 0001:00027556
  3422 0001:00027568  3423 0001:0002757A  3424 0001:0002758C  3425 0001:0002759E
  3426 0001:000275B0  3427 0001:000275C2  3428 0001:000275D4  3429 0001:000275E6
  3430 0001:000275F8  3431 0001:0002760A  3432 0001:0002761C  3433 0001:0002762E
  3434 0001:00027640  3435 0001:00027652  3436 0001:00027664  3437 0001:00027676
  3438 0001:00027688  3439 0001:0002769A  3440 0001:000276AC  3441 0001:000276BE
  3442 0001:000276D0  3443 0001:000276E2  3444 0001:000276F4  3445 0001:00027706
  3446 0001:00027718  3447 0001:0002772A  3448 0001:0002773C  3449 0001:0002774E
  3450 0001:00027760  3451 0001:00027772  3452 0001:00027784  3453 0001:00027796
  3454 0001:000277A8  3455 0001:000277BA  3456 0001:000277CC  3457 0001:000277DE
  3458 0001:000277F0  3459 0001:00027802  3460 0001:00027814  3461 0001:00027826
  3462 0001:00027838  3463 0001:0002784A  3464 0001:0002785C  3465 0001:0002786E
  3466 0001:00027880  3467 0001:00027892  3468 0001:000278A4  3469 0001:000278B6
  3470 0001:000278C8  3471 0001:000278DA  3472 0001:000278EC  3473 0001:000278FE
  3474 0001:00027910  3475 0001:00027922  3476 0001:00027934  3477 0001:00027946
  3478 0001:00027958  3479 0001:0002796A  3480 0001:0002797C  3481 0001:0002798E
  3482 0001:000279A0  3483 0001:000279B2  3484 0001:000279C4  3485 0001:000279D6
  3486 0001:000279E8  3487 0001:000279FA  3488 0001:00027A0C  3489 0001:00027A1E
  3490 0001:00027A30  3491 0001:00027A42  3492 0001:00027A54  3493 0001:00027A66
  3494 0001:00027A78  3495 0001:00027A8A  3496 0001:00027A9C  3497 0001:00027AAE
  3498 0001:00027AC0  3499 0001:00027AD2  3500 0001:00027AE4  3501 0001:00027AF6
  3502 0001:00027B08  3503 0001:00027B1A  3504 0001:00027B2C  3505 0001:00027B3E
  3506 0001:00027B50  3507 0001:00027B62  3508 0001:00027B74  3509 0001:00027B86
  3510 0001:00027B98  3511 0001:00027BAA  3512 0001:00027BBC  3513 0001:00027BCE
  3514 0001:00027BE0  3515 0001:00027BF2  3516 0001:00027C04  3517 0001:00027C16
  3518 0001:00027C28  3519 0001:00027C3A  3520 0001:00027C4C  3521 0001:00027C5E
  3522 0001:00027C70  3523 0001:00027C82  3524 0001:00027C94  3525 0001:00027CA6
  3526 0001:00027CB8  3527 0001:00027CCA  3528 0001:00027CDC  3529 0001:00027CEE
  3530 0001:00027D00  3531 0001:00027D12  3532 0001:00027D24  3533 0001:00027D36
  3534 0001:00027D48  3535 0001:00027D5A  3536 0001:00027D6C  3537 0001:00027D7E
  3538 0001:00027D90  3539 0001:00027DA2  3540 0001:00027DB4  3541 0001:00027DC6
  3542 0001:00027DD8  3543 0001:00027DEA  3544 0001:00027DFC  3545 0001:00027E0E
  3546 0001:00027E20  3547 0001:00027E32  3548 0001:00027E44  3549 0001:00027E56
  3550 0001:00027E68  3551 0001:00027E7A  3552 0001:00027E8C  3553 0001:00027E9E
  3554 0001:00027EB0  3555 0001:00027EC2  3556 0001:00027ED4  3557 0001:00027EE6
  3558 0001:00027EF8  3559 0001:00027F0A  3560 0001:00027F1C  3561 0001:00027F2E
  3562 0001:00027F40  3563 0001:00027F52  3564 0001:00027F64  3565 0001:00027F76
  3566 0001:00027F88  3567 0001:00027F9A  3568 0001:00027FAC  3569 0001:00027FBE
  3570 0001:00027FD0  3571 0001:00027FE2  3572 0001:00027FF4  3573 0001:00028006
  3574 0001:00028018  3575 0001:0002802A  3576 0001:0002803C  3577 0001:0002804E
  3578 0001:00028060  3579 0001:00028072  3580 0001:00028084  3581 0001:00028096
  3582 0001:000280A8  3583 0001:000280BA  3584 0001:000280CC  3585 0001:000280DE
  3586 0001:000280F0  3587 0001:00028102  3588 0001:00028114  3589 0001:00028126
  3590 0001:00028138  3591 0001:0002814A  3592 0001:0002815C  3593 0001:0002816E
  3594 0001:00028180  3595 0001:00028192  3596 0001:000281A4  3597 0001:000281B6
  3598 0001:000281C8  3599 0001:000281DA  3600 0001:000281EC  3601 0001:000281FE
  3602 0001:00028210  3603 0001:00028222  3604 0001:00028234  3605 0001:00028246
  3606 0001:00028258  3607 0001:0002826A  3608 0001:0002827C  3609 0001:0002828E
  3610 0001:000282A0  3611 0001:000282B2  3612 0001:000282C4  3613 0001:000282D6
  3614 0001:000282E8  3615 0001:000282FA  3616 0001:0002830C  3617 0001:0002831E
  3618 0001:00028330  3619 0001:00028342  3620 0001:00028354  3621 0001:00028366
  3622 0001:00028378  3623 0001:0002838A  3624 0001:0002839C  3625 0001:000283AE
  3626 0001:000283C0  3627 0001:000283D2  3628 0001:000283E4  3629 0001:000283F6
  3630 0001:00028408  3631 0001:0002841A  3632 0001:0002842C  3633 0001:0002843E
  3634 0001:00028450  3635 0001:00028462  3636 0001:00028474  3637 0001:00028486
  3638 0001:00028498  3639 0001:000284AA  3640 0001:000284BA  3643 0001:0002BCFC
  3644 0001:0002BD02  3645 0001:0002BD08  3647 0001:0002BD17  3648 0001:0002BD20
  3651 0001:0002BD34  3652 0001:0002BD3A  3653 0001:0002BD40  3655 0001:0002BD4F
  3656 0001:0002BD58  3659 0001:0002BD6C  3660 0001:0002BD72  3661 0001:0002BD78
  3663 0001:0002BD87  3664 0001:0002BD90  3667 0001:0002BDA4  3668 0001:0002BDAA
  3669 0001:0002BDB0  3671 0001:0002BDBF  3672 0001:0002BDC8  3676 0001:0002BDDC
  3677 0001:0002BDDE  3682 0001:0002BDE0  3683 0001:0002BDF9  3685 0001:0002BE03
  3686 0001:0002BE1B  3687 0001:0002BE55  3688 0001:0002BE90  3689 0001:0002BECB
  3690 0001:0002BF06  3691 0001:0002BF3B  3692 0001:0002BF70  3693 0001:0002BFA5
  3694 0001:0002BFDA  3695 0001:0002C00F  3696 0001:0002C047  3697 0001:0002C07C
  3698 0001:0002C0B1  3699 0001:0002C0EC  3701 0001:0002C121  3702 0001:0002C159
  3703 0001:0002C18E  3704 0001:0002C1C3  3705 0001:0002C1FE  3706 0001:0002C233
  3708 0001:0002C244  3709 0001:0002C254  3716 0001:0002C640  3717 0001:0002C664
  3718 0001:0002C66E  3719 0001:0002C673  3721 0001:0002C685  3722 0001:0002C68E
  3723 0001:0002C696  3719 0001:0002C697  3724 0001:0002C69A  3725 0001:0002C6B4
  3726 0001:0002C6B9  3728 0001:0002C6CB  3730 0001:0002C6D4  3731 0001:0002C6EF
  3733 0001:0002C6F7  3726 0001:0002C6F8  3734 0001:0002C6FB  3735 0001:0002C70C
  3745 0001:0002C744  3746 0001:0002C749  3751 0001:0002C74C  3752 0001:0002C74F
  3753 0001:0002C75B  3756 0001:0002C864  3757 0001:0002C867  3758 0001:0002C873
  3761 0001:0002C914  3762 0001:0002C917  3763 0001:0002C923  3766 0001:0002C9B8
  3767 0001:0002C9BB  3768 0001:0002C9C7  3778 0001:0002CA80  3779 0001:0002CA85
  3784 0001:0002CA88  3785 0001:0002CA8B  3786 0001:0002CA97  3789 0001:0002CABC
  3790 0001:0002CAC7  3791 0001:0002CACF  3792 0001:0002CADA  3795 0001:0002CAE8
  3796 0001:0002CAEB  3801 0001:0002CAF7  3804 0001:0002CF18  3805 0001:0002CF1B
  3810 0001:0002CF27  3813 0001:0002D3CC  3814 0001:0002D3CF  3818 0001:0002D3DB
  3821 0001:0002D824  3822 0001:0002D827  3827 0001:0002D833  3832 0001:0002DD40
  3833 0001:0002DD56  3834 0001:0002DD71  3835 0001:0002DD7E  3836 0001:0002DD8E
  3837 0001:0002DD9E  3838 0001:0002DDAE  3839 0001:0002DDBE  3840 0001:0002DDCE
  3841 0001:0002DDDE  3842 0001:0002DDEE  3843 0001:0002DDFE  3844 0001:0002DE0E
  3845 0001:0002DE1E  3846 0001:0002DE2E  3847 0001:0002DE3E  3848 0001:0002DE4E
  3849 0001:0002DE5E  3850 0001:0002DE6E  3851 0001:0002DE7E  3852 0001:0002DE8E
  3853 0001:0002DE9E  3854 0001:0002DEAE  3855 0001:0002DEBE  3856 0001:0002DECE
  3857 0001:0002DEDE  3858 0001:0002DEEE  3859 0001:0002DEFE  3860 0001:0002DF0E
  3861 0001:0002DF1E  3862 0001:0002DF2E  3863 0001:0002DF3E  3864 0001:0002DF4E
  3865 0001:0002DF5E  3866 0001:0002DF6E  3867 0001:0002DF80  3868 0001:0002DF92
  3869 0001:0002DFA4  3870 0001:0002DFB6  3871 0001:0002DFC8  3872 0001:0002DFDA
  3873 0001:0002DFEC  3874 0001:0002DFFE  3875 0001:0002E010  3876 0001:0002E022
  3877 0001:0002E034  3878 0001:0002E046  3879 0001:0002E058  3880 0001:0002E06A
  3881 0001:0002E07C  3882 0001:0002E08E  3883 0001:0002E0A0  3884 0001:0002E0B2
  3885 0001:0002E0C4  3886 0001:0002E0D6  3887 0001:0002E0E8  3888 0001:0002E0FA
  3889 0001:0002E10C  3890 0001:0002E11E  3891 0001:0002E130  3892 0001:0002E142
  3893 0001:0002E154  3894 0001:0002E166  3895 0001:0002E178  3896 0001:0002E18A
  3897 0001:0002E19C  3898 0001:0002E1AE  3899 0001:0002E1C0  3900 0001:0002E1D2
  3901 0001:0002E1E4  3902 0001:0002E1F6  3903 0001:0002E208  3904 0001:0002E21A
  3905 0001:0002E22C  3906 0001:0002E23E  3907 0001:0002E250  3908 0001:0002E262
  3909 0001:0002E274  3910 0001:0002E286  3911 0001:0002E298  3912 0001:0002E2AA
  3913 0001:0002E2BC  3914 0001:0002E2CE  3915 0001:0002E2E0  3916 0001:0002E2F2
  3917 0001:0002E304  3918 0001:0002E316  3919 0001:0002E328  3920 0001:0002E33A
  3921 0001:0002E34C  3922 0001:0002E35E  3923 0001:0002E370  3924 0001:0002E382
  3925 0001:0002E394  3926 0001:0002E3A6  3927 0001:0002E3B8  3928 0001:0002E3CA
  3929 0001:0002E3DC  3930 0001:0002E3EE  3931 0001:0002E400  3932 0001:0002E412
  3933 0001:0002E424  3934 0001:0002E436  3935 0001:0002E448  3936 0001:0002E45A
  3937 0001:0002E46C  3938 0001:0002E47E  3939 0001:0002E490  3940 0001:0002E4A2
  3941 0001:0002E4B4  3942 0001:0002E4C6  3943 0001:0002E4D8  3944 0001:0002E4EA
  3945 0001:0002E4FC  3946 0001:0002E50E  3947 0001:0002E520  3948 0001:0002E532
  3949 0001:0002E544  3950 0001:0002E556  3951 0001:0002E568  3952 0001:0002E57A
  3953 0001:0002E58C  3954 0001:0002E59E  3955 0001:0002E5B0  3956 0001:0002E5C2
  3957 0001:0002E5D4  3958 0001:0002E5E6  3959 0001:0002E5F8  3960 0001:0002E60A
  3961 0001:0002E61C  3962 0001:0002E62E  3963 0001:0002E640  3964 0001:0002E652
  3965 0001:0002E664  3966 0001:0002E676  3967 0001:0002E688  3968 0001:0002E69A
  3969 0001:0002E6AC  3970 0001:0002E6BE  3971 0001:0002E6D0  3972 0001:0002E6E2
  3973 0001:0002E6F4  3974 0001:0002E706  3975 0001:0002E718  3976 0001:0002E72A
  3977 0001:0002E73C  3978 0001:0002E74E  3979 0001:0002E760  3980 0001:0002E772
  3981 0001:0002E784  3982 0001:0002E796  3983 0001:0002E7A8  3984 0001:0002E7BA
  3985 0001:0002E7CC  3986 0001:0002E7DE  3987 0001:0002E7F0  3988 0001:0002E802
  3989 0001:0002E814  3990 0001:0002E826  3991 0001:0002E838  3992 0001:0002E84A
  3993 0001:0002E85C  3994 0001:0002E86E  3995 0001:0002E880  3996 0001:0002E892
  3997 0001:0002E8A4  3998 0001:0002E8B6  3999 0001:0002E8C8  4000 0001:0002E8DA
  4001 0001:0002E8EC  4002 0001:0002E8FE  4003 0001:0002E910  4004 0001:0002E922
  4005 0001:0002E934  4006 0001:0002E946  4007 0001:0002E958  4008 0001:0002E96A
  4009 0001:0002E97C  4010 0001:0002E98E  4011 0001:0002E9A0  4012 0001:0002E9B2
  4013 0001:0002E9C4  4014 0001:0002E9D6  4015 0001:0002E9E8  4016 0001:0002E9FA
  4017 0001:0002EA0C  4018 0001:0002EA1E  4019 0001:0002EA30  4020 0001:0002EA42
  4021 0001:0002EA54  4022 0001:0002EA66  4023 0001:0002EA78  4024 0001:0002EA8A
  4025 0001:0002EA9C  4026 0001:0002EAAE  4027 0001:0002EAC0  4028 0001:0002EAD2
  4029 0001:0002EAE4  4030 0001:0002EAF6  4031 0001:0002EB08  4032 0001:0002EB1A
  4033 0001:0002EB2C  4034 0001:0002EB3E  4035 0001:0002EB50  4036 0001:0002EB62
  4037 0001:0002EB74  4038 0001:0002EB86  4039 0001:0002EB98  4040 0001:0002EBAA
  4041 0001:0002EBBC  4042 0001:0002EBCE  4043 0001:0002EBE0  4044 0001:0002EBF2
  4045 0001:0002EC04  4046 0001:0002EC16  4047 0001:0002EC28  4048 0001:0002EC3A
  4049 0001:0002EC4C  4050 0001:0002EC5E  4051 0001:0002EC70  4052 0001:0002EC82
  4053 0001:0002EC94  4054 0001:0002ECA6  4055 0001:0002ECB8  4056 0001:0002ECCA
  4057 0001:0002ECDC  4058 0001:0002ECEE  4059 0001:0002ED00  4060 0001:0002ED12
  4061 0001:0002ED24  4062 0001:0002ED36  4063 0001:0002ED48  4064 0001:0002ED5A
  4065 0001:0002ED6C  4066 0001:0002ED7E  4067 0001:0002ED90  4068 0001:0002EDA2
  4069 0001:0002EDB4  4070 0001:0002EDC6  4071 0001:0002EDD8  4072 0001:0002EDEA
  4073 0001:0002EDFC  4074 0001:0002EE0E  4075 0001:0002EE20  4076 0001:0002EE32
  4077 0001:0002EE44  4078 0001:0002EE56  4079 0001:0002EE68  4080 0001:0002EE7A
  4081 0001:0002EE8C  4082 0001:0002EE9E  4083 0001:0002EEB0  4084 0001:0002EEC2
  4085 0001:0002EED4  4086 0001:0002EEE6  4087 0001:0002EEF8  4088 0001:0002EF0A
  4089 0001:0002EF1C  4090 0001:0002EF2E  4091 0001:0002EF40  4092 0001:0002EF52
  4093 0001:0002EF64  4094 0001:0002EF76  4095 0001:0002EF88  4096 0001:0002EF9A
  4097 0001:0002EFAC  4098 0001:0002EFBE  4099 0001:0002EFD0  4100 0001:0002EFE2
  4101 0001:0002EFF4  4102 0001:0002F006  4103 0001:0002F018  4104 0001:0002F02A
  4105 0001:0002F03C  4106 0001:0002F04E  4107 0001:0002F060  4108 0001:0002F072
  4109 0001:0002F084  4110 0001:0002F096  4111 0001:0002F0A8  4112 0001:0002F0BA
  4113 0001:0002F0CC  4114 0001:0002F0DE  4115 0001:0002F0F0  4116 0001:0002F102
  4117 0001:0002F114  4118 0001:0002F126  4119 0001:0002F138  4120 0001:0002F14A
  4121 0001:0002F15C  4122 0001:0002F16E  4123 0001:0002F180  4124 0001:0002F190
  4128 0001:000311A4  4129 0001:000311A6  4132 0001:000311A8  4133 0001:000311C1
  4134 0001:000311CA  4135 0001:000311EC  4141 0001:00031254  4142 0001:0003126E
  4144 0001:00031278  4145 0001:00031290  4146 0001:00031295  4147 0001:0003129B
  4148 0001:000312A0  4149 0001:000312D9  4150 0001:00031313  4151 0001:00031348
  4152 0001:0003137D  4153 0001:000313B5  4154 0001:000313EA  4155 0001:00031422
  4156 0001:0003145A  4157 0001:00031495  4158 0001:000314D0  4159 0001:0003150B
  4160 0001:0003154C  4161 0001:00031581  4163 0001:00031592  4164 0001:000315A2
  4170 0001:0003186C  4171 0001:0003188B  4172 0001:00031895  4173 0001:000318B4
  4174 0001:000318C6  4173 0001:000318DF  4175 0001:000318E2  4176 0001:000318F3
  4186 0001:0003192C  4187 0001:00031931  4192 0001:00031934  4193 0001:00031937
  4194 0001:00031943  4197 0001:00031968  4198 0001:00031973  4199 0001:0003197B
  4200 0001:00031986  4203 0001:00031994  4204 0001:00031997  4209 0001:000319A3
  4212 0001:00031DC4  4213 0001:00031DC7  4218 0001:00031DD3  4221 0001:00032278
  4222 0001:0003227B  4226 0001:00032287  4229 0001:000326D0  4230 0001:000326D3
  4235 0001:000326DF  4240 0001:00032BEC  4241 0001:00032C02  4242 0001:00032C1D
  4243 0001:00032C2A  4244 0001:00032C3A  4245 0001:00032C4A  4246 0001:00032C5A
  4247 0001:00032C6A  4248 0001:00032C7A  4249 0001:00032C8A  4250 0001:00032C9A
  4251 0001:00032CAA  4252 0001:00032CBA  4253 0001:00032CCA  4254 0001:00032CDA
  4255 0001:00032CEA  4256 0001:00032CFA  4257 0001:00032D0A  4258 0001:00032D1A
  4259 0001:00032D2A  4260 0001:00032D3A  4261 0001:00032D4A  4262 0001:00032D5A
  4263 0001:00032D6A  4264 0001:00032D7A  4265 0001:00032D8A  4266 0001:00032D9A
  4267 0001:00032DAA  4268 0001:00032DBA  4269 0001:00032DCA  4270 0001:00032DDA
  4271 0001:00032DEA  4272 0001:00032DFA  4273 0001:00032E0A  4274 0001:00032E1A
  4275 0001:00032E2C  4276 0001:00032E3E  4277 0001:00032E50  4278 0001:00032E62
  4279 0001:00032E74  4280 0001:00032E86  4281 0001:00032E98  4282 0001:00032EAA
  4283 0001:00032EBC  4284 0001:00032ECE  4285 0001:00032EE0  4286 0001:00032EF2
  4287 0001:00032F04  4288 0001:00032F16  4289 0001:00032F28  4290 0001:00032F3A
  4291 0001:00032F4C  4292 0001:00032F5E  4293 0001:00032F70  4294 0001:00032F82
  4295 0001:00032F94  4296 0001:00032FA6  4297 0001:00032FB8  4298 0001:00032FCA
  4299 0001:00032FDC  4300 0001:00032FEE  4301 0001:00033000  4302 0001:00033012
  4303 0001:00033024  4304 0001:00033036  4305 0001:00033048  4306 0001:0003305A
  4307 0001:0003306C  4308 0001:0003307E  4309 0001:00033090  4310 0001:000330A2
  4311 0001:000330B4  4312 0001:000330C6  4313 0001:000330D8  4314 0001:000330EA
  4315 0001:000330FC  4316 0001:0003310E  4317 0001:00033120  4318 0001:00033132
  4319 0001:00033144  4320 0001:00033156  4321 0001:00033168  4322 0001:0003317A
  4323 0001:0003318C  4324 0001:0003319E  4325 0001:000331B0  4326 0001:000331C2
  4327 0001:000331D4  4328 0001:000331E6  4329 0001:000331F8  4330 0001:0003320A
  4331 0001:0003321C  4332 0001:0003322E  4333 0001:00033240  4334 0001:00033252
  4335 0001:00033264  4336 0001:00033276  4337 0001:00033288  4338 0001:0003329A
  4339 0001:000332AC  4340 0001:000332BE  4341 0001:000332D0  4342 0001:000332E2
  4343 0001:000332F4  4344 0001:00033306  4345 0001:00033318  4346 0001:0003332A
  4347 0001:0003333C  4348 0001:0003334E  4349 0001:00033360  4350 0001:00033372
  4351 0001:00033384  4352 0001:00033396  4353 0001:000333A8  4354 0001:000333BA
  4355 0001:000333CC  4356 0001:000333DE  4357 0001:000333F0  4358 0001:00033402
  4359 0001:00033414  4360 0001:00033426  4361 0001:00033438  4362 0001:0003344A
  4363 0001:0003345C  4364 0001:0003346E  4365 0001:00033480  4366 0001:00033492
  4367 0001:000334A4  4368 0001:000334B6  4369 0001:000334C8  4370 0001:000334DA
  4371 0001:000334EC  4372 0001:000334FE  4373 0001:00033510  4374 0001:00033522
  4375 0001:00033534  4376 0001:00033546  4377 0001:00033558  4378 0001:0003356A
  4379 0001:0003357C  4380 0001:0003358E  4381 0001:000335A0  4382 0001:000335B2
  4383 0001:000335C4  4384 0001:000335D6  4385 0001:000335E8  4386 0001:000335FA
  4387 0001:0003360C  4388 0001:0003361E  4389 0001:00033630  4390 0001:00033642
  4391 0001:00033654  4392 0001:00033666  4393 0001:00033678  4394 0001:0003368A
  4395 0001:0003369C  4396 0001:000336AE  4397 0001:000336C0  4398 0001:000336D2
  4399 0001:000336E4  4400 0001:000336F6  4401 0001:00033708  4402 0001:0003371A
  4403 0001:0003372C  4404 0001:0003373E  4405 0001:00033750  4406 0001:00033762
  4407 0001:00033774  4408 0001:00033786  4409 0001:00033798  4410 0001:000337AA
  4411 0001:000337BC  4412 0001:000337CE  4413 0001:000337E0  4414 0001:000337F2
  4415 0001:00033804  4416 0001:00033816  4417 0001:00033828  4418 0001:0003383A
  4419 0001:0003384C  4420 0001:0003385E  4421 0001:00033870  4422 0001:00033882
  4423 0001:00033894  4424 0001:000338A6  4425 0001:000338B8  4426 0001:000338CA
  4427 0001:000338DC  4428 0001:000338EE  4429 0001:00033900  4430 0001:00033912
  4431 0001:00033924  4432 0001:00033936  4433 0001:00033948  4434 0001:0003395A
  4435 0001:0003396C  4436 0001:0003397E  4437 0001:00033990  4438 0001:000339A2
  4439 0001:000339B4  4440 0001:000339C6  4441 0001:000339D8  4442 0001:000339EA
  4443 0001:000339FC  4444 0001:00033A0E  4445 0001:00033A20  4446 0001:00033A32
  4447 0001:00033A44  4448 0001:00033A56  4449 0001:00033A68  4450 0001:00033A7A
  4451 0001:00033A8C  4452 0001:00033A9E  4453 0001:00033AB0  4454 0001:00033AC2
  4455 0001:00033AD4  4456 0001:00033AE6  4457 0001:00033AF8  4458 0001:00033B0A
  4459 0001:00033B1C  4460 0001:00033B2E  4461 0001:00033B40  4462 0001:00033B52
  4463 0001:00033B64  4464 0001:00033B76  4465 0001:00033B88  4466 0001:00033B9A
  4467 0001:00033BAC  4468 0001:00033BBE  4469 0001:00033BD0  4470 0001:00033BE2
  4471 0001:00033BF4  4472 0001:00033C06  4473 0001:00033C18  4474 0001:00033C2A
  4475 0001:00033C3C  4476 0001:00033C4E  4477 0001:00033C60  4478 0001:00033C72
  4479 0001:00033C84  4480 0001:00033C96  4481 0001:00033CA8  4482 0001:00033CBA
  4483 0001:00033CCC  4484 0001:00033CDE  4485 0001:00033CF0  4486 0001:00033D02
  4487 0001:00033D14  4488 0001:00033D26  4489 0001:00033D38  4490 0001:00033D4A
  4491 0001:00033D5C  4492 0001:00033D6E  4493 0001:00033D80  4494 0001:00033D92
  4495 0001:00033DA4  4496 0001:00033DB6  4497 0001:00033DC8  4498 0001:00033DDA
  4499 0001:00033DEC  4500 0001:00033DFE  4501 0001:00033E10  4502 0001:00033E22
  4503 0001:00033E34  4504 0001:00033E46  4505 0001:00033E58  4506 0001:00033E6A
  4507 0001:00033E7C  4508 0001:00033E8E  4509 0001:00033EA0  4510 0001:00033EB2
  4511 0001:00033EC4  4512 0001:00033ED6  4513 0001:00033EE8  4514 0001:00033EFA
  4515 0001:00033F0C  4516 0001:00033F1E  4517 0001:00033F30  4518 0001:00033F42
  4519 0001:00033F54  4520 0001:00033F66  4521 0001:00033F78  4522 0001:00033F8A
  4523 0001:00033F9C  4524 0001:00033FAE  4525 0001:00033FC0  4526 0001:00033FD2
  4527 0001:00033FE4  4528 0001:00033FF6  4529 0001:00034008  4530 0001:0003401A
  4531 0001:0003402C  4532 0001:0003403C  4536 0001:00036050  4537 0001:00036052
  4540 0001:00036054  4541 0001:0003606D  4542 0001:00036076  4543 0001:00036098
  4549 0001:00036100  4550 0001:0003611A  4552 0001:00036124  4553 0001:0003613C
  4554 0001:00036141  4555 0001:00036147  4556 0001:0003614C  4557 0001:00036185
  4558 0001:000361BF  4559 0001:000361F4  4560 0001:00036229  4561 0001:00036261
  4562 0001:00036296  4563 0001:000362CE  4564 0001:00036306  4565 0001:00036341
  4566 0001:0003637C  4567 0001:000363B7  4568 0001:000363F8  4569 0001:0003642D
  4571 0001:0003643E  4572 0001:0003644E  4578 0001:00036718  4579 0001:00036737
  4580 0001:00036741  4581 0001:00036760  4582 0001:00036772  4581 0001:0003678B
  4583 0001:0003678E  4584 0001:0003679F  4594 0001:000367D8  4595 0001:000367DD
  4600 0001:000367E0  4612 0001:000367E3  4613 0001:000367EA  4648 0001:000367EC
  4649 0001:000367F1  4654 0001:000367F4  4655 0001:000367F7  4684 0001:00036803
  4687 0001:00036D98  4688 0001:00036D9B  4723 0001:00036DA7  4726 0001:0003758C
  4727 0001:0003758F  4752 0001:0003759B  4757 0001:00037B94  4758 0001:00037BAD
  4759 0001:00037BB7  4760 0001:00037BC6  4788 0001:00037BD4  4813 0001:00037BE0
  4818 0001:00038A80  4819 0001:00038A96  4820 0001:00038AAE  4821 0001:00038ABB
  4822 0001:00038ACB  4823 0001:00038ADB  4824 0001:00038AEB  4825 0001:00038AFB
  4826 0001:00038B0B  4827 0001:00038B1B  4828 0001:00038B2B  4829 0001:00038B3B
  4830 0001:00038B4B  4831 0001:00038B5B  4832 0001:00038B6B  4833 0001:00038B7B
  4834 0001:00038B8B  4835 0001:00038B9B  4836 0001:00038BAB  4837 0001:00038BBB
  4838 0001:00038BCB  4839 0001:00038BDB  4840 0001:00038BEB  4841 0001:00038BFB
  4842 0001:00038C0B  4843 0001:00038C1B  4844 0001:00038C2B  4845 0001:00038C3B
  4846 0001:00038C4B  4847 0001:00038C5B  4848 0001:00038C6B  4849 0001:00038C7B
  4850 0001:00038C8B  4851 0001:00038C9B  4852 0001:00038CAB  4853 0001:00038CBD
  4854 0001:00038CCF  4855 0001:00038CE1  4856 0001:00038CF3  4857 0001:00038D05
  4858 0001:00038D17  4859 0001:00038D29  4860 0001:00038D3B  4861 0001:00038D4D
  4862 0001:00038D5F  4863 0001:00038D71  4864 0001:00038D83  4865 0001:00038D93
  4920 0001:000391FC  4924 0001:0003920E  4928 0001:00039218  4932 0001:00039222
  4936 0001:0003922C  4940 0001:00039236  4944 0001:00039240  4948 0001:0003924A
  4952 0001:00039254  4956 0001:0003925E  4960 0001:00039268  4964 0001:00039272
  4968 0001:0003927C

Line numbers for Dbx34DrvDbms(Dbx34DrvDbms.pas) segment .itext

  4867 0002:00000188  4871 0002:00000191  4875 0002:0000019B  4879 0002:000001A5
  4883 0002:000001AF  4887 0002:000001B9  4891 0002:000001C3  4895 0002:000001CD
  4899 0002:000001D7  4903 0002:000001E1  4907 0002:000001EB  4911 0002:000001F5
  4915 0002:000001FF  4916 0002:00000209

Line numbers for Dbx34Drv(Dbx34Drv.pas) segment .text

   518 0001:0003A420   519 0001:0003A454   520 0001:0003A45B   521 0001:0003A465
   522 0001:0003A471   523 0001:0003A47B   525 0001:0003A484   526 0001:0003A492
   527 0001:0003A4A8   528 0001:0003A4B0   531 0001:0003A4D1   523 0001:0003A4D2
   532 0001:0003A4D5   538 0001:0003A51C   539 0001:0003A553   540 0001:0003A55B
   541 0001:0003A565   542 0001:0003A571   543 0001:0003A57B   545 0001:0003A584
   546 0001:0003A592   547 0001:0003A5A8   548 0001:0003A5B0   551 0001:0003A5D8
   543 0001:0003A5D9   552 0001:0003A5DC   553 0001:0003A5E6   613 0001:0003A668
   614 0001:0003A69A   616 0001:0003A6D0   617 0001:0003A6E4   620 0001:0003A7AC
   621 0001:0003A7D7   622 0001:0003A7E7   623 0001:0003A7F7   636 0001:0003A848
   637 0001:0003A86E   638 0001:0003A872   639 0001:0003A87C   641 0001:0003A892
   642 0001:0003A8A5   644 0001:0003A8AE   646 0001:0003A8C3   648 0001:0003A8CD
   649 0001:0003A8DA   650 0001:0003A8FC   651 0001:0003A900   655 0001:0003A90C
   656 0001:0003A91C   657 0001:0003A92B   658 0001:0003A94D   660 0001:0003A951
   661 0001:0003A95D   672 0001:0003A968   674 0001:0003A972   675 0001:0003A990
   676 0001:0003A9AA   678 0001:0003A9AE   683 0001:0003AA08   684 0001:0003AA21
   685 0001:0003AA23   687 0001:0003AA28   688 0001:0003AA32   690 0001:0003AA38
   691 0001:0003AA44   693 0001:0003AA51   694 0001:0003AA65   698 0001:0003AA67
   701 0001:0003AA94   702 0001:0003AA97   704 0001:0003AA9C   705 0001:0003AAA8
   708 0001:0003AAAC   709 0001:0003AAB3   712 0001:0003AAE0   713 0001:0003AAE3
   715 0001:0003AAE8   716 0001:0003AAF4   719 0001:0003AAF8   720 0001:0003AAFF
   727 0001:0003AB28   729 0001:0003AB65   730 0001:0003AB77   733 0001:0003AB8F
   738 0001:0003ABA1   746 0001:0003AC08   747 0001:0003AC0B   748 0001:0003AC1A
   754 0001:0003AC20   755 0001:0003AC27   756 0001:0003AC30   757 0001:0003AC3E
   758 0001:0003AC47   759 0001:0003AC5D   764 0001:0003AC64   765 0001:0003AC6E
   767 0001:0003AC74   769 0001:0003AC7E   770 0001:0003AC8C   772 0001:0003ACA0
   773 0001:0003ACA9   774 0001:0003ACB1   780 0001:0003ACBA   783 0001:0003ACCF
   791 0001:0003ACDA   794 0001:0003ACEA   798 0001:0003ACF0   800 0001:0003ACF5
   803 0001:0003ACF8   804 0001:0003AD0B   806 0001:0003AD13   815 0001:0003AD34
   816 0001:0003AD59   820 0001:0003AD62   821 0001:0003AD73   835 0001:0003AD84
   864 0001:0003ADA0   867 0001:0003AEDC   868 0001:0003AEE2   869 0001:0003AEF0
   873 0001:0003AF24   874 0001:0003AF30   877 0001:0003AF64   878 0001:0003AF6A
   879 0001:0003AF78   883 0001:0003AF9C   884 0001:0003AFA8   887 0001:0003AFCC
   888 0001:0003AFD2   889 0001:0003AFE0   893 0001:0003B004   894 0001:0003B010
   897 0001:0003B034   898 0001:0003B03A   899 0001:0003B048   903 0001:0003B06C
   904 0001:0003B078   907 0001:0003B09C   908 0001:0003B0B2   909 0001:0003B0CE
   912 0001:0003B118   913 0001:0003B131   914 0001:0003B14A   917 0001:0003B190
   918 0001:0003B196   919 0001:0003B1A4   923 0001:0003B1EC   924 0001:0003B1F8
   927 0001:0003B240   928 0001:0003B246   929 0001:0003B254   933 0001:0003B288
   934 0001:0003B294   937 0001:0003B2C8   938 0001:0003B2DE   939 0001:0003B2F9
   942 0001:0003B33C   943 0001:0003B355   944 0001:0003B370   947 0001:0003B3B4
   948 0001:0003B3BA   949 0001:0003B3C8   953 0001:0003B3F4   954 0001:0003B400
   973 0001:0003B42C   974 0001:0003B457   975 0001:0003B466   976 0001:0003B472
   982 0001:0003B481   985 0001:0003B49A   986 0001:0003B4A9   989 0001:0003B4D0
   990 0001:0003B4DD   993 0001:0003B4EC   994 0001:0003B4F8   995 0001:0003B504
   996 0001:0003B512  1000 0001:0003B534  1001 0001:0003B53F  1004 0001:0003B549
  1005 0001:0003B557  1007 0001:0003B564  1008 0001:0003B571  1009 0001:0003B57F
  1012 0001:0003B598  1014 0001:0003B59C  1016 0001:0003B5A7  1019 0001:0003B5C1
  1022 0001:0003B5D1  1025 0001:0003B6C8  1026 0001:0003B6CB  1028 0001:0003B6D2
  1029 0001:0003B6D8  1031 0001:0003B6DD  1092 0001:0003B6E0  1093 0001:0003B6E6
  1094 0001:0003B6F0  1097 0001:0003B6F4  1098 0001:0003B6F7  1099 0001:0003B703
  1104 0001:0003B72C  1109 0001:0003B730  1118 0001:0003B734  1119 0001:0003B74A
  1121 0001:0003B7B8  1122 0001:0003B7CF  1123 0001:0003B7E1  1124 0001:0003B7F2
  1126 0001:0003B7F7  1127 0001:0003B809  1128 0001:0003B81D  1129 0001:0003B821
  1130 0001:0003B835  1131 0001:0003B844  1133 0001:0003B849  1134 0001:0003B850
  1135 0001:0003B857  1136 0001:0003B85E  1142 0001:0003B92C  1146 0001:0003B94E
  1147 0001:0003B95D  1148 0001:0003B969  1150 0001:0003B97D  1151 0001:0003B98C
  1154 0001:0003B9B3  1155 0001:0003B9C0  1158 0001:0003B9D4  1159 0001:0003B9EC
  1160 0001:0003BA04  1161 0001:0003BA11  1162 0001:0003BA1C  1163 0001:0003BA2C
  1165 0001:0003BA3A  1166 0001:0003BA58  1170 0001:0003BA7C  1171 0001:0003BA8B
  1173 0001:0003BA95  1174 0001:0003BAAD  1175 0001:0003BAC5  1176 0001:0003BAD2
  1177 0001:0003BADD  1178 0001:0003BAFB  1184 0001:0003BB1F  1187 0001:0003BCF4
  1189 0001:0003BD0D  1190 0001:0003BD2A  1191 0001:0003BD47  1197 0001:0003BDE0
  1202 0001:0003BDE4  1211 0001:0003BDE9  1215 0001:0003BDEC  1217 0001:0003BDF1
  1222 0001:0003BDF4  1226 0001:0003BE04  1229 0001:0003BE08  1230 0001:0003BE11
  1231 0001:0003BE1F  1233 0001:0003BE2C  1234 0001:0003BE38  1239 0001:0003BE84
  1240 0001:0003BE99  1241 0001:0003BEA6  1245 0001:0003BEC4  1246 0001:0003BEC9
  1317 0001:0003BECC  1318 0001:0003BEE5  1319 0001:0003BEE9  1323 0001:0003BEED
  1343 0001:0003BF19  1345 0001:0003BF26  1350 0001:0003BFA4  1351 0001:0003BFAA
  1353 0001:0003BFB0  1354 0001:0003BFB2  1357 0001:0003BFE7  1359 0001:0003BFF0
  1361 0001:0003C006  1362 0001:0003C016  1366 0001:0003C019  1367 0001:0003C022
  1370 0001:0003C028  1371 0001:0003C02B  1372 0001:0003C032  1373 0001:0003C036
  1374 0001:0003C03D  1384 0001:0003C040  1385 0001:0003C046  1386 0001:0003C04F
  1387 0001:0003C05B  1395 0001:0003C084  1396 0001:0003C08A  1397 0001:0003C094
  1400 0001:0003C098  1401 0001:0003C09E  1402 0001:0003C0A8  1411 0001:0003C0AC
  1412 0001:0003C0AE  1416 0001:0003C0B0  1417 0001:0003C0B2  1421 0001:0003C0B4
  1422 0001:0003C0B6  1426 0001:0003C0B8  1427 0001:0003C0BA  1431 0001:0003C0BC
  1432 0001:0003C0BE  1435 0001:0003C0C0  1436 0001:0003C0C6  1437 0001:0003C0D0
  1440 0001:0003C0D4  1441 0001:0003C0DA  1442 0001:0003C0E4  1446 0001:0003C0E8
  1447 0001:0003C0EA  1451 0001:0003C0EC  1452 0001:0003C0EE  1456 0001:0003C0F0
  1457 0001:0003C0F2  1461 0001:0003C0F4  1462 0001:0003C0F6  1466 0001:0003C0F8
  1467 0001:0003C0FF  1482 0001:0003C100  1483 0001:0003C105  1488 0001:0003C108
  1489 0001:0003C10B  1490 0001:0003C118  1496 0001:0003C11C  1497 0001:0003C121
  1506 0001:0003C124  1507 0001:0003C145  1509 0001:0003C15A  1510 0001:0003C179
  1512 0001:0003C1A3  1513 0001:0003C1B7  1514 0001:0003C1BB  1515 0001:0003C1E5
  1522 0001:0003C20B  1523 0001:0003C217  1525 0001:0003C225  1526 0001:0003C232
  1527 0001:0003C240  1528 0001:0003C24A  1530 0001:0003C25F  1533 0001:0003C277
  1539 0001:0003C287  1540 0001:0003C290  1542 0001:0003C29C  1560 0001:0003C314
  1561 0001:0003C337  1562 0001:0003C341  1563 0001:0003C34A  1564 0001:0003C350
  1567 0001:0003C353  1572 0001:0003C35C  1574 0001:0003C360  1575 0001:0003C36C
  1576 0001:0003C36F  1577 0001:0003C37D  1578 0001:0003C380  1579 0001:0003C38B
  1580 0001:0003C38F  1582 0001:0003C398  1583 0001:0003C3AC  1589 0001:0003C3B5
  1590 0001:0003C3CB  1593 0001:0003C3F4  1595 0001:0003C3F7  1596 0001:0003C403
  1601 0001:0003C42C  1602 0001:0003C44A  1603 0001:0003C451  1605 0001:0003C45D
  1607 0001:0003C46C  1609 0001:0003C47E  1610 0001:0003C4A3  1612 0001:0003C4AC
  1614 0001:0003C4B3  1615 0001:0003C4BD  1616 0001:0003C4E2  1617 0001:0003C4E6
  1618 0001:0003C50B  1620 0001:0003C50F  1621 0001:0003C523  1623 0001:0003C529
  1624 0001:0003C53A  1625 0001:0003C543  1626 0001:0003C554  1629 0001:0003C55B
  1631 0001:0003C560  1632 0001:0003C566  1633 0001:0003C56A  1634 0001:0003C573
  1635 0001:0003C57A  1636 0001:0003C57D  1640 0001:0003C680  1641 0001:0003C688
  1645 0001:0003C68C  1646 0001:0003C691  1651 0001:0003C694  1655 0001:0003C699
  1660 0001:0003C69C  1661 0001:0003C6AE  1662 0001:0003C6B2  1663 0001:0003C6BB
  1685 0001:0003C6D8  1686 0001:0003C6EE  1687 0001:0003C6F2  1688 0001:0003C6FA
  1689 0001:0003C716  1698 0001:0003C740  1699 0001:0003C754  1711 0001:0003C758
  1712 0001:0003C760  1714 0001:0003C777  1726 0001:0003C7C0  1727 0001:0003C7DE
  1729 0001:0003C7EA  1730 0001:0003C7F4  1731 0001:0003C803  1732 0001:0003C80B
  1733 0001:0003C80F  1734 0001:0003C822  1735 0001:0003C830  1736 0001:0003C83C
  1738 0001:0003C853  1759 0001:0003C858  1762 0001:0003C860  1765 0001:0003C877
  1783 0001:0003C8E0  1784 0001:0003C90D  1786 0001:0003C927  1787 0001:0003C92E
  1788 0001:0003C938  1789 0001:0003C947  1790 0001:0003C94F  1791 0001:0003C963
  1792 0001:0003C971  1793 0001:0003C989  1795 0001:0003C9A3  1799 0001:0003C9A8
  1800 0001:0003C9C2  1801 0001:0003C9D0  1802 0001:0003C9D7  1803 0001:0003C9E1
  1804 0001:0003C9F4  1805 0001:0003CA07  1806 0001:0003CA1A  1807 0001:0003CA2D
  1808 0001:0003CA40  1809 0001:0003CA58  1810 0001:0003CA65  1811 0001:0003CA75
  1812 0001:0003CA85  1813 0001:0003CA95  1814 0001:0003CAA5  1815 0001:0003CAB5
  1816 0001:0003CAC5  1817 0001:0003CAD5  1818 0001:0003CAED  1819 0001:0003CAF8
  1820 0001:0003CB06  1821 0001:0003CB14  1822 0001:0003CB22  1823 0001:0003CB30
  1824 0001:0003CB3E  1825 0001:0003CB4C  1827 0001:0003CB5A  1829 0001:0003CB78
  1830 0001:0003CB8E  1831 0001:0003CB96  1833 0001:0003CBB8  1835 0001:0003CBCF
  1840 0001:0003CBD4  1843 0001:0003CBDC  1846 0001:0003CBF3  1859 0001:0003CDBC
  1860 0001:0003CDDC  1862 0001:0003CDE8  1863 0001:0003CDEC  1864 0001:0003CDF6
  1865 0001:0003CE05  1866 0001:0003CE0D  1867 0001:0003CE20  1868 0001:0003CE2E
  1869 0001:0003CE40  1871 0001:0003CE57  1896 0001:0003CE5C  1904 0001:0003CE64
  1907 0001:0003CE7B  1920 0001:0003CEE4  1921 0001:0003CF07  1923 0001:0003CF10
  1924 0001:0003CF17  1925 0001:0003CF21  1926 0001:0003CF30  1927 0001:0003CF38
  1928 0001:0003CF4C  1929 0001:0003CF5A  1930 0001:0003CF6D  1932 0001:0003CF84
  1934 0001:0003CF89  1958 0001:0003CF91  1962 0001:0003CF99  1965 0001:0003CFB0
  1977 0001:0003D01C  1978 0001:0003D03C  1980 0001:0003D042  1981 0001:0003D046
  1982 0001:0003D050  1983 0001:0003D05F  1984 0001:0003D067  1985 0001:0003D07A
  1986 0001:0003D088  1987 0001:0003D09A  1989 0001:0003D0B1  2014 0001:0003D0B6
  2017 0001:0003D0BE  2020 0001:0003D0D5  2033 0001:0003D154  2034 0001:0003D174
  2036 0001:0003D17E  2037 0001:0003D182  2038 0001:0003D18C  2039 0001:0003D19B
  2040 0001:0003D1A3  2041 0001:0003D1B6  2042 0001:0003D1C4  2044 0001:0003D1EA
  2046 0001:0003D201  2081 0001:0003D206  2084 0001:0003D20E  2087 0001:0003D225
  2099 0001:0003D2A4  2100 0001:0003D2C4  2102 0001:0003D2CA  2103 0001:0003D2CE
  2104 0001:0003D2D8  2105 0001:0003D2E7  2106 0001:0003D2EF  2107 0001:0003D302
  2108 0001:0003D310  2109 0001:0003D322  2111 0001:0003D339  2136 0001:0003D33E
  2139 0001:0003D346  2142 0001:0003D35D  2154 0001:0003D3D0  2156 0001:0003D3FC
  2158 0001:0003D409  2159 0001:0003D410  2160 0001:0003D41A  2161 0001:0003D429
  2162 0001:0003D431  2163 0001:0003D445  2164 0001:0003D453  2165 0001:0003D46B
  2167 0001:0003D485  2171 0001:0003D48A  2172 0001:0003D497  2173 0001:0003D4A5
  2174 0001:0003D4AC  2175 0001:0003D4C4  2176 0001:0003D4D1  2177 0001:0003D4E1
  2178 0001:0003D4F1  2179 0001:0003D501  2180 0001:0003D519  2181 0001:0003D524
  2182 0001:0003D532  2183 0001:0003D540  2185 0001:0003D54E  2187 0001:0003D56C
  2188 0001:0003D582  2189 0001:0003D58A  2190 0001:0003D5A1  2192 0001:0003D5C3
  2194 0001:0003D5DA  2199 0001:0003D5DF  2200 0001:0003D5E7  2203 0001:0003D5FE
  2206 0001:0003D615  2218 0001:0003D774  2219 0001:0003D7A0  2221 0001:0003D7A9
  2222 0001:0003D7B0  2223 0001:0003D7BA  2224 0001:0003D7C9  2225 0001:0003D7D1
  2226 0001:0003D7E5  2227 0001:0003D7F3  2228 0001:0003D807  2230 0001:0003D821
  2234 0001:0003D826  2235 0001:0003D833  2236 0001:0003D841  2237 0001:0003D848
  2238 0001:0003D860  2239 0001:0003D86D  2240 0001:0003D87D  2241 0001:0003D88D
  2242 0001:0003D8A5  2243 0001:0003D8B0  2244 0001:0003D8BE  2246 0001:0003D8CC
  2248 0001:0003D8EA  2249 0001:0003D900  2250 0001:0003D908  2251 0001:0003D91F
  2253 0001:0003D941  2255 0001:0003D958  2260 0001:0003D95D  2261 0001:0003D965
  2264 0001:0003D97C  2267 0001:0003D993  2280 0001:0003DAB8  2281 0001:0003DAD8
  2283 0001:0003DADE  2284 0001:0003DAE2  2285 0001:0003DAEC  2286 0001:0003DAFB
  2287 0001:0003DB03  2288 0001:0003DB16  2289 0001:0003DB24  2290 0001:0003DB3A
  2292 0001:0003DB51  2319 0001:0003DB56  2322 0001:0003DB5E  2325 0001:0003DB75
  2339 0001:0003DBE8  2340 0001:0003DC08  2342 0001:0003DC0E  2343 0001:0003DC12
  2344 0001:0003DC1C  2345 0001:0003DC2B  2346 0001:0003DC33  2347 0001:0003DC46
  2348 0001:0003DC54  2349 0001:0003DC66  2351 0001:0003DC7D  2376 0001:0003DC82
  2384 0001:0003DC8A  2387 0001:0003DCA1  2399 0001:0003DD20  2400 0001:0003DD40
  2402 0001:0003DD46  2403 0001:0003DD4A  2404 0001:0003DD54  2405 0001:0003DD63
  2406 0001:0003DD6B  2407 0001:0003DD7E  2408 0001:0003DD8C  2409 0001:0003DD9E
  2411 0001:0003DDB5  2435 0001:0003DDBA  2438 0001:0003DDC2  2441 0001:0003DDD9
  2454 0001:0003DE48  2455 0001:0003DE6B  2457 0001:0003DE74  2458 0001:0003DE7B
  2459 0001:0003DE85  2460 0001:0003DE94  2461 0001:0003DE9C  2462 0001:0003DEB0
  2463 0001:0003DEBE  2464 0001:0003DED5  2466 0001:0003DEEC  2468 0001:0003DEF1
  2493 0001:0003DEF9  2497 0001:0003DF01  2500 0001:0003DF18  2513 0001:0003DF9C
  2514 0001:0003DFBC  2516 0001:0003DFC2  2517 0001:0003DFC6  2518 0001:0003DFD0
  2519 0001:0003DFDF  2520 0001:0003DFE7  2521 0001:0003DFFA  2522 0001:0003E008
  2523 0001:0003E01A  2525 0001:0003E031  2550 0001:0003E036  2553 0001:0003E03E
  2556 0001:0003E055  2569 0001:0003E0C4  2570 0001:0003E0E4  2572 0001:0003E0EA
  2573 0001:0003E0EE  2574 0001:0003E0F8  2575 0001:0003E107  2576 0001:0003E10F
  2577 0001:0003E122  2578 0001:0003E130  2579 0001:0003E14A  2581 0001:0003E161
  2610 0001:0003E166  2613 0001:0003E16E  2616 0001:0003E185  2629 0001:0003E204
  2630 0001:0003E227  2632 0001:0003E234  2633 0001:0003E23B  2634 0001:0003E245
  2635 0001:0003E254  2636 0001:0003E25C  2637 0001:0003E270  2638 0001:0003E27E
  2639 0001:0003E299  2641 0001:0003E2B0  2643 0001:0003E2B5  2671 0001:0003E2BD
  2675 0001:0003E2C5  2678 0001:0003E2DC  2690 0001:0003E370  2691 0001:0003E390
  2693 0001:0003E396  2694 0001:0003E39A  2695 0001:0003E3A4  2696 0001:0003E3B3
  2697 0001:0003E3BB  2698 0001:0003E3CE  2699 0001:0003E3DC  2700 0001:0003E3EE
  2702 0001:0003E405  2727 0001:0003E40A  2730 0001:0003E412  2733 0001:0003E429
  2742 0001:0003E4A4  2743 0001:0003E4BE  2745 0001:0003E4C4  2746 0001:0003E4C8
  2747 0001:0003E4DB  2748 0001:0003E4E9  2749 0001:0003E4F2  2751 0001:0003E509
  2768 0001:0003E50E  2771 0001:0003E516  2774 0001:0003E52D  2783 0001:0003E57C
  2784 0001:0003E596  2786 0001:0003E59C  2787 0001:0003E5A0  2788 0001:0003E5B3
  2789 0001:0003E5C1  2790 0001:0003E5CA  2792 0001:0003E5E1  2809 0001:0003E5E6
  2812 0001:0003E5EE  2815 0001:0003E605  2825 0001:0003E654  2826 0001:0003E671
  2828 0001:0003E67A  2829 0001:0003E681  2830 0001:0003E695  2831 0001:0003E6A3
  2832 0001:0003E6AD  2834 0001:0003E6C4  2849 0001:0003E6C9  2850 0001:0003E6D7
  2852 0001:0003E6DF  2857 0001:0003E6E5  2861 0001:0003E6FE  2863 0001:0003E71E
  2866 0001:0003E788  2867 0001:0003E78B  2868 0001:0003E797  2871 0001:0003E7C0
  2872 0001:0003E7C3  2875 0001:0003E7D0  2878 0001:0003E7D4  2879 0001:0003E7D7
  2880 0001:0003E7DE  2883 0001:0003E7E0  2884 0001:0003E7E3  2885 0001:0003E7EA
  2888 0001:0003E7EC  2889 0001:0003E7EF  2890 0001:0003E7F6  2893 0001:0003E7F8
  2894 0001:0003E7FB  2895 0001:0003E802  2898 0001:0003E804  2899 0001:0003E807
  2900 0001:0003E80E  2903 0001:0003E810  2904 0001:0003E813  2905 0001:0003E81A
  2908 0001:0003E81C  2909 0001:0003E81F  2910 0001:0003E826  2913 0001:0003E828
  2914 0001:0003E82B  2915 0001:0003E832  2918 0001:0003E834  2919 0001:0003E837
  2920 0001:0003E83E  2923 0001:0003E840  2924 0001:0003E843  2925 0001:0003E84A
  2928 0001:0003E84C  2929 0001:0003E84F  2930 0001:0003E856  2933 0001:0003E858
  2934 0001:0003E85B  2935 0001:0003E862  2938 0001:0003E864  2939 0001:0003E867
  2940 0001:0003E86E  2943 0001:0003E870  2944 0001:0003E873  2945 0001:0003E87A
  2948 0001:0003E87C  2949 0001:0003E87F  2950 0001:0003E886  2953 0001:0003E888
  2954 0001:0003E88B  2955 0001:0003E892  2958 0001:0003E894  2959 0001:0003E897
  2960 0001:0003E89E  2963 0001:0003E8A0  2964 0001:0003E8A3  2965 0001:0003E8AA
  2969 0001:0003E8AC  2970 0001:0003E8AE  2974 0001:0003E8B0  2975 0001:0003E8B2
  2998 0001:0003E8B4  3000 0001:0003E8D9  3002 0001:0003E8E3  3006 0001:0003E904

Line numbers for Dbx34Drv(Dbx34Drv.pas) segment .itext

  2986 0002:0000020C  2988 0002:00000228  2990 0002:00000238  2991 0002:0000023F
  2993 0002:00000249  2996 0002:00000270

Line numbers for DbxXXDrv(DbxXXDrv.pas) segment .text

   132 0001:0003E948   140 0001:0003E94A

Line numbers for DbxXXDrv(DbxXXDrv.pas) segment .itext

   143 0002:000002B4

Line numbers for DbxOpenOdbcApiHook(DbxOpenOdbcApiHook.pas) segment .text

   328 0001:0003EB60   329 0001:0003EB69   330 0001:0003EB7D   331 0001:0003EB7F
   333 0001:0003EB87   334 0001:0003EB8B   335 0001:0003EB8D   336 0001:0003EB94
   338 0001:0003EB99   339 0001:0003EB9C   340 0001:0003EB9D   341 0001:0003EBA3
   342 0001:0003EBAC   343 0001:0003EBB2   344 0001:0003EBB8   345 0001:0003EBC5
   346 0001:0003EBD0   347 0001:0003EBD2   348 0001:0003EBD6   350 0001:0003EBDC
   351 0001:0003EBDF   352 0001:0003EBEA   353 0001:0003EBEF   356 0001:0003EBF2
   358 0001:0003EBFD   360 0001:0003EC06   361 0001:0003EC09   362 0001:0003EC13
   364 0001:0003EC14   365 0001:0003EC24   366 0001:0003EC2D   367 0001:0003EC33
   369 0001:0003EC3C   371 0001:0003EC45   374 0001:0003EC4A   376 0001:0003EC59
   377 0001:0003EC68   378 0001:0003EC74   379 0001:0003EC7F   380 0001:0003EC86
   383 0001:0003EC89   385 0001:0003EC99   386 0001:0003ED05   387 0001:0003ED0C
   388 0001:0003ED15   389 0001:0003ED1E   390 0001:0003ED27   391 0001:0003ED30
   392 0001:0003ED39   393 0001:0003ED42   394 0001:0003ED4B   395 0001:0003ED54
   397 0001:0003ED5B   398 0001:0003ED64   400 0001:0003ED81   404 0001:0003ED9D
   405 0001:0003EDBD   406 0001:0003EDC0   407 0001:0003EDC5   410 0001:0003EDCA
   411 0001:0003EDE6   412 0001:0003EDEE   415 0001:0003EDF3   416 0001:0003EDF9
   418 0001:0003EDFE   424 0001:0003EE01   426 0001:0003EE14   428 0001:0003EE1B
   433 0001:0003EE24   434 0001:0003EE28   436 0001:0003EE2A   437 0001:0003EE31
   438 0001:0003EE33   440 0001:0003EE3D   441 0001:0003EE3F   442 0001:0003EE43
   448 0001:0003EE48   449 0001:0003EE52   450 0001:0003EE54   453 0001:0003EE57
   454 0001:0003EE60   455 0001:0003EE62   451 0001:0003EE64   458 0001:0003EE69
   462 0001:0003EE75   463 0001:0003EE7E   464 0001:0003EE88   465 0001:0003EE8A
   475 0001:0003EE90   476 0001:0003EE9C   477 0001:0003EEA0   478 0001:0003EEA5
   479 0001:0003EEB3   480 0001:0003EEB5   481 0001:0003EEBF   484 0001:0003EECC
   485 0001:0003EEE4   486 0001:0003EEE9   487 0001:0003EEFE   497 0001:0003EF03
   500 0001:0003EF08   501 0001:0003EF1E   502 0001:0003EF21   508 0001:0003EF27
   510 0001:0003EF3A   511 0001:0003EF4B   518 0001:0003EF5F   520 0001:0003EF76
   521 0001:0003EF7C   522 0001:0003EF84   524 0001:0003EF90   525 0001:0003EF94
   531 0001:0003EFA0   532 0001:0003EFAE   533 0001:0003EFB0   534 0001:0003EFB6
   535 0001:0003EFBA   536 0001:0003EFC0   538 0001:0003EFC4   539 0001:0003EFCB
   541 0001:0003EFCF   542 0001:0003EFDC   551 0001:0003EFE8   552 0001:0003EFF3
   553 0001:0003EFF7   554 0001:0003EFFF   555 0001:0003F00D   556 0001:0003F014
   558 0001:0003F01D   559 0001:0003F020   560 0001:0003F025   561 0001:0003F02C
   562 0001:0003F034   565 0001:0003F039   573 0001:0003F046   579 0001:0003F052
   581 0001:0003F061   588 0001:0003F06E   590 0001:0003F087   592 0001:0003F090
   611 0001:0003F09C   614 0001:0003F0B5   618 0001:0003F0BC   625 0001:0003F0C0
   626 0001:0003F0CF   627 0001:0003F0D3   628 0001:0003F0D7   629 0001:0003F0E5
   631 0001:0003F0EF   633 0001:0003F0F8   634 0001:0003F103   637 0001:0003F10C
   643 0001:0003F121   644 0001:0003F12F   645 0001:0003F133   646 0001:0003F140
   649 0001:0003F143   650 0001:0003F146   655 0001:0003F14F   658 0001:0003F160
   659 0001:0003F173   666 0001:0003F18C   673 0001:0003F198   674 0001:0003F1A7
   675 0001:0003F1AB   677 0001:0003F1CB   678 0001:0003F1D6   680 0001:0003F1E4
   686 0001:0003F1F9   687 0001:0003F207   689 0001:0003F217   692 0001:0003F233
   693 0001:0003F246   700 0001:0003F25F   702 0001:0003F272   703 0001:0003F277
   707 0001:0003F284   708 0001:0003F28C   710 0001:0003F28F   713 0001:0003F291
   718 0001:0003F2A8   730 0001:0003F2AC   732 0001:0003F2AF   735 0001:0003F2B6
   737 0001:0003F2D6   739 0001:0003F2DB   741 0001:0003F2DE   745 0001:0003F2E0
   747 0001:0003F2E1   750 0001:0003F2E3   753 0001:0003F2E7   755 0001:0003F2E9
   758 0001:0003F2ED   761 0001:0003F2F1   763 0001:0003F2F3   766 0001:0003F2F5
   755 0001:0003F2F8   769 0001:0003F2FC   772 0001:0003F300   774 0001:0003F334
   776 0001:0003F34C   779 0001:0003F39C   780 0001:0003F39E   784 0001:0003F3C8
   786 0001:0003F3CF   789 0001:0003F3D3   792 0001:0003F3E4   794 0001:0003F3E8
   796 0001:0003F3F6   798 0001:0003F405   802 0001:0003F409   806 0001:0003F40D
   807 0001:0003F40F   811 0001:0003F414   813 0001:0003F41B   816 0001:0003F41F
   818 0001:0003F425   821 0001:0003F429   823 0001:0003F434   818 0001:0003F437
   826 0001:0003F43B   830 0001:0003F43F   831 0001:0003F441   843 0001:0003F448
   846 0001:0003F47C   849 0001:0003F49C   851 0001:0003F49F   853 0001:0003F4AA
   855 0001:0003F4B2   858 0001:0003F4B7   860 0001:0003F4BB   866 0001:0003F4C9
   868 0001:0003F4CF   871 0001:0003F4EF   873 0001:0003F4F5   875 0001:0003F4FA
   878 0001:0003F507   883 0001:0003F511   886 0001:0003F517   889 0001:0003F537
   892 0001:0003F544   894 0001:0003F546   898 0001:0003F54C   900 0001:0003F558
   903 0001:0003F55C   906 0001:0003F56F   909 0001:0003F582   911 0001:0003F58F
   913 0001:0003F594   915 0001:0003F59F   920 0001:0003F5A7   880 0001:0003F5AA
   925 0001:0003F5B9   927 0001:0003F5D4   863 0001:0003F5D7   931 0001:0003F5EF
   934 0001:0003F628   937 0001:0003F659   940 0001:0003F671   942 0001:0003F690
   947 0001:0003F6BC   950 0001:0003F6EB   953 0001:0003F6F7   955 0001:0003F705
   957 0001:0003F716   960 0001:0003F71C   962 0001:0003F72A   967 0001:0003F73A
   969 0001:0003F73C   971 0001:0003F748   973 0001:0003F75B   964 0001:0003F762
   977 0001:0003F77C   982 0001:0003F799   985 0001:0003F7AD   991 0001:0003F7D8
   994 0001:0003F819   997 0001:0003F825   999 0001:0003F833  1001 0001:0003F837
  1004 0001:0003F85F  1006 0001:0003F870  1009 0001:0003F876  1011 0001:0003F881
  1016 0001:0003F896  1018 0001:0003F8A6  1020 0001:0003F8AA  1025 0001:0003F8B3
  1027 0001:0003F8C4  1030 0001:0003F8CC  1032 0001:0003F8D9  1034 0001:0003F8E7
  1036 0001:0003F915  1038 0001:0003F92A  1040 0001:0003F935  1042 0001:0003F937
  1044 0001:0003F95E  1047 0001:0003F97B  1052 0001:0003F991  1058 0001:0003F997
  1061 0001:0003F9A8  1064 0001:0003F9BC  1068 0001:0003F9F8  1071 0001:0003FA2F
  1074 0001:0003FA3B  1076 0001:0003FA49  1078 0001:0003FA4E  1081 0001:0003FA5F
  1084 0001:0003FA8D  1087 0001:0003FABC  1089 0001:0003FACC  1092 0001:0003FACE
  1078 0001:0003FACF  1095 0001:0003FADF  1098 0001:0003FAF3  1103 0001:0003FB2C
  1106 0001:0003FB3C  1109 0001:0003FB48  1111 0001:0003FB56  1113 0001:0003FB66
  1115 0001:0003FB74  1120 0001:0003FB83  1122 0001:0003FB85  1124 0001:0003FB91
  1126 0001:0003FBA8  1117 0001:0003FBAF  1130 0001:0003FBC9  1134 0001:0003FBE6
  1137 0001:0003FBFA  1143 0001:0003FC04  1146 0001:0003FC12  1149 0001:0003FC1E
  1151 0001:0003FC2C  1153 0001:0003FC3A  1156 0001:0003FC57  1158 0001:0003FC68
  1163 0001:0003FC78  1165 0001:0003FC7A  1167 0001:0003FC86  1169 0001:0003FC9F
  1160 0001:0003FCA6  1173 0001:0003FCC0  1175 0001:0003FCD0  1153 0001:0003FCD3
  1178 0001:0003FCE9  1182 0001:0003FD09  1185 0001:0003FD1D  1188 0001:0003FD24
  1191 0001:0003FD30  1194 0001:0003FD3C  1196 0001:0003FD4A  1199 0001:0003FD67
  1202 0001:0003FD7B  1205 0001:0003FD84  1208 0001:0003FD8D  1211 0001:0003FD99
  1213 0001:0003FDA7  1216 0001:0003FDBE  1219 0001:0003FDD2  1222 0001:0003FDDC
  1225 0001:0003FDE6  1228 0001:0003FDF2  1230 0001:0003FE00  1233 0001:0003FE13
  1236 0001:0003FE27  1239 0001:0003FE2C  1242 0001:0003FE35  1245 0001:0003FE41
  1247 0001:0003FE4F  1250 0001:0003FE68  1253 0001:0003FE7C  1256 0001:0003FE84
  1259 0001:0003FE96  1262 0001:0003FE9F  1265 0001:0003FEA8  1268 0001:0003FEB7
  1270 0001:0003FEBB  1273 0001:0003FED8  1276 0001:0003FEE9  1278 0001:0003FEF7
  1280 0001:0003FF05  1283 0001:0003FF21  1286 0001:0003FF34  1289 0001:0003FF4D
  1292 0001:0003FF64  1311 0001:0003FF78  1312 0001:0003FF7F  1313 0001:0003FF81
  1324 0001:0003FF84  1325 0001:0003FF8D  1326 0001:0003FF90  1327 0001:0003FF9A
  1329 0001:0003FFA2  1335 0001:0003FFB7  1336 0001:0003FFC5  1339 0001:0003FFD7
  1340 0001:0003FFEA  1347 0001:00040003  1350 0001:0004000C  1351 0001:00040016
  1352 0001:00040024  1354 0001:00040029  1355 0001:00040036  1356 0001:00040040
  1352 0001:00040041  1357 0001:00040049  1359 0001:0004005B  1367 0001:00040063
  1370 0001:0004006C  1371 0001:00040072  1372 0001:00040080  1376 0001:00040084
  1377 0001:00040086  1379 0001:0004008B  1380 0001:0004008C  1383 0001:00040096
  1384 0001:00040098

Line numbers for DbxOpenOdbcApiHook(DbxOpenOdbcApiHook.pas) segment .itext

  1386 0002:000002BC

Line numbers for DbxDBFix(DbxDBFix.pas) segment .itext

   982 0002:000002C4

Line numbers for .dbxoodbc(.\..\..\..\source\packages\pkg\dbxoodbc.dpk) segment .text

    77 0001:000400AB

Bound resource files

dbxoodbc_man_icn.res
dbxoodbc_ver.res
C:\Users\EDENWU~1\AppData\Local\Temp\dtf6017.tmp


Program entry point at 0002:000002CC
