
 Start         Length     Name                   Class
 0001:00401000 00041110H .text                   CODE
 0002:00443000 0000020CH .itext                  ICODE
 0003:00444000 00000588H .data                   DATA
 0004:00445000 0000005CH .bss                    BSS
 0005:00000000 00000000H .tls                    TLS


Detailed map of segments

 0001:00000000 0000027E C=CODE     S=.text    G=(none)   M=System   ACBP=A9
 0001:00000280 000001C3 C=CODE     S=.text    G=(none)   M=SysInit  ACBP=A9
 0001:00000444 00000138 C=CODE     S=.text    G=(none)   M=Windows  ACBP=A9
 0001:0000057C 000000D6 C=CODE     S=.text    G=(none)   M=SysUtils ACBP=A9
 0001:00000654 00000006 C=CODE     S=.text    G=(none)   M=StrUtils ACBP=A9
 0001:0000065C 0000003E C=CODE     S=.text    G=(none)   M=Classes  ACBP=A9
 0001:0000069C 00000006 C=CODE     S=.text    G=(none)   M=TypInfo  ACBP=A9
 0001:000006A4 00000056 C=CODE     S=.text    G=(none)   M=Variants ACBP=A9
 0001:000006FC 00000006 C=CODE     S=.text    G=(none)   M=VarUtils ACBP=A9
 0001:00000704 0000002E C=CODE     S=.text    G=(none)   M=ClassRegistry ACBP=A9
 0001:00000734 0000005E C=CODE     S=.text    G=(none)   M=DB       ACBP=A9
 0001:00000794 00000006 C=CODE     S=.text    G=(none)   M=WideStrings ACBP=A9
 0001:0000079C 00000006 C=CODE     S=.text    G=(none)   M=WideStrUtils ACBP=A9
 0001:000007A4 00000006 C=CODE     S=.text    G=(none)   M=FMTBcd   ACBP=A9
 0001:000007AC 00000006 C=CODE     S=.text    G=(none)   M=SqlTimSt ACBP=A9
 0001:000007B4 00000006 C=CODE     S=.text    G=(none)   M=ComObj   ACBP=A9
 0001:000007BC 00000296 C=CODE     S=.text    G=(none)   M=DBXCommon ACBP=A9
 0001:00000A54 00000006 C=CODE     S=.text    G=(none)   M=Registry ACBP=A9
 0001:00000A5C 00000006 C=CODE     S=.text    G=(none)   M=IniFiles ACBP=A9
 0001:00000A64 0000002E C=CODE     S=.text    G=(none)   M=DBXPlatform ACBP=A9
 0001:00000A94 0000000E C=CODE     S=.text    G=(none)   M=DBClient ACBP=A9
 0001:00000AA4 00000006 C=CODE     S=.text    G=(none)   M=DSIntf   ACBP=A9
 0001:00000AAC 00000006 C=CODE     S=.text    G=(none)   M=Provider ACBP=A9
 0001:00000AB4 0000007E C=CODE     S=.text    G=(none)   M=DBXDynalink ACBP=A9
 0001:00000B34 00000016 C=CODE     S=.text    G=(none)   M=DBXDynalinkNative ACBP=A9
 0001:00000B4C 00000306 C=CODE     S=.text    G=(none)   M=DBXMetaDataReader ACBP=A9
 0001:00000E54 00000056 C=CODE     S=.text    G=(none)   M=DBXMetaDataCommand ACBP=A9
 0001:00000EAC 00000066 C=CODE     S=.text    G=(none)   M=DBXMetaDataCommandFactory ACBP=A9
 0001:00000F14 00037CDC C=CODE     S=.text    G=(none)   M=Dbx34DrvDbms ACBP=A9
 0001:00038BF0 0000198E C=CODE     S=.text    G=(none)   M=DbxOpenOdbcApiHook ACBP=A9
 0001:0003A580 00000006 C=CODE     S=.text    G=(none)   M=SqlExpr  ACBP=A9
 0001:0003A588 00000A63 C=CODE     S=.text    G=(none)   M=DbxDBFix ACBP=A9
 0001:0003AFEC 00000042 C=CODE     S=.text    G=(none)   M=DbxXXDrv ACBP=A9
 0001:0003B030 00005E88 C=CODE     S=.text    G=(none)   M=Dbx34Drv ACBP=A9
 0001:00040EB8 00000257 C=CODE     S=.text    G=(none)   M=.dbxoodbc ACBP=A9
 0002:00000000 00000006 C=ICODE    S=.itext   G=(none)   M=System   ACBP=A9
 0002:00000008 00000011 C=ICODE    S=.itext   G=(none)   M=Windows  ACBP=A9
 0002:0000001C 00000006 C=ICODE    S=.itext   G=(none)   M=SysUtils ACBP=A9
 0002:00000024 00000006 C=ICODE    S=.itext   G=(none)   M=Classes  ACBP=A9
 0002:0000002C 00000006 C=ICODE    S=.itext   G=(none)   M=TypInfo  ACBP=A9
 0002:00000034 00000006 C=ICODE    S=.itext   G=(none)   M=Variants ACBP=A9
 0002:0000003C 00000006 C=ICODE    S=.itext   G=(none)   M=VarUtils ACBP=A9
 0002:00000044 00000006 C=ICODE    S=.itext   G=(none)   M=ClassRegistry ACBP=A9
 0002:0000004C 00000006 C=ICODE    S=.itext   G=(none)   M=DB       ACBP=A9
 0002:00000054 00000006 C=ICODE    S=.itext   G=(none)   M=WideStrings ACBP=A9
 0002:0000005C 00000006 C=ICODE    S=.itext   G=(none)   M=FMTBcd   ACBP=A9
 0002:00000064 00000006 C=ICODE    S=.itext   G=(none)   M=SqlTimSt ACBP=A9
 0002:0000006C 00000006 C=ICODE    S=.itext   G=(none)   M=ComObj   ACBP=A9
 0002:00000074 00000006 C=ICODE    S=.itext   G=(none)   M=DBXCommon ACBP=A9
 0002:0000007C 00000006 C=ICODE    S=.itext   G=(none)   M=Registry ACBP=A9
 0002:00000084 00000006 C=ICODE    S=.itext   G=(none)   M=IniFiles ACBP=A9
 0002:0000008C 00000006 C=ICODE    S=.itext   G=(none)   M=DBClient ACBP=A9
 0002:00000094 00000006 C=ICODE    S=.itext   G=(none)   M=DSIntf   ACBP=A9
 0002:0000009C 00000006 C=ICODE    S=.itext   G=(none)   M=Provider ACBP=A9
 0002:000000A4 00000006 C=ICODE    S=.itext   G=(none)   M=DBXDynalink ACBP=A9
 0002:000000AC 00000082 C=ICODE    S=.itext   G=(none)   M=Dbx34DrvDbms ACBP=A9
 0002:00000130 00000008 C=ICODE    S=.itext   G=(none)   M=DbxOpenOdbcApiHook ACBP=A9
 0002:00000138 00000006 C=ICODE    S=.itext   G=(none)   M=SqlExpr  ACBP=A9
 0002:00000140 00000011 C=ICODE    S=.itext   G=(none)   M=DbxDBFix ACBP=A9
 0002:00000154 00000008 C=ICODE    S=.itext   G=(none)   M=DbxXXDrv ACBP=A9
 0002:0000015C 000000A8 C=ICODE    S=.itext   G=(none)   M=Dbx34Drv ACBP=A9
 0002:00000204 00000005 C=ICODE    S=.itext   G=(none)   M=.dbxoodbc ACBP=A9
 0003:00000000 0000002C C=DATA     S=.data    G=DGROUP   M=SysInit  ACBP=A9
 0003:0000002C 00000540 C=DATA     S=.data    G=DGROUP   M=DbxOpenOdbcApiHook ACBP=A9
 0003:0000056C 00000001 C=DATA     S=.data    G=DGROUP   M=Dbx34Drv ACBP=A9
 0004:00000000 0000000C C=BSS      S=.bss     G=DGROUP   M=SysInit  ACBP=A9
 0004:0000000C 00000008 C=BSS      S=.bss     G=DGROUP   M=Windows  ACBP=A9
 0004:00000014 00000004 C=BSS      S=.bss     G=DGROUP   M=Dbx34DrvDbms ACBP=A9
 0004:00000018 00000004 C=BSS      S=.bss     G=DGROUP   M=DbxOpenOdbcApiHook ACBP=A9
 0004:0000001C 00000038 C=BSS      S=.bss     G=DGROUP   M=DbxDBFix ACBP=A9
 0004:00000054 00000004 C=BSS      S=.bss     G=DGROUP   M=DbxXXDrv ACBP=A9
 0004:00000058 00000004 C=BSS      S=.bss     G=DGROUP   M=Dbx34Drv ACBP=A9


  Address             Publics by Name

 0002:00000204       .dbxoodbc..dbxoodbc
 0001:000410F0       .dbxoodbc.@GetPackageInfoTable
 0001:000410F8       .dbxoodbc.@PackageLoad
 0001:00041104       .dbxoodbc.@PackageUnload
 0002:00000024       Classes.Classes
 0001:00000694       Classes.Finalization
 0001:0000065C       Classes.TList.Add
 0001:00000664       Classes.TList.Delete
 0001:0000066C       Classes.TList.Get
 0001:00000674       Classes.TList.Remove
 0001:0000067C       Classes.TPersistent.Assign
 0001:00000684       Classes.TPersistent.AssignTo
 0001:0000068C       Classes.TPersistent.DefineProperties
 0002:00000044       ClassRegistry.ClassRegistry
 0001:0000072C       ClassRegistry.Finalization
 0001:00000704       ClassRegistry.TClassRegistry.CreateInstance
 0001:0000070C       ClassRegistry.TClassRegistry.GetClassRegistry
 0001:00000714       ClassRegistry.TClassRegistry.HasClass
 0001:0000071C       ClassRegistry.TClassRegistry.RegisterRegistryClass
 0001:00000724       ClassRegistry.TClassRegistry.UnregisterClass
 0002:0000006C       ComObj.ComObj
 0001:000007B4       ComObj.Finalization
 0002:0000004C       DB.DB
 0001:0000078C       DB.Finalization
 0001:00000734       DB.RegisterFields
 0001:00000774       DB.TBlobField.SetData
 0001:0000077C       DB.TBlobField.SetVarValue
 0001:00000784       DB.TDataSet.DataConvert
 0001:00000744       DB.TField.AssignValue
 0001:0000074C       DB.TField.GetData
 0001:00000754       DB.TField.GetIsNull
 0001:0000075C       DB.TField.SetData
 0001:0000073C       DB.TFields.FindField
 0001:00000764       DB.TStringField.GetValue
 0001:0000076C       DB.TStringField.SetAsString
 0002:0000008C       DBClient.DBClient
 0001:00000A9C       DBClient.Finalization
 0001:00000A94       DBClient.TCustomClientDataSet.DataConvert
 0004:00000058       Dbx34Drv..81
 0001:0003B030       Dbx34Drv..EDBXError
 0001:0003B0C0       Dbx34Drv..EDbxOODBCDriverError
 0001:0003BA38       Dbx34Drv..TDBXCustomOpenODBCMetaDataReader
 0001:0003B950       Dbx34Drv..TDBXDataExpressProviderContextOpenOdbc
 0001:0003B210       Dbx34Drv..TDBXDataTypes
 0001:0003B6E0       Dbx34Drv..TDBXDynalinkConnectionOpenOdbc
 0001:0003B614       Dbx34Drv..TDBXDynalinkDriverLoaderOpenOdbc
 0001:0003B834       Dbx34Drv..TDBXMorphicCommandOpenOdbc
 0001:0003B338       Dbx34Drv..TDbxOpenOdbcDriver
 0001:0003BC30       Dbx34Drv..TDBXOpenODBCMetaDataCommand
 0001:0003BD90       Dbx34Drv..TDBXOpenODBCMetaDataCommandFactory
 0001:0003BE5C       Dbx34Drv..TDBXOpenODBCMetaDataCommandFactoryCustom
 0001:0003BF34       Dbx34Drv..TDBXOpenODBCMetaDataReader
 0001:0003B400       Dbx34Drv..TDBXOpenOdbcProperties
 0001:0003B168       Dbx34Drv..TDBXOpenOdbcPropertyNames
 0001:0003B2A0       Dbx34Drv..TDBXPropertyNames
 0003:0000056C       Dbx34Drv.bIsDbx34Drv
 0001:0003C4D4       Dbx34Drv.CheckGetVendorPropertyCommand
 0001:0003C808       Dbx34Drv.CheckLibraryName
 0001:0003C768       Dbx34Drv.CheckLibraryPath
 0001:0003C574       Dbx34Drv.CheckPathEnvironmet
 0001:0003C868       Dbx34Drv.CheckVendorLib
 0002:0000015C       Dbx34Drv.Dbx34Drv
 0001:0003C228       Dbx34Drv.DBXStringArrayToErrorInfo
 0001:0003C114       Dbx34Drv.DBXStringArrayToNamedQueryParams
 0001:0003C388       Dbx34Drv.ErrorGetVendorPropertyCommand
 0001:00040E24       Dbx34Drv.Finalization
 0001:0003D668       Dbx34Drv.RaiseDriverVersionFailed
 0001:0003DF9C       Dbx34Drv.TDBXCustomOpenODBCMetaDataReader.CheckMetadata
 0001:0003E070       Dbx34Drv.TDBXCustomOpenODBCMetaDataReader.GetProductName
 0001:0003E160       Dbx34Drv.TDBXCustomOpenODBCMetaDataReader.GetSqlIdentifierQuoteChar
 0001:0003E0BC       Dbx34Drv.TDBXCustomOpenODBCMetaDataReader.GetSqlIdentifierQuotePrefix
 0001:0003E0DC       Dbx34Drv.TDBXCustomOpenODBCMetaDataReader.GetSqlIdentifierQuoteSuffix
 0001:0003E180       Dbx34Drv.TDBXCustomOpenODBCMetaDataReader.GetSqlProcedureQuoteChar
 0001:0003E1F0       Dbx34Drv.TDBXCustomOpenODBCMetaDataReader.GetUseAnsiStrings
 0001:0003DEB0       Dbx34Drv.TDBXCustomOpenODBCMetaDataReader.InitMetadata
 0001:0003E14C       Dbx34Drv.TDBXCustomOpenODBCMetaDataReader.IsDescendingIndexColumnsSupported
 0001:0003E138       Dbx34Drv.TDBXCustomOpenODBCMetaDataReader.IsDescendingIndexSupported
 0001:0003E110       Dbx34Drv.TDBXCustomOpenODBCMetaDataReader.IsLowerCaseIdentifiersSupported
 0001:0003E1A0       Dbx34Drv.TDBXCustomOpenODBCMetaDataReader.IsMultipleCommandsSupported
 0001:0003E1C8       Dbx34Drv.TDBXCustomOpenODBCMetaDataReader.IsNestedTransactionsSupported
 0001:0003E0FC       Dbx34Drv.TDBXCustomOpenODBCMetaDataReader.IsParameterMetadataSupported
 0001:0003E1DC       Dbx34Drv.TDBXCustomOpenODBCMetaDataReader.IsSetRowSizeSupported
 0001:0003E1B4       Dbx34Drv.TDBXCustomOpenODBCMetaDataReader.IsTransactionsSupported
 0001:0003E124       Dbx34Drv.TDBXCustomOpenODBCMetaDataReader.IsUpperCaseIdentifiersSupported
 0001:0003E044       Dbx34Drv.TDBXCustomOpenODBCMetaDataReader.SetContext
 0001:0003DE8C       Dbx34Drv.TDBXDataExpressProviderContextOpenOdbc.SetConnection
 0001:0003DD58       Dbx34Drv.TDBXDynalinkConnectionOpenOdbc.Close
 0001:0003DD30       Dbx34Drv.TDBXDynalinkConnectionOpenOdbc.DerivedClose
 0001:0003DD6C       Dbx34Drv.TDBXDynalinkConnectionOpenOdbc.DerivedCreateCommand
 0001:0003D644       Dbx34Drv.TDBXDynalinkConnectionOpenOdbc.DerivedGetCommands
 0001:0003D658       Dbx34Drv.TDBXDynalinkConnectionOpenOdbc.DerivedGetCommandTypes
 0001:0003D6F0       Dbx34Drv.TDBXDynalinkConnectionOpenOdbc.DerivedOpen
 0001:0003DC3C       Dbx34Drv.TDBXDynalinkConnectionOpenOdbc.DoDerivedOpenAfter
 0001:0003D874       Dbx34Drv.TDBXDynalinkConnectionOpenOdbc.DoDerivedOpenBefore
 0001:0003DD3C       Dbx34Drv.TDBXDynalinkConnectionOpenOdbc.GetDatabaseMetaData
 0001:0003D600       Dbx34Drv.TDBXDynalinkConnectionOpenOdbc.GetProductName
 0001:0003D5E0       Dbx34Drv.TDBXDynalinkConnectionOpenOdbc.GetProductVersion
 0001:0003DD98       Dbx34Drv.TDBXDynalinkConnectionOpenOdbc.GetVendorProperty
 0001:0003D5B8       Dbx34Drv.TDBXDynalinkDriverLoaderOpenOdbc.FreeOldLibrary
 0001:0003D2F8       Dbx34Drv.TDBXDynalinkDriverLoaderOpenOdbc.LoadDriverLibraryAndMethodTable
 0001:0003DE20       Dbx34Drv.TDBXMorphicCommandOpenOdbc.Create
 0001:0003DE70       Dbx34Drv.TDBXMorphicCommandOpenOdbc.DerivedExecuteQuery
 0001:0003C8C4       Dbx34Drv.TDbxOpenOdbcDriver.Create
 0001:0003C988       Dbx34Drv.TDbxOpenOdbcDriver.CreateCommandOpenOdbc
 0001:0003C9B8       Dbx34Drv.TDbxOpenOdbcDriver.CreateConnection
 0001:0003CAB8       Dbx34Drv.TDbxOpenOdbcDriver.GetDriverPropertyNames
 0001:0003CAD4       Dbx34Drv.TDbxOpenOdbcDriver.GetDriverVersion
 0001:0003CA18       Dbx34Drv.TDbxOpenOdbcDriver.LoadDriverWithConnectionBuilder
 0001:0003E20C       Dbx34Drv.TDBXOpenODBCMetaDataCommand.DerivedExecuteQuery
 0001:0003E470       Dbx34Drv.TDBXOpenODBCMetaDataCommandFactory.CreateCommand
 0001:0003E5C4       Dbx34Drv.TDBXOpenODBCMetaDataCommandFactory.CreateMetaDataReader
 0001:0003E85C       Dbx34Drv.TDBXOpenODBCMetaDataCommandFactory.CreateMetaDataReader
 0001:0003E24C       Dbx34Drv.TDBXOpenODBCMetaDataCommandFactory.GetMetaDataReaderClass
 0001:0003E580       Dbx34Drv.TDBXOpenODBCMetaDataCommandFactory.GetProductName
 0001:0003E264       Dbx34Drv.TDBXOpenODBCMetaDataCommandFactory.InitMetaDataReaderClass
 0001:0003E880       Dbx34Drv.TDBXOpenODBCMetaDataCommandFactory.RegisterMetaDataCommandFactory
 0001:0003E894       Dbx34Drv.TDBXOpenODBCMetaDataCommandFactory.UnRegisterMetaDataCommandFactory
 0001:0003E228       Dbx34Drv.TDBXOpenODBCMetaDataCommandFactoryCustom.CreateMetaDataReader
 0001:0003E8A8       Dbx34Drv.TDBXOpenODBCMetaDataReader.Create
 0001:0003E964       Dbx34Drv.TDBXOpenODBCMetaDataReader.FetchCatalogs
 0001:0003F2C0       Dbx34Drv.TDBXOpenODBCMetaDataReader.FetchColumnConstraints
 0001:0003F178       Dbx34Drv.TDBXOpenODBCMetaDataReader.FetchColumns
 0001:0003E8F0       Dbx34Drv.TDBXOpenODBCMetaDataReader.FetchDataTypes
 0001:0003F414       Dbx34Drv.TDBXOpenODBCMetaDataReader.FetchForeignKeyColumns
 0001:0003F580       Dbx34Drv.TDBXOpenODBCMetaDataReader.FetchForeignKeys
 0001:0003F6C8       Dbx34Drv.TDBXOpenODBCMetaDataReader.FetchIndexColumns
 0001:0003FA7C       Dbx34Drv.TDBXOpenODBCMetaDataReader.FetchIndexes
 0001:000405C8       Dbx34Drv.TDBXOpenODBCMetaDataReader.FetchPackageProcedureParameters
 0001:00040468       Dbx34Drv.TDBXOpenODBCMetaDataReader.FetchPackageProcedures
 0001:00040324       Dbx34Drv.TDBXOpenODBCMetaDataReader.FetchPackages
 0001:00040744       Dbx34Drv.TDBXOpenODBCMetaDataReader.FetchPackageSources
 0001:000401BC       Dbx34Drv.TDBXOpenODBCMetaDataReader.FetchProcedureParameters
 0001:0003FDD4       Dbx34Drv.TDBXOpenODBCMetaDataReader.FetchProcedures
 0001:0003FF24       Dbx34Drv.TDBXOpenODBCMetaDataReader.FetchProcedureSources
 0001:00040A64       Dbx34Drv.TDBXOpenODBCMetaDataReader.FetchReservedWords
 0001:0004097C       Dbx34Drv.TDBXOpenODBCMetaDataReader.FetchRoles
 0001:0003E9F4       Dbx34Drv.TDBXOpenODBCMetaDataReader.FetchSchemas
 0001:00040078       Dbx34Drv.TDBXOpenODBCMetaDataReader.FetchSynonyms
 0001:0003EB34       Dbx34Drv.TDBXOpenODBCMetaDataReader.FetchTables
 0001:00040894       Dbx34Drv.TDBXOpenODBCMetaDataReader.FetchUsers
 0001:0003F030       Dbx34Drv.TDBXOpenODBCMetaDataReader.FetchViews
 0001:00040BA0       Dbx34Drv.TDBXOpenODBCMetaDataReader.GetProductName
 0001:00040BE4       Dbx34Drv.TDBXOpenODBCMetaDataReader.GetReservedWords
 0001:00040C04       Dbx34Drv.TDBXOpenODBCMetaDataReader.GetSqlForColumns
 0001:00040C20       Dbx34Drv.TDBXOpenODBCMetaDataReader.GetSqlForForeignKeyColumns
 0001:00040C3C       Dbx34Drv.TDBXOpenODBCMetaDataReader.GetSqlForForeignKeys
 0001:00040C58       Dbx34Drv.TDBXOpenODBCMetaDataReader.GetSqlForIndexColumns
 0001:00040C74       Dbx34Drv.TDBXOpenODBCMetaDataReader.GetSqlForIndexes
 0001:00040C90       Dbx34Drv.TDBXOpenODBCMetaDataReader.GetSqlForPackageProcedureParameters
 0001:00040CAC       Dbx34Drv.TDBXOpenODBCMetaDataReader.GetSqlForPackageProcedures
 0001:00040CC8       Dbx34Drv.TDBXOpenODBCMetaDataReader.GetSqlForPackages
 0001:00040CE4       Dbx34Drv.TDBXOpenODBCMetaDataReader.GetSqlForPackageSources
 0001:00040D00       Dbx34Drv.TDBXOpenODBCMetaDataReader.GetSqlForProcedureParameters
 0001:00040D1C       Dbx34Drv.TDBXOpenODBCMetaDataReader.GetSqlForProcedures
 0001:00040D38       Dbx34Drv.TDBXOpenODBCMetaDataReader.GetSqlForProcedureSources
 0001:00040D54       Dbx34Drv.TDBXOpenODBCMetaDataReader.GetSqlForRoles
 0001:00040D70       Dbx34Drv.TDBXOpenODBCMetaDataReader.GetSqlForSchemas
 0001:00040D8C       Dbx34Drv.TDBXOpenODBCMetaDataReader.GetSqlForSynonyms
 0001:00040DA8       Dbx34Drv.TDBXOpenODBCMetaDataReader.GetSqlForTables
 0001:00040DC4       Dbx34Drv.TDBXOpenODBCMetaDataReader.GetSqlForUsers
 0001:00040DE0       Dbx34Drv.TDBXOpenODBCMetaDataReader.GetSqlForViews
 0001:00040DFC       Dbx34Drv.TDBXOpenODBCMetaDataReader.IsNestedTransactionsSupported
 0001:00040E10       Dbx34Drv.TDBXOpenODBCMetaDataReader.IsSetRowSizeSupported
 0001:0003CB20       Dbx34Drv.TDBXOpenOdbcProperties.Create
 0001:0003CEFC       Dbx34Drv.TDBXOpenOdbcProperties.GetBlobSize
 0001:0003CCDC       Dbx34Drv.TDBXOpenOdbcProperties.GetConnectionString
 0001:0003D268       Dbx34Drv.TDBXOpenOdbcProperties.GetCustomString
 0001:0003CD7C       Dbx34Drv.TDBXOpenOdbcProperties.GetDatabase
 0001:0003D0C8       Dbx34Drv.TDBXOpenOdbcProperties.GetDecimalSeparator
 0001:0003D000       Dbx34Drv.TDBXOpenOdbcProperties.GetOdbcTransIsolation
 0001:0003CE7C       Dbx34Drv.TDBXOpenOdbcProperties.GetPassWord
 0001:0003D168       Dbx34Drv.TDBXOpenOdbcProperties.GetTrimChar
 0001:0003CDFC       Dbx34Drv.TDBXOpenOdbcProperties.GetUserName
 0001:0003CF80       Dbx34Drv.TDBXOpenOdbcProperties.SetBlobSize
 0001:0003CD2C       Dbx34Drv.TDBXOpenOdbcProperties.SetConnectionString
 0001:0003D2B0       Dbx34Drv.TDBXOpenOdbcProperties.SetCustomString
 0001:0003CDBC       Dbx34Drv.TDBXOpenOdbcProperties.SetDatabase
 0001:0003D118       Dbx34Drv.TDBXOpenOdbcProperties.SetDecimalSeparator
 0001:0003D064       Dbx34Drv.TDBXOpenOdbcProperties.SetOdbcTransIsolation
 0001:0003CEBC       Dbx34Drv.TDBXOpenOdbcProperties.SetPassWord
 0001:0003D1E8       Dbx34Drv.TDBXOpenOdbcProperties.SetTrimChar
 0001:0003CE3C       Dbx34Drv.TDBXOpenOdbcProperties.SetUserName
 0004:00000014       Dbx34DrvDbms..52
 0001:000022B4       Dbx34DrvDbms..TDBXOpenODBCMetaDataCommandFactoryDataStorage
 0001:00001D10       Dbx34DrvDbms..TDBXOpenODBCMetaDataCommandFactoryDB2
 0001:00002590       Dbx34DrvDbms..TDBXOpenODBCMetaDataCommandFactoryFirebird
 0001:00001FCC       Dbx34DrvDbms..TDBXOpenODBCMetaDataCommandFactoryInformix
 0001:00002878       Dbx34DrvDbms..TDBXOpenODBCMetaDataCommandFactoryInterbase
 0001:000011E0       Dbx34DrvDbms..TDBXOpenODBCMetaDataCommandFactoryMSSQL
 0001:000014A4       Dbx34DrvDbms..TDBXOpenODBCMetaDataCommandFactoryMySQL
 0001:00000F14       Dbx34DrvDbms..TDBXOpenODBCMetaDataCommandFactoryOracle
 0001:00002E2C       Dbx34DrvDbms..TDBXOpenODBCMetaDataCommandFactoryPostgreSQL
 0001:00002B60       Dbx34DrvDbms..TDBXOpenODBCMetaDataCommandFactorySQLite
 0001:00001768       Dbx34DrvDbms..TDBXOpenODBCMetaDataCommandFactorySybaseASA
 0001:00001A3C       Dbx34DrvDbms..TDBXOpenODBCMetaDataCommandFactorySybaseASE
 0001:00002398       Dbx34DrvDbms..TDBXOpenODBCMetaDataReaderDataStorage
 0001:00001DE4       Dbx34DrvDbms..TDBXOpenODBCMetaDataReaderDB2
 0001:00002670       Dbx34DrvDbms..TDBXOpenODBCMetaDataReaderFirebird
 0001:000020AC       Dbx34DrvDbms..TDBXOpenODBCMetaDataReaderInformix
 0001:00002958       Dbx34DrvDbms..TDBXOpenODBCMetaDataReaderInterbase
 0001:000012B8       Dbx34DrvDbms..TDBXOpenODBCMetaDataReaderMSSQL
 0001:0000157C       Dbx34DrvDbms..TDBXOpenODBCMetaDataReaderMySQL
 0001:00000FF0       Dbx34DrvDbms..TDBXOpenODBCMetaDataReaderOracle
 0001:00002F10       Dbx34DrvDbms..TDBXOpenODBCMetaDataReaderPostgreSQL
 0001:00002C3C       Dbx34DrvDbms..TDBXOpenODBCMetaDataReaderSQLite
 0001:00001848       Dbx34DrvDbms..TDBXOpenODBCMetaDataReaderSybaseASA
 0001:00001B1C       Dbx34DrvDbms..TDBXOpenODBCMetaDataReaderSybaseASE
 0002:000000AC       Dbx34DrvDbms.Dbx34DrvDbms
 0001:00038B48       Dbx34DrvDbms.Finalization
 0001:0002BE7C       Dbx34DrvDbms.TDBXOpenODBCMetaDataCommandFactoryDataStorage.GetMetaDataReaderClass
 0001:0001E60C       Dbx34DrvDbms.TDBXOpenODBCMetaDataCommandFactoryDB2.GetMetaDataReaderClass
 0001:0002C1F8       Dbx34DrvDbms.TDBXOpenODBCMetaDataCommandFactoryFirebird.GetMetaDataReaderClass
 0001:00023680       Dbx34DrvDbms.TDBXOpenODBCMetaDataCommandFactoryInformix.GetMetaDataReaderClass
 0001:0003115C       Dbx34DrvDbms.TDBXOpenODBCMetaDataCommandFactoryInterbase.GetMetaDataReaderClass
 0001:00005FF0       Dbx34DrvDbms.TDBXOpenODBCMetaDataCommandFactoryMSSQL.GetMetaDataReaderClass
 0001:0000E524       Dbx34DrvDbms.TDBXOpenODBCMetaDataCommandFactoryMySQL.GetMetaDataReaderClass
 0001:00003108       Dbx34DrvDbms.TDBXOpenODBCMetaDataCommandFactoryOracle.GetMetaDataReaderClass
 0001:000360F4       Dbx34DrvDbms.TDBXOpenODBCMetaDataCommandFactoryPostgreSQL.GetMetaDataReaderClass
 0001:000360C0       Dbx34DrvDbms.TDBXOpenODBCMetaDataCommandFactorySQLite.GetMetaDataReaderClass
 0001:00013004       Dbx34DrvDbms.TDBXOpenODBCMetaDataCommandFactorySybaseASA.GetMetaDataReaderClass
 0001:00018C64       Dbx34DrvDbms.TDBXOpenODBCMetaDataCommandFactorySybaseASE.GetMetaDataReaderClass
 0001:0002BFB8       Dbx34DrvDbms.TDBXOpenODBCMetaDataReaderDataStorage.GetSqlForColumns
 0001:0002C124       Dbx34DrvDbms.TDBXOpenODBCMetaDataReaderDataStorage.GetSqlForIndexColumns
 0001:0002C074       Dbx34DrvDbms.TDBXOpenODBCMetaDataReaderDataStorage.GetSqlForIndexes
 0001:0002BE94       Dbx34DrvDbms.TDBXOpenODBCMetaDataReaderDataStorage.GetSqlForTables
 0001:00023080       Dbx34DrvDbms.TDBXOpenODBCMetaDataReaderDB2.GetDataTypeDescriptions
 0001:0001E624       Dbx34DrvDbms.TDBXOpenODBCMetaDataReaderDB2.GetProductName
 0001:0001F7B0       Dbx34DrvDbms.TDBXOpenODBCMetaDataReaderDB2.GetReservedWords
 0001:0001EC0C       Dbx34DrvDbms.TDBXOpenODBCMetaDataReaderDB2.GetSqlForColumns
 0001:0001F348       Dbx34DrvDbms.TDBXOpenODBCMetaDataReaderDB2.GetSqlForIndexColumns
 0001:0001EF9C       Dbx34DrvDbms.TDBXOpenODBCMetaDataReaderDB2.GetSqlForIndexes
 0001:0001E658       Dbx34DrvDbms.TDBXOpenODBCMetaDataReaderDB2.GetSqlForTables
 0001:00023064       Dbx34DrvDbms.TDBXOpenODBCMetaDataReaderDB2.GetSqlProcedureQuoteChar
 0001:00023020       Dbx34DrvDbms.TDBXOpenODBCMetaDataReaderDB2.GetSystemTableType
 0001:00022F98       Dbx34DrvDbms.TDBXOpenODBCMetaDataReaderDB2.GetTableType
 0001:00022FDC       Dbx34DrvDbms.TDBXOpenODBCMetaDataReaderDB2.GetViewType
 0001:0002C250       Dbx34DrvDbms.TDBXOpenODBCMetaDataReaderFirebird.Destroy
 0001:00030A50       Dbx34DrvDbms.TDBXOpenODBCMetaDataReaderFirebird.GetAllDataTypes
 0001:00031084       Dbx34DrvDbms.TDBXOpenODBCMetaDataReaderFirebird.GetDataTypeDescriptions
 0001:0002C210       Dbx34DrvDbms.TDBXOpenODBCMetaDataReaderFirebird.GetProductName
 0001:0002D514       Dbx34DrvDbms.TDBXOpenODBCMetaDataReaderFirebird.GetReservedWords
 0001:0002C6C8       Dbx34DrvDbms.TDBXOpenODBCMetaDataReaderFirebird.GetSqlForColumns
 0001:0002CFEC       Dbx34DrvDbms.TDBXOpenODBCMetaDataReaderFirebird.GetSqlForIndexColumns
 0001:0002CB88       Dbx34DrvDbms.TDBXOpenODBCMetaDataReaderFirebird.GetSqlForIndexes
 0001:0002C28C       Dbx34DrvDbms.TDBXOpenODBCMetaDataReaderFirebird.GetSqlForTables
 0001:00030984       Dbx34DrvDbms.TDBXOpenODBCMetaDataReaderFirebird.IsDescendingIndexColumnsSupported
 0001:00030998       Dbx34DrvDbms.TDBXOpenODBCMetaDataReaderFirebird.SetContext
 0001:000236F4       Dbx34DrvDbms.TDBXOpenODBCMetaDataReaderInformix.Destroy
 0001:0002B4E0       Dbx34DrvDbms.TDBXOpenODBCMetaDataReaderInformix.GetAllDataTypes
 0001:0002BD50       Dbx34DrvDbms.TDBXOpenODBCMetaDataReaderInformix.GetDataTypeDescriptions
 0001:00023698       Dbx34DrvDbms.TDBXOpenODBCMetaDataReaderInformix.GetProductName
 0001:000257E0       Dbx34DrvDbms.TDBXOpenODBCMetaDataReaderInformix.GetReservedWords
 0001:00023D10       Dbx34DrvDbms.TDBXOpenODBCMetaDataReaderInformix.GetSqlForColumns
 0001:00024604       Dbx34DrvDbms.TDBXOpenODBCMetaDataReaderInformix.GetSqlForIndexColumns
 0001:00024164       Dbx34DrvDbms.TDBXOpenODBCMetaDataReaderInformix.GetSqlForIndexes
 0001:00023730       Dbx34DrvDbms.TDBXOpenODBCMetaDataReaderInformix.GetSqlForTables
 0001:0002B488       Dbx34DrvDbms.TDBXOpenODBCMetaDataReaderInformix.GetSynonymType
 0001:0002B444       Dbx34DrvDbms.TDBXOpenODBCMetaDataReaderInformix.GetSystemTableType
 0001:0002B3BC       Dbx34DrvDbms.TDBXOpenODBCMetaDataReaderInformix.GetTableType
 0001:0002B400       Dbx34DrvDbms.TDBXOpenODBCMetaDataReaderInformix.GetViewType
 0001:0002B4CC       Dbx34DrvDbms.TDBXOpenODBCMetaDataReaderInformix.IsUpperCaseIdentifiersSupported
 0001:000311B4       Dbx34DrvDbms.TDBXOpenODBCMetaDataReaderInterbase.Destroy
 0001:000359B4       Dbx34DrvDbms.TDBXOpenODBCMetaDataReaderInterbase.GetAllDataTypes
 0001:00035FE8       Dbx34DrvDbms.TDBXOpenODBCMetaDataReaderInterbase.GetDataTypeDescriptions
 0001:00031174       Dbx34DrvDbms.TDBXOpenODBCMetaDataReaderInterbase.GetProductName
 0001:00032478       Dbx34DrvDbms.TDBXOpenODBCMetaDataReaderInterbase.GetReservedWords
 0001:0003162C       Dbx34DrvDbms.TDBXOpenODBCMetaDataReaderInterbase.GetSqlForColumns
 0001:00031F50       Dbx34DrvDbms.TDBXOpenODBCMetaDataReaderInterbase.GetSqlForIndexColumns
 0001:00031AEC       Dbx34DrvDbms.TDBXOpenODBCMetaDataReaderInterbase.GetSqlForIndexes
 0001:000311F0       Dbx34DrvDbms.TDBXOpenODBCMetaDataReaderInterbase.GetSqlForTables
 0001:000358E8       Dbx34DrvDbms.TDBXOpenODBCMetaDataReaderInterbase.IsDescendingIndexColumnsSupported
 0001:000358FC       Dbx34DrvDbms.TDBXOpenODBCMetaDataReaderInterbase.SetContext
 0001:0000D56C       Dbx34DrvDbms.TDBXOpenODBCMetaDataReaderMSSQL.GetDataTypeDescriptions
 0001:00006008       Dbx34DrvDbms.TDBXOpenODBCMetaDataReaderMSSQL.GetProductName
 0001:00008CEC       Dbx34DrvDbms.TDBXOpenODBCMetaDataReaderMSSQL.GetReservedWords
 0001:00006980       Dbx34DrvDbms.TDBXOpenODBCMetaDataReaderMSSQL.GetSqlForColumns
 0001:00008268       Dbx34DrvDbms.TDBXOpenODBCMetaDataReaderMSSQL.GetSqlForIndexColumns
 0001:00007738       Dbx34DrvDbms.TDBXOpenODBCMetaDataReaderMSSQL.GetSqlForIndexes
 0001:00006060       Dbx34DrvDbms.TDBXOpenODBCMetaDataReaderMSSQL.GetSqlForTables
 0001:0000D3B4       Dbx34DrvDbms.TDBXOpenODBCMetaDataReaderMSSQL.GetSqlIdentifierQuotePrefix
 0001:0000D3E4       Dbx34DrvDbms.TDBXOpenODBCMetaDataReaderMSSQL.GetSqlIdentifierQuoteSuffix
 0001:0000D524       Dbx34DrvDbms.TDBXOpenODBCMetaDataReaderMSSQL.GetSynonymType
 0001:0000D49C       Dbx34DrvDbms.TDBXOpenODBCMetaDataReaderMSSQL.GetSystemTableType
 0001:0000D4E0       Dbx34DrvDbms.TDBXOpenODBCMetaDataReaderMSSQL.GetSystemViewType
 0001:0000D414       Dbx34DrvDbms.TDBXOpenODBCMetaDataReaderMSSQL.GetTableType
 0001:0000D458       Dbx34DrvDbms.TDBXOpenODBCMetaDataReaderMSSQL.GetViewType
 0001:000122A0       Dbx34DrvDbms.TDBXOpenODBCMetaDataReaderMySQL.GetDataTypeDescriptions
 0001:0000E53C       Dbx34DrvDbms.TDBXOpenODBCMetaDataReaderMySQL.GetProductName
 0001:0000F6F4       Dbx34DrvDbms.TDBXOpenODBCMetaDataReaderMySQL.GetReservedWords
 0001:0000E924       Dbx34DrvDbms.TDBXOpenODBCMetaDataReaderMySQL.GetSqlForColumns
 0001:0000F348       Dbx34DrvDbms.TDBXOpenODBCMetaDataReaderMySQL.GetSqlForIndexColumns
 0001:0000EF90       Dbx34DrvDbms.TDBXOpenODBCMetaDataReaderMySQL.GetSqlForIndexes
 0001:0000E574       Dbx34DrvDbms.TDBXOpenODBCMetaDataReaderMySQL.GetSqlForTables
 0001:00012074       Dbx34DrvDbms.TDBXOpenODBCMetaDataReaderMySQL.GetSqlIdentifierQuoteChar
 0001:00012014       Dbx34DrvDbms.TDBXOpenODBCMetaDataReaderMySQL.GetSqlIdentifierQuotePrefix
 0001:00012044       Dbx34DrvDbms.TDBXOpenODBCMetaDataReaderMySQL.GetSqlIdentifierQuoteSuffix
 0001:000120A4       Dbx34DrvDbms.TDBXOpenODBCMetaDataReaderMySQL.GetTableType
 0001:000120FC       Dbx34DrvDbms.TDBXOpenODBCMetaDataReaderMySQL.IsDescendingIndexColumnsSupported
 0001:00012124       Dbx34DrvDbms.TDBXOpenODBCMetaDataReaderMySQL.IsMultipleCommandsSupported
 0001:00012110       Dbx34DrvDbms.TDBXOpenODBCMetaDataReaderMySQL.IsUpperCaseIdentifiersSupported
 0001:000121F0       Dbx34DrvDbms.TDBXOpenODBCMetaDataReaderMySQL.PopulateDataTypes
 0001:00012138       Dbx34DrvDbms.TDBXOpenODBCMetaDataReaderMySQL.SetContext
 0001:000052C8       Dbx34DrvDbms.TDBXOpenODBCMetaDataReaderOracle.GetDataTypeDescriptions
 0001:00003120       Dbx34DrvDbms.TDBXOpenODBCMetaDataReaderOracle.GetProductName
 0001:000043AC       Dbx34DrvDbms.TDBXOpenODBCMetaDataReaderOracle.GetReservedWords
 0001:000037A4       Dbx34DrvDbms.TDBXOpenODBCMetaDataReaderOracle.GetSqlForColumns
 0001:00003ED8       Dbx34DrvDbms.TDBXOpenODBCMetaDataReaderOracle.GetSqlForIndexColumns
 0001:00003AD0       Dbx34DrvDbms.TDBXOpenODBCMetaDataReaderOracle.GetSqlForIndexes
 0001:0000315C       Dbx34DrvDbms.TDBXOpenODBCMetaDataReaderOracle.GetSqlForSchemas
 0001:00003244       Dbx34DrvDbms.TDBXOpenODBCMetaDataReaderOracle.GetSqlForTables
 0001:0000516C       Dbx34DrvDbms.TDBXOpenODBCMetaDataReaderOracle.PopulateDataTypes
 0001:000383C4       Dbx34DrvDbms.TDBXOpenODBCMetaDataReaderPostgreSQL.GetReservedWords
 0001:000366BC       Dbx34DrvDbms.TDBXOpenODBCMetaDataReaderPostgreSQL.GetSqlForColumns
 0001:000374D0       Dbx34DrvDbms.TDBXOpenODBCMetaDataReaderPostgreSQL.GetSqlForIndexColumns
 0001:00036EBC       Dbx34DrvDbms.TDBXOpenODBCMetaDataReaderPostgreSQL.GetSqlForIndexes
 0001:0003610C       Dbx34DrvDbms.TDBXOpenODBCMetaDataReaderPostgreSQL.GetSqlForTables
 0001:000360D8       Dbx34DrvDbms.TDBXOpenODBCMetaDataReaderSQLite.GetSqlForTables
 0001:000180A8       Dbx34DrvDbms.TDBXOpenODBCMetaDataReaderSybaseASA.GetDataTypeDescriptions
 0001:0001301C       Dbx34DrvDbms.TDBXOpenODBCMetaDataReaderSybaseASA.GetProductName
 0001:000157B0       Dbx34DrvDbms.TDBXOpenODBCMetaDataReaderSybaseASA.GetReservedWords
 0001:000137C0       Dbx34DrvDbms.TDBXOpenODBCMetaDataReaderSybaseASA.GetSqlForColumns
 0001:00014924       Dbx34DrvDbms.TDBXOpenODBCMetaDataReaderSybaseASA.GetSqlForIndexColumns
 0001:00013CB8       Dbx34DrvDbms.TDBXOpenODBCMetaDataReaderSybaseASA.GetSqlForIndexes
 0001:000131E8       Dbx34DrvDbms.TDBXOpenODBCMetaDataReaderSybaseASA.GetSqlForTables
 0001:00018010       Dbx34DrvDbms.TDBXOpenODBCMetaDataReaderSybaseASA.GetSystemTableType
 0001:0001805C       Dbx34DrvDbms.TDBXOpenODBCMetaDataReaderSybaseASA.GetSystemViewType
 0001:00017F78       Dbx34DrvDbms.TDBXOpenODBCMetaDataReaderSybaseASA.GetTableType
 0001:00017FC4       Dbx34DrvDbms.TDBXOpenODBCMetaDataReaderSybaseASA.GetViewType
 0001:0001307C       Dbx34DrvDbms.TDBXOpenODBCMetaDataReaderSybaseASA.SetContext
 0001:0001D9BC       Dbx34DrvDbms.TDBXOpenODBCMetaDataReaderSybaseASE.GetDataTypeDescriptions
 0001:00018C7C       Dbx34DrvDbms.TDBXOpenODBCMetaDataReaderSybaseASE.GetProductName
 0001:00019E74       Dbx34DrvDbms.TDBXOpenODBCMetaDataReaderSybaseASE.GetReservedWords
 0001:00019050       Dbx34DrvDbms.TDBXOpenODBCMetaDataReaderSybaseASE.GetSqlForColumns
 0001:00019980       Dbx34DrvDbms.TDBXOpenODBCMetaDataReaderSybaseASE.GetSqlForIndexColumns
 0001:00019608       Dbx34DrvDbms.TDBXOpenODBCMetaDataReaderSybaseASE.GetSqlForIndexes
 0001:00018CCC       Dbx34DrvDbms.TDBXOpenODBCMetaDataReaderSybaseASE.GetSqlForTables
 0001:0001D978       Dbx34DrvDbms.TDBXOpenODBCMetaDataReaderSybaseASE.GetSystemTableType
 0001:0001D8F0       Dbx34DrvDbms.TDBXOpenODBCMetaDataReaderSybaseASE.GetTableType
 0001:0001D934       Dbx34DrvDbms.TDBXOpenODBCMetaDataReaderSybaseASE.GetViewType
 0002:00000074       DBXCommon.DBXCommon
 0001:00000A4C       DBXCommon.Finalization
 0001:0000096C       DBXCommon.TDBXCommand.Close
 0001:0000091C       DBXCommon.TDBXCommand.CloseReader
 0001:000008EC       DBXCommon.TDBXCommand.CreateParameter
 0001:000008F4       DBXCommon.TDBXCommand.CreateParameterRow
 0001:000008FC       DBXCommon.TDBXCommand.CreateParameters
 0001:00000964       DBXCommon.TDBXCommand.DerivedClearParameters
 0001:0000090C       DBXCommon.TDBXCommand.ExecuteQuery
 0001:00000914       DBXCommon.TDBXCommand.ExecuteUpdate
 0001:00000A3C       DBXCommon.TDBXCommand.GetCommandTimeout
 0001:00000924       DBXCommon.TDBXCommand.GetCommandType
 0001:0000092C       DBXCommon.TDBXCommand.GetErrorEvent
 0001:00000934       DBXCommon.TDBXCommand.GetNextReader
 0001:0000093C       DBXCommon.TDBXCommand.GetParameters
 0001:00000944       DBXCommon.TDBXCommand.GetText
 0001:0000095C       DBXCommon.TDBXCommand.Open
 0001:0000094C       DBXCommon.TDBXCommand.Prepare
 0001:00000A44       DBXCommon.TDBXCommand.SetCommandTimeout
 0001:00000904       DBXCommon.TDBXCommand.SetCommandType
 0001:00000954       DBXCommon.TDBXCommand.SetText
 0001:00000884       DBXCommon.TDBXConnection.BeginTransaction
 0001:0000087C       DBXCommon.TDBXConnection.BeginTransaction
 0001:0000088C       DBXCommon.TDBXConnection.CommitFreeAndNil
 0001:00000854       DBXCommon.TDBXConnection.CreateCommand
 0001:0000084C       DBXCommon.TDBXConnection.CreateMorphCommand
 0001:00000844       DBXCommon.TDBXConnection.Destroy
 0001:000008A4       DBXCommon.TDBXConnection.GetConnectionProperties
 0001:000008BC       DBXCommon.TDBXConnection.GetConnectionProperty
 0001:00000864       DBXCommon.TDBXConnection.GetDatabaseMetaData
 0001:000008D4       DBXCommon.TDBXConnection.GetDBXFormatter
 0001:000008AC       DBXCommon.TDBXConnection.GetErrorEvent
 0001:000008B4       DBXCommon.TDBXConnection.GetIsOpen
 0001:0000086C       DBXCommon.TDBXConnection.GetTraceFlags
 0001:00000874       DBXCommon.TDBXConnection.GetTraceInfoEvent
 0001:0000085C       DBXCommon.TDBXConnection.Open
 0001:00000894       DBXCommon.TDBXConnection.RollbackFreeAndNil
 0001:0000089C       DBXCommon.TDBXConnection.RollbackIncompleteFreeAndNil
 0001:000008CC       DBXCommon.TDBXConnection.SetConnectionProperties
 0001:000008DC       DBXCommon.TDBXConnection.SetDBXFormatter
 0001:000008C4       DBXCommon.TDBXConnection.SetErrorEvent
 0001:000008E4       DBXCommon.TDBXConnection.SetTraceFlags
 0001:00000A24       DBXCommon.TDBXConnectionBuilder.GetConnectionProperties
 0001:00000A1C       DBXCommon.TDBXContext.Error
 0001:000007F4       DBXCommon.TDBXDriver.AddCommandFactory
 0001:000007FC       DBXCommon.TDBXDriver.CreateMorphCommand
 0001:00000804       DBXCommon.TDBXDriver.GetDriverClass
 0001:0000080C       DBXCommon.TDBXDriver.GetDriverName
 0001:00000814       DBXCommon.TDBXDriver.GetDriverProperties
 0001:0000081C       DBXCommon.TDBXDriver.GetDriverPropertyNames
 0001:0000082C       DBXCommon.TDBXDriver.InitDriverProperties
 0001:00000824       DBXCommon.TDBXDriver.SetDriverName
 0001:00000A2C       DBXCommon.TDBXDriverHelp.GetMetaDataReader
 0001:00000A34       DBXCommon.TDBXDriverHelp.SetMetaDataReader
 0001:00000834       DBXCommon.TDBXDriverRegistry.RegisterDriverClass
 0001:0000083C       DBXCommon.TDBXDriverRegistry.UnregisterDriverClass
 0001:00000A14       DBXCommon.TDBXMorphicCommand.CloseReader
 0001:00000974       DBXCommon.TDBXMorphicCommand.Create
 0001:000009A4       DBXCommon.TDBXMorphicCommand.CreateParameterRow
 0001:0000097C       DBXCommon.TDBXMorphicCommand.CreateParameters
 0001:000009C4       DBXCommon.TDBXMorphicCommand.DerivedClose
 0001:000009CC       DBXCommon.TDBXMorphicCommand.DerivedExecuteQuery
 0001:000009D4       DBXCommon.TDBXMorphicCommand.DerivedExecuteUpdate
 0001:000009DC       DBXCommon.TDBXMorphicCommand.DerivedGetNextReader
 0001:000009E4       DBXCommon.TDBXMorphicCommand.DerivedOpen
 0001:000009EC       DBXCommon.TDBXMorphicCommand.DerivedPrepare
 0001:00000984       DBXCommon.TDBXMorphicCommand.Destroy
 0001:0000098C       DBXCommon.TDBXMorphicCommand.ExecuteQuery
 0001:00000994       DBXCommon.TDBXMorphicCommand.ExecuteUpdate
 0001:000009BC       DBXCommon.TDBXMorphicCommand.GetNextReader
 0001:0000099C       DBXCommon.TDBXMorphicCommand.GetParameters
 0001:000009AC       DBXCommon.TDBXMorphicCommand.GetRowsAffected
 0001:000009B4       DBXCommon.TDBXMorphicCommand.Prepare
 0001:00000A04       DBXCommon.TDBXMorphicCommand.SetCommandType
 0001:000009F4       DBXCommon.TDBXMorphicCommand.SetMaxBlobSize
 0001:000009FC       DBXCommon.TDBXMorphicCommand.SetRowSetSize
 0001:00000A0C       DBXCommon.TDBXMorphicCommand.SetText
 0001:000007C4       DBXCommon.TDBXProperties.Create
 0001:000007BC       DBXCommon.TDBXProperties.Create
 0001:000007CC       DBXCommon.TDBXProperties.Destroy
 0001:000007D4       DBXCommon.TDBXProperties.DoOnChange
 0001:000007DC       DBXCommon.TDBXProperties.GetLists
 0001:000007E4       DBXCommon.TDBXProperties.GetValue
 0001:000007EC       DBXCommon.TDBXProperties.SetValue
 0004:0000001C       DbxDBFix..1
 0004:00000038       DbxDBFix.BlobField_SetVarValue
 0004:00000050       DbxDBFix.CustomClientDataSet_DataConvert
 0004:0000004C       DbxDBFix.DataSet_DataConvert
 0002:00000140       DbxDBFix.DbxDBFix
 0004:00000028       DbxDBFix.FieldAccess_FindField
 0004:00000048       DbxDBFix.Field_AssignValue
 0001:0003AFB4       DbxDBFix.Finalization
 0001:0003A980       DbxDBFix.FIX_TBLOBFIELD_SETVARVALUE
 0001:0003AE28       DbxDBFix.FIX_TCUSTOMCLIENTDATASET_DATACONVERT
 0001:0003AD9C       DbxDBFix.FIX_TDATASET_DATACONVERT
 0001:0003A750       DbxDBFix.FIX_TFIELDS_FINDFIELD
 0001:0003ACB4       DbxDBFix.FIX_TFIELD_ASSIGNVALUE
 0001:0003A8F0       DbxDBFix.FIX_TINTEGERFIELD_GETISNULL
 0001:0003AB28       DbxDBFix.FIX_TSTRINGFIELD_GETVALUE
 0001:0003A5EC       DbxDBFix.FIX_TSTRINGFIELD_SETASANSISTRING
 0001:0003AF14       DbxDBFix.INSTALL_FIXES
 0001:0003AAE8       DbxDBFix.INSTALL_FIX_TBLOBFIELD_SETVARVALUE
 0001:0003AEDC       DbxDBFix.INSTALL_FIX_TCUSTOMCLIENTDATASET_DATACONVERT
 0001:0003ADF0       DbxDBFix.INSTALL_FIX_TDATASET_DATACONVERT
 0001:0003A8B0       DbxDBFix.INSTALL_FIX_TFIELDS_FINDFIELD
 0001:0003AD64       DbxDBFix.INSTALL_FIX_TFIELD_ASSIGNVALUE
 0001:0003A940       DbxDBFix.INSTALL_FIX_TINTEGERFIELD_GETISNULL
 0001:0003AC74       DbxDBFix.INSTALL_FIX_TSTRINGFIELD_GETVALUE
 0001:0003A70C       DbxDBFix.INSTALL_FIX_TSTRINGFIELD_SETASANSISTRING
 0004:00000030       DbxDBFix.IntegerField_GetIsNull
 0004:00000040       DbxDBFix.StringField_GetValue
 0004:00000020       DbxDBFix.StringField_SetAsAnsiString
 0001:0003A588       DbxDBFix.WStrLCopyLen
 0002:000000A4       DBXDynalink.DBXDynalink
 0001:00000B2C       DBXDynalink.Finalization
 0001:00000AF4       DBXDynalink.TDBXDynalinkConnection.Close
 0001:00000AFC       DBXDynalink.TDBXDynalinkConnection.Commit
 0001:00000B14       DBXDynalink.TDBXDynalinkConnection.Create
 0001:00000AEC       DBXDynalink.TDBXDynalinkConnection.CreateAndBeginTransaction
 0001:00000B1C       DBXDynalink.TDBXDynalinkConnection.DerivedOpen
 0001:00000B24       DBXDynalink.TDBXDynalinkConnection.GetVendorProperty
 0001:00000B04       DBXDynalink.TDBXDynalinkConnection.Rollback
 0001:00000B0C       DBXDynalink.TDBXDynalinkConnection.SetTraceInfoEvent
 0001:00000AB4       DBXDynalink.TDBXDynalinkDriver.CheckResult
 0001:00000ABC       DBXDynalink.TDBXDynalinkDriver.Close
 0001:00000AC4       DBXDynalink.TDBXDynalinkDriver.Destroy
 0001:00000ACC       DBXDynalink.TDBXDynalinkDriver.GetDriverVersion
 0001:00000AD4       DBXDynalink.TDBXDynalinkDriverCommonLoader.Create
 0001:00000ADC       DBXDynalink.TDBXDynalinkDriverCommonLoader.Load
 0001:00000AE4       DBXDynalink.TDBXDynalinkDriverCommonLoader.LoadDriverLibrary
 0001:00000B3C       DBXDynalinkNative.TDBXDynalinkDriverLoader.CreateDynalinkDriver
 0001:00000B44       DBXDynalinkNative.TDBXDynalinkDriverLoader.CreateMethodTable
 0001:00000B34       DBXDynalinkNative.TDBXDynalinkDriverNative.Create
 0001:00000E54       DBXMetaDataCommand.TDBXMetaDataCommand.Create
 0001:00000E8C       DBXMetaDataCommand.TDBXMetaDataCommand.DerivedClose
 0001:00000E9C       DBXMetaDataCommand.TDBXMetaDataCommand.DerivedExecuteQuery
 0001:00000EA4       DBXMetaDataCommand.TDBXMetaDataCommand.DerivedExecuteUpdate
 0001:00000E7C       DBXMetaDataCommand.TDBXMetaDataCommand.DerivedGetNextReader
 0001:00000E84       DBXMetaDataCommand.TDBXMetaDataCommand.DerivedOpen
 0001:00000E94       DBXMetaDataCommand.TDBXMetaDataCommand.DerivedPrepare
 0001:00000E5C       DBXMetaDataCommand.TDBXMetaDataCommand.Destroy
 0001:00000E74       DBXMetaDataCommand.TDBXMetaDataCommand.GetRowsAffected
 0001:00000E6C       DBXMetaDataCommand.TDBXMetaDataCommand.SetMaxBlobSize
 0001:00000E64       DBXMetaDataCommand.TDBXMetaDataCommand.SetRowSetSize
 0001:00000EFC       DBXMetaDataCommandFactory.TDBXDataExpressProviderContext.Commit
 0001:00000EBC       DBXMetaDataCommandFactory.TDBXDataExpressProviderContext.Create
 0001:00000EE4       DBXMetaDataCommandFactory.TDBXDataExpressProviderContext.CreateRowStorage
 0001:00000EDC       DBXMetaDataCommandFactory.TDBXDataExpressProviderContext.CreateTableStorage
 0001:00000EC4       DBXMetaDataCommandFactory.TDBXDataExpressProviderContext.Destroy
 0001:00000ED4       DBXMetaDataCommandFactory.TDBXDataExpressProviderContext.ExecuteQuery
 0001:00000ECC       DBXMetaDataCommandFactory.TDBXDataExpressProviderContext.GetPlatformTypeName
 0001:00000F0C       DBXMetaDataCommandFactory.TDBXDataExpressProviderContext.GetVendorProperty
 0001:00000F04       DBXMetaDataCommandFactory.TDBXDataExpressProviderContext.Rollback
 0001:00000EF4       DBXMetaDataCommandFactory.TDBXDataExpressProviderContext.StartSerializedTransaction
 0001:00000EEC       DBXMetaDataCommandFactory.TDBXDataExpressProviderContext.StartTransaction
 0001:00000EAC       DBXMetaDataCommandFactory.TDBXMetaDataCommandFactory.RegisterMetaDataCommandFactory
 0001:00000EB4       DBXMetaDataCommandFactory.TDBXMetaDataCommandFactory.UnRegisterMetaDataCommandFactory
 0001:00000C64       DBXMetaDataReader.TDBXBaseMetaDataReader.CompareVersion
 0001:00000C2C       DBXMetaDataReader.TDBXBaseMetaDataReader.Destroy
 0001:00000CDC       DBXMetaDataReader.TDBXBaseMetaDataReader.FetchCatalogs
 0001:00000CBC       DBXMetaDataReader.TDBXBaseMetaDataReader.FetchCollection
 0001:00000CCC       DBXMetaDataReader.TDBXBaseMetaDataReader.FetchCollectionWithStorage
 0001:00000D04       DBXMetaDataReader.TDBXBaseMetaDataReader.FetchColumnConstraints
 0001:00000CFC       DBXMetaDataReader.TDBXBaseMetaDataReader.FetchColumns
 0001:00000CD4       DBXMetaDataReader.TDBXBaseMetaDataReader.FetchDataTypes
 0001:00000D24       DBXMetaDataReader.TDBXBaseMetaDataReader.FetchForeignKeyColumns
 0001:00000D1C       DBXMetaDataReader.TDBXBaseMetaDataReader.FetchForeignKeys
 0001:00000D14       DBXMetaDataReader.TDBXBaseMetaDataReader.FetchIndexColumns
 0001:00000D0C       DBXMetaDataReader.TDBXBaseMetaDataReader.FetchIndexes
 0001:00000D5C       DBXMetaDataReader.TDBXBaseMetaDataReader.FetchPackageProcedureParameters
 0001:00000D54       DBXMetaDataReader.TDBXBaseMetaDataReader.FetchPackageProcedures
 0001:00000D4C       DBXMetaDataReader.TDBXBaseMetaDataReader.FetchPackages
 0001:00000D64       DBXMetaDataReader.TDBXBaseMetaDataReader.FetchPackageSources
 0001:00000D44       DBXMetaDataReader.TDBXBaseMetaDataReader.FetchProcedureParameters
 0001:00000D34       DBXMetaDataReader.TDBXBaseMetaDataReader.FetchProcedures
 0001:00000D3C       DBXMetaDataReader.TDBXBaseMetaDataReader.FetchProcedureSources
 0001:00000D7C       DBXMetaDataReader.TDBXBaseMetaDataReader.FetchReservedWords
 0001:00000D74       DBXMetaDataReader.TDBXBaseMetaDataReader.FetchRoles
 0001:00000CE4       DBXMetaDataReader.TDBXBaseMetaDataReader.FetchSchemas
 0001:00000D2C       DBXMetaDataReader.TDBXBaseMetaDataReader.FetchSynonyms
 0001:00000CEC       DBXMetaDataReader.TDBXBaseMetaDataReader.FetchTables
 0001:00000D6C       DBXMetaDataReader.TDBXBaseMetaDataReader.FetchUsers
 0001:00000CF4       DBXMetaDataReader.TDBXBaseMetaDataReader.FetchViews
 0001:00000C3C       DBXMetaDataReader.TDBXBaseMetaDataReader.GetContext
 0001:00000D84       DBXMetaDataReader.TDBXBaseMetaDataReader.GetDataTypeDescriptions
 0001:00000CA4       DBXMetaDataReader.TDBXBaseMetaDataReader.GetDataTypeHash
 0001:00000CAC       DBXMetaDataReader.TDBXBaseMetaDataReader.GetDataTypes
 0001:00000C44       DBXMetaDataReader.TDBXBaseMetaDataReader.GetProductName
 0001:00000D8C       DBXMetaDataReader.TDBXBaseMetaDataReader.GetReservedWords
 0001:00000C5C       DBXMetaDataReader.TDBXBaseMetaDataReader.GetSqlDefaultParameterMarker
 0001:00000D9C       DBXMetaDataReader.TDBXBaseMetaDataReader.GetSqlForCatalogs
 0001:00000DC4       DBXMetaDataReader.TDBXBaseMetaDataReader.GetSqlForColumnConstraints
 0001:00000DBC       DBXMetaDataReader.TDBXBaseMetaDataReader.GetSqlForColumns
 0001:00000D94       DBXMetaDataReader.TDBXBaseMetaDataReader.GetSqlForDataTypes
 0001:00000DE4       DBXMetaDataReader.TDBXBaseMetaDataReader.GetSqlForForeignKeyColumns
 0001:00000DDC       DBXMetaDataReader.TDBXBaseMetaDataReader.GetSqlForForeignKeys
 0001:00000DD4       DBXMetaDataReader.TDBXBaseMetaDataReader.GetSqlForIndexColumns
 0001:00000DCC       DBXMetaDataReader.TDBXBaseMetaDataReader.GetSqlForIndexes
 0001:00000E1C       DBXMetaDataReader.TDBXBaseMetaDataReader.GetSqlForPackageProcedureParameters
 0001:00000E14       DBXMetaDataReader.TDBXBaseMetaDataReader.GetSqlForPackageProcedures
 0001:00000E0C       DBXMetaDataReader.TDBXBaseMetaDataReader.GetSqlForPackages
 0001:00000E24       DBXMetaDataReader.TDBXBaseMetaDataReader.GetSqlForPackageSources
 0001:00000E04       DBXMetaDataReader.TDBXBaseMetaDataReader.GetSqlForProcedureParameters
 0001:00000DF4       DBXMetaDataReader.TDBXBaseMetaDataReader.GetSqlForProcedures
 0001:00000DFC       DBXMetaDataReader.TDBXBaseMetaDataReader.GetSqlForProcedureSources
 0001:00000E3C       DBXMetaDataReader.TDBXBaseMetaDataReader.GetSqlForReservedWords
 0001:00000E34       DBXMetaDataReader.TDBXBaseMetaDataReader.GetSqlForRoles
 0001:00000DA4       DBXMetaDataReader.TDBXBaseMetaDataReader.GetSqlForSchemas
 0001:00000DEC       DBXMetaDataReader.TDBXBaseMetaDataReader.GetSqlForSynonyms
 0001:00000DAC       DBXMetaDataReader.TDBXBaseMetaDataReader.GetSqlForTables
 0001:00000E2C       DBXMetaDataReader.TDBXBaseMetaDataReader.GetSqlForUsers
 0001:00000DB4       DBXMetaDataReader.TDBXBaseMetaDataReader.GetSqlForViews
 0001:00000C94       DBXMetaDataReader.TDBXBaseMetaDataReader.GetSynonymType
 0001:00000C84       DBXMetaDataReader.TDBXBaseMetaDataReader.GetSystemTableType
 0001:00000C8C       DBXMetaDataReader.TDBXBaseMetaDataReader.GetSystemViewType
 0001:00000C74       DBXMetaDataReader.TDBXBaseMetaDataReader.GetTableType
 0001:00000C4C       DBXMetaDataReader.TDBXBaseMetaDataReader.GetVersion
 0001:00000C7C       DBXMetaDataReader.TDBXBaseMetaDataReader.GetViewType
 0001:00000C6C       DBXMetaDataReader.TDBXBaseMetaDataReader.IsQuotedIdentifiersSupported
 0001:00000CC4       DBXMetaDataReader.TDBXBaseMetaDataReader.MakeStorage
 0001:00000C9C       DBXMetaDataReader.TDBXBaseMetaDataReader.MakeTableTypeString
 0001:00000CB4       DBXMetaDataReader.TDBXBaseMetaDataReader.PopulateDataTypes
 0001:00000C34       DBXMetaDataReader.TDBXBaseMetaDataReader.SetContext
 0001:00000C54       DBXMetaDataReader.TDBXBaseMetaDataReader.SetVersion
 0001:00000B4C       DBXMetaDataReader.TDBXCustomMetaDataTable.Create
 0001:00000B54       DBXMetaDataReader.TDBXDataTypeCursor.Create
 0001:00000B5C       DBXMetaDataReader.TDBXDataTypeDescription.Create
 0001:00000B64       DBXMetaDataReader.TDBXDataTypeDescription.Create
 0001:00000B6C       DBXMetaDataReader.TDBXDataTypeDescription.SetUnicodeOptionSupported
 0001:00000B74       DBXMetaDataReader.TDBXEmptyTableCursor.Create
 0001:00000B84       DBXMetaDataReader.TDBXMetaDataCollectionColumns.CreateCatalogsColumns
 0001:00000BB4       DBXMetaDataReader.TDBXMetaDataCollectionColumns.CreateColumnConstraintsColumns
 0001:00000BAC       DBXMetaDataReader.TDBXMetaDataCollectionColumns.CreateColumnsColumns
 0001:00000B7C       DBXMetaDataReader.TDBXMetaDataCollectionColumns.CreateDataTypesColumns
 0001:00000BD4       DBXMetaDataReader.TDBXMetaDataCollectionColumns.CreateForeignKeyColumnsColumns
 0001:00000BCC       DBXMetaDataReader.TDBXMetaDataCollectionColumns.CreateForeignKeysColumns
 0001:00000BC4       DBXMetaDataReader.TDBXMetaDataCollectionColumns.CreateIndexColumnsColumns
 0001:00000BBC       DBXMetaDataReader.TDBXMetaDataCollectionColumns.CreateIndexesColumns
 0001:00000C04       DBXMetaDataReader.TDBXMetaDataCollectionColumns.CreatePackageProcedureParametersColumns
 0001:00000BFC       DBXMetaDataReader.TDBXMetaDataCollectionColumns.CreatePackageProceduresColumns
 0001:00000BF4       DBXMetaDataReader.TDBXMetaDataCollectionColumns.CreatePackagesColumns
 0001:00000C0C       DBXMetaDataReader.TDBXMetaDataCollectionColumns.CreatePackageSourcesColumns
 0001:00000BEC       DBXMetaDataReader.TDBXMetaDataCollectionColumns.CreateProcedureParametersColumns
 0001:00000BDC       DBXMetaDataReader.TDBXMetaDataCollectionColumns.CreateProceduresColumns
 0001:00000BE4       DBXMetaDataReader.TDBXMetaDataCollectionColumns.CreateProcedureSourcesColumns
 0001:00000C24       DBXMetaDataReader.TDBXMetaDataCollectionColumns.CreateReservedWordsColumns
 0001:00000C1C       DBXMetaDataReader.TDBXMetaDataCollectionColumns.CreateRolesColumns
 0001:00000B8C       DBXMetaDataReader.TDBXMetaDataCollectionColumns.CreateSchemasColumns
 0001:00000BA4       DBXMetaDataReader.TDBXMetaDataCollectionColumns.CreateSynonymsColumns
 0001:00000B94       DBXMetaDataReader.TDBXMetaDataCollectionColumns.CreateTablesColumns
 0001:00000C14       DBXMetaDataReader.TDBXMetaDataCollectionColumns.CreateUsersColumns
 0001:00000B9C       DBXMetaDataReader.TDBXMetaDataCollectionColumns.CreateViewsColumns
 0001:00000E44       DBXMetaDataReader.TDBXReservedWordsCursor.Create
 0001:00000E4C       DBXMetaDataReader.TDBXTableTypeParser.ParseTableTypes
 0004:00000018       DbxOpenOdbcApiHook..2
 0001:00038BF0       DbxOpenOdbcApiHook..TIATPatch
 0002:00000130       DbxOpenOdbcApiHook.DbxOpenOdbcApiHook
 0001:0003A550       DbxOpenOdbcApiHook.Finalization
 0001:0003A474       DbxOpenOdbcApiHook.FindVirtualMethodIndex
 0001:0003A514       DbxOpenOdbcApiHook.FxtGetStubAddress
 0001:000392FC       DbxOpenOdbcApiHook.GetNativeAddr
 0001:0003A3B4       DbxOpenOdbcApiHook.GetVirtualMethodAddress
 0001:0003A4EC       DbxOpenOdbcApiHook.GetVirtualMethodOffset
 0001:0003908C       DbxOpenOdbcApiHook.HookCode
 0001:000391BC       DbxOpenOdbcApiHook.HookProc
 0001:0003951C       DbxOpenOdbcApiHook.IsJumpFromCode
 0001:00039340       DbxOpenOdbcApiHook.JumpFromCode
 0003:0000002C       DbxOpenOdbcApiHook.Opcodes1
 0003:0000022C       DbxOpenOdbcApiHook.Opcodes2
 0003:0000042C       DbxOpenOdbcApiHook.Opcodes3
 0001:00039430       DbxOpenOdbcApiHook.RestoreSavedCode
 0001:00039014       DbxOpenOdbcApiHook.SaveOldFunction
 0001:0003A3E0       DbxOpenOdbcApiHook.SetVirtualMethodAddress
 0001:00038C84       DbxOpenOdbcApiHook.SizeOfCode
 0001:00038FD0       DbxOpenOdbcApiHook.SizeOfProc
 0001:000399EC       DbxOpenOdbcApiHook.TIATPatch.BuildIATPatchList
 0001:0003A020       DbxOpenOdbcApiHook.TIATPatch.Clear
 0001:00039604       DbxOpenOdbcApiHook.TIATPatch.CompareLibraryNames
 0001:0003A2B0       DbxOpenOdbcApiHook.TIATPatch.Create
 0001:00039F34       DbxOpenOdbcApiHook.TIATPatch.Delete
 0001:0003A318       DbxOpenOdbcApiHook.TIATPatch.Destroy
 0001:000397BC       DbxOpenOdbcApiHook.TIATPatch.EnumIATList
 0001:00039DF0       DbxOpenOdbcApiHook.TIATPatch.Find
 0001:0003A258       DbxOpenOdbcApiHook.TIATPatch.GetCount
 0001:0003A150       DbxOpenOdbcApiHook.TIATPatch.GetPatchRecord
 0001:0003A1B0       DbxOpenOdbcApiHook.TIATPatch.GetUnpatchOnFree
 0001:000395B8       DbxOpenOdbcApiHook.TIATPatch.ListContainsIAT
 0001:0003956C       DbxOpenOdbcApiHook.TIATPatch.NextFunctionName
 0001:00039BB0       DbxOpenOdbcApiHook.TIATPatch.Patch
 0001:0003A204       DbxOpenOdbcApiHook.TIATPatch.SetUnpatchOnFree
 0001:00039A80       DbxOpenOdbcApiHook.TIATPatch.Unpatch
 0001:000396F0       DbxOpenOdbcApiHook.TIATPatch.UpdateEntry
 0001:00039764       DbxOpenOdbcApiHook.TIATPatch.UpdatePatch
 0001:00039224       DbxOpenOdbcApiHook.UnhookCode
 0001:00000A6C       DBXPlatform.FreeObjectArray
 0001:00000A64       DBXPlatform.IncrAfter
 0001:00000A74       DBXPlatform.TDBXObjectStore.SetObjectByName
 0001:00000A84       DBXPlatform.TDBXPlatform.CopyWideStringBuilder
 0001:00000A7C       DBXPlatform.TDBXPlatform.CreateWideStringBuilder
 0001:00000A8C       DBXPlatform.TDBXPlatform.FreeAndNilWideStringBuilder
 0004:00000054       DbxXXDrv..1
 0002:00000154       DbxXXDrv.DbxXXDrv
 0001:0003B000       DbxXXDrv.Finalization
 0001:0003AFEC       DbxXXDrv.IsDbxDrvFixed
 0002:00000094       DSIntf.DSIntf
 0001:00000AA4       DSIntf.Finalization
 0001:000007A4       FMTBcd.Finalization
 0002:0000005C       FMTBcd.FMTBcd
 0001:00000A5C       IniFiles.Finalization
 0002:00000084       IniFiles.IniFiles
 0001:00000AAC       Provider.Finalization
 0002:0000009C       Provider.Provider
 0001:00000A54       Registry.Finalization
 0002:0000007C       Registry.Registry
 0001:0003A580       SqlExpr.Finalization
 0002:00000138       SqlExpr.SqlExpr
 0001:000007AC       SqlTimSt.Finalization
 0002:00000064       SqlTimSt.SqlTimSt
 0001:00000654       StrUtils.PosEx
 0001:000003C8       SysInit.@InitPkg
 0001:0000042C       SysInit.@PackageLoad
 0001:00000438       SysInit.@PackageUnload
 0001:000002B8       SysInit.AllocTlsBuffer
 0001:00000374       SysInit.ExitProcessTLS
 0001:0000033C       SysInit.ExitThreadTLS
 0001:00000280       SysInit.FreeLibrary
 0001:000002C4       SysInit.GetTlsSize
 0004:00000004       SysInit.HInstance
 0001:00000398       SysInit.InitializeModule
 0001:00000310       SysInit.InitProcessTLS
 0001:000002CC       SysInit.InitThreadTLS
 0001:00000288       SysInit.LocalAlloc
 0001:00000290       SysInit.LocalFree
 0003:00000004       SysInit.Module
 0004:00000000       SysInit.ModuleIsLib
 0004:00000001       SysInit.ModuleIsPackage
 0001:00000298       SysInit.TlsAlloc
 0004:00000008       SysInit.tlsBuffer
 0001:000002A0       SysInit.TlsFree
 0001:000002A8       SysInit.TlsGetValue
 0003:00000000       SysInit.TlsIndex
 0005:00000000       SysInit.TlsLast
 0003:0000001C       SysInit.TlsProc
 0001:000002B0       SysInit.TlsSetValue
 0001:000003A4       SysInit.UninitializeModule
 0001:00000230       System.@AddRefRecord
 0001:000000C0       System.@AfterConstruction
 0001:000000C8       System.@BeforeDestruction
 0001:000000B0       System.@ClassCreate
 0001:000000B8       System.@ClassDestroy
 0001:000000F8       System.@DoneExcept
 0001:00000260       System.@DynArrayAddRef
 0001:00000258       System.@DynArrayAsg
 0001:00000250       System.@DynArrayClear
 0001:00000240       System.@DynArrayHigh
 0001:00000238       System.@DynArrayLength
 0001:00000248       System.@DynArraySetLength
 0001:00000130       System.@EnsureAnsiString
 0001:00000128       System.@EnsureUnicodeString
 0001:00000020       System.@FillChar
 0001:00000228       System.@FinalizeArray
 0001:00000220       System.@FinalizeRecord
 0001:00000010       System.@FreeMem
 0001:00000008       System.@GetMem
 0001:000000D0       System.@HandleAnyException
 0001:000000E0       System.@HandleFinally
 0001:000000D8       System.@HandleOnException
 0001:00000070       System.@IsClass
 0001:00000150       System.@LStrAddRef
 0001:00000120       System.@LStrArrayClr
 0001:00000118       System.@LStrClr
 0001:00000138       System.@LStrFromPChar
 0001:00000140       System.@LStrFromPWChar
 0001:000001C8       System.@LStrFromUStr
 0001:00000148       System.@LStrLen
 0001:00000160       System.@LStrSetLength
 0001:00000158       System.@LStrToPChar
 0001:00000100       System.@PackageLoad
 0001:00000108       System.@PackageUnload
 0001:000000F0       System.@RaiseAgain
 0001:000000E8       System.@RaiseExcept
 0001:00000110       System.@RunError
 0001:00000180       System.@UStrAddRef
 0001:00000190       System.@UStrArrayClr
 0001:00000198       System.@UStrAsg
 0001:000001F0       System.@UStrCat3
 0001:000001F8       System.@UStrCatN
 0001:00000188       System.@UStrClr
 0001:00000200       System.@UStrCmp
 0001:00000210       System.@UStrCopy
 0001:00000208       System.@UStrEqual
 0001:000001C0       System.@UStrFromLStr
 0001:000001B0       System.@UStrFromPWChar
 0001:000001B8       System.@UStrFromWArray
 0001:000001D0       System.@UStrFromWStr
 0001:000001A0       System.@UStrLAsg
 0001:000001E0       System.@UStrLen
 0001:000001E8       System.@UStrSetLength
 0001:000001A8       System.@UStrToPWChar
 0001:00000170       System.@WStrArrayClr
 0001:00000168       System.@WStrClr
 0001:00000178       System.@WStrFromPWChar
 0001:000001D8       System.@WStrFromUStr
 0001:00000000       System.AllocMem
 0001:00000278       System.Finalization
 0001:00000018       System.Move
 0001:00000218       System.Pos
 0001:00000268       System.RegisterModule
 0002:00000000       System.System
 0001:00000098       System.TObject.AfterConstruction
 0001:000000A0       System.TObject.BeforeDestruction
 0001:00000030       System.TObject.ClassName
 0001:00000028       System.TObject.ClassType
 0001:00000048       System.TObject.Create
 0001:00000090       System.TObject.DefaultHandler
 0001:00000050       System.TObject.Destroy
 0001:000000A8       System.TObject.Dispatch
 0001:00000060       System.TObject.Equals
 0001:00000058       System.TObject.Free
 0001:00000040       System.TObject.FreeInstance
 0001:00000068       System.TObject.GetHashCode
 0001:00000078       System.TObject.InheritsFrom
 0001:00000038       System.TObject.NewInstance
 0001:00000080       System.TObject.SafeCallException
 0001:00000088       System.TObject.ToString
 0001:00000270       System.UnregisterModule
 0001:00000614       SysUtils.Abort
 0001:000005BC       SysUtils.BoolToStr
 0001:000005CC       SysUtils.ChangeFileExt
 0001:00000584       SysUtils.CompareText
 0001:0000061C       SysUtils.Exception.Create
 0001:00000624       SysUtils.Exception.Destroy
 0001:0000062C       SysUtils.Exception.GetBaseException
 0001:00000634       SysUtils.Exception.RaisingException
 0001:0000063C       SysUtils.Exception.ToString
 0001:000005DC       SysUtils.ExtractFileName
 0001:000005D4       SysUtils.ExtractFilePath
 0001:000005C4       SysUtils.FileExists
 0001:0000064C       SysUtils.Finalization
 0001:00000644       SysUtils.FreeAndNil
 0001:000005A4       SysUtils.IntToStr
 0001:0000058C       SysUtils.SameText
 0001:000005EC       SysUtils.StrEnd
 0001:00000604       SysUtils.StrIComp
 0001:000005F4       SysUtils.StrLCopy
 0001:000005E4       SysUtils.StrLen
 0001:0000060C       SysUtils.StrLIComp
 0001:000005FC       SysUtils.StrPLCopy
 0001:000005B4       SysUtils.StrToBoolDef
 0001:000005AC       SysUtils.StrToIntDef
 0002:0000001C       SysUtils.SysUtils
 0001:0000059C       SysUtils.Trim
 0001:0000057C       SysUtils.UpperCase
 0001:00000594       SysUtils.WideCompareText
 0001:0000069C       TypInfo.Finalization
 0002:0000002C       TypInfo.TypInfo
 0001:000006A4       Variants.@VarToLStr
 0001:000006AC       Variants.@VarToUStr
 0001:000006F4       Variants.Finalization
 0001:000006D4       Variants.VarArrayHighBound
 0001:000006DC       Variants.VarArrayLock
 0001:000006E4       Variants.VarArrayUnlock
 0002:00000034       Variants.Variants
 0001:000006EC       Variants.VarIsArray
 0001:000006BC       Variants.VarIsClear
 0001:000006C4       Variants.VarIsNull
 0001:000006CC       Variants.VarToStr
 0001:000006B4       Variants.VarType
 0001:000006FC       VarUtils.Finalization
 0002:0000003C       VarUtils.VarUtils
 0001:00000794       WideStrings.Finalization
 0002:00000054       WideStrings.WideStrings
 0001:0000079C       WideStrUtils.WStrLCopy
 0004:0000000C       Windows..2
 0001:00000530       Windows.CopyMemory
 0001:00000444       Windows.DeleteCriticalSection
 0001:0000044C       Windows.EnterCriticalSection
 0001:00000538       Windows.Finalization
 0001:00000454       Windows.FlushInstructionCache
 0001:0000045C       Windows.FreeLibrary
 0001:00000464       Windows.GetCurrentProcess
 0001:0000046C       Windows.GetEnvironmentVariableA
 0001:00000474       Windows.GetEnvironmentVariableW
 0001:0000047C       Windows.GetModuleHandle
 0001:00000484       Windows.GetProcAddress
 0001:0000048C       Windows.GetProcAddress
 0001:00000500       Windows.GetVersion
 0004:00000010       Windows.HtmlHelpModule
 0001:00000508       Windows.InitializeCriticalSection
 0001:00000510       Windows.LeaveCriticalSection
 0001:00000518       Windows.LoadLibrary
 0001:00000520       Windows.VirtualProtect
 0001:00000528       Windows.VirtualProtect
 0002:00000008       Windows.Windows


  Address             Publics by Value

 0001:00000000       System.AllocMem
 0001:00000008       System.@GetMem
 0001:00000010       System.@FreeMem
 0001:00000018       System.Move
 0001:00000020       System.@FillChar
 0001:00000028       System.TObject.ClassType
 0001:00000030       System.TObject.ClassName
 0001:00000038       System.TObject.NewInstance
 0001:00000040       System.TObject.FreeInstance
 0001:00000048       System.TObject.Create
 0001:00000050       System.TObject.Destroy
 0001:00000058       System.TObject.Free
 0001:00000060       System.TObject.Equals
 0001:00000068       System.TObject.GetHashCode
 0001:00000070       System.@IsClass
 0001:00000078       System.TObject.InheritsFrom
 0001:00000080       System.TObject.SafeCallException
 0001:00000088       System.TObject.ToString
 0001:00000090       System.TObject.DefaultHandler
 0001:00000098       System.TObject.AfterConstruction
 0001:000000A0       System.TObject.BeforeDestruction
 0001:000000A8       System.TObject.Dispatch
 0001:000000B0       System.@ClassCreate
 0001:000000B8       System.@ClassDestroy
 0001:000000C0       System.@AfterConstruction
 0001:000000C8       System.@BeforeDestruction
 0001:000000D0       System.@HandleAnyException
 0001:000000D8       System.@HandleOnException
 0001:000000E0       System.@HandleFinally
 0001:000000E8       System.@RaiseExcept
 0001:000000F0       System.@RaiseAgain
 0001:000000F8       System.@DoneExcept
 0001:00000100       System.@PackageLoad
 0001:00000108       System.@PackageUnload
 0001:00000110       System.@RunError
 0001:00000118       System.@LStrClr
 0001:00000120       System.@LStrArrayClr
 0001:00000128       System.@EnsureUnicodeString
 0001:00000130       System.@EnsureAnsiString
 0001:00000138       System.@LStrFromPChar
 0001:00000140       System.@LStrFromPWChar
 0001:00000148       System.@LStrLen
 0001:00000150       System.@LStrAddRef
 0001:00000158       System.@LStrToPChar
 0001:00000160       System.@LStrSetLength
 0001:00000168       System.@WStrClr
 0001:00000170       System.@WStrArrayClr
 0001:00000178       System.@WStrFromPWChar
 0001:00000180       System.@UStrAddRef
 0001:00000188       System.@UStrClr
 0001:00000190       System.@UStrArrayClr
 0001:00000198       System.@UStrAsg
 0001:000001A0       System.@UStrLAsg
 0001:000001A8       System.@UStrToPWChar
 0001:000001B0       System.@UStrFromPWChar
 0001:000001B8       System.@UStrFromWArray
 0001:000001C0       System.@UStrFromLStr
 0001:000001C8       System.@LStrFromUStr
 0001:000001D0       System.@UStrFromWStr
 0001:000001D8       System.@WStrFromUStr
 0001:000001E0       System.@UStrLen
 0001:000001E8       System.@UStrSetLength
 0001:000001F0       System.@UStrCat3
 0001:000001F8       System.@UStrCatN
 0001:00000200       System.@UStrCmp
 0001:00000208       System.@UStrEqual
 0001:00000210       System.@UStrCopy
 0001:00000218       System.Pos
 0001:00000220       System.@FinalizeRecord
 0001:00000228       System.@FinalizeArray
 0001:00000230       System.@AddRefRecord
 0001:00000238       System.@DynArrayLength
 0001:00000240       System.@DynArrayHigh
 0001:00000248       System.@DynArraySetLength
 0001:00000250       System.@DynArrayClear
 0001:00000258       System.@DynArrayAsg
 0001:00000260       System.@DynArrayAddRef
 0001:00000268       System.RegisterModule
 0001:00000270       System.UnregisterModule
 0001:00000278       System.Finalization
 0001:00000280       SysInit.FreeLibrary
 0001:00000288       SysInit.LocalAlloc
 0001:00000290       SysInit.LocalFree
 0001:00000298       SysInit.TlsAlloc
 0001:000002A0       SysInit.TlsFree
 0001:000002A8       SysInit.TlsGetValue
 0001:000002B0       SysInit.TlsSetValue
 0001:000002B8       SysInit.AllocTlsBuffer
 0001:000002C4       SysInit.GetTlsSize
 0001:000002CC       SysInit.InitThreadTLS
 0001:00000310       SysInit.InitProcessTLS
 0001:0000033C       SysInit.ExitThreadTLS
 0001:00000374       SysInit.ExitProcessTLS
 0001:00000398       SysInit.InitializeModule
 0001:000003A4       SysInit.UninitializeModule
 0001:000003C8       SysInit.@InitPkg
 0001:0000042C       SysInit.@PackageLoad
 0001:00000438       SysInit.@PackageUnload
 0001:00000444       Windows.DeleteCriticalSection
 0001:0000044C       Windows.EnterCriticalSection
 0001:00000454       Windows.FlushInstructionCache
 0001:0000045C       Windows.FreeLibrary
 0001:00000464       Windows.GetCurrentProcess
 0001:0000046C       Windows.GetEnvironmentVariableA
 0001:00000474       Windows.GetEnvironmentVariableW
 0001:0000047C       Windows.GetModuleHandle
 0001:00000484       Windows.GetProcAddress
 0001:0000048C       Windows.GetProcAddress
 0001:00000500       Windows.GetVersion
 0001:00000508       Windows.InitializeCriticalSection
 0001:00000510       Windows.LeaveCriticalSection
 0001:00000518       Windows.LoadLibrary
 0001:00000520       Windows.VirtualProtect
 0001:00000528       Windows.VirtualProtect
 0001:00000530       Windows.CopyMemory
 0001:00000538       Windows.Finalization
 0001:0000057C       SysUtils.UpperCase
 0001:00000584       SysUtils.CompareText
 0001:0000058C       SysUtils.SameText
 0001:00000594       SysUtils.WideCompareText
 0001:0000059C       SysUtils.Trim
 0001:000005A4       SysUtils.IntToStr
 0001:000005AC       SysUtils.StrToIntDef
 0001:000005B4       SysUtils.StrToBoolDef
 0001:000005BC       SysUtils.BoolToStr
 0001:000005C4       SysUtils.FileExists
 0001:000005CC       SysUtils.ChangeFileExt
 0001:000005D4       SysUtils.ExtractFilePath
 0001:000005DC       SysUtils.ExtractFileName
 0001:000005E4       SysUtils.StrLen
 0001:000005EC       SysUtils.StrEnd
 0001:000005F4       SysUtils.StrLCopy
 0001:000005FC       SysUtils.StrPLCopy
 0001:00000604       SysUtils.StrIComp
 0001:0000060C       SysUtils.StrLIComp
 0001:00000614       SysUtils.Abort
 0001:0000061C       SysUtils.Exception.Create
 0001:00000624       SysUtils.Exception.Destroy
 0001:0000062C       SysUtils.Exception.GetBaseException
 0001:00000634       SysUtils.Exception.RaisingException
 0001:0000063C       SysUtils.Exception.ToString
 0001:00000644       SysUtils.FreeAndNil
 0001:0000064C       SysUtils.Finalization
 0001:00000654       StrUtils.PosEx
 0001:0000065C       Classes.TList.Add
 0001:00000664       Classes.TList.Delete
 0001:0000066C       Classes.TList.Get
 0001:00000674       Classes.TList.Remove
 0001:0000067C       Classes.TPersistent.Assign
 0001:00000684       Classes.TPersistent.AssignTo
 0001:0000068C       Classes.TPersistent.DefineProperties
 0001:00000694       Classes.Finalization
 0001:0000069C       TypInfo.Finalization
 0001:000006A4       Variants.@VarToLStr
 0001:000006AC       Variants.@VarToUStr
 0001:000006B4       Variants.VarType
 0001:000006BC       Variants.VarIsClear
 0001:000006C4       Variants.VarIsNull
 0001:000006CC       Variants.VarToStr
 0001:000006D4       Variants.VarArrayHighBound
 0001:000006DC       Variants.VarArrayLock
 0001:000006E4       Variants.VarArrayUnlock
 0001:000006EC       Variants.VarIsArray
 0001:000006F4       Variants.Finalization
 0001:000006FC       VarUtils.Finalization
 0001:00000704       ClassRegistry.TClassRegistry.CreateInstance
 0001:0000070C       ClassRegistry.TClassRegistry.GetClassRegistry
 0001:00000714       ClassRegistry.TClassRegistry.HasClass
 0001:0000071C       ClassRegistry.TClassRegistry.RegisterRegistryClass
 0001:00000724       ClassRegistry.TClassRegistry.UnregisterClass
 0001:0000072C       ClassRegistry.Finalization
 0001:00000734       DB.RegisterFields
 0001:0000073C       DB.TFields.FindField
 0001:00000744       DB.TField.AssignValue
 0001:0000074C       DB.TField.GetData
 0001:00000754       DB.TField.GetIsNull
 0001:0000075C       DB.TField.SetData
 0001:00000764       DB.TStringField.GetValue
 0001:0000076C       DB.TStringField.SetAsString
 0001:00000774       DB.TBlobField.SetData
 0001:0000077C       DB.TBlobField.SetVarValue
 0001:00000784       DB.TDataSet.DataConvert
 0001:0000078C       DB.Finalization
 0001:00000794       WideStrings.Finalization
 0001:0000079C       WideStrUtils.WStrLCopy
 0001:000007A4       FMTBcd.Finalization
 0001:000007AC       SqlTimSt.Finalization
 0001:000007B4       ComObj.Finalization
 0001:000007BC       DBXCommon.TDBXProperties.Create
 0001:000007C4       DBXCommon.TDBXProperties.Create
 0001:000007CC       DBXCommon.TDBXProperties.Destroy
 0001:000007D4       DBXCommon.TDBXProperties.DoOnChange
 0001:000007DC       DBXCommon.TDBXProperties.GetLists
 0001:000007E4       DBXCommon.TDBXProperties.GetValue
 0001:000007EC       DBXCommon.TDBXProperties.SetValue
 0001:000007F4       DBXCommon.TDBXDriver.AddCommandFactory
 0001:000007FC       DBXCommon.TDBXDriver.CreateMorphCommand
 0001:00000804       DBXCommon.TDBXDriver.GetDriverClass
 0001:0000080C       DBXCommon.TDBXDriver.GetDriverName
 0001:00000814       DBXCommon.TDBXDriver.GetDriverProperties
 0001:0000081C       DBXCommon.TDBXDriver.GetDriverPropertyNames
 0001:00000824       DBXCommon.TDBXDriver.SetDriverName
 0001:0000082C       DBXCommon.TDBXDriver.InitDriverProperties
 0001:00000834       DBXCommon.TDBXDriverRegistry.RegisterDriverClass
 0001:0000083C       DBXCommon.TDBXDriverRegistry.UnregisterDriverClass
 0001:00000844       DBXCommon.TDBXConnection.Destroy
 0001:0000084C       DBXCommon.TDBXConnection.CreateMorphCommand
 0001:00000854       DBXCommon.TDBXConnection.CreateCommand
 0001:0000085C       DBXCommon.TDBXConnection.Open
 0001:00000864       DBXCommon.TDBXConnection.GetDatabaseMetaData
 0001:0000086C       DBXCommon.TDBXConnection.GetTraceFlags
 0001:00000874       DBXCommon.TDBXConnection.GetTraceInfoEvent
 0001:0000087C       DBXCommon.TDBXConnection.BeginTransaction
 0001:00000884       DBXCommon.TDBXConnection.BeginTransaction
 0001:0000088C       DBXCommon.TDBXConnection.CommitFreeAndNil
 0001:00000894       DBXCommon.TDBXConnection.RollbackFreeAndNil
 0001:0000089C       DBXCommon.TDBXConnection.RollbackIncompleteFreeAndNil
 0001:000008A4       DBXCommon.TDBXConnection.GetConnectionProperties
 0001:000008AC       DBXCommon.TDBXConnection.GetErrorEvent
 0001:000008B4       DBXCommon.TDBXConnection.GetIsOpen
 0001:000008BC       DBXCommon.TDBXConnection.GetConnectionProperty
 0001:000008C4       DBXCommon.TDBXConnection.SetErrorEvent
 0001:000008CC       DBXCommon.TDBXConnection.SetConnectionProperties
 0001:000008D4       DBXCommon.TDBXConnection.GetDBXFormatter
 0001:000008DC       DBXCommon.TDBXConnection.SetDBXFormatter
 0001:000008E4       DBXCommon.TDBXConnection.SetTraceFlags
 0001:000008EC       DBXCommon.TDBXCommand.CreateParameter
 0001:000008F4       DBXCommon.TDBXCommand.CreateParameterRow
 0001:000008FC       DBXCommon.TDBXCommand.CreateParameters
 0001:00000904       DBXCommon.TDBXCommand.SetCommandType
 0001:0000090C       DBXCommon.TDBXCommand.ExecuteQuery
 0001:00000914       DBXCommon.TDBXCommand.ExecuteUpdate
 0001:0000091C       DBXCommon.TDBXCommand.CloseReader
 0001:00000924       DBXCommon.TDBXCommand.GetCommandType
 0001:0000092C       DBXCommon.TDBXCommand.GetErrorEvent
 0001:00000934       DBXCommon.TDBXCommand.GetNextReader
 0001:0000093C       DBXCommon.TDBXCommand.GetParameters
 0001:00000944       DBXCommon.TDBXCommand.GetText
 0001:0000094C       DBXCommon.TDBXCommand.Prepare
 0001:00000954       DBXCommon.TDBXCommand.SetText
 0001:0000095C       DBXCommon.TDBXCommand.Open
 0001:00000964       DBXCommon.TDBXCommand.DerivedClearParameters
 0001:0000096C       DBXCommon.TDBXCommand.Close
 0001:00000974       DBXCommon.TDBXMorphicCommand.Create
 0001:0000097C       DBXCommon.TDBXMorphicCommand.CreateParameters
 0001:00000984       DBXCommon.TDBXMorphicCommand.Destroy
 0001:0000098C       DBXCommon.TDBXMorphicCommand.ExecuteQuery
 0001:00000994       DBXCommon.TDBXMorphicCommand.ExecuteUpdate
 0001:0000099C       DBXCommon.TDBXMorphicCommand.GetParameters
 0001:000009A4       DBXCommon.TDBXMorphicCommand.CreateParameterRow
 0001:000009AC       DBXCommon.TDBXMorphicCommand.GetRowsAffected
 0001:000009B4       DBXCommon.TDBXMorphicCommand.Prepare
 0001:000009BC       DBXCommon.TDBXMorphicCommand.GetNextReader
 0001:000009C4       DBXCommon.TDBXMorphicCommand.DerivedClose
 0001:000009CC       DBXCommon.TDBXMorphicCommand.DerivedExecuteQuery
 0001:000009D4       DBXCommon.TDBXMorphicCommand.DerivedExecuteUpdate
 0001:000009DC       DBXCommon.TDBXMorphicCommand.DerivedGetNextReader
 0001:000009E4       DBXCommon.TDBXMorphicCommand.DerivedOpen
 0001:000009EC       DBXCommon.TDBXMorphicCommand.DerivedPrepare
 0001:000009F4       DBXCommon.TDBXMorphicCommand.SetMaxBlobSize
 0001:000009FC       DBXCommon.TDBXMorphicCommand.SetRowSetSize
 0001:00000A04       DBXCommon.TDBXMorphicCommand.SetCommandType
 0001:00000A0C       DBXCommon.TDBXMorphicCommand.SetText
 0001:00000A14       DBXCommon.TDBXMorphicCommand.CloseReader
 0001:00000A1C       DBXCommon.TDBXContext.Error
 0001:00000A24       DBXCommon.TDBXConnectionBuilder.GetConnectionProperties
 0001:00000A2C       DBXCommon.TDBXDriverHelp.GetMetaDataReader
 0001:00000A34       DBXCommon.TDBXDriverHelp.SetMetaDataReader
 0001:00000A3C       DBXCommon.TDBXCommand.GetCommandTimeout
 0001:00000A44       DBXCommon.TDBXCommand.SetCommandTimeout
 0001:00000A4C       DBXCommon.Finalization
 0001:00000A54       Registry.Finalization
 0001:00000A5C       IniFiles.Finalization
 0001:00000A64       DBXPlatform.IncrAfter
 0001:00000A6C       DBXPlatform.FreeObjectArray
 0001:00000A74       DBXPlatform.TDBXObjectStore.SetObjectByName
 0001:00000A7C       DBXPlatform.TDBXPlatform.CreateWideStringBuilder
 0001:00000A84       DBXPlatform.TDBXPlatform.CopyWideStringBuilder
 0001:00000A8C       DBXPlatform.TDBXPlatform.FreeAndNilWideStringBuilder
 0001:00000A94       DBClient.TCustomClientDataSet.DataConvert
 0001:00000A9C       DBClient.Finalization
 0001:00000AA4       DSIntf.Finalization
 0001:00000AAC       Provider.Finalization
 0001:00000AB4       DBXDynalink.TDBXDynalinkDriver.CheckResult
 0001:00000ABC       DBXDynalink.TDBXDynalinkDriver.Close
 0001:00000AC4       DBXDynalink.TDBXDynalinkDriver.Destroy
 0001:00000ACC       DBXDynalink.TDBXDynalinkDriver.GetDriverVersion
 0001:00000AD4       DBXDynalink.TDBXDynalinkDriverCommonLoader.Create
 0001:00000ADC       DBXDynalink.TDBXDynalinkDriverCommonLoader.Load
 0001:00000AE4       DBXDynalink.TDBXDynalinkDriverCommonLoader.LoadDriverLibrary
 0001:00000AEC       DBXDynalink.TDBXDynalinkConnection.CreateAndBeginTransaction
 0001:00000AF4       DBXDynalink.TDBXDynalinkConnection.Close
 0001:00000AFC       DBXDynalink.TDBXDynalinkConnection.Commit
 0001:00000B04       DBXDynalink.TDBXDynalinkConnection.Rollback
 0001:00000B0C       DBXDynalink.TDBXDynalinkConnection.SetTraceInfoEvent
 0001:00000B14       DBXDynalink.TDBXDynalinkConnection.Create
 0001:00000B1C       DBXDynalink.TDBXDynalinkConnection.DerivedOpen
 0001:00000B24       DBXDynalink.TDBXDynalinkConnection.GetVendorProperty
 0001:00000B2C       DBXDynalink.Finalization
 0001:00000B34       DBXDynalinkNative.TDBXDynalinkDriverNative.Create
 0001:00000B3C       DBXDynalinkNative.TDBXDynalinkDriverLoader.CreateDynalinkDriver
 0001:00000B44       DBXDynalinkNative.TDBXDynalinkDriverLoader.CreateMethodTable
 0001:00000B4C       DBXMetaDataReader.TDBXCustomMetaDataTable.Create
 0001:00000B54       DBXMetaDataReader.TDBXDataTypeCursor.Create
 0001:00000B5C       DBXMetaDataReader.TDBXDataTypeDescription.Create
 0001:00000B64       DBXMetaDataReader.TDBXDataTypeDescription.Create
 0001:00000B6C       DBXMetaDataReader.TDBXDataTypeDescription.SetUnicodeOptionSupported
 0001:00000B74       DBXMetaDataReader.TDBXEmptyTableCursor.Create
 0001:00000B7C       DBXMetaDataReader.TDBXMetaDataCollectionColumns.CreateDataTypesColumns
 0001:00000B84       DBXMetaDataReader.TDBXMetaDataCollectionColumns.CreateCatalogsColumns
 0001:00000B8C       DBXMetaDataReader.TDBXMetaDataCollectionColumns.CreateSchemasColumns
 0001:00000B94       DBXMetaDataReader.TDBXMetaDataCollectionColumns.CreateTablesColumns
 0001:00000B9C       DBXMetaDataReader.TDBXMetaDataCollectionColumns.CreateViewsColumns
 0001:00000BA4       DBXMetaDataReader.TDBXMetaDataCollectionColumns.CreateSynonymsColumns
 0001:00000BAC       DBXMetaDataReader.TDBXMetaDataCollectionColumns.CreateColumnsColumns
 0001:00000BB4       DBXMetaDataReader.TDBXMetaDataCollectionColumns.CreateColumnConstraintsColumns
 0001:00000BBC       DBXMetaDataReader.TDBXMetaDataCollectionColumns.CreateIndexesColumns
 0001:00000BC4       DBXMetaDataReader.TDBXMetaDataCollectionColumns.CreateIndexColumnsColumns
 0001:00000BCC       DBXMetaDataReader.TDBXMetaDataCollectionColumns.CreateForeignKeysColumns
 0001:00000BD4       DBXMetaDataReader.TDBXMetaDataCollectionColumns.CreateForeignKeyColumnsColumns
 0001:00000BDC       DBXMetaDataReader.TDBXMetaDataCollectionColumns.CreateProceduresColumns
 0001:00000BE4       DBXMetaDataReader.TDBXMetaDataCollectionColumns.CreateProcedureSourcesColumns
 0001:00000BEC       DBXMetaDataReader.TDBXMetaDataCollectionColumns.CreateProcedureParametersColumns
 0001:00000BF4       DBXMetaDataReader.TDBXMetaDataCollectionColumns.CreatePackagesColumns
 0001:00000BFC       DBXMetaDataReader.TDBXMetaDataCollectionColumns.CreatePackageProceduresColumns
 0001:00000C04       DBXMetaDataReader.TDBXMetaDataCollectionColumns.CreatePackageProcedureParametersColumns
 0001:00000C0C       DBXMetaDataReader.TDBXMetaDataCollectionColumns.CreatePackageSourcesColumns
 0001:00000C14       DBXMetaDataReader.TDBXMetaDataCollectionColumns.CreateUsersColumns
 0001:00000C1C       DBXMetaDataReader.TDBXMetaDataCollectionColumns.CreateRolesColumns
 0001:00000C24       DBXMetaDataReader.TDBXMetaDataCollectionColumns.CreateReservedWordsColumns
 0001:00000C2C       DBXMetaDataReader.TDBXBaseMetaDataReader.Destroy
 0001:00000C34       DBXMetaDataReader.TDBXBaseMetaDataReader.SetContext
 0001:00000C3C       DBXMetaDataReader.TDBXBaseMetaDataReader.GetContext
 0001:00000C44       DBXMetaDataReader.TDBXBaseMetaDataReader.GetProductName
 0001:00000C4C       DBXMetaDataReader.TDBXBaseMetaDataReader.GetVersion
 0001:00000C54       DBXMetaDataReader.TDBXBaseMetaDataReader.SetVersion
 0001:00000C5C       DBXMetaDataReader.TDBXBaseMetaDataReader.GetSqlDefaultParameterMarker
 0001:00000C64       DBXMetaDataReader.TDBXBaseMetaDataReader.CompareVersion
 0001:00000C6C       DBXMetaDataReader.TDBXBaseMetaDataReader.IsQuotedIdentifiersSupported
 0001:00000C74       DBXMetaDataReader.TDBXBaseMetaDataReader.GetTableType
 0001:00000C7C       DBXMetaDataReader.TDBXBaseMetaDataReader.GetViewType
 0001:00000C84       DBXMetaDataReader.TDBXBaseMetaDataReader.GetSystemTableType
 0001:00000C8C       DBXMetaDataReader.TDBXBaseMetaDataReader.GetSystemViewType
 0001:00000C94       DBXMetaDataReader.TDBXBaseMetaDataReader.GetSynonymType
 0001:00000C9C       DBXMetaDataReader.TDBXBaseMetaDataReader.MakeTableTypeString
 0001:00000CA4       DBXMetaDataReader.TDBXBaseMetaDataReader.GetDataTypeHash
 0001:00000CAC       DBXMetaDataReader.TDBXBaseMetaDataReader.GetDataTypes
 0001:00000CB4       DBXMetaDataReader.TDBXBaseMetaDataReader.PopulateDataTypes
 0001:00000CBC       DBXMetaDataReader.TDBXBaseMetaDataReader.FetchCollection
 0001:00000CC4       DBXMetaDataReader.TDBXBaseMetaDataReader.MakeStorage
 0001:00000CCC       DBXMetaDataReader.TDBXBaseMetaDataReader.FetchCollectionWithStorage
 0001:00000CD4       DBXMetaDataReader.TDBXBaseMetaDataReader.FetchDataTypes
 0001:00000CDC       DBXMetaDataReader.TDBXBaseMetaDataReader.FetchCatalogs
 0001:00000CE4       DBXMetaDataReader.TDBXBaseMetaDataReader.FetchSchemas
 0001:00000CEC       DBXMetaDataReader.TDBXBaseMetaDataReader.FetchTables
 0001:00000CF4       DBXMetaDataReader.TDBXBaseMetaDataReader.FetchViews
 0001:00000CFC       DBXMetaDataReader.TDBXBaseMetaDataReader.FetchColumns
 0001:00000D04       DBXMetaDataReader.TDBXBaseMetaDataReader.FetchColumnConstraints
 0001:00000D0C       DBXMetaDataReader.TDBXBaseMetaDataReader.FetchIndexes
 0001:00000D14       DBXMetaDataReader.TDBXBaseMetaDataReader.FetchIndexColumns
 0001:00000D1C       DBXMetaDataReader.TDBXBaseMetaDataReader.FetchForeignKeys
 0001:00000D24       DBXMetaDataReader.TDBXBaseMetaDataReader.FetchForeignKeyColumns
 0001:00000D2C       DBXMetaDataReader.TDBXBaseMetaDataReader.FetchSynonyms
 0001:00000D34       DBXMetaDataReader.TDBXBaseMetaDataReader.FetchProcedures
 0001:00000D3C       DBXMetaDataReader.TDBXBaseMetaDataReader.FetchProcedureSources
 0001:00000D44       DBXMetaDataReader.TDBXBaseMetaDataReader.FetchProcedureParameters
 0001:00000D4C       DBXMetaDataReader.TDBXBaseMetaDataReader.FetchPackages
 0001:00000D54       DBXMetaDataReader.TDBXBaseMetaDataReader.FetchPackageProcedures
 0001:00000D5C       DBXMetaDataReader.TDBXBaseMetaDataReader.FetchPackageProcedureParameters
 0001:00000D64       DBXMetaDataReader.TDBXBaseMetaDataReader.FetchPackageSources
 0001:00000D6C       DBXMetaDataReader.TDBXBaseMetaDataReader.FetchUsers
 0001:00000D74       DBXMetaDataReader.TDBXBaseMetaDataReader.FetchRoles
 0001:00000D7C       DBXMetaDataReader.TDBXBaseMetaDataReader.FetchReservedWords
 0001:00000D84       DBXMetaDataReader.TDBXBaseMetaDataReader.GetDataTypeDescriptions
 0001:00000D8C       DBXMetaDataReader.TDBXBaseMetaDataReader.GetReservedWords
 0001:00000D94       DBXMetaDataReader.TDBXBaseMetaDataReader.GetSqlForDataTypes
 0001:00000D9C       DBXMetaDataReader.TDBXBaseMetaDataReader.GetSqlForCatalogs
 0001:00000DA4       DBXMetaDataReader.TDBXBaseMetaDataReader.GetSqlForSchemas
 0001:00000DAC       DBXMetaDataReader.TDBXBaseMetaDataReader.GetSqlForTables
 0001:00000DB4       DBXMetaDataReader.TDBXBaseMetaDataReader.GetSqlForViews
 0001:00000DBC       DBXMetaDataReader.TDBXBaseMetaDataReader.GetSqlForColumns
 0001:00000DC4       DBXMetaDataReader.TDBXBaseMetaDataReader.GetSqlForColumnConstraints
 0001:00000DCC       DBXMetaDataReader.TDBXBaseMetaDataReader.GetSqlForIndexes
 0001:00000DD4       DBXMetaDataReader.TDBXBaseMetaDataReader.GetSqlForIndexColumns
 0001:00000DDC       DBXMetaDataReader.TDBXBaseMetaDataReader.GetSqlForForeignKeys
 0001:00000DE4       DBXMetaDataReader.TDBXBaseMetaDataReader.GetSqlForForeignKeyColumns
 0001:00000DEC       DBXMetaDataReader.TDBXBaseMetaDataReader.GetSqlForSynonyms
 0001:00000DF4       DBXMetaDataReader.TDBXBaseMetaDataReader.GetSqlForProcedures
 0001:00000DFC       DBXMetaDataReader.TDBXBaseMetaDataReader.GetSqlForProcedureSources
 0001:00000E04       DBXMetaDataReader.TDBXBaseMetaDataReader.GetSqlForProcedureParameters
 0001:00000E0C       DBXMetaDataReader.TDBXBaseMetaDataReader.GetSqlForPackages
 0001:00000E14       DBXMetaDataReader.TDBXBaseMetaDataReader.GetSqlForPackageProcedures
 0001:00000E1C       DBXMetaDataReader.TDBXBaseMetaDataReader.GetSqlForPackageProcedureParameters
 0001:00000E24       DBXMetaDataReader.TDBXBaseMetaDataReader.GetSqlForPackageSources
 0001:00000E2C       DBXMetaDataReader.TDBXBaseMetaDataReader.GetSqlForUsers
 0001:00000E34       DBXMetaDataReader.TDBXBaseMetaDataReader.GetSqlForRoles
 0001:00000E3C       DBXMetaDataReader.TDBXBaseMetaDataReader.GetSqlForReservedWords
 0001:00000E44       DBXMetaDataReader.TDBXReservedWordsCursor.Create
 0001:00000E4C       DBXMetaDataReader.TDBXTableTypeParser.ParseTableTypes
 0001:00000E54       DBXMetaDataCommand.TDBXMetaDataCommand.Create
 0001:00000E5C       DBXMetaDataCommand.TDBXMetaDataCommand.Destroy
 0001:00000E64       DBXMetaDataCommand.TDBXMetaDataCommand.SetRowSetSize
 0001:00000E6C       DBXMetaDataCommand.TDBXMetaDataCommand.SetMaxBlobSize
 0001:00000E74       DBXMetaDataCommand.TDBXMetaDataCommand.GetRowsAffected
 0001:00000E7C       DBXMetaDataCommand.TDBXMetaDataCommand.DerivedGetNextReader
 0001:00000E84       DBXMetaDataCommand.TDBXMetaDataCommand.DerivedOpen
 0001:00000E8C       DBXMetaDataCommand.TDBXMetaDataCommand.DerivedClose
 0001:00000E94       DBXMetaDataCommand.TDBXMetaDataCommand.DerivedPrepare
 0001:00000E9C       DBXMetaDataCommand.TDBXMetaDataCommand.DerivedExecuteQuery
 0001:00000EA4       DBXMetaDataCommand.TDBXMetaDataCommand.DerivedExecuteUpdate
 0001:00000EAC       DBXMetaDataCommandFactory.TDBXMetaDataCommandFactory.RegisterMetaDataCommandFactory
 0001:00000EB4       DBXMetaDataCommandFactory.TDBXMetaDataCommandFactory.UnRegisterMetaDataCommandFactory
 0001:00000EBC       DBXMetaDataCommandFactory.TDBXDataExpressProviderContext.Create
 0001:00000EC4       DBXMetaDataCommandFactory.TDBXDataExpressProviderContext.Destroy
 0001:00000ECC       DBXMetaDataCommandFactory.TDBXDataExpressProviderContext.GetPlatformTypeName
 0001:00000ED4       DBXMetaDataCommandFactory.TDBXDataExpressProviderContext.ExecuteQuery
 0001:00000EDC       DBXMetaDataCommandFactory.TDBXDataExpressProviderContext.CreateTableStorage
 0001:00000EE4       DBXMetaDataCommandFactory.TDBXDataExpressProviderContext.CreateRowStorage
 0001:00000EEC       DBXMetaDataCommandFactory.TDBXDataExpressProviderContext.StartTransaction
 0001:00000EF4       DBXMetaDataCommandFactory.TDBXDataExpressProviderContext.StartSerializedTransaction
 0001:00000EFC       DBXMetaDataCommandFactory.TDBXDataExpressProviderContext.Commit
 0001:00000F04       DBXMetaDataCommandFactory.TDBXDataExpressProviderContext.Rollback
 0001:00000F0C       DBXMetaDataCommandFactory.TDBXDataExpressProviderContext.GetVendorProperty
 0001:00000F14       Dbx34DrvDbms..TDBXOpenODBCMetaDataCommandFactoryOracle
 0001:00000FF0       Dbx34DrvDbms..TDBXOpenODBCMetaDataReaderOracle
 0001:000011E0       Dbx34DrvDbms..TDBXOpenODBCMetaDataCommandFactoryMSSQL
 0001:000012B8       Dbx34DrvDbms..TDBXOpenODBCMetaDataReaderMSSQL
 0001:000014A4       Dbx34DrvDbms..TDBXOpenODBCMetaDataCommandFactoryMySQL
 0001:0000157C       Dbx34DrvDbms..TDBXOpenODBCMetaDataReaderMySQL
 0001:00001768       Dbx34DrvDbms..TDBXOpenODBCMetaDataCommandFactorySybaseASA
 0001:00001848       Dbx34DrvDbms..TDBXOpenODBCMetaDataReaderSybaseASA
 0001:00001A3C       Dbx34DrvDbms..TDBXOpenODBCMetaDataCommandFactorySybaseASE
 0001:00001B1C       Dbx34DrvDbms..TDBXOpenODBCMetaDataReaderSybaseASE
 0001:00001D10       Dbx34DrvDbms..TDBXOpenODBCMetaDataCommandFactoryDB2
 0001:00001DE4       Dbx34DrvDbms..TDBXOpenODBCMetaDataReaderDB2
 0001:00001FCC       Dbx34DrvDbms..TDBXOpenODBCMetaDataCommandFactoryInformix
 0001:000020AC       Dbx34DrvDbms..TDBXOpenODBCMetaDataReaderInformix
 0001:000022B4       Dbx34DrvDbms..TDBXOpenODBCMetaDataCommandFactoryDataStorage
 0001:00002398       Dbx34DrvDbms..TDBXOpenODBCMetaDataReaderDataStorage
 0001:00002590       Dbx34DrvDbms..TDBXOpenODBCMetaDataCommandFactoryFirebird
 0001:00002670       Dbx34DrvDbms..TDBXOpenODBCMetaDataReaderFirebird
 0001:00002878       Dbx34DrvDbms..TDBXOpenODBCMetaDataCommandFactoryInterbase
 0001:00002958       Dbx34DrvDbms..TDBXOpenODBCMetaDataReaderInterbase
 0001:00002B60       Dbx34DrvDbms..TDBXOpenODBCMetaDataCommandFactorySQLite
 0001:00002C3C       Dbx34DrvDbms..TDBXOpenODBCMetaDataReaderSQLite
 0001:00002E2C       Dbx34DrvDbms..TDBXOpenODBCMetaDataCommandFactoryPostgreSQL
 0001:00002F10       Dbx34DrvDbms..TDBXOpenODBCMetaDataReaderPostgreSQL
 0001:00003108       Dbx34DrvDbms.TDBXOpenODBCMetaDataCommandFactoryOracle.GetMetaDataReaderClass
 0001:00003120       Dbx34DrvDbms.TDBXOpenODBCMetaDataReaderOracle.GetProductName
 0001:0000315C       Dbx34DrvDbms.TDBXOpenODBCMetaDataReaderOracle.GetSqlForSchemas
 0001:00003244       Dbx34DrvDbms.TDBXOpenODBCMetaDataReaderOracle.GetSqlForTables
 0001:000037A4       Dbx34DrvDbms.TDBXOpenODBCMetaDataReaderOracle.GetSqlForColumns
 0001:00003AD0       Dbx34DrvDbms.TDBXOpenODBCMetaDataReaderOracle.GetSqlForIndexes
 0001:00003ED8       Dbx34DrvDbms.TDBXOpenODBCMetaDataReaderOracle.GetSqlForIndexColumns
 0001:000043AC       Dbx34DrvDbms.TDBXOpenODBCMetaDataReaderOracle.GetReservedWords
 0001:0000516C       Dbx34DrvDbms.TDBXOpenODBCMetaDataReaderOracle.PopulateDataTypes
 0001:000052C8       Dbx34DrvDbms.TDBXOpenODBCMetaDataReaderOracle.GetDataTypeDescriptions
 0001:00005FF0       Dbx34DrvDbms.TDBXOpenODBCMetaDataCommandFactoryMSSQL.GetMetaDataReaderClass
 0001:00006008       Dbx34DrvDbms.TDBXOpenODBCMetaDataReaderMSSQL.GetProductName
 0001:00006060       Dbx34DrvDbms.TDBXOpenODBCMetaDataReaderMSSQL.GetSqlForTables
 0001:00006980       Dbx34DrvDbms.TDBXOpenODBCMetaDataReaderMSSQL.GetSqlForColumns
 0001:00007738       Dbx34DrvDbms.TDBXOpenODBCMetaDataReaderMSSQL.GetSqlForIndexes
 0001:00008268       Dbx34DrvDbms.TDBXOpenODBCMetaDataReaderMSSQL.GetSqlForIndexColumns
 0001:00008CEC       Dbx34DrvDbms.TDBXOpenODBCMetaDataReaderMSSQL.GetReservedWords
 0001:0000D3B4       Dbx34DrvDbms.TDBXOpenODBCMetaDataReaderMSSQL.GetSqlIdentifierQuotePrefix
 0001:0000D3E4       Dbx34DrvDbms.TDBXOpenODBCMetaDataReaderMSSQL.GetSqlIdentifierQuoteSuffix
 0001:0000D414       Dbx34DrvDbms.TDBXOpenODBCMetaDataReaderMSSQL.GetTableType
 0001:0000D458       Dbx34DrvDbms.TDBXOpenODBCMetaDataReaderMSSQL.GetViewType
 0001:0000D49C       Dbx34DrvDbms.TDBXOpenODBCMetaDataReaderMSSQL.GetSystemTableType
 0001:0000D4E0       Dbx34DrvDbms.TDBXOpenODBCMetaDataReaderMSSQL.GetSystemViewType
 0001:0000D524       Dbx34DrvDbms.TDBXOpenODBCMetaDataReaderMSSQL.GetSynonymType
 0001:0000D56C       Dbx34DrvDbms.TDBXOpenODBCMetaDataReaderMSSQL.GetDataTypeDescriptions
 0001:0000E524       Dbx34DrvDbms.TDBXOpenODBCMetaDataCommandFactoryMySQL.GetMetaDataReaderClass
 0001:0000E53C       Dbx34DrvDbms.TDBXOpenODBCMetaDataReaderMySQL.GetProductName
 0001:0000E574       Dbx34DrvDbms.TDBXOpenODBCMetaDataReaderMySQL.GetSqlForTables
 0001:0000E924       Dbx34DrvDbms.TDBXOpenODBCMetaDataReaderMySQL.GetSqlForColumns
 0001:0000EF90       Dbx34DrvDbms.TDBXOpenODBCMetaDataReaderMySQL.GetSqlForIndexes
 0001:0000F348       Dbx34DrvDbms.TDBXOpenODBCMetaDataReaderMySQL.GetSqlForIndexColumns
 0001:0000F6F4       Dbx34DrvDbms.TDBXOpenODBCMetaDataReaderMySQL.GetReservedWords
 0001:00012014       Dbx34DrvDbms.TDBXOpenODBCMetaDataReaderMySQL.GetSqlIdentifierQuotePrefix
 0001:00012044       Dbx34DrvDbms.TDBXOpenODBCMetaDataReaderMySQL.GetSqlIdentifierQuoteSuffix
 0001:00012074       Dbx34DrvDbms.TDBXOpenODBCMetaDataReaderMySQL.GetSqlIdentifierQuoteChar
 0001:000120A4       Dbx34DrvDbms.TDBXOpenODBCMetaDataReaderMySQL.GetTableType
 0001:000120FC       Dbx34DrvDbms.TDBXOpenODBCMetaDataReaderMySQL.IsDescendingIndexColumnsSupported
 0001:00012110       Dbx34DrvDbms.TDBXOpenODBCMetaDataReaderMySQL.IsUpperCaseIdentifiersSupported
 0001:00012124       Dbx34DrvDbms.TDBXOpenODBCMetaDataReaderMySQL.IsMultipleCommandsSupported
 0001:00012138       Dbx34DrvDbms.TDBXOpenODBCMetaDataReaderMySQL.SetContext
 0001:000121F0       Dbx34DrvDbms.TDBXOpenODBCMetaDataReaderMySQL.PopulateDataTypes
 0001:000122A0       Dbx34DrvDbms.TDBXOpenODBCMetaDataReaderMySQL.GetDataTypeDescriptions
 0001:00013004       Dbx34DrvDbms.TDBXOpenODBCMetaDataCommandFactorySybaseASA.GetMetaDataReaderClass
 0001:0001301C       Dbx34DrvDbms.TDBXOpenODBCMetaDataReaderSybaseASA.GetProductName
 0001:0001307C       Dbx34DrvDbms.TDBXOpenODBCMetaDataReaderSybaseASA.SetContext
 0001:000131E8       Dbx34DrvDbms.TDBXOpenODBCMetaDataReaderSybaseASA.GetSqlForTables
 0001:000137C0       Dbx34DrvDbms.TDBXOpenODBCMetaDataReaderSybaseASA.GetSqlForColumns
 0001:00013CB8       Dbx34DrvDbms.TDBXOpenODBCMetaDataReaderSybaseASA.GetSqlForIndexes
 0001:00014924       Dbx34DrvDbms.TDBXOpenODBCMetaDataReaderSybaseASA.GetSqlForIndexColumns
 0001:000157B0       Dbx34DrvDbms.TDBXOpenODBCMetaDataReaderSybaseASA.GetReservedWords
 0001:00017F78       Dbx34DrvDbms.TDBXOpenODBCMetaDataReaderSybaseASA.GetTableType
 0001:00017FC4       Dbx34DrvDbms.TDBXOpenODBCMetaDataReaderSybaseASA.GetViewType
 0001:00018010       Dbx34DrvDbms.TDBXOpenODBCMetaDataReaderSybaseASA.GetSystemTableType
 0001:0001805C       Dbx34DrvDbms.TDBXOpenODBCMetaDataReaderSybaseASA.GetSystemViewType
 0001:000180A8       Dbx34DrvDbms.TDBXOpenODBCMetaDataReaderSybaseASA.GetDataTypeDescriptions
 0001:00018C64       Dbx34DrvDbms.TDBXOpenODBCMetaDataCommandFactorySybaseASE.GetMetaDataReaderClass
 0001:00018C7C       Dbx34DrvDbms.TDBXOpenODBCMetaDataReaderSybaseASE.GetProductName
 0001:00018CCC       Dbx34DrvDbms.TDBXOpenODBCMetaDataReaderSybaseASE.GetSqlForTables
 0001:00019050       Dbx34DrvDbms.TDBXOpenODBCMetaDataReaderSybaseASE.GetSqlForColumns
 0001:00019608       Dbx34DrvDbms.TDBXOpenODBCMetaDataReaderSybaseASE.GetSqlForIndexes
 0001:00019980       Dbx34DrvDbms.TDBXOpenODBCMetaDataReaderSybaseASE.GetSqlForIndexColumns
 0001:00019E74       Dbx34DrvDbms.TDBXOpenODBCMetaDataReaderSybaseASE.GetReservedWords
 0001:0001D8F0       Dbx34DrvDbms.TDBXOpenODBCMetaDataReaderSybaseASE.GetTableType
 0001:0001D934       Dbx34DrvDbms.TDBXOpenODBCMetaDataReaderSybaseASE.GetViewType
 0001:0001D978       Dbx34DrvDbms.TDBXOpenODBCMetaDataReaderSybaseASE.GetSystemTableType
 0001:0001D9BC       Dbx34DrvDbms.TDBXOpenODBCMetaDataReaderSybaseASE.GetDataTypeDescriptions
 0001:0001E60C       Dbx34DrvDbms.TDBXOpenODBCMetaDataCommandFactoryDB2.GetMetaDataReaderClass
 0001:0001E624       Dbx34DrvDbms.TDBXOpenODBCMetaDataReaderDB2.GetProductName
 0001:0001E658       Dbx34DrvDbms.TDBXOpenODBCMetaDataReaderDB2.GetSqlForTables
 0001:0001EC0C       Dbx34DrvDbms.TDBXOpenODBCMetaDataReaderDB2.GetSqlForColumns
 0001:0001EF9C       Dbx34DrvDbms.TDBXOpenODBCMetaDataReaderDB2.GetSqlForIndexes
 0001:0001F348       Dbx34DrvDbms.TDBXOpenODBCMetaDataReaderDB2.GetSqlForIndexColumns
 0001:0001F7B0       Dbx34DrvDbms.TDBXOpenODBCMetaDataReaderDB2.GetReservedWords
 0001:00022F98       Dbx34DrvDbms.TDBXOpenODBCMetaDataReaderDB2.GetTableType
 0001:00022FDC       Dbx34DrvDbms.TDBXOpenODBCMetaDataReaderDB2.GetViewType
 0001:00023020       Dbx34DrvDbms.TDBXOpenODBCMetaDataReaderDB2.GetSystemTableType
 0001:00023064       Dbx34DrvDbms.TDBXOpenODBCMetaDataReaderDB2.GetSqlProcedureQuoteChar
 0001:00023080       Dbx34DrvDbms.TDBXOpenODBCMetaDataReaderDB2.GetDataTypeDescriptions
 0001:00023680       Dbx34DrvDbms.TDBXOpenODBCMetaDataCommandFactoryInformix.GetMetaDataReaderClass
 0001:00023698       Dbx34DrvDbms.TDBXOpenODBCMetaDataReaderInformix.GetProductName
 0001:000236F4       Dbx34DrvDbms.TDBXOpenODBCMetaDataReaderInformix.Destroy
 0001:00023730       Dbx34DrvDbms.TDBXOpenODBCMetaDataReaderInformix.GetSqlForTables
 0001:00023D10       Dbx34DrvDbms.TDBXOpenODBCMetaDataReaderInformix.GetSqlForColumns
 0001:00024164       Dbx34DrvDbms.TDBXOpenODBCMetaDataReaderInformix.GetSqlForIndexes
 0001:00024604       Dbx34DrvDbms.TDBXOpenODBCMetaDataReaderInformix.GetSqlForIndexColumns
 0001:000257E0       Dbx34DrvDbms.TDBXOpenODBCMetaDataReaderInformix.GetReservedWords
 0001:0002B3BC       Dbx34DrvDbms.TDBXOpenODBCMetaDataReaderInformix.GetTableType
 0001:0002B400       Dbx34DrvDbms.TDBXOpenODBCMetaDataReaderInformix.GetViewType
 0001:0002B444       Dbx34DrvDbms.TDBXOpenODBCMetaDataReaderInformix.GetSystemTableType
 0001:0002B488       Dbx34DrvDbms.TDBXOpenODBCMetaDataReaderInformix.GetSynonymType
 0001:0002B4CC       Dbx34DrvDbms.TDBXOpenODBCMetaDataReaderInformix.IsUpperCaseIdentifiersSupported
 0001:0002B4E0       Dbx34DrvDbms.TDBXOpenODBCMetaDataReaderInformix.GetAllDataTypes
 0001:0002BD50       Dbx34DrvDbms.TDBXOpenODBCMetaDataReaderInformix.GetDataTypeDescriptions
 0001:0002BE7C       Dbx34DrvDbms.TDBXOpenODBCMetaDataCommandFactoryDataStorage.GetMetaDataReaderClass
 0001:0002BE94       Dbx34DrvDbms.TDBXOpenODBCMetaDataReaderDataStorage.GetSqlForTables
 0001:0002BFB8       Dbx34DrvDbms.TDBXOpenODBCMetaDataReaderDataStorage.GetSqlForColumns
 0001:0002C074       Dbx34DrvDbms.TDBXOpenODBCMetaDataReaderDataStorage.GetSqlForIndexes
 0001:0002C124       Dbx34DrvDbms.TDBXOpenODBCMetaDataReaderDataStorage.GetSqlForIndexColumns
 0001:0002C1F8       Dbx34DrvDbms.TDBXOpenODBCMetaDataCommandFactoryFirebird.GetMetaDataReaderClass
 0001:0002C210       Dbx34DrvDbms.TDBXOpenODBCMetaDataReaderFirebird.GetProductName
 0001:0002C250       Dbx34DrvDbms.TDBXOpenODBCMetaDataReaderFirebird.Destroy
 0001:0002C28C       Dbx34DrvDbms.TDBXOpenODBCMetaDataReaderFirebird.GetSqlForTables
 0001:0002C6C8       Dbx34DrvDbms.TDBXOpenODBCMetaDataReaderFirebird.GetSqlForColumns
 0001:0002CB88       Dbx34DrvDbms.TDBXOpenODBCMetaDataReaderFirebird.GetSqlForIndexes
 0001:0002CFEC       Dbx34DrvDbms.TDBXOpenODBCMetaDataReaderFirebird.GetSqlForIndexColumns
 0001:0002D514       Dbx34DrvDbms.TDBXOpenODBCMetaDataReaderFirebird.GetReservedWords
 0001:00030984       Dbx34DrvDbms.TDBXOpenODBCMetaDataReaderFirebird.IsDescendingIndexColumnsSupported
 0001:00030998       Dbx34DrvDbms.TDBXOpenODBCMetaDataReaderFirebird.SetContext
 0001:00030A50       Dbx34DrvDbms.TDBXOpenODBCMetaDataReaderFirebird.GetAllDataTypes
 0001:00031084       Dbx34DrvDbms.TDBXOpenODBCMetaDataReaderFirebird.GetDataTypeDescriptions
 0001:0003115C       Dbx34DrvDbms.TDBXOpenODBCMetaDataCommandFactoryInterbase.GetMetaDataReaderClass
 0001:00031174       Dbx34DrvDbms.TDBXOpenODBCMetaDataReaderInterbase.GetProductName
 0001:000311B4       Dbx34DrvDbms.TDBXOpenODBCMetaDataReaderInterbase.Destroy
 0001:000311F0       Dbx34DrvDbms.TDBXOpenODBCMetaDataReaderInterbase.GetSqlForTables
 0001:0003162C       Dbx34DrvDbms.TDBXOpenODBCMetaDataReaderInterbase.GetSqlForColumns
 0001:00031AEC       Dbx34DrvDbms.TDBXOpenODBCMetaDataReaderInterbase.GetSqlForIndexes
 0001:00031F50       Dbx34DrvDbms.TDBXOpenODBCMetaDataReaderInterbase.GetSqlForIndexColumns
 0001:00032478       Dbx34DrvDbms.TDBXOpenODBCMetaDataReaderInterbase.GetReservedWords
 0001:000358E8       Dbx34DrvDbms.TDBXOpenODBCMetaDataReaderInterbase.IsDescendingIndexColumnsSupported
 0001:000358FC       Dbx34DrvDbms.TDBXOpenODBCMetaDataReaderInterbase.SetContext
 0001:000359B4       Dbx34DrvDbms.TDBXOpenODBCMetaDataReaderInterbase.GetAllDataTypes
 0001:00035FE8       Dbx34DrvDbms.TDBXOpenODBCMetaDataReaderInterbase.GetDataTypeDescriptions
 0001:000360C0       Dbx34DrvDbms.TDBXOpenODBCMetaDataCommandFactorySQLite.GetMetaDataReaderClass
 0001:000360D8       Dbx34DrvDbms.TDBXOpenODBCMetaDataReaderSQLite.GetSqlForTables
 0001:000360F4       Dbx34DrvDbms.TDBXOpenODBCMetaDataCommandFactoryPostgreSQL.GetMetaDataReaderClass
 0001:0003610C       Dbx34DrvDbms.TDBXOpenODBCMetaDataReaderPostgreSQL.GetSqlForTables
 0001:000366BC       Dbx34DrvDbms.TDBXOpenODBCMetaDataReaderPostgreSQL.GetSqlForColumns
 0001:00036EBC       Dbx34DrvDbms.TDBXOpenODBCMetaDataReaderPostgreSQL.GetSqlForIndexes
 0001:000374D0       Dbx34DrvDbms.TDBXOpenODBCMetaDataReaderPostgreSQL.GetSqlForIndexColumns
 0001:000383C4       Dbx34DrvDbms.TDBXOpenODBCMetaDataReaderPostgreSQL.GetReservedWords
 0001:00038B48       Dbx34DrvDbms.Finalization
 0001:00038BF0       DbxOpenOdbcApiHook..TIATPatch
 0001:00038C84       DbxOpenOdbcApiHook.SizeOfCode
 0001:00038FD0       DbxOpenOdbcApiHook.SizeOfProc
 0001:00039014       DbxOpenOdbcApiHook.SaveOldFunction
 0001:0003908C       DbxOpenOdbcApiHook.HookCode
 0001:000391BC       DbxOpenOdbcApiHook.HookProc
 0001:00039224       DbxOpenOdbcApiHook.UnhookCode
 0001:000392FC       DbxOpenOdbcApiHook.GetNativeAddr
 0001:00039340       DbxOpenOdbcApiHook.JumpFromCode
 0001:00039430       DbxOpenOdbcApiHook.RestoreSavedCode
 0001:0003951C       DbxOpenOdbcApiHook.IsJumpFromCode
 0001:0003956C       DbxOpenOdbcApiHook.TIATPatch.NextFunctionName
 0001:000395B8       DbxOpenOdbcApiHook.TIATPatch.ListContainsIAT
 0001:00039604       DbxOpenOdbcApiHook.TIATPatch.CompareLibraryNames
 0001:000396F0       DbxOpenOdbcApiHook.TIATPatch.UpdateEntry
 0001:00039764       DbxOpenOdbcApiHook.TIATPatch.UpdatePatch
 0001:000397BC       DbxOpenOdbcApiHook.TIATPatch.EnumIATList
 0001:000399EC       DbxOpenOdbcApiHook.TIATPatch.BuildIATPatchList
 0001:00039A80       DbxOpenOdbcApiHook.TIATPatch.Unpatch
 0001:00039BB0       DbxOpenOdbcApiHook.TIATPatch.Patch
 0001:00039DF0       DbxOpenOdbcApiHook.TIATPatch.Find
 0001:00039F34       DbxOpenOdbcApiHook.TIATPatch.Delete
 0001:0003A020       DbxOpenOdbcApiHook.TIATPatch.Clear
 0001:0003A150       DbxOpenOdbcApiHook.TIATPatch.GetPatchRecord
 0001:0003A1B0       DbxOpenOdbcApiHook.TIATPatch.GetUnpatchOnFree
 0001:0003A204       DbxOpenOdbcApiHook.TIATPatch.SetUnpatchOnFree
 0001:0003A258       DbxOpenOdbcApiHook.TIATPatch.GetCount
 0001:0003A2B0       DbxOpenOdbcApiHook.TIATPatch.Create
 0001:0003A318       DbxOpenOdbcApiHook.TIATPatch.Destroy
 0001:0003A3B4       DbxOpenOdbcApiHook.GetVirtualMethodAddress
 0001:0003A3E0       DbxOpenOdbcApiHook.SetVirtualMethodAddress
 0001:0003A474       DbxOpenOdbcApiHook.FindVirtualMethodIndex
 0001:0003A4EC       DbxOpenOdbcApiHook.GetVirtualMethodOffset
 0001:0003A514       DbxOpenOdbcApiHook.FxtGetStubAddress
 0001:0003A550       DbxOpenOdbcApiHook.Finalization
 0001:0003A580       SqlExpr.Finalization
 0001:0003A588       DbxDBFix.WStrLCopyLen
 0001:0003A5EC       DbxDBFix.FIX_TSTRINGFIELD_SETASANSISTRING
 0001:0003A70C       DbxDBFix.INSTALL_FIX_TSTRINGFIELD_SETASANSISTRING
 0001:0003A750       DbxDBFix.FIX_TFIELDS_FINDFIELD
 0001:0003A8B0       DbxDBFix.INSTALL_FIX_TFIELDS_FINDFIELD
 0001:0003A8F0       DbxDBFix.FIX_TINTEGERFIELD_GETISNULL
 0001:0003A940       DbxDBFix.INSTALL_FIX_TINTEGERFIELD_GETISNULL
 0001:0003A980       DbxDBFix.FIX_TBLOBFIELD_SETVARVALUE
 0001:0003AAE8       DbxDBFix.INSTALL_FIX_TBLOBFIELD_SETVARVALUE
 0001:0003AB28       DbxDBFix.FIX_TSTRINGFIELD_GETVALUE
 0001:0003AC74       DbxDBFix.INSTALL_FIX_TSTRINGFIELD_GETVALUE
 0001:0003ACB4       DbxDBFix.FIX_TFIELD_ASSIGNVALUE
 0001:0003AD64       DbxDBFix.INSTALL_FIX_TFIELD_ASSIGNVALUE
 0001:0003AD9C       DbxDBFix.FIX_TDATASET_DATACONVERT
 0001:0003ADF0       DbxDBFix.INSTALL_FIX_TDATASET_DATACONVERT
 0001:0003AE28       DbxDBFix.FIX_TCUSTOMCLIENTDATASET_DATACONVERT
 0001:0003AEDC       DbxDBFix.INSTALL_FIX_TCUSTOMCLIENTDATASET_DATACONVERT
 0001:0003AF14       DbxDBFix.INSTALL_FIXES
 0001:0003AFB4       DbxDBFix.Finalization
 0001:0003AFEC       DbxXXDrv.IsDbxDrvFixed
 0001:0003B000       DbxXXDrv.Finalization
 0001:0003B030       Dbx34Drv..EDBXError
 0001:0003B0C0       Dbx34Drv..EDbxOODBCDriverError
 0001:0003B168       Dbx34Drv..TDBXOpenOdbcPropertyNames
 0001:0003B210       Dbx34Drv..TDBXDataTypes
 0001:0003B2A0       Dbx34Drv..TDBXPropertyNames
 0001:0003B338       Dbx34Drv..TDbxOpenOdbcDriver
 0001:0003B400       Dbx34Drv..TDBXOpenOdbcProperties
 0001:0003B614       Dbx34Drv..TDBXDynalinkDriverLoaderOpenOdbc
 0001:0003B6E0       Dbx34Drv..TDBXDynalinkConnectionOpenOdbc
 0001:0003B834       Dbx34Drv..TDBXMorphicCommandOpenOdbc
 0001:0003B950       Dbx34Drv..TDBXDataExpressProviderContextOpenOdbc
 0001:0003BA38       Dbx34Drv..TDBXCustomOpenODBCMetaDataReader
 0001:0003BC30       Dbx34Drv..TDBXOpenODBCMetaDataCommand
 0001:0003BD90       Dbx34Drv..TDBXOpenODBCMetaDataCommandFactory
 0001:0003BE5C       Dbx34Drv..TDBXOpenODBCMetaDataCommandFactoryCustom
 0001:0003BF34       Dbx34Drv..TDBXOpenODBCMetaDataReader
 0001:0003C114       Dbx34Drv.DBXStringArrayToNamedQueryParams
 0001:0003C228       Dbx34Drv.DBXStringArrayToErrorInfo
 0001:0003C388       Dbx34Drv.ErrorGetVendorPropertyCommand
 0001:0003C4D4       Dbx34Drv.CheckGetVendorPropertyCommand
 0001:0003C574       Dbx34Drv.CheckPathEnvironmet
 0001:0003C768       Dbx34Drv.CheckLibraryPath
 0001:0003C808       Dbx34Drv.CheckLibraryName
 0001:0003C868       Dbx34Drv.CheckVendorLib
 0001:0003C8C4       Dbx34Drv.TDbxOpenOdbcDriver.Create
 0001:0003C988       Dbx34Drv.TDbxOpenOdbcDriver.CreateCommandOpenOdbc
 0001:0003C9B8       Dbx34Drv.TDbxOpenOdbcDriver.CreateConnection
 0001:0003CA18       Dbx34Drv.TDbxOpenOdbcDriver.LoadDriverWithConnectionBuilder
 0001:0003CAB8       Dbx34Drv.TDbxOpenOdbcDriver.GetDriverPropertyNames
 0001:0003CAD4       Dbx34Drv.TDbxOpenOdbcDriver.GetDriverVersion
 0001:0003CB20       Dbx34Drv.TDBXOpenOdbcProperties.Create
 0001:0003CCDC       Dbx34Drv.TDBXOpenOdbcProperties.GetConnectionString
 0001:0003CD2C       Dbx34Drv.TDBXOpenOdbcProperties.SetConnectionString
 0001:0003CD7C       Dbx34Drv.TDBXOpenOdbcProperties.GetDatabase
 0001:0003CDBC       Dbx34Drv.TDBXOpenOdbcProperties.SetDatabase
 0001:0003CDFC       Dbx34Drv.TDBXOpenOdbcProperties.GetUserName
 0001:0003CE3C       Dbx34Drv.TDBXOpenOdbcProperties.SetUserName
 0001:0003CE7C       Dbx34Drv.TDBXOpenOdbcProperties.GetPassWord
 0001:0003CEBC       Dbx34Drv.TDBXOpenOdbcProperties.SetPassWord
 0001:0003CEFC       Dbx34Drv.TDBXOpenOdbcProperties.GetBlobSize
 0001:0003CF80       Dbx34Drv.TDBXOpenOdbcProperties.SetBlobSize
 0001:0003D000       Dbx34Drv.TDBXOpenOdbcProperties.GetOdbcTransIsolation
 0001:0003D064       Dbx34Drv.TDBXOpenOdbcProperties.SetOdbcTransIsolation
 0001:0003D0C8       Dbx34Drv.TDBXOpenOdbcProperties.GetDecimalSeparator
 0001:0003D118       Dbx34Drv.TDBXOpenOdbcProperties.SetDecimalSeparator
 0001:0003D168       Dbx34Drv.TDBXOpenOdbcProperties.GetTrimChar
 0001:0003D1E8       Dbx34Drv.TDBXOpenOdbcProperties.SetTrimChar
 0001:0003D268       Dbx34Drv.TDBXOpenOdbcProperties.GetCustomString
 0001:0003D2B0       Dbx34Drv.TDBXOpenOdbcProperties.SetCustomString
 0001:0003D2F8       Dbx34Drv.TDBXDynalinkDriverLoaderOpenOdbc.LoadDriverLibraryAndMethodTable
 0001:0003D5B8       Dbx34Drv.TDBXDynalinkDriverLoaderOpenOdbc.FreeOldLibrary
 0001:0003D5E0       Dbx34Drv.TDBXDynalinkConnectionOpenOdbc.GetProductVersion
 0001:0003D600       Dbx34Drv.TDBXDynalinkConnectionOpenOdbc.GetProductName
 0001:0003D644       Dbx34Drv.TDBXDynalinkConnectionOpenOdbc.DerivedGetCommands
 0001:0003D658       Dbx34Drv.TDBXDynalinkConnectionOpenOdbc.DerivedGetCommandTypes
 0001:0003D668       Dbx34Drv.RaiseDriverVersionFailed
 0001:0003D6F0       Dbx34Drv.TDBXDynalinkConnectionOpenOdbc.DerivedOpen
 0001:0003D874       Dbx34Drv.TDBXDynalinkConnectionOpenOdbc.DoDerivedOpenBefore
 0001:0003DC3C       Dbx34Drv.TDBXDynalinkConnectionOpenOdbc.DoDerivedOpenAfter
 0001:0003DD30       Dbx34Drv.TDBXDynalinkConnectionOpenOdbc.DerivedClose
 0001:0003DD3C       Dbx34Drv.TDBXDynalinkConnectionOpenOdbc.GetDatabaseMetaData
 0001:0003DD58       Dbx34Drv.TDBXDynalinkConnectionOpenOdbc.Close
 0001:0003DD6C       Dbx34Drv.TDBXDynalinkConnectionOpenOdbc.DerivedCreateCommand
 0001:0003DD98       Dbx34Drv.TDBXDynalinkConnectionOpenOdbc.GetVendorProperty
 0001:0003DE20       Dbx34Drv.TDBXMorphicCommandOpenOdbc.Create
 0001:0003DE70       Dbx34Drv.TDBXMorphicCommandOpenOdbc.DerivedExecuteQuery
 0001:0003DE8C       Dbx34Drv.TDBXDataExpressProviderContextOpenOdbc.SetConnection
 0001:0003DEB0       Dbx34Drv.TDBXCustomOpenODBCMetaDataReader.InitMetadata
 0001:0003DF9C       Dbx34Drv.TDBXCustomOpenODBCMetaDataReader.CheckMetadata
 0001:0003E044       Dbx34Drv.TDBXCustomOpenODBCMetaDataReader.SetContext
 0001:0003E070       Dbx34Drv.TDBXCustomOpenODBCMetaDataReader.GetProductName
 0001:0003E0BC       Dbx34Drv.TDBXCustomOpenODBCMetaDataReader.GetSqlIdentifierQuotePrefix
 0001:0003E0DC       Dbx34Drv.TDBXCustomOpenODBCMetaDataReader.GetSqlIdentifierQuoteSuffix
 0001:0003E0FC       Dbx34Drv.TDBXCustomOpenODBCMetaDataReader.IsParameterMetadataSupported
 0001:0003E110       Dbx34Drv.TDBXCustomOpenODBCMetaDataReader.IsLowerCaseIdentifiersSupported
 0001:0003E124       Dbx34Drv.TDBXCustomOpenODBCMetaDataReader.IsUpperCaseIdentifiersSupported
 0001:0003E138       Dbx34Drv.TDBXCustomOpenODBCMetaDataReader.IsDescendingIndexSupported
 0001:0003E14C       Dbx34Drv.TDBXCustomOpenODBCMetaDataReader.IsDescendingIndexColumnsSupported
 0001:0003E160       Dbx34Drv.TDBXCustomOpenODBCMetaDataReader.GetSqlIdentifierQuoteChar
 0001:0003E180       Dbx34Drv.TDBXCustomOpenODBCMetaDataReader.GetSqlProcedureQuoteChar
 0001:0003E1A0       Dbx34Drv.TDBXCustomOpenODBCMetaDataReader.IsMultipleCommandsSupported
 0001:0003E1B4       Dbx34Drv.TDBXCustomOpenODBCMetaDataReader.IsTransactionsSupported
 0001:0003E1C8       Dbx34Drv.TDBXCustomOpenODBCMetaDataReader.IsNestedTransactionsSupported
 0001:0003E1DC       Dbx34Drv.TDBXCustomOpenODBCMetaDataReader.IsSetRowSizeSupported
 0001:0003E1F0       Dbx34Drv.TDBXCustomOpenODBCMetaDataReader.GetUseAnsiStrings
 0001:0003E20C       Dbx34Drv.TDBXOpenODBCMetaDataCommand.DerivedExecuteQuery
 0001:0003E228       Dbx34Drv.TDBXOpenODBCMetaDataCommandFactoryCustom.CreateMetaDataReader
 0001:0003E24C       Dbx34Drv.TDBXOpenODBCMetaDataCommandFactory.GetMetaDataReaderClass
 0001:0003E264       Dbx34Drv.TDBXOpenODBCMetaDataCommandFactory.InitMetaDataReaderClass
 0001:0003E470       Dbx34Drv.TDBXOpenODBCMetaDataCommandFactory.CreateCommand
 0001:0003E580       Dbx34Drv.TDBXOpenODBCMetaDataCommandFactory.GetProductName
 0001:0003E5C4       Dbx34Drv.TDBXOpenODBCMetaDataCommandFactory.CreateMetaDataReader
 0001:0003E85C       Dbx34Drv.TDBXOpenODBCMetaDataCommandFactory.CreateMetaDataReader
 0001:0003E880       Dbx34Drv.TDBXOpenODBCMetaDataCommandFactory.RegisterMetaDataCommandFactory
 0001:0003E894       Dbx34Drv.TDBXOpenODBCMetaDataCommandFactory.UnRegisterMetaDataCommandFactory
 0001:0003E8A8       Dbx34Drv.TDBXOpenODBCMetaDataReader.Create
 0001:0003E8F0       Dbx34Drv.TDBXOpenODBCMetaDataReader.FetchDataTypes
 0001:0003E964       Dbx34Drv.TDBXOpenODBCMetaDataReader.FetchCatalogs
 0001:0003E9F4       Dbx34Drv.TDBXOpenODBCMetaDataReader.FetchSchemas
 0001:0003EB34       Dbx34Drv.TDBXOpenODBCMetaDataReader.FetchTables
 0001:0003F030       Dbx34Drv.TDBXOpenODBCMetaDataReader.FetchViews
 0001:0003F178       Dbx34Drv.TDBXOpenODBCMetaDataReader.FetchColumns
 0001:0003F2C0       Dbx34Drv.TDBXOpenODBCMetaDataReader.FetchColumnConstraints
 0001:0003F414       Dbx34Drv.TDBXOpenODBCMetaDataReader.FetchForeignKeyColumns
 0001:0003F580       Dbx34Drv.TDBXOpenODBCMetaDataReader.FetchForeignKeys
 0001:0003F6C8       Dbx34Drv.TDBXOpenODBCMetaDataReader.FetchIndexColumns
 0001:0003FA7C       Dbx34Drv.TDBXOpenODBCMetaDataReader.FetchIndexes
 0001:0003FDD4       Dbx34Drv.TDBXOpenODBCMetaDataReader.FetchProcedures
 0001:0003FF24       Dbx34Drv.TDBXOpenODBCMetaDataReader.FetchProcedureSources
 0001:00040078       Dbx34Drv.TDBXOpenODBCMetaDataReader.FetchSynonyms
 0001:000401BC       Dbx34Drv.TDBXOpenODBCMetaDataReader.FetchProcedureParameters
 0001:00040324       Dbx34Drv.TDBXOpenODBCMetaDataReader.FetchPackages
 0001:00040468       Dbx34Drv.TDBXOpenODBCMetaDataReader.FetchPackageProcedures
 0001:000405C8       Dbx34Drv.TDBXOpenODBCMetaDataReader.FetchPackageProcedureParameters
 0001:00040744       Dbx34Drv.TDBXOpenODBCMetaDataReader.FetchPackageSources
 0001:00040894       Dbx34Drv.TDBXOpenODBCMetaDataReader.FetchUsers
 0001:0004097C       Dbx34Drv.TDBXOpenODBCMetaDataReader.FetchRoles
 0001:00040A64       Dbx34Drv.TDBXOpenODBCMetaDataReader.FetchReservedWords
 0001:00040BA0       Dbx34Drv.TDBXOpenODBCMetaDataReader.GetProductName
 0001:00040BE4       Dbx34Drv.TDBXOpenODBCMetaDataReader.GetReservedWords
 0001:00040C04       Dbx34Drv.TDBXOpenODBCMetaDataReader.GetSqlForColumns
 0001:00040C20       Dbx34Drv.TDBXOpenODBCMetaDataReader.GetSqlForForeignKeyColumns
 0001:00040C3C       Dbx34Drv.TDBXOpenODBCMetaDataReader.GetSqlForForeignKeys
 0001:00040C58       Dbx34Drv.TDBXOpenODBCMetaDataReader.GetSqlForIndexColumns
 0001:00040C74       Dbx34Drv.TDBXOpenODBCMetaDataReader.GetSqlForIndexes
 0001:00040C90       Dbx34Drv.TDBXOpenODBCMetaDataReader.GetSqlForPackageProcedureParameters
 0001:00040CAC       Dbx34Drv.TDBXOpenODBCMetaDataReader.GetSqlForPackageProcedures
 0001:00040CC8       Dbx34Drv.TDBXOpenODBCMetaDataReader.GetSqlForPackages
 0001:00040CE4       Dbx34Drv.TDBXOpenODBCMetaDataReader.GetSqlForPackageSources
 0001:00040D00       Dbx34Drv.TDBXOpenODBCMetaDataReader.GetSqlForProcedureParameters
 0001:00040D1C       Dbx34Drv.TDBXOpenODBCMetaDataReader.GetSqlForProcedures
 0001:00040D38       Dbx34Drv.TDBXOpenODBCMetaDataReader.GetSqlForProcedureSources
 0001:00040D54       Dbx34Drv.TDBXOpenODBCMetaDataReader.GetSqlForRoles
 0001:00040D70       Dbx34Drv.TDBXOpenODBCMetaDataReader.GetSqlForSchemas
 0001:00040D8C       Dbx34Drv.TDBXOpenODBCMetaDataReader.GetSqlForSynonyms
 0001:00040DA8       Dbx34Drv.TDBXOpenODBCMetaDataReader.GetSqlForTables
 0001:00040DC4       Dbx34Drv.TDBXOpenODBCMetaDataReader.GetSqlForUsers
 0001:00040DE0       Dbx34Drv.TDBXOpenODBCMetaDataReader.GetSqlForViews
 0001:00040DFC       Dbx34Drv.TDBXOpenODBCMetaDataReader.IsNestedTransactionsSupported
 0001:00040E10       Dbx34Drv.TDBXOpenODBCMetaDataReader.IsSetRowSizeSupported
 0001:00040E24       Dbx34Drv.Finalization
 0001:000410F0       .dbxoodbc.@GetPackageInfoTable
 0001:000410F8       .dbxoodbc.@PackageLoad
 0001:00041104       .dbxoodbc.@PackageUnload
 0002:00000000       System.System
 0002:00000008       Windows.Windows
 0002:0000001C       SysUtils.SysUtils
 0002:00000024       Classes.Classes
 0002:0000002C       TypInfo.TypInfo
 0002:00000034       Variants.Variants
 0002:0000003C       VarUtils.VarUtils
 0002:00000044       ClassRegistry.ClassRegistry
 0002:0000004C       DB.DB
 0002:00000054       WideStrings.WideStrings
 0002:0000005C       FMTBcd.FMTBcd
 0002:00000064       SqlTimSt.SqlTimSt
 0002:0000006C       ComObj.ComObj
 0002:00000074       DBXCommon.DBXCommon
 0002:0000007C       Registry.Registry
 0002:00000084       IniFiles.IniFiles
 0002:0000008C       DBClient.DBClient
 0002:00000094       DSIntf.DSIntf
 0002:0000009C       Provider.Provider
 0002:000000A4       DBXDynalink.DBXDynalink
 0002:000000AC       Dbx34DrvDbms.Dbx34DrvDbms
 0002:00000130       DbxOpenOdbcApiHook.DbxOpenOdbcApiHook
 0002:00000138       SqlExpr.SqlExpr
 0002:00000140       DbxDBFix.DbxDBFix
 0002:00000154       DbxXXDrv.DbxXXDrv
 0002:0000015C       Dbx34Drv.Dbx34Drv
 0002:00000204       .dbxoodbc..dbxoodbc
 0003:00000000       SysInit.TlsIndex
 0003:00000004       SysInit.Module
 0003:0000001C       SysInit.TlsProc
 0003:0000002C       DbxOpenOdbcApiHook.Opcodes1
 0003:0000022C       DbxOpenOdbcApiHook.Opcodes2
 0003:0000042C       DbxOpenOdbcApiHook.Opcodes3
 0003:0000056C       Dbx34Drv.bIsDbx34Drv
 0004:00000000       SysInit.ModuleIsLib
 0004:00000001       SysInit.ModuleIsPackage
 0004:00000004       SysInit.HInstance
 0004:00000008       SysInit.tlsBuffer
 0004:0000000C       Windows..2
 0004:00000010       Windows.HtmlHelpModule
 0004:00000014       Dbx34DrvDbms..52
 0004:00000018       DbxOpenOdbcApiHook..2
 0004:0000001C       DbxDBFix..1
 0004:00000020       DbxDBFix.StringField_SetAsAnsiString
 0004:00000028       DbxDBFix.FieldAccess_FindField
 0004:00000030       DbxDBFix.IntegerField_GetIsNull
 0004:00000038       DbxDBFix.BlobField_SetVarValue
 0004:00000040       DbxDBFix.StringField_GetValue
 0004:00000048       DbxDBFix.Field_AssignValue
 0004:0000004C       DbxDBFix.DataSet_DataConvert
 0004:00000050       DbxDBFix.CustomClientDataSet_DataConvert
 0004:00000054       DbxXXDrv..1
 0004:00000058       Dbx34Drv..81
 0005:00000000       SysInit.TlsLast


Line numbers for SysInit(SysInit.pas) segment .text

    89 0001:00000280   116 0001:00000288   119 0001:00000290   122 0001:00000298
   125 0001:000002A0   128 0001:000002A8   131 0001:000002B0   151 0001:000002B8
   152 0001:000002C0   308 0001:000002C4   309 0001:000002C9   316 0001:000002CC
   317 0001:000002CD   318 0001:000002D4   322 0001:000002D8   323 0001:000002EB
   324 0001:000002F2   325 0001:000002F6   327 0001:00000302   328 0001:0000030E
   333 0001:00000310   335 0001:00000319   336 0001:00000323   337 0001:00000328
   338 0001:00000338   344 0001:0000033C   346 0001:00000345   347 0001:0000034E
   348 0001:00000359   349 0001:0000035D   350 0001:00000363   353 0001:00000370
   357 0001:00000374   359 0001:0000037D   360 0001:00000382   361 0001:0000038B
   362 0001:00000396   448 0001:00000398   449 0001:000003A2   453 0001:000003A4
   454 0001:000003AE   455 0001:000003BF   456 0001:000003C5   520 0001:000003C8
   521 0001:000003D3   522 0001:000003DA   523 0001:000003E1   524 0001:000003E6
   525 0001:000003EE   526 0001:000003F6   527 0001:000003FB   528 0001:00000404
   529 0001:0000040D   530 0001:00000412   531 0001:00000419   532 0001:0000041D
   533 0001:00000422   534 0001:00000425   565 0001:0000042C   566 0001:00000436
   570 0001:00000438   571 0001:00000442   865 0001:00000443

Line numbers for Dbx34DrvDbms(Dbx34DrvDbms.pas) segment .text

   562 0001:00003108   563 0001:00003111   564 0001:00003119   569 0001:00003120
   570 0001:0000312C   571 0001:00003139   574 0001:0000315C   575 0001:00003168
   579 0001:00003175   582 0001:00003244   583 0001:00003250   590 0001:0000325D
   593 0001:000037A4   594 0001:000037B0   599 0001:000037BD   602 0001:00003AD0
   603 0001:00003ADC   609 0001:00003AE9   612 0001:00003ED8   613 0001:00003EE4
   619 0001:00003EF1   624 0001:000043AC   625 0001:000043CB   626 0001:000043E3
   627 0001:000043F0   628 0001:00004400   629 0001:00004410   630 0001:00004420
   631 0001:00004430   632 0001:00004440   633 0001:00004450   634 0001:00004460
   635 0001:00004470   636 0001:00004480   637 0001:00004490   638 0001:000044A0
   639 0001:000044B0   640 0001:000044C0   641 0001:000044D0   642 0001:000044E0
   643 0001:000044F0   644 0001:00004500   645 0001:00004510   646 0001:00004520
   647 0001:00004530   648 0001:00004540   649 0001:00004550   650 0001:00004560
   651 0001:00004570   652 0001:00004580   653 0001:00004590   654 0001:000045A0
   655 0001:000045B0   656 0001:000045C0   657 0001:000045D0   658 0001:000045E0
   659 0001:000045F2   660 0001:00004604   661 0001:00004616   662 0001:00004628
   663 0001:0000463A   664 0001:0000464C   665 0001:0000465E   666 0001:00004670
   667 0001:00004682   668 0001:00004694   669 0001:000046A6   670 0001:000046B8
   671 0001:000046CA   672 0001:000046DC   673 0001:000046EE   674 0001:00004700
   675 0001:00004712   676 0001:00004724   677 0001:00004736   678 0001:00004748
   679 0001:0000475A   680 0001:0000476C   681 0001:0000477E   682 0001:00004790
   683 0001:000047A2   684 0001:000047B4   685 0001:000047C6   686 0001:000047D8
   687 0001:000047EA   688 0001:000047FC   689 0001:0000480E   690 0001:00004820
   691 0001:00004832   692 0001:00004844   693 0001:00004856   694 0001:00004868
   695 0001:0000487A   696 0001:0000488C   697 0001:0000489E   698 0001:000048B0
   699 0001:000048C2   700 0001:000048D4   701 0001:000048E6   702 0001:000048F8
   703 0001:0000490A   704 0001:0000491C   705 0001:0000492E   706 0001:00004940
   707 0001:00004951   717 0001:0000516C   718 0001:0000517B   719 0001:0000518D
   720 0001:000051B9   721 0001:000051CA   722 0001:000051F6   723 0001:00005207
   724 0001:00005233   725 0001:00005244   730 0001:000052C8   731 0001:000052E7
   732 0001:000052FF   733 0001:00005330   734 0001:00005362   735 0001:000053A3
   736 0001:000053D5   737 0001:00005410   738 0001:00005448   739 0001:0000547D
   740 0001:000054B2   741 0001:000054F0   742 0001:0000552E   743 0001:00005563
   744 0001:00005598   745 0001:000055D9   746 0001:0000560E   747 0001:00005646
   748 0001:00005687   749 0001:000056C8   750 0001:00005706   751 0001:00005744
   752 0001:00005782   753 0001:000057C3   754 0001:000057FB   755 0001:0000580C
   764 0001:00005FF0   765 0001:00005FF9   766 0001:00006001   771 0001:00006008
   772 0001:00006014   773 0001:00006021   778 0001:00006060   779 0001:0000607F
   780 0001:0000608A   781 0001:00006099   787 0001:000060A8   792 0001:000060B5
   797 0001:00006980   798 0001:0000699F   799 0001:000069AA   800 0001:000069B9
   805 0001:000069C8   809 0001:000069D5   814 0001:00007738   815 0001:00007757
   816 0001:00007762   817 0001:00007771   823 0001:00007780   828 0001:0000778D
   833 0001:00008268   834 0001:00008287   835 0001:00008292   836 0001:000082A1
   842 0001:000082B0   847 0001:000082BD   852 0001:00008CEC   853 0001:00008D0B
   854 0001:00008D26   855 0001:00008D33   856 0001:00008D43   857 0001:00008D53
   858 0001:00008D63   859 0001:00008D73   860 0001:00008D83   861 0001:00008D93
   862 0001:00008DA3   863 0001:00008DB3   864 0001:00008DC3   865 0001:00008DD3
   866 0001:00008DE3   867 0001:00008DF3   868 0001:00008E03   869 0001:00008E13
   870 0001:00008E23   871 0001:00008E33   872 0001:00008E43   873 0001:00008E53
   874 0001:00008E63   875 0001:00008E73   876 0001:00008E83   877 0001:00008E93
   878 0001:00008EA3   879 0001:00008EB3   880 0001:00008EC3   881 0001:00008ED3
   882 0001:00008EE3   883 0001:00008EF3   884 0001:00008F03   885 0001:00008F13
   886 0001:00008F23   887 0001:00008F35   888 0001:00008F47   889 0001:00008F59
   890 0001:00008F6B   891 0001:00008F7D   892 0001:00008F8F   893 0001:00008FA1
   894 0001:00008FB3   895 0001:00008FC5   896 0001:00008FD7   897 0001:00008FE9
   898 0001:00008FFB   899 0001:0000900D   900 0001:0000901F   901 0001:00009031
   902 0001:00009043   903 0001:00009055   904 0001:00009067   905 0001:00009079
   906 0001:0000908B   907 0001:0000909D   908 0001:000090AF   909 0001:000090C1
   910 0001:000090D3   911 0001:000090E5   912 0001:000090F7   913 0001:00009109
   914 0001:0000911B   915 0001:0000912D   916 0001:0000913F   917 0001:00009151
   918 0001:00009163   919 0001:00009175   920 0001:00009187   921 0001:00009199
   922 0001:000091AB   923 0001:000091BD   924 0001:000091CF   925 0001:000091E1
   926 0001:000091F3   927 0001:00009205   928 0001:00009217   929 0001:00009229
   930 0001:0000923B   931 0001:0000924D   932 0001:0000925F   933 0001:00009271
   934 0001:00009283   935 0001:00009295   936 0001:000092A7   937 0001:000092B9
   938 0001:000092CB   939 0001:000092DD   940 0001:000092EF   941 0001:00009301
   942 0001:00009313   943 0001:00009325   944 0001:00009337   945 0001:00009349
   946 0001:0000935B   947 0001:0000936D   948 0001:0000937F   949 0001:00009391
   950 0001:000093A3   951 0001:000093B5   952 0001:000093C7   953 0001:000093D9
   954 0001:000093EB   955 0001:000093FD   956 0001:0000940F   957 0001:00009421
   958 0001:00009433   959 0001:00009445   960 0001:00009457   961 0001:00009469
   962 0001:0000947B   963 0001:0000948D   964 0001:0000949F   965 0001:000094B1
   966 0001:000094C3   967 0001:000094D5   968 0001:000094E7   969 0001:000094F9
   970 0001:0000950B   971 0001:0000951D   972 0001:0000952F   973 0001:00009541
   974 0001:00009553   975 0001:00009565   976 0001:00009577   977 0001:00009589
   978 0001:0000959B   979 0001:000095AD   980 0001:000095BF   981 0001:000095D1
   982 0001:000095E3   983 0001:000095F5   984 0001:00009607   985 0001:00009619
   986 0001:0000962B   987 0001:0000963D   988 0001:0000964F   989 0001:00009661
   990 0001:00009673   991 0001:00009685   992 0001:00009697   993 0001:000096A9
   994 0001:000096BB   995 0001:000096CD   996 0001:000096DF   997 0001:000096F1
   998 0001:00009703   999 0001:00009715  1000 0001:00009727  1001 0001:00009739
  1002 0001:0000974B  1003 0001:0000975D  1004 0001:0000976F  1005 0001:00009781
  1006 0001:00009793  1007 0001:000097A5  1008 0001:000097B7  1009 0001:000097C9
  1010 0001:000097DB  1011 0001:000097ED  1012 0001:000097FF  1013 0001:00009811
  1014 0001:00009823  1015 0001:00009835  1016 0001:00009847  1017 0001:00009859
  1018 0001:0000986B  1019 0001:0000987D  1020 0001:0000988F  1021 0001:000098A1
  1022 0001:000098B3  1023 0001:000098C5  1024 0001:000098D7  1025 0001:000098E9
  1026 0001:000098FB  1027 0001:0000990D  1028 0001:0000991F  1029 0001:00009931
  1030 0001:00009943  1031 0001:00009955  1032 0001:00009967  1033 0001:00009979
  1034 0001:0000998B  1035 0001:0000999D  1036 0001:000099AF  1037 0001:000099C1
  1038 0001:000099D3  1039 0001:000099E5  1040 0001:000099F7  1041 0001:00009A09
  1042 0001:00009A1B  1043 0001:00009A2D  1044 0001:00009A3F  1045 0001:00009A51
  1046 0001:00009A63  1047 0001:00009A75  1048 0001:00009A87  1049 0001:00009A99
  1050 0001:00009AAB  1051 0001:00009ABD  1052 0001:00009ACF  1053 0001:00009AE1
  1054 0001:00009AF3  1055 0001:00009B05  1056 0001:00009B17  1057 0001:00009B29
  1058 0001:00009B3B  1059 0001:00009B4D  1060 0001:00009B5F  1061 0001:00009B71
  1062 0001:00009B83  1063 0001:00009B95  1064 0001:00009BA7  1065 0001:00009BB9
  1066 0001:00009BCB  1067 0001:00009BDD  1068 0001:00009BEF  1069 0001:00009C01
  1070 0001:00009C13  1071 0001:00009C25  1072 0001:00009C37  1073 0001:00009C49
  1074 0001:00009C5B  1075 0001:00009C6D  1076 0001:00009C7F  1077 0001:00009C91
  1078 0001:00009CA3  1079 0001:00009CB5  1080 0001:00009CC7  1081 0001:00009CD9
  1082 0001:00009CEB  1083 0001:00009CFD  1084 0001:00009D0F  1085 0001:00009D21
  1086 0001:00009D33  1087 0001:00009D45  1088 0001:00009D57  1089 0001:00009D69
  1090 0001:00009D7B  1091 0001:00009D8D  1092 0001:00009D9F  1093 0001:00009DB1
  1094 0001:00009DC3  1095 0001:00009DD5  1096 0001:00009DE7  1097 0001:00009DF9
  1098 0001:00009E0B  1099 0001:00009E1D  1100 0001:00009E2F  1101 0001:00009E41
  1102 0001:00009E53  1103 0001:00009E65  1104 0001:00009E77  1105 0001:00009E89
  1106 0001:00009E9B  1107 0001:00009EAD  1108 0001:00009EBF  1109 0001:00009ED1
  1110 0001:00009EE3  1111 0001:00009EF5  1112 0001:00009F07  1113 0001:00009F19
  1114 0001:00009F2B  1115 0001:00009F3D  1116 0001:00009F4F  1117 0001:00009F61
  1118 0001:00009F73  1119 0001:00009F85  1120 0001:00009F97  1121 0001:00009FA9
  1122 0001:00009FBB  1123 0001:00009FCD  1124 0001:00009FDF  1125 0001:00009FF1
  1126 0001:0000A003  1127 0001:0000A015  1128 0001:0000A027  1129 0001:0000A039
  1130 0001:0000A04B  1131 0001:0000A05D  1132 0001:0000A06F  1133 0001:0000A081
  1134 0001:0000A093  1135 0001:0000A0A5  1136 0001:0000A0B7  1137 0001:0000A0C9
  1138 0001:0000A0DB  1139 0001:0000A0ED  1140 0001:0000A0FF  1141 0001:0000A111
  1142 0001:0000A123  1143 0001:0000A135  1144 0001:0000A147  1145 0001:0000A159
  1146 0001:0000A16B  1147 0001:0000A17D  1148 0001:0000A18F  1149 0001:0000A1A1
  1150 0001:0000A1B3  1151 0001:0000A1C5  1152 0001:0000A1D7  1153 0001:0000A1E9
  1154 0001:0000A1FB  1155 0001:0000A20D  1156 0001:0000A21F  1157 0001:0000A231
  1158 0001:0000A243  1159 0001:0000A255  1160 0001:0000A267  1161 0001:0000A279
  1162 0001:0000A28B  1163 0001:0000A29D  1164 0001:0000A2AF  1165 0001:0000A2C1
  1166 0001:0000A2D3  1167 0001:0000A2E5  1168 0001:0000A2F7  1169 0001:0000A309
  1170 0001:0000A31B  1171 0001:0000A32D  1172 0001:0000A33F  1173 0001:0000A351
  1174 0001:0000A363  1175 0001:0000A375  1176 0001:0000A387  1177 0001:0000A399
  1178 0001:0000A3AB  1179 0001:0000A3BD  1180 0001:0000A3CF  1181 0001:0000A3E1
  1182 0001:0000A3F3  1183 0001:0000A405  1184 0001:0000A417  1185 0001:0000A429
  1186 0001:0000A43B  1187 0001:0000A44D  1188 0001:0000A45F  1189 0001:0000A471
  1190 0001:0000A483  1191 0001:0000A495  1192 0001:0000A4A7  1193 0001:0000A4B9
  1194 0001:0000A4CB  1195 0001:0000A4DD  1196 0001:0000A4EF  1197 0001:0000A501
  1198 0001:0000A513  1199 0001:0000A525  1200 0001:0000A537  1201 0001:0000A549
  1202 0001:0000A55B  1203 0001:0000A56D  1204 0001:0000A57F  1205 0001:0000A591
  1206 0001:0000A5A3  1207 0001:0000A5B5  1208 0001:0000A5C7  1209 0001:0000A5D9
  1210 0001:0000A5EB  1211 0001:0000A5FD  1212 0001:0000A60F  1213 0001:0000A621
  1214 0001:0000A633  1215 0001:0000A645  1216 0001:0000A657  1217 0001:0000A669
  1218 0001:0000A67B  1219 0001:0000A68D  1220 0001:0000A69F  1221 0001:0000A6B1
  1222 0001:0000A6C3  1223 0001:0000A6D5  1224 0001:0000A6E7  1225 0001:0000A6F9
  1226 0001:0000A70B  1227 0001:0000A71D  1228 0001:0000A72F  1229 0001:0000A741
  1230 0001:0000A753  1231 0001:0000A765  1232 0001:0000A777  1233 0001:0000A789
  1234 0001:0000A79B  1235 0001:0000A7AD  1236 0001:0000A7BF  1237 0001:0000A7D1
  1238 0001:0000A7E3  1239 0001:0000A7F5  1240 0001:0000A807  1241 0001:0000A819
  1242 0001:0000A82B  1243 0001:0000A83D  1244 0001:0000A84F  1245 0001:0000A861
  1246 0001:0000A873  1247 0001:0000A885  1248 0001:0000A896  1256 0001:0000D3B4
  1257 0001:0000D3C0  1258 0001:0000D3CD  1261 0001:0000D3E4  1262 0001:0000D3F0
  1263 0001:0000D3FD  1266 0001:0000D414  1267 0001:0000D420  1268 0001:0000D429
  1270 0001:0000D438  1271 0001:0000D443  1274 0001:0000D458  1275 0001:0000D464
  1276 0001:0000D46D  1278 0001:0000D47C  1279 0001:0000D487  1282 0001:0000D49C
  1283 0001:0000D4A8  1284 0001:0000D4B1  1286 0001:0000D4C0  1287 0001:0000D4CB
  1290 0001:0000D4E0  1291 0001:0000D4EC  1292 0001:0000D4F5  1294 0001:0000D504
  1295 0001:0000D50F  1298 0001:0000D524  1299 0001:0000D530  1300 0001:0000D539
  1302 0001:0000D548  1303 0001:0000D553  1308 0001:0000D56C  1309 0001:0000D58B
  1310 0001:0000D5A3  1311 0001:0000D5D7  1312 0001:0000D60C  1313 0001:0000D641
  1314 0001:0000D679  1315 0001:0000D6AE  1316 0001:0000D6E3  1317 0001:0000D718
  1318 0001:0000D74D  1319 0001:0000D782  1320 0001:0000D7BA  1321 0001:0000D7F8
  1322 0001:0000D830  1323 0001:0000D86E  1324 0001:0000D8AC  1325 0001:0000D8E4
  1326 0001:0000D91C  1327 0001:0000D957  1328 0001:0000D992  1329 0001:0000D9C7
  1330 0001:0000D9FF  1331 0001:0000DA43  1332 0001:0000DA87  1333 0001:0000DACB
  1334 0001:0000DB0F  1335 0001:0000DB53  1336 0001:0000DB97  1337 0001:0000DBDB
  1338 0001:0000DC1F  1339 0001:0000DC60  1340 0001:0000DCA1  1341 0001:0000DCDC
  1342 0001:0000DD1A  1343 0001:0000DD5B  1344 0001:0000DD9C  1345 0001:0000DDDD
  1346 0001:0000DE1E  1347 0001:0000DE5F  1348 0001:0000DEA0  1349 0001:0000DEB1
  1358 0001:0000E524  1359 0001:0000E52D  1360 0001:0000E535  1365 0001:0000E53C
  1366 0001:0000E548  1367 0001:0000E555  1372 0001:0000E574  1373 0001:0000E593
  1374 0001:0000E59E  1375 0001:0000E5AD  1381 0001:0000E5BC  1382 0001:0000E5C6
  1387 0001:0000E924  1388 0001:0000E943  1389 0001:0000E94E  1390 0001:0000E95D
  1396 0001:0000E96C  1397 0001:0000E976  1402 0001:0000EF90  1403 0001:0000EFAF
  1404 0001:0000EFBA  1405 0001:0000EFC9  1412 0001:0000EFD8  1413 0001:0000EFE2
  1418 0001:0000F348  1419 0001:0000F367  1420 0001:0000F372  1421 0001:0000F381
  1427 0001:0000F390  1428 0001:0000F39A  1433 0001:0000F6F4  1434 0001:0000F713
  1435 0001:0000F72E  1436 0001:0000F73B  1437 0001:0000F74B  1438 0001:0000F75B
  1439 0001:0000F76B  1440 0001:0000F77B  1441 0001:0000F78B  1442 0001:0000F79B
  1443 0001:0000F7AB  1444 0001:0000F7BB  1445 0001:0000F7CB  1446 0001:0000F7DB
  1447 0001:0000F7EB  1448 0001:0000F7FB  1449 0001:0000F80B  1450 0001:0000F81B
  1451 0001:0000F82B  1452 0001:0000F83B  1453 0001:0000F84B  1454 0001:0000F85B
  1455 0001:0000F86B  1456 0001:0000F87B  1457 0001:0000F88B  1458 0001:0000F89B
  1459 0001:0000F8AB  1460 0001:0000F8BB  1461 0001:0000F8CB  1462 0001:0000F8DB
  1463 0001:0000F8EB  1464 0001:0000F8FB  1465 0001:0000F90B  1466 0001:0000F91B
  1467 0001:0000F92B  1468 0001:0000F93D  1469 0001:0000F94F  1470 0001:0000F961
  1471 0001:0000F973  1472 0001:0000F985  1473 0001:0000F997  1474 0001:0000F9A9
  1475 0001:0000F9BB  1476 0001:0000F9CD  1477 0001:0000F9DF  1478 0001:0000F9F1
  1479 0001:0000FA03  1480 0001:0000FA15  1481 0001:0000FA27  1482 0001:0000FA39
  1483 0001:0000FA4B  1484 0001:0000FA5D  1485 0001:0000FA6F  1486 0001:0000FA81
  1487 0001:0000FA93  1488 0001:0000FAA5  1489 0001:0000FAB7  1490 0001:0000FAC9
  1491 0001:0000FADB  1492 0001:0000FAED  1493 0001:0000FAFF  1494 0001:0000FB11
  1495 0001:0000FB23  1496 0001:0000FB35  1497 0001:0000FB47  1498 0001:0000FB59
  1499 0001:0000FB6B  1500 0001:0000FB7D  1501 0001:0000FB8F  1502 0001:0000FBA1
  1503 0001:0000FBB3  1504 0001:0000FBC5  1505 0001:0000FBD7  1506 0001:0000FBE9
  1507 0001:0000FBFB  1508 0001:0000FC0D  1509 0001:0000FC1F  1510 0001:0000FC31
  1511 0001:0000FC43  1512 0001:0000FC55  1513 0001:0000FC67  1514 0001:0000FC79
  1515 0001:0000FC8B  1516 0001:0000FC9D  1517 0001:0000FCAF  1518 0001:0000FCC1
  1519 0001:0000FCD3  1520 0001:0000FCE5  1521 0001:0000FCF7  1522 0001:0000FD09
  1523 0001:0000FD1B  1524 0001:0000FD2D  1525 0001:0000FD3F  1526 0001:0000FD51
  1527 0001:0000FD63  1528 0001:0000FD75  1529 0001:0000FD87  1530 0001:0000FD99
  1531 0001:0000FDAB  1532 0001:0000FDBD  1533 0001:0000FDCF  1534 0001:0000FDE1
  1535 0001:0000FDF3  1536 0001:0000FE05  1537 0001:0000FE17  1538 0001:0000FE29
  1539 0001:0000FE3B  1540 0001:0000FE4D  1541 0001:0000FE5F  1542 0001:0000FE71
  1543 0001:0000FE83  1544 0001:0000FE95  1545 0001:0000FEA7  1546 0001:0000FEB9
  1547 0001:0000FECB  1548 0001:0000FEDD  1549 0001:0000FEEF  1550 0001:0000FF01
  1551 0001:0000FF13  1552 0001:0000FF25  1553 0001:0000FF37  1554 0001:0000FF49
  1555 0001:0000FF5B  1556 0001:0000FF6D  1557 0001:0000FF7F  1558 0001:0000FF91
  1559 0001:0000FFA3  1560 0001:0000FFB5  1561 0001:0000FFC7  1562 0001:0000FFD9
  1563 0001:0000FFEB  1564 0001:0000FFFD  1565 0001:0001000F  1566 0001:00010021
  1567 0001:00010033  1568 0001:00010045  1569 0001:00010057  1570 0001:00010069
  1571 0001:0001007B  1572 0001:0001008D  1573 0001:0001009F  1574 0001:000100B1
  1575 0001:000100C3  1576 0001:000100D5  1577 0001:000100E7  1578 0001:000100F9
  1579 0001:0001010B  1580 0001:0001011D  1581 0001:0001012F  1582 0001:00010141
  1583 0001:00010153  1584 0001:00010165  1585 0001:00010177  1586 0001:00010189
  1587 0001:0001019B  1588 0001:000101AD  1589 0001:000101BF  1590 0001:000101D1
  1591 0001:000101E3  1592 0001:000101F5  1593 0001:00010207  1594 0001:00010219
  1595 0001:0001022B  1596 0001:0001023D  1597 0001:0001024F  1598 0001:00010261
  1599 0001:00010273  1600 0001:00010285  1601 0001:00010297  1602 0001:000102A9
  1603 0001:000102BB  1604 0001:000102CD  1605 0001:000102DF  1606 0001:000102F1
  1607 0001:00010303  1608 0001:00010315  1609 0001:00010327  1610 0001:00010339
  1611 0001:0001034B  1612 0001:0001035D  1613 0001:0001036F  1614 0001:00010381
  1615 0001:00010393  1616 0001:000103A5  1617 0001:000103B7  1618 0001:000103C9
  1619 0001:000103DB  1620 0001:000103ED  1621 0001:000103FF  1622 0001:00010411
  1623 0001:00010423  1624 0001:00010435  1625 0001:00010447  1626 0001:00010459
  1627 0001:0001046B  1628 0001:0001047D  1629 0001:0001048F  1630 0001:000104A1
  1631 0001:000104B3  1632 0001:000104C5  1633 0001:000104D7  1634 0001:000104E9
  1635 0001:000104FB  1636 0001:0001050D  1637 0001:0001051F  1638 0001:00010531
  1639 0001:00010543  1640 0001:00010555  1641 0001:00010567  1642 0001:00010579
  1643 0001:0001058B  1644 0001:0001059D  1645 0001:000105AF  1646 0001:000105C1
  1647 0001:000105D3  1648 0001:000105E5  1649 0001:000105F7  1650 0001:00010609
  1651 0001:0001061B  1652 0001:0001062D  1653 0001:0001063F  1654 0001:00010651
  1655 0001:00010663  1656 0001:00010675  1657 0001:00010687  1658 0001:00010699
  1659 0001:000106AB  1660 0001:000106BD  1661 0001:000106CE  1664 0001:00012014
  1665 0001:00012020  1666 0001:0001202D  1669 0001:00012044  1670 0001:00012050
  1671 0001:0001205D  1674 0001:00012074  1675 0001:00012080  1676 0001:0001208D
  1679 0001:000120A4  1680 0001:000120B0  1681 0001:000120B9  1683 0001:000120C8
  1684 0001:000120D3  1687 0001:000120FC  1688 0001:00012105  1689 0001:00012109
  1692 0001:00012110  1693 0001:00012119  1694 0001:0001211D  1697 0001:00012124
  1698 0001:0001212D  1699 0001:00012131  1702 0001:00012138  1703 0001:00012158
  1704 0001:00012163  1705 0001:00012189  1711 0001:000121F0  1712 0001:000121FF
  1713 0001:00012219  1715 0001:00012231  1716 0001:0001223D  1717 0001:0001224F
  1718 0001:00012259  1713 0001:0001225C  1719 0001:00012261  1720 0001:00012273
  1726 0001:000122A0  1727 0001:000122BF  1728 0001:000122C6  1729 0001:000122CF
  1730 0001:000122D6  1731 0001:000122EE  1732 0001:00012322  1733 0001:00012357
  1734 0001:0001238C  1735 0001:000123C1  1736 0001:000123F6  1737 0001:0001242B
  1738 0001:00012460  1739 0001:00012498  1740 0001:000124D0  1741 0001:0001250B
  1742 0001:00012546  1743 0001:00012581  1744 0001:000125BC  1745 0001:000125F7
  1746 0001:00012638  1747 0001:00012679  1748 0001:000126BA  1749 0001:00012700
  1750 0001:00012746  1751 0001:0001278C  1752 0001:000127CC  1753 0001:0001280C
  1754 0001:0001284C  1755 0001:00012889  1756 0001:000128C4  1757 0001:000128FF
  1758 0001:0001293A  1759 0001:00012972  1760 0001:000129AA  1761 0001:000129ED
  1762 0001:00012A2D  1763 0001:00012A68  1764 0001:00012A79  1773 0001:00013004
  1774 0001:0001300D  1775 0001:00013015  1780 0001:0001301C  1781 0001:00013028
  1782 0001:00013035  1785 0001:0001307C  1786 0001:0001309B  1787 0001:000130A6
  1788 0001:000130CC  1789 0001:000130F2  1790 0001:00013118  1793 0001:000131E8
  1794 0001:000131F4  1800 0001:00013201  1803 0001:000137C0  1804 0001:000137CC
  1809 0001:000137D9  1814 0001:00013CB8  1815 0001:00013CD7  1816 0001:00013CE2
  1817 0001:00013CF1  1823 0001:00013D00  1833 0001:00013D0D  1838 0001:00014924
  1839 0001:00014943  1840 0001:0001494E  1841 0001:0001495D  1847 0001:0001496C
  1857 0001:00014979  1862 0001:000157B0  1863 0001:000157CF  1864 0001:000157EA
  1865 0001:000157F7  1866 0001:00015807  1867 0001:00015817  1868 0001:00015827
  1869 0001:00015837  1870 0001:00015847  1871 0001:00015857  1872 0001:00015867
  1873 0001:00015877  1874 0001:00015887  1875 0001:00015897  1876 0001:000158A7
  1877 0001:000158B7  1878 0001:000158C7  1879 0001:000158D7  1880 0001:000158E7
  1881 0001:000158F7  1882 0001:00015907  1883 0001:00015917  1884 0001:00015927
  1885 0001:00015937  1886 0001:00015947  1887 0001:00015957  1888 0001:00015967
  1889 0001:00015977  1890 0001:00015987  1891 0001:00015997  1892 0001:000159A7
  1893 0001:000159B7  1894 0001:000159C7  1895 0001:000159D7  1896 0001:000159E7
  1897 0001:000159F9  1898 0001:00015A0B  1899 0001:00015A1D  1900 0001:00015A2F
  1901 0001:00015A41  1902 0001:00015A53  1903 0001:00015A65  1904 0001:00015A77
  1905 0001:00015A89  1906 0001:00015A9B  1907 0001:00015AAD  1908 0001:00015ABF
  1909 0001:00015AD1  1910 0001:00015AE3  1911 0001:00015AF5  1912 0001:00015B07
  1913 0001:00015B19  1914 0001:00015B2B  1915 0001:00015B3D  1916 0001:00015B4F
  1917 0001:00015B61  1918 0001:00015B73  1919 0001:00015B85  1920 0001:00015B97
  1921 0001:00015BA9  1922 0001:00015BBB  1923 0001:00015BCD  1924 0001:00015BDF
  1925 0001:00015BF1  1926 0001:00015C03  1927 0001:00015C15  1928 0001:00015C27
  1929 0001:00015C39  1930 0001:00015C4B  1931 0001:00015C5D  1932 0001:00015C6F
  1933 0001:00015C81  1934 0001:00015C93  1935 0001:00015CA5  1936 0001:00015CB7
  1937 0001:00015CC9  1938 0001:00015CDB  1939 0001:00015CED  1940 0001:00015CFF
  1941 0001:00015D11  1942 0001:00015D23  1943 0001:00015D35  1944 0001:00015D47
  1945 0001:00015D59  1946 0001:00015D6B  1947 0001:00015D7D  1948 0001:00015D8F
  1949 0001:00015DA1  1950 0001:00015DB3  1951 0001:00015DC5  1952 0001:00015DD7
  1953 0001:00015DE9  1954 0001:00015DFB  1955 0001:00015E0D  1956 0001:00015E1F
  1957 0001:00015E31  1958 0001:00015E43  1959 0001:00015E55  1960 0001:00015E67
  1961 0001:00015E79  1962 0001:00015E8B  1963 0001:00015E9D  1964 0001:00015EAF
  1965 0001:00015EC1  1966 0001:00015ED3  1967 0001:00015EE5  1968 0001:00015EF7
  1969 0001:00015F09  1970 0001:00015F1B  1971 0001:00015F2D  1972 0001:00015F3F
  1973 0001:00015F51  1974 0001:00015F63  1975 0001:00015F75  1976 0001:00015F87
  1977 0001:00015F99  1978 0001:00015FAB  1979 0001:00015FBD  1980 0001:00015FCF
  1981 0001:00015FE1  1982 0001:00015FF3  1983 0001:00016005  1984 0001:00016017
  1985 0001:00016029  1986 0001:0001603B  1987 0001:0001604D  1988 0001:0001605F
  1989 0001:00016071  1990 0001:00016083  1991 0001:00016095  1992 0001:000160A7
  1993 0001:000160B9  1994 0001:000160CB  1995 0001:000160DD  1996 0001:000160EF
  1997 0001:00016101  1998 0001:00016113  1999 0001:00016125  2000 0001:00016137
  2001 0001:00016149  2002 0001:0001615B  2003 0001:0001616D  2004 0001:0001617F
  2005 0001:00016191  2006 0001:000161A3  2007 0001:000161B5  2008 0001:000161C7
  2009 0001:000161D9  2010 0001:000161EB  2011 0001:000161FD  2012 0001:0001620F
  2013 0001:00016221  2014 0001:00016233  2015 0001:00016245  2016 0001:00016257
  2017 0001:00016269  2018 0001:0001627B  2019 0001:0001628D  2020 0001:0001629F
  2021 0001:000162B1  2022 0001:000162C3  2023 0001:000162D5  2024 0001:000162E7
  2025 0001:000162F9  2026 0001:0001630B  2027 0001:0001631D  2028 0001:0001632F
  2029 0001:00016341  2030 0001:00016353  2031 0001:00016365  2032 0001:00016377
  2033 0001:00016389  2034 0001:0001639B  2035 0001:000163AD  2036 0001:000163BF
  2037 0001:000163D1  2038 0001:000163E3  2039 0001:000163F5  2040 0001:00016407
  2041 0001:00016419  2042 0001:0001642B  2043 0001:0001643D  2044 0001:0001644F
  2045 0001:00016461  2046 0001:00016473  2047 0001:00016485  2048 0001:00016497
  2049 0001:000164A9  2050 0001:000164BB  2051 0001:000164CD  2052 0001:000164DF
  2053 0001:000164F1  2054 0001:00016503  2055 0001:00016515  2056 0001:00016527
  2057 0001:00016539  2058 0001:0001654B  2059 0001:0001655D  2060 0001:0001656F
  2061 0001:00016581  2062 0001:00016593  2063 0001:000165A5  2064 0001:000165B7
  2065 0001:000165C9  2066 0001:000165DB  2067 0001:000165ED  2068 0001:000165FF
  2069 0001:00016611  2070 0001:00016623  2071 0001:00016635  2072 0001:00016647
  2073 0001:00016659  2074 0001:0001666B  2075 0001:0001667D  2076 0001:0001668F
  2077 0001:000166A1  2078 0001:000166B3  2079 0001:000166C5  2080 0001:000166D7
  2081 0001:000166E9  2082 0001:000166FB  2083 0001:0001670D  2084 0001:0001671F
  2085 0001:00016731  2086 0001:00016743  2087 0001:00016755  2088 0001:00016766
  2091 0001:00017F78  2092 0001:00017F84  2093 0001:00017F8D  2095 0001:00017F9C
  2096 0001:00017FA7  2099 0001:00017FC4  2100 0001:00017FD0  2101 0001:00017FD9
  2103 0001:00017FE8  2104 0001:00017FF3  2107 0001:00018010  2108 0001:0001801C
  2109 0001:00018025  2111 0001:00018034  2112 0001:0001803F  2115 0001:0001805C
  2116 0001:00018068  2117 0001:00018071  2119 0001:00018080  2120 0001:0001808B
  2125 0001:000180A8  2126 0001:000180C7  2127 0001:000180DF  2128 0001:00018113
  2129 0001:00018151  2130 0001:00018186  2131 0001:0001818F  2133 0001:000181D2
  2134 0001:00018213  2135 0001:00018257  2136 0001:00018292  2137 0001:000182CA
  2138 0001:000182FF  2139 0001:00018337  2140 0001:0001836C  2141 0001:000183A7
  2142 0001:000183B0  2144 0001:000183ED  2145 0001:00018428  2146 0001:00018466
  2147 0001:0001849E  2148 0001:000184D3  2149 0001:0001850E  2150 0001:00018549
  2151 0001:0001857E  2152 0001:000185BC  2153 0001:000185C5  2155 0001:00018608
  2156 0001:00018649  2157 0001:0001868D  2158 0001:000186C8  2159 0001:00018706
  2160 0001:00018717  2169 0001:00018C64  2170 0001:00018C6D  2171 0001:00018C75
  2176 0001:00018C7C  2177 0001:00018C88  2178 0001:00018C95  2181 0001:00018CCC
  2182 0001:00018CD8  2188 0001:00018CE5  2191 0001:00019050  2192 0001:0001905C
  2197 0001:00019069  2200 0001:00019608  2201 0001:00019614  2206 0001:00019621
  2209 0001:00019980  2210 0001:0001998C  2215 0001:00019999  2220 0001:00019E74
  2221 0001:00019E93  2222 0001:00019EAE  2223 0001:00019EBB  2224 0001:00019ECB
  2225 0001:00019EDB  2226 0001:00019EEB  2227 0001:00019EFB  2228 0001:00019F0B
  2229 0001:00019F1B  2230 0001:00019F2B  2231 0001:00019F3B  2232 0001:00019F4B
  2233 0001:00019F5B  2234 0001:00019F6B  2235 0001:00019F7B  2236 0001:00019F8B
  2237 0001:00019F9B  2238 0001:00019FAB  2239 0001:00019FBB  2240 0001:00019FCB
  2241 0001:00019FDB  2242 0001:00019FEB  2243 0001:00019FFB  2244 0001:0001A00B
  2245 0001:0001A01B  2246 0001:0001A02B  2247 0001:0001A03B  2248 0001:0001A04B
  2249 0001:0001A05B  2250 0001:0001A06B  2251 0001:0001A07B  2252 0001:0001A08B
  2253 0001:0001A09B  2254 0001:0001A0AB  2255 0001:0001A0BD  2256 0001:0001A0CF
  2257 0001:0001A0E1  2258 0001:0001A0F3  2259 0001:0001A105  2260 0001:0001A117
  2261 0001:0001A129  2262 0001:0001A13B  2263 0001:0001A14D  2264 0001:0001A15F
  2265 0001:0001A171  2266 0001:0001A183  2267 0001:0001A195  2268 0001:0001A1A7
  2269 0001:0001A1B9  2270 0001:0001A1CB  2271 0001:0001A1DD  2272 0001:0001A1EF
  2273 0001:0001A201  2274 0001:0001A213  2275 0001:0001A225  2276 0001:0001A237
  2277 0001:0001A249  2278 0001:0001A25B  2279 0001:0001A26D  2280 0001:0001A27F
  2281 0001:0001A291  2282 0001:0001A2A3  2283 0001:0001A2B5  2284 0001:0001A2C7
  2285 0001:0001A2D9  2286 0001:0001A2EB  2287 0001:0001A2FD  2288 0001:0001A30F
  2289 0001:0001A321  2290 0001:0001A333  2291 0001:0001A345  2292 0001:0001A357
  2293 0001:0001A369  2294 0001:0001A37B  2295 0001:0001A38D  2296 0001:0001A39F
  2297 0001:0001A3B1  2298 0001:0001A3C3  2299 0001:0001A3D5  2300 0001:0001A3E7
  2301 0001:0001A3F9  2302 0001:0001A40B  2303 0001:0001A41D  2304 0001:0001A42F
  2305 0001:0001A441  2306 0001:0001A453  2307 0001:0001A465  2308 0001:0001A477
  2309 0001:0001A489  2310 0001:0001A49B  2311 0001:0001A4AD  2312 0001:0001A4BF
  2313 0001:0001A4D1  2314 0001:0001A4E3  2315 0001:0001A4F5  2316 0001:0001A507
  2317 0001:0001A519  2318 0001:0001A52B  2319 0001:0001A53D  2320 0001:0001A54F
  2321 0001:0001A561  2322 0001:0001A573  2323 0001:0001A585  2324 0001:0001A597
  2325 0001:0001A5A9  2326 0001:0001A5BB  2327 0001:0001A5CD  2328 0001:0001A5DF
  2329 0001:0001A5F1  2330 0001:0001A603  2331 0001:0001A615  2332 0001:0001A627
  2333 0001:0001A639  2334 0001:0001A64B  2335 0001:0001A65D  2336 0001:0001A66F
  2337 0001:0001A681  2338 0001:0001A693  2339 0001:0001A6A5  2340 0001:0001A6B7
  2341 0001:0001A6C9  2342 0001:0001A6DB  2343 0001:0001A6ED  2344 0001:0001A6FF
  2345 0001:0001A711  2346 0001:0001A723  2347 0001:0001A735  2348 0001:0001A747
  2349 0001:0001A759  2350 0001:0001A76B  2351 0001:0001A77D  2352 0001:0001A78F
  2353 0001:0001A7A1  2354 0001:0001A7B3  2355 0001:0001A7C5  2356 0001:0001A7D7
  2357 0001:0001A7E9  2358 0001:0001A7FB  2359 0001:0001A80D  2360 0001:0001A81F
  2361 0001:0001A831  2362 0001:0001A843  2363 0001:0001A855  2364 0001:0001A867
  2365 0001:0001A879  2366 0001:0001A88B  2367 0001:0001A89D  2368 0001:0001A8AF
  2369 0001:0001A8C1  2370 0001:0001A8D3  2371 0001:0001A8E5  2372 0001:0001A8F7
  2373 0001:0001A909  2374 0001:0001A91B  2375 0001:0001A92D  2376 0001:0001A93F
  2377 0001:0001A951  2378 0001:0001A963  2379 0001:0001A975  2380 0001:0001A987
  2381 0001:0001A999  2382 0001:0001A9AB  2383 0001:0001A9BD  2384 0001:0001A9CF
  2385 0001:0001A9E1  2386 0001:0001A9F3  2387 0001:0001AA05  2388 0001:0001AA17
  2389 0001:0001AA29  2390 0001:0001AA3B  2391 0001:0001AA4D  2392 0001:0001AA5F
  2393 0001:0001AA71  2394 0001:0001AA83  2395 0001:0001AA95  2396 0001:0001AAA7
  2397 0001:0001AAB9  2398 0001:0001AACB  2399 0001:0001AADD  2400 0001:0001AAEF
  2401 0001:0001AB01  2402 0001:0001AB13  2403 0001:0001AB25  2404 0001:0001AB37
  2405 0001:0001AB49  2406 0001:0001AB5B  2407 0001:0001AB6D  2408 0001:0001AB7F
  2409 0001:0001AB91  2410 0001:0001ABA3  2411 0001:0001ABB5  2412 0001:0001ABC7
  2413 0001:0001ABD9  2414 0001:0001ABEB  2415 0001:0001ABFD  2416 0001:0001AC0F
  2417 0001:0001AC21  2418 0001:0001AC33  2419 0001:0001AC45  2420 0001:0001AC57
  2421 0001:0001AC69  2422 0001:0001AC7B  2423 0001:0001AC8D  2424 0001:0001AC9F
  2425 0001:0001ACB1  2426 0001:0001ACC3  2427 0001:0001ACD5  2428 0001:0001ACE7
  2429 0001:0001ACF9  2430 0001:0001AD0B  2431 0001:0001AD1D  2432 0001:0001AD2F
  2433 0001:0001AD41  2434 0001:0001AD53  2435 0001:0001AD65  2436 0001:0001AD77
  2437 0001:0001AD89  2438 0001:0001AD9B  2439 0001:0001ADAD  2440 0001:0001ADBF
  2441 0001:0001ADD1  2442 0001:0001ADE3  2443 0001:0001ADF5  2444 0001:0001AE07
  2445 0001:0001AE19  2446 0001:0001AE2B  2447 0001:0001AE3D  2448 0001:0001AE4F
  2449 0001:0001AE61  2450 0001:0001AE73  2451 0001:0001AE85  2452 0001:0001AE97
  2453 0001:0001AEA9  2454 0001:0001AEBB  2455 0001:0001AECD  2456 0001:0001AEDF
  2457 0001:0001AEF1  2458 0001:0001AF03  2459 0001:0001AF15  2460 0001:0001AF27
  2461 0001:0001AF39  2462 0001:0001AF4B  2463 0001:0001AF5D  2464 0001:0001AF6F
  2465 0001:0001AF81  2466 0001:0001AF93  2467 0001:0001AFA5  2468 0001:0001AFB7
  2469 0001:0001AFC9  2470 0001:0001AFDB  2471 0001:0001AFED  2472 0001:0001AFFF
  2473 0001:0001B011  2474 0001:0001B023  2475 0001:0001B035  2476 0001:0001B047
  2477 0001:0001B059  2478 0001:0001B06B  2479 0001:0001B07D  2480 0001:0001B08F
  2481 0001:0001B0A1  2482 0001:0001B0B3  2483 0001:0001B0C5  2484 0001:0001B0D7
  2485 0001:0001B0E9  2486 0001:0001B0FB  2487 0001:0001B10D  2488 0001:0001B11F
  2489 0001:0001B131  2490 0001:0001B143  2491 0001:0001B155  2492 0001:0001B167
  2493 0001:0001B179  2494 0001:0001B18B  2495 0001:0001B19D  2496 0001:0001B1AF
  2497 0001:0001B1C1  2498 0001:0001B1D3  2499 0001:0001B1E5  2500 0001:0001B1F7
  2501 0001:0001B209  2502 0001:0001B21B  2503 0001:0001B22D  2504 0001:0001B23F
  2505 0001:0001B251  2506 0001:0001B263  2507 0001:0001B275  2508 0001:0001B287
  2509 0001:0001B299  2510 0001:0001B2AB  2511 0001:0001B2BD  2512 0001:0001B2CF
  2513 0001:0001B2E1  2514 0001:0001B2F3  2515 0001:0001B305  2516 0001:0001B317
  2517 0001:0001B329  2518 0001:0001B33B  2519 0001:0001B34D  2520 0001:0001B35F
  2521 0001:0001B371  2522 0001:0001B383  2523 0001:0001B395  2524 0001:0001B3A7
  2525 0001:0001B3B9  2526 0001:0001B3CB  2527 0001:0001B3DD  2528 0001:0001B3EF
  2529 0001:0001B401  2530 0001:0001B413  2531 0001:0001B425  2532 0001:0001B437
  2533 0001:0001B449  2534 0001:0001B45B  2535 0001:0001B46D  2536 0001:0001B47F
  2537 0001:0001B491  2538 0001:0001B4A3  2539 0001:0001B4B5  2540 0001:0001B4C7
  2541 0001:0001B4D9  2542 0001:0001B4EB  2543 0001:0001B4FD  2544 0001:0001B50F
  2545 0001:0001B520  2548 0001:0001D8F0  2549 0001:0001D8FC  2550 0001:0001D905
  2552 0001:0001D914  2553 0001:0001D91F  2556 0001:0001D934  2557 0001:0001D940
  2558 0001:0001D949  2560 0001:0001D958  2561 0001:0001D963  2564 0001:0001D978
  2565 0001:0001D984  2566 0001:0001D98D  2568 0001:0001D99C  2569 0001:0001D9A7
  2579 0001:0001D9BC  2580 0001:0001D9DB  2581 0001:0001D9F3  2582 0001:0001DA33
  2583 0001:0001DA74  2584 0001:0001DAA9  2585 0001:0001DAED  2586 0001:0001DB31
  2587 0001:0001DB6C  2588 0001:0001DBA4  2589 0001:0001DBD9  2590 0001:0001DC11
  2591 0001:0001DC46  2592 0001:0001DC7B  2593 0001:0001DCB3  2594 0001:0001DCF7
  2595 0001:0001DD3B  2596 0001:0001DD7F  2597 0001:0001DDC3  2598 0001:0001DDF8
  2599 0001:0001DE33  2600 0001:0001DE68  2601 0001:0001DE9D  2602 0001:0001DED8
  2603 0001:0001DF13  2604 0001:0001DF54  2605 0001:0001DF8C  2606 0001:0001DFC1
  2607 0001:0001E002  2608 0001:0001E043  2609 0001:0001E087  2610 0001:0001E0CB
  2611 0001:0001E0DC  2620 0001:0001E60C  2621 0001:0001E615  2622 0001:0001E61D
  2627 0001:0001E624  2628 0001:0001E630  2629 0001:0001E63D  2632 0001:0001E658
  2633 0001:0001E664  2639 0001:0001E671  2642 0001:0001EC0C  2643 0001:0001EC18
  2647 0001:0001EC25  2650 0001:0001EF9C  2651 0001:0001EFA8  2655 0001:0001EFB5
  2658 0001:0001F348  2659 0001:0001F354  2664 0001:0001F361  2669 0001:0001F7B0
  2670 0001:0001F7CF  2671 0001:0001F7EA  2672 0001:0001F7F7  2673 0001:0001F807
  2674 0001:0001F817  2675 0001:0001F827  2676 0001:0001F837  2677 0001:0001F847
  2678 0001:0001F857  2679 0001:0001F867  2680 0001:0001F877  2681 0001:0001F887
  2682 0001:0001F897  2683 0001:0001F8A7  2684 0001:0001F8B7  2685 0001:0001F8C7
  2686 0001:0001F8D7  2687 0001:0001F8E7  2688 0001:0001F8F7  2689 0001:0001F907
  2690 0001:0001F917  2691 0001:0001F927  2692 0001:0001F937  2693 0001:0001F947
  2694 0001:0001F957  2695 0001:0001F967  2696 0001:0001F977  2697 0001:0001F987
  2698 0001:0001F997  2699 0001:0001F9A7  2700 0001:0001F9B7  2701 0001:0001F9C7
  2702 0001:0001F9D7  2703 0001:0001F9E7  2704 0001:0001F9F9  2705 0001:0001FA0B
  2706 0001:0001FA1D  2707 0001:0001FA2F  2708 0001:0001FA41  2709 0001:0001FA53
  2710 0001:0001FA65  2711 0001:0001FA77  2712 0001:0001FA89  2713 0001:0001FA9B
  2714 0001:0001FAAD  2715 0001:0001FABF  2716 0001:0001FAD1  2717 0001:0001FAE3
  2718 0001:0001FAF5  2719 0001:0001FB07  2720 0001:0001FB19  2721 0001:0001FB2B
  2722 0001:0001FB3D  2723 0001:0001FB4F  2724 0001:0001FB61  2725 0001:0001FB73
  2726 0001:0001FB85  2727 0001:0001FB97  2728 0001:0001FBA9  2729 0001:0001FBBB
  2730 0001:0001FBCD  2731 0001:0001FBDF  2732 0001:0001FBF1  2733 0001:0001FC03
  2734 0001:0001FC15  2735 0001:0001FC27  2736 0001:0001FC39  2737 0001:0001FC4B
  2738 0001:0001FC5D  2739 0001:0001FC6F  2740 0001:0001FC81  2741 0001:0001FC93
  2742 0001:0001FCA5  2743 0001:0001FCB7  2744 0001:0001FCC9  2745 0001:0001FCDB
  2746 0001:0001FCED  2747 0001:0001FCFF  2748 0001:0001FD11  2749 0001:0001FD23
  2750 0001:0001FD35  2751 0001:0001FD47  2752 0001:0001FD59  2753 0001:0001FD6B
  2754 0001:0001FD7D  2755 0001:0001FD8F  2756 0001:0001FDA1  2757 0001:0001FDB3
  2758 0001:0001FDC5  2759 0001:0001FDD7  2760 0001:0001FDE9  2761 0001:0001FDFB
  2762 0001:0001FE0D  2763 0001:0001FE1F  2764 0001:0001FE31  2765 0001:0001FE43
  2766 0001:0001FE55  2767 0001:0001FE67  2768 0001:0001FE79  2769 0001:0001FE8B
  2770 0001:0001FE9D  2771 0001:0001FEAF  2772 0001:0001FEC1  2773 0001:0001FED3
  2774 0001:0001FEE5  2775 0001:0001FEF7  2776 0001:0001FF09  2777 0001:0001FF1B
  2778 0001:0001FF2D  2779 0001:0001FF3F  2780 0001:0001FF51  2781 0001:0001FF63
  2782 0001:0001FF75  2783 0001:0001FF87  2784 0001:0001FF99  2785 0001:0001FFAB
  2786 0001:0001FFBD  2787 0001:0001FFCF  2788 0001:0001FFE1  2789 0001:0001FFF3
  2790 0001:00020005  2791 0001:00020017  2792 0001:00020029  2793 0001:0002003B
  2794 0001:0002004D  2795 0001:0002005F  2796 0001:00020071  2797 0001:00020083
  2798 0001:00020095  2799 0001:000200A7  2800 0001:000200B9  2801 0001:000200CB
  2802 0001:000200DD  2803 0001:000200EF  2804 0001:00020101  2805 0001:00020113
  2806 0001:00020125  2807 0001:00020137  2808 0001:00020149  2809 0001:0002015B
  2810 0001:0002016D  2811 0001:0002017F  2812 0001:00020191  2813 0001:000201A3
  2814 0001:000201B5  2815 0001:000201C7  2816 0001:000201D9  2817 0001:000201EB
  2818 0001:000201FD  2819 0001:0002020F  2820 0001:00020221  2821 0001:00020233
  2822 0001:00020245  2823 0001:00020257  2824 0001:00020269  2825 0001:0002027B
  2826 0001:0002028D  2827 0001:0002029F  2828 0001:000202B1  2829 0001:000202C3
  2830 0001:000202D5  2831 0001:000202E7  2832 0001:000202F9  2833 0001:0002030B
  2834 0001:0002031D  2835 0001:0002032F  2836 0001:00020341  2837 0001:00020353
  2838 0001:00020365  2839 0001:00020377  2840 0001:00020389  2841 0001:0002039B
  2842 0001:000203AD  2843 0001:000203BF  2844 0001:000203D1  2845 0001:000203E3
  2846 0001:000203F5  2847 0001:00020407  2848 0001:00020419  2849 0001:0002042B
  2850 0001:0002043D  2851 0001:0002044F  2852 0001:00020461  2853 0001:00020473
  2854 0001:00020485  2855 0001:00020497  2856 0001:000204A9  2857 0001:000204BB
  2858 0001:000204CD  2859 0001:000204DF  2860 0001:000204F1  2861 0001:00020503
  2862 0001:00020515  2863 0001:00020527  2864 0001:00020539  2865 0001:0002054B
  2866 0001:0002055D  2867 0001:0002056F  2868 0001:00020581  2869 0001:00020593
  2870 0001:000205A5  2871 0001:000205B7  2872 0001:000205C9  2873 0001:000205DB
  2874 0001:000205ED  2875 0001:000205FF  2876 0001:00020611  2877 0001:00020623
  2878 0001:00020635  2879 0001:00020647  2880 0001:00020659  2881 0001:0002066B
  2882 0001:0002067D  2883 0001:0002068F  2884 0001:000206A1  2885 0001:000206B3
  2886 0001:000206C5  2887 0001:000206D7  2888 0001:000206E9  2889 0001:000206FB
  2890 0001:0002070D  2891 0001:0002071F  2892 0001:00020731  2893 0001:00020743
  2894 0001:00020755  2895 0001:00020767  2896 0001:00020779  2897 0001:0002078B
  2898 0001:0002079D  2899 0001:000207AF  2900 0001:000207C1  2901 0001:000207D3
  2902 0001:000207E5  2903 0001:000207F7  2904 0001:00020809  2905 0001:0002081B
  2906 0001:0002082D  2907 0001:0002083F  2908 0001:00020851  2909 0001:00020863
  2910 0001:00020875  2911 0001:00020887  2912 0001:00020899  2913 0001:000208AB
  2914 0001:000208BD  2915 0001:000208CF  2916 0001:000208E1  2917 0001:000208F3
  2918 0001:00020905  2919 0001:00020917  2920 0001:00020929  2921 0001:0002093B
  2922 0001:0002094D  2923 0001:0002095F  2924 0001:00020971  2925 0001:00020983
  2926 0001:00020995  2927 0001:000209A7  2928 0001:000209B9  2929 0001:000209CB
  2930 0001:000209DD  2931 0001:000209EF  2932 0001:00020A01  2933 0001:00020A13
  2934 0001:00020A25  2935 0001:00020A37  2936 0001:00020A49  2937 0001:00020A5B
  2938 0001:00020A6D  2939 0001:00020A7F  2940 0001:00020A91  2941 0001:00020AA3
  2942 0001:00020AB5  2943 0001:00020AC7  2944 0001:00020AD9  2945 0001:00020AEB
  2946 0001:00020AFD  2947 0001:00020B0F  2948 0001:00020B21  2949 0001:00020B33
  2950 0001:00020B45  2951 0001:00020B57  2952 0001:00020B69  2953 0001:00020B7B
  2954 0001:00020B8D  2955 0001:00020B9F  2956 0001:00020BB1  2957 0001:00020BC3
  2958 0001:00020BD5  2959 0001:00020BE7  2960 0001:00020BF9  2961 0001:00020C0B
  2962 0001:00020C1D  2963 0001:00020C2F  2964 0001:00020C41  2965 0001:00020C53
  2966 0001:00020C65  2967 0001:00020C77  2968 0001:00020C89  2969 0001:00020C9B
  2970 0001:00020CAD  2971 0001:00020CBF  2972 0001:00020CD1  2973 0001:00020CE3
  2974 0001:00020CF5  2975 0001:00020D07  2976 0001:00020D19  2977 0001:00020D2B
  2978 0001:00020D3D  2979 0001:00020D4F  2980 0001:00020D61  2981 0001:00020D73
  2982 0001:00020D84  2985 0001:00022F98  2986 0001:00022FA4  2987 0001:00022FAD
  2989 0001:00022FBC  2990 0001:00022FC7  2993 0001:00022FDC  2994 0001:00022FE8
  2995 0001:00022FF1  2997 0001:00023000  2998 0001:0002300B  3001 0001:00023020
  3002 0001:0002302C  3003 0001:00023035  3005 0001:00023044  3006 0001:0002304F
  3009 0001:00023064  3010 0001:00023070  3011 0001:0002307A  3016 0001:00023080
  3017 0001:0002309F  3018 0001:000230B7  3019 0001:000230EB  3020 0001:00023120
  3021 0001:00023155  3022 0001:0002318A  3023 0001:000231BF  3024 0001:000231F7
  3025 0001:00023238  3026 0001:00023279  3027 0001:000232B7  3028 0001:000232EF
  3029 0001:00023327  3030 0001:00023362  3031 0001:0002339D  3032 0001:000233D8
  3033 0001:000233E9  3042 0001:00023680  3043 0001:00023689  3044 0001:00023691
  3049 0001:00023698  3050 0001:000236A4  3051 0001:000236B1  3054 0001:000236F4
  3055 0001:00023705  3056 0001:00023710  3057 0001:0002371E  3060 0001:00023730
  3061 0001:0002373C  3067 0001:00023749  3070 0001:00023D10  3071 0001:00023D1C
  3076 0001:00023D29  3079 0001:00024164  3080 0001:00024170  3085 0001:0002417D
  3088 0001:00024604  3089 0001:00024610  3126 0001:0002461D  3131 0001:000257E0
  3132 0001:000257FF  3133 0001:0002581A  3134 0001:00025827  3135 0001:00025837
  3136 0001:00025847  3137 0001:00025857  3138 0001:00025867  3139 0001:00025877
  3140 0001:00025887  3141 0001:00025897  3142 0001:000258A7  3143 0001:000258B7
  3144 0001:000258C7  3145 0001:000258D7  3146 0001:000258E7  3147 0001:000258F7
  3148 0001:00025907  3149 0001:00025917  3150 0001:00025927  3151 0001:00025937
  3152 0001:00025947  3153 0001:00025957  3154 0001:00025967  3155 0001:00025977
  3156 0001:00025987  3157 0001:00025997  3158 0001:000259A7  3159 0001:000259B7
  3160 0001:000259C7  3161 0001:000259D7  3162 0001:000259E7  3163 0001:000259F7
  3164 0001:00025A07  3165 0001:00025A17  3166 0001:00025A29  3167 0001:00025A3B
  3168 0001:00025A4D  3169 0001:00025A5F  3170 0001:00025A71  3171 0001:00025A83
  3172 0001:00025A95  3173 0001:00025AA7  3174 0001:00025AB9  3175 0001:00025ACB
  3176 0001:00025ADD  3177 0001:00025AEF  3178 0001:00025B01  3179 0001:00025B13
  3180 0001:00025B25  3181 0001:00025B37  3182 0001:00025B49  3183 0001:00025B5B
  3184 0001:00025B6D  3185 0001:00025B7F  3186 0001:00025B91  3187 0001:00025BA3
  3188 0001:00025BB5  3189 0001:00025BC7  3190 0001:00025BD9  3191 0001:00025BEB
  3192 0001:00025BFD  3193 0001:00025C0F  3194 0001:00025C21  3195 0001:00025C33
  3196 0001:00025C45  3197 0001:00025C57  3198 0001:00025C69  3199 0001:00025C7B
  3200 0001:00025C8D  3201 0001:00025C9F  3202 0001:00025CB1  3203 0001:00025CC3
  3204 0001:00025CD5  3205 0001:00025CE7  3206 0001:00025CF9  3207 0001:00025D0B
  3208 0001:00025D1D  3209 0001:00025D2F  3210 0001:00025D41  3211 0001:00025D53
  3212 0001:00025D65  3213 0001:00025D77  3214 0001:00025D89  3215 0001:00025D9B
  3216 0001:00025DAD  3217 0001:00025DBF  3218 0001:00025DD1  3219 0001:00025DE3
  3220 0001:00025DF5  3221 0001:00025E07  3222 0001:00025E19  3223 0001:00025E2B
  3224 0001:00025E3D  3225 0001:00025E4F  3226 0001:00025E61  3227 0001:00025E73
  3228 0001:00025E85  3229 0001:00025E97  3230 0001:00025EA9  3231 0001:00025EBB
  3232 0001:00025ECD  3233 0001:00025EDF  3234 0001:00025EF1  3235 0001:00025F03
  3236 0001:00025F15  3237 0001:00025F27  3238 0001:00025F39  3239 0001:00025F4B
  3240 0001:00025F5D  3241 0001:00025F6F  3242 0001:00025F81  3243 0001:00025F93
  3244 0001:00025FA5  3245 0001:00025FB7  3246 0001:00025FC9  3247 0001:00025FDB
  3248 0001:00025FED  3249 0001:00025FFF  3250 0001:00026011  3251 0001:00026023
  3252 0001:00026035  3253 0001:00026047  3254 0001:00026059  3255 0001:0002606B
  3256 0001:0002607D  3257 0001:0002608F  3258 0001:000260A1  3259 0001:000260B3
  3260 0001:000260C5  3261 0001:000260D7  3262 0001:000260E9  3263 0001:000260FB
  3264 0001:0002610D  3265 0001:0002611F  3266 0001:00026131  3267 0001:00026143
  3268 0001:00026155  3269 0001:00026167  3270 0001:00026179  3271 0001:0002618B
  3272 0001:0002619D  3273 0001:000261AF  3274 0001:000261C1  3275 0001:000261D3
  3276 0001:000261E5  3277 0001:000261F7  3278 0001:00026209  3279 0001:0002621B
  3280 0001:0002622D  3281 0001:0002623F  3282 0001:00026251  3283 0001:00026263
  3284 0001:00026275  3285 0001:00026287  3286 0001:00026299  3287 0001:000262AB
  3288 0001:000262BD  3289 0001:000262CF  3290 0001:000262E1  3291 0001:000262F3
  3292 0001:00026305  3293 0001:00026317  3294 0001:00026329  3295 0001:0002633B
  3296 0001:0002634D  3297 0001:0002635F  3298 0001:00026371  3299 0001:00026383
  3300 0001:00026395  3301 0001:000263A7  3302 0001:000263B9  3303 0001:000263CB
  3304 0001:000263DD  3305 0001:000263EF  3306 0001:00026401  3307 0001:00026413
  3308 0001:00026425  3309 0001:00026437  3310 0001:00026449  3311 0001:0002645B
  3312 0001:0002646D  3313 0001:0002647F  3314 0001:00026491  3315 0001:000264A3
  3316 0001:000264B5  3317 0001:000264C7  3318 0001:000264D9  3319 0001:000264EB
  3320 0001:000264FD  3321 0001:0002650F  3322 0001:00026521  3323 0001:00026533
  3324 0001:00026545  3325 0001:00026557  3326 0001:00026569  3327 0001:0002657B
  3328 0001:0002658D  3329 0001:0002659F  3330 0001:000265B1  3331 0001:000265C3
  3332 0001:000265D5  3333 0001:000265E7  3334 0001:000265F9  3335 0001:0002660B
  3336 0001:0002661D  3337 0001:0002662F  3338 0001:00026641  3339 0001:00026653
  3340 0001:00026665  3341 0001:00026677  3342 0001:00026689  3343 0001:0002669B
  3344 0001:000266AD  3345 0001:000266BF  3346 0001:000266D1  3347 0001:000266E3
  3348 0001:000266F5  3349 0001:00026707  3350 0001:00026719  3351 0001:0002672B
  3352 0001:0002673D  3353 0001:0002674F  3354 0001:00026761  3355 0001:00026773
  3356 0001:00026785  3357 0001:00026797  3358 0001:000267A9  3359 0001:000267BB
  3360 0001:000267CD  3361 0001:000267DF  3362 0001:000267F1  3363 0001:00026803
  3364 0001:00026815  3365 0001:00026827  3366 0001:00026839  3367 0001:0002684B
  3368 0001:0002685D  3369 0001:0002686F  3370 0001:00026881  3371 0001:00026893
  3372 0001:000268A5  3373 0001:000268B7  3374 0001:000268C9  3375 0001:000268DB
  3376 0001:000268ED  3377 0001:000268FF  3378 0001:00026911  3379 0001:00026923
  3380 0001:00026935  3381 0001:00026947  3382 0001:00026959  3383 0001:0002696B
  3384 0001:0002697D  3385 0001:0002698F  3386 0001:000269A1  3387 0001:000269B3
  3388 0001:000269C5  3389 0001:000269D7  3390 0001:000269E9  3391 0001:000269FB
  3392 0001:00026A0D  3393 0001:00026A1F  3394 0001:00026A31  3395 0001:00026A43
  3396 0001:00026A55  3397 0001:00026A67  3398 0001:00026A79  3399 0001:00026A8B
  3400 0001:00026A9D  3401 0001:00026AAF  3402 0001:00026AC1  3403 0001:00026AD3
  3404 0001:00026AE5  3405 0001:00026AF7  3406 0001:00026B09  3407 0001:00026B1B
  3408 0001:00026B2D  3409 0001:00026B3F  3410 0001:00026B51  3411 0001:00026B63
  3412 0001:00026B75  3413 0001:00026B87  3414 0001:00026B99  3415 0001:00026BAB
  3416 0001:00026BBD  3417 0001:00026BCF  3418 0001:00026BE1  3419 0001:00026BF3
  3420 0001:00026C05  3421 0001:00026C17  3422 0001:00026C29  3423 0001:00026C3B
  3424 0001:00026C4D  3425 0001:00026C5F  3426 0001:00026C71  3427 0001:00026C83
  3428 0001:00026C95  3429 0001:00026CA7  3430 0001:00026CB9  3431 0001:00026CCB
  3432 0001:00026CDD  3433 0001:00026CEF  3434 0001:00026D01  3435 0001:00026D13
  3436 0001:00026D25  3437 0001:00026D37  3438 0001:00026D49  3439 0001:00026D5B
  3440 0001:00026D6D  3441 0001:00026D7F  3442 0001:00026D91  3443 0001:00026DA3
  3444 0001:00026DB5  3445 0001:00026DC7  3446 0001:00026DD9  3447 0001:00026DEB
  3448 0001:00026DFD  3449 0001:00026E0F  3450 0001:00026E21  3451 0001:00026E33
  3452 0001:00026E45  3453 0001:00026E57  3454 0001:00026E69  3455 0001:00026E7B
  3456 0001:00026E8D  3457 0001:00026E9F  3458 0001:00026EB1  3459 0001:00026EC3
  3460 0001:00026ED5  3461 0001:00026EE7  3462 0001:00026EF9  3463 0001:00026F0B
  3464 0001:00026F1D  3465 0001:00026F2F  3466 0001:00026F41  3467 0001:00026F53
  3468 0001:00026F65  3469 0001:00026F77  3470 0001:00026F89  3471 0001:00026F9B
  3472 0001:00026FAD  3473 0001:00026FBF  3474 0001:00026FD1  3475 0001:00026FE3
  3476 0001:00026FF5  3477 0001:00027007  3478 0001:00027019  3479 0001:0002702B
  3480 0001:0002703D  3481 0001:0002704F  3482 0001:00027061  3483 0001:00027073
  3484 0001:00027085  3485 0001:00027097  3486 0001:000270A9  3487 0001:000270BB
  3488 0001:000270CD  3489 0001:000270DF  3490 0001:000270F1  3491 0001:00027103
  3492 0001:00027115  3493 0001:00027127  3494 0001:00027139  3495 0001:0002714B
  3496 0001:0002715D  3497 0001:0002716F  3498 0001:00027181  3499 0001:00027193
  3500 0001:000271A5  3501 0001:000271B7  3502 0001:000271C9  3503 0001:000271DB
  3504 0001:000271ED  3505 0001:000271FF  3506 0001:00027211  3507 0001:00027223
  3508 0001:00027235  3509 0001:00027247  3510 0001:00027259  3511 0001:0002726B
  3512 0001:0002727D  3513 0001:0002728F  3514 0001:000272A1  3515 0001:000272B3
  3516 0001:000272C5  3517 0001:000272D7  3518 0001:000272E9  3519 0001:000272FB
  3520 0001:0002730D  3521 0001:0002731F  3522 0001:00027331  3523 0001:00027343
  3524 0001:00027355  3525 0001:00027367  3526 0001:00027379  3527 0001:0002738B
  3528 0001:0002739D  3529 0001:000273AF  3530 0001:000273C1  3531 0001:000273D3
  3532 0001:000273E5  3533 0001:000273F7  3534 0001:00027409  3535 0001:0002741B
  3536 0001:0002742D  3537 0001:0002743F  3538 0001:00027451  3539 0001:00027463
  3540 0001:00027475  3541 0001:00027487  3542 0001:00027499  3543 0001:000274AB
  3544 0001:000274BD  3545 0001:000274CF  3546 0001:000274E1  3547 0001:000274F3
  3548 0001:00027505  3549 0001:00027517  3550 0001:00027529  3551 0001:0002753B
  3552 0001:0002754D  3553 0001:0002755F  3554 0001:00027571  3555 0001:00027583
  3556 0001:00027595  3557 0001:000275A7  3558 0001:000275B9  3559 0001:000275CB
  3560 0001:000275DD  3561 0001:000275EF  3562 0001:00027601  3563 0001:00027613
  3564 0001:00027625  3565 0001:00027637  3566 0001:00027649  3567 0001:0002765B
  3568 0001:0002766D  3569 0001:0002767F  3570 0001:00027691  3571 0001:000276A3
  3572 0001:000276B5  3573 0001:000276C7  3574 0001:000276D9  3575 0001:000276EB
  3576 0001:000276FD  3577 0001:0002770F  3578 0001:00027721  3579 0001:00027733
  3580 0001:00027745  3581 0001:00027757  3582 0001:00027769  3583 0001:0002777B
  3584 0001:0002778D  3585 0001:0002779F  3586 0001:000277B1  3587 0001:000277C3
  3588 0001:000277D5  3589 0001:000277E7  3590 0001:000277F9  3591 0001:0002780B
  3592 0001:0002781D  3593 0001:0002782F  3594 0001:00027841  3595 0001:00027853
  3596 0001:00027865  3597 0001:00027877  3598 0001:00027889  3599 0001:0002789B
  3600 0001:000278AD  3601 0001:000278BF  3602 0001:000278D1  3603 0001:000278E3
  3604 0001:000278F5  3605 0001:00027907  3606 0001:00027919  3607 0001:0002792B
  3608 0001:0002793D  3609 0001:0002794F  3610 0001:00027961  3611 0001:00027973
  3612 0001:00027985  3613 0001:00027997  3614 0001:000279A9  3615 0001:000279BB
  3616 0001:000279CD  3617 0001:000279DF  3618 0001:000279F1  3619 0001:00027A03
  3620 0001:00027A15  3621 0001:00027A27  3622 0001:00027A39  3623 0001:00027A4B
  3624 0001:00027A5D  3625 0001:00027A6F  3626 0001:00027A81  3627 0001:00027A93
  3628 0001:00027AA5  3629 0001:00027AB7  3630 0001:00027AC9  3631 0001:00027ADB
  3632 0001:00027AED  3633 0001:00027AFF  3634 0001:00027B11  3635 0001:00027B23
  3636 0001:00027B35  3637 0001:00027B47  3638 0001:00027B59  3639 0001:00027B6B
  3640 0001:00027B7C  3643 0001:0002B3BC  3644 0001:0002B3C8  3645 0001:0002B3D1
  3647 0001:0002B3E0  3648 0001:0002B3EB  3651 0001:0002B400  3652 0001:0002B40C
  3653 0001:0002B415  3655 0001:0002B424  3656 0001:0002B42F  3659 0001:0002B444
  3660 0001:0002B450  3661 0001:0002B459  3663 0001:0002B468  3664 0001:0002B473
  3667 0001:0002B488  3668 0001:0002B494  3669 0001:0002B49D  3671 0001:0002B4AC
  3672 0001:0002B4B7  3675 0001:0002B4CC  3676 0001:0002B4D5  3677 0001:0002B4D9
  3682 0001:0002B4E0  3683 0001:0002B4FF  3685 0001:0002B50C  3686 0001:0002B524
  3687 0001:0002B55E  3688 0001:0002B599  3689 0001:0002B5D4  3690 0001:0002B60F
  3691 0001:0002B644  3692 0001:0002B679  3693 0001:0002B6AE  3694 0001:0002B6E3
  3695 0001:0002B718  3696 0001:0002B750  3697 0001:0002B785  3698 0001:0002B7BA
  3699 0001:0002B7F5  3701 0001:0002B82A  3702 0001:0002B862  3703 0001:0002B897
  3704 0001:0002B8CC  3705 0001:0002B907  3706 0001:0002B93C  3708 0001:0002B950
  3709 0001:0002B964  3716 0001:0002BD50  3717 0001:0002BD72  3718 0001:0002BD7D
  3719 0001:0002BD82  3721 0001:0002BD9D  3722 0001:0002BDAC  3723 0001:0002BDB4
  3719 0001:0002BDB7  3724 0001:0002BDBC  3725 0001:0002BDD6  3726 0001:0002BDDB
  3728 0001:0002BDF6  3730 0001:0002BE05  3731 0001:0002BE26  3733 0001:0002BE2E
  3726 0001:0002BE31  3734 0001:0002BE36  3735 0001:0002BE47  3744 0001:0002BE7C
  3745 0001:0002BE85  3746 0001:0002BE8D  3751 0001:0002BE94  3752 0001:0002BEA0
  3753 0001:0002BEAD  3756 0001:0002BFB8  3757 0001:0002BFC4  3758 0001:0002BFD1
  3761 0001:0002C074  3762 0001:0002C080  3763 0001:0002C08D  3766 0001:0002C124
  3767 0001:0002C130  3768 0001:0002C13D  3777 0001:0002C1F8  3778 0001:0002C201
  3779 0001:0002C209  3784 0001:0002C210  3785 0001:0002C21C  3786 0001:0002C229
  3789 0001:0002C250  3790 0001:0002C261  3791 0001:0002C26C  3792 0001:0002C27A
  3795 0001:0002C28C  3796 0001:0002C298  3801 0001:0002C2A5  3804 0001:0002C6C8
  3805 0001:0002C6D4  3810 0001:0002C6E1  3813 0001:0002CB88  3814 0001:0002CB94
  3818 0001:0002CBA1  3821 0001:0002CFEC  3822 0001:0002CFF8  3827 0001:0002D005
  3832 0001:0002D514  3833 0001:0002D533  3834 0001:0002D54E  3835 0001:0002D55B
  3836 0001:0002D56B  3837 0001:0002D57B  3838 0001:0002D58B  3839 0001:0002D59B
  3840 0001:0002D5AB  3841 0001:0002D5BB  3842 0001:0002D5CB  3843 0001:0002D5DB
  3844 0001:0002D5EB  3845 0001:0002D5FB  3846 0001:0002D60B  3847 0001:0002D61B
  3848 0001:0002D62B  3849 0001:0002D63B  3850 0001:0002D64B  3851 0001:0002D65B
  3852 0001:0002D66B  3853 0001:0002D67B  3854 0001:0002D68B  3855 0001:0002D69B
  3856 0001:0002D6AB  3857 0001:0002D6BB  3858 0001:0002D6CB  3859 0001:0002D6DB
  3860 0001:0002D6EB  3861 0001:0002D6FB  3862 0001:0002D70B  3863 0001:0002D71B
  3864 0001:0002D72B  3865 0001:0002D73B  3866 0001:0002D74B  3867 0001:0002D75D
  3868 0001:0002D76F  3869 0001:0002D781  3870 0001:0002D793  3871 0001:0002D7A5
  3872 0001:0002D7B7  3873 0001:0002D7C9  3874 0001:0002D7DB  3875 0001:0002D7ED
  3876 0001:0002D7FF  3877 0001:0002D811  3878 0001:0002D823  3879 0001:0002D835
  3880 0001:0002D847  3881 0001:0002D859  3882 0001:0002D86B  3883 0001:0002D87D
  3884 0001:0002D88F  3885 0001:0002D8A1  3886 0001:0002D8B3  3887 0001:0002D8C5
  3888 0001:0002D8D7  3889 0001:0002D8E9  3890 0001:0002D8FB  3891 0001:0002D90D
  3892 0001:0002D91F  3893 0001:0002D931  3894 0001:0002D943  3895 0001:0002D955
  3896 0001:0002D967  3897 0001:0002D979  3898 0001:0002D98B  3899 0001:0002D99D
  3900 0001:0002D9AF  3901 0001:0002D9C1  3902 0001:0002D9D3  3903 0001:0002D9E5
  3904 0001:0002D9F7  3905 0001:0002DA09  3906 0001:0002DA1B  3907 0001:0002DA2D
  3908 0001:0002DA3F  3909 0001:0002DA51  3910 0001:0002DA63  3911 0001:0002DA75
  3912 0001:0002DA87  3913 0001:0002DA99  3914 0001:0002DAAB  3915 0001:0002DABD
  3916 0001:0002DACF  3917 0001:0002DAE1  3918 0001:0002DAF3  3919 0001:0002DB05
  3920 0001:0002DB17  3921 0001:0002DB29  3922 0001:0002DB3B  3923 0001:0002DB4D
  3924 0001:0002DB5F  3925 0001:0002DB71  3926 0001:0002DB83  3927 0001:0002DB95
  3928 0001:0002DBA7  3929 0001:0002DBB9  3930 0001:0002DBCB  3931 0001:0002DBDD
  3932 0001:0002DBEF  3933 0001:0002DC01  3934 0001:0002DC13  3935 0001:0002DC25
  3936 0001:0002DC37  3937 0001:0002DC49  3938 0001:0002DC5B  3939 0001:0002DC6D
  3940 0001:0002DC7F  3941 0001:0002DC91  3942 0001:0002DCA3  3943 0001:0002DCB5
  3944 0001:0002DCC7  3945 0001:0002DCD9  3946 0001:0002DCEB  3947 0001:0002DCFD
  3948 0001:0002DD0F  3949 0001:0002DD21  3950 0001:0002DD33  3951 0001:0002DD45
  3952 0001:0002DD57  3953 0001:0002DD69  3954 0001:0002DD7B  3955 0001:0002DD8D
  3956 0001:0002DD9F  3957 0001:0002DDB1  3958 0001:0002DDC3  3959 0001:0002DDD5
  3960 0001:0002DDE7  3961 0001:0002DDF9  3962 0001:0002DE0B  3963 0001:0002DE1D
  3964 0001:0002DE2F  3965 0001:0002DE41  3966 0001:0002DE53  3967 0001:0002DE65
  3968 0001:0002DE77  3969 0001:0002DE89  3970 0001:0002DE9B  3971 0001:0002DEAD
  3972 0001:0002DEBF  3973 0001:0002DED1  3974 0001:0002DEE3  3975 0001:0002DEF5
  3976 0001:0002DF07  3977 0001:0002DF19  3978 0001:0002DF2B  3979 0001:0002DF3D
  3980 0001:0002DF4F  3981 0001:0002DF61  3982 0001:0002DF73  3983 0001:0002DF85
  3984 0001:0002DF97  3985 0001:0002DFA9  3986 0001:0002DFBB  3987 0001:0002DFCD
  3988 0001:0002DFDF  3989 0001:0002DFF1  3990 0001:0002E003  3991 0001:0002E015
  3992 0001:0002E027  3993 0001:0002E039  3994 0001:0002E04B  3995 0001:0002E05D
  3996 0001:0002E06F  3997 0001:0002E081  3998 0001:0002E093  3999 0001:0002E0A5
  4000 0001:0002E0B7  4001 0001:0002E0C9  4002 0001:0002E0DB  4003 0001:0002E0ED
  4004 0001:0002E0FF  4005 0001:0002E111  4006 0001:0002E123  4007 0001:0002E135
  4008 0001:0002E147  4009 0001:0002E159  4010 0001:0002E16B  4011 0001:0002E17D
  4012 0001:0002E18F  4013 0001:0002E1A1  4014 0001:0002E1B3  4015 0001:0002E1C5
  4016 0001:0002E1D7  4017 0001:0002E1E9  4018 0001:0002E1FB  4019 0001:0002E20D
  4020 0001:0002E21F  4021 0001:0002E231  4022 0001:0002E243  4023 0001:0002E255
  4024 0001:0002E267  4025 0001:0002E279  4026 0001:0002E28B  4027 0001:0002E29D
  4028 0001:0002E2AF  4029 0001:0002E2C1  4030 0001:0002E2D3  4031 0001:0002E2E5
  4032 0001:0002E2F7  4033 0001:0002E309  4034 0001:0002E31B  4035 0001:0002E32D
  4036 0001:0002E33F  4037 0001:0002E351  4038 0001:0002E363  4039 0001:0002E375
  4040 0001:0002E387  4041 0001:0002E399  4042 0001:0002E3AB  4043 0001:0002E3BD
  4044 0001:0002E3CF  4045 0001:0002E3E1  4046 0001:0002E3F3  4047 0001:0002E405
  4048 0001:0002E417  4049 0001:0002E429  4050 0001:0002E43B  4051 0001:0002E44D
  4052 0001:0002E45F  4053 0001:0002E471  4054 0001:0002E483  4055 0001:0002E495
  4056 0001:0002E4A7  4057 0001:0002E4B9  4058 0001:0002E4CB  4059 0001:0002E4DD
  4060 0001:0002E4EF  4061 0001:0002E501  4062 0001:0002E513  4063 0001:0002E525
  4064 0001:0002E537  4065 0001:0002E549  4066 0001:0002E55B  4067 0001:0002E56D
  4068 0001:0002E57F  4069 0001:0002E591  4070 0001:0002E5A3  4071 0001:0002E5B5
  4072 0001:0002E5C7  4073 0001:0002E5D9  4074 0001:0002E5EB  4075 0001:0002E5FD
  4076 0001:0002E60F  4077 0001:0002E621  4078 0001:0002E633  4079 0001:0002E645
  4080 0001:0002E657  4081 0001:0002E669  4082 0001:0002E67B  4083 0001:0002E68D
  4084 0001:0002E69F  4085 0001:0002E6B1  4086 0001:0002E6C3  4087 0001:0002E6D5
  4088 0001:0002E6E7  4089 0001:0002E6F9  4090 0001:0002E70B  4091 0001:0002E71D
  4092 0001:0002E72F  4093 0001:0002E741  4094 0001:0002E753  4095 0001:0002E765
  4096 0001:0002E777  4097 0001:0002E789  4098 0001:0002E79B  4099 0001:0002E7AD
  4100 0001:0002E7BF  4101 0001:0002E7D1  4102 0001:0002E7E3  4103 0001:0002E7F5
  4104 0001:0002E807  4105 0001:0002E819  4106 0001:0002E82B  4107 0001:0002E83D
  4108 0001:0002E84F  4109 0001:0002E861  4110 0001:0002E873  4111 0001:0002E885
  4112 0001:0002E897  4113 0001:0002E8A9  4114 0001:0002E8BB  4115 0001:0002E8CD
  4116 0001:0002E8DF  4117 0001:0002E8F1  4118 0001:0002E903  4119 0001:0002E915
  4120 0001:0002E927  4121 0001:0002E939  4122 0001:0002E94B  4123 0001:0002E95D
  4124 0001:0002E96E  4127 0001:00030984  4128 0001:0003098D  4129 0001:00030991
  4132 0001:00030998  4133 0001:000309B8  4134 0001:000309C3  4135 0001:000309E9
  4141 0001:00030A50  4142 0001:00030A6F  4144 0001:00030A7C  4145 0001:00030A94
  4146 0001:00030A9B  4147 0001:00030AA4  4148 0001:00030AAB  4149 0001:00030AE7
  4150 0001:00030B24  4151 0001:00030B59  4152 0001:00030B8E  4153 0001:00030BC6
  4154 0001:00030BFB  4155 0001:00030C33  4156 0001:00030C6B  4157 0001:00030CA6
  4158 0001:00030CE1  4159 0001:00030D1C  4160 0001:00030D5D  4161 0001:00030D92
  4163 0001:00030DA6  4164 0001:00030DBA  4170 0001:00031084  4171 0001:000310A6
  4172 0001:000310B1  4173 0001:000310D3  4174 0001:000310EB  4173 0001:0003110F
  4175 0001:00031114  4176 0001:00031125  4185 0001:0003115C  4186 0001:00031165
  4187 0001:0003116D  4192 0001:00031174  4193 0001:00031180  4194 0001:0003118D
  4197 0001:000311B4  4198 0001:000311C5  4199 0001:000311D0  4200 0001:000311DE
  4203 0001:000311F0  4204 0001:000311FC  4209 0001:00031209  4212 0001:0003162C
  4213 0001:00031638  4218 0001:00031645  4221 0001:00031AEC  4222 0001:00031AF8
  4226 0001:00031B05  4229 0001:00031F50  4230 0001:00031F5C  4235 0001:00031F69
  4240 0001:00032478  4241 0001:00032497  4242 0001:000324B2  4243 0001:000324BF
  4244 0001:000324CF  4245 0001:000324DF  4246 0001:000324EF  4247 0001:000324FF
  4248 0001:0003250F  4249 0001:0003251F  4250 0001:0003252F  4251 0001:0003253F
  4252 0001:0003254F  4253 0001:0003255F  4254 0001:0003256F  4255 0001:0003257F
  4256 0001:0003258F  4257 0001:0003259F  4258 0001:000325AF  4259 0001:000325BF
  4260 0001:000325CF  4261 0001:000325DF  4262 0001:000325EF  4263 0001:000325FF
  4264 0001:0003260F  4265 0001:0003261F  4266 0001:0003262F  4267 0001:0003263F
  4268 0001:0003264F  4269 0001:0003265F  4270 0001:0003266F  4271 0001:0003267F
  4272 0001:0003268F  4273 0001:0003269F  4274 0001:000326AF  4275 0001:000326C1
  4276 0001:000326D3  4277 0001:000326E5  4278 0001:000326F7  4279 0001:00032709
  4280 0001:0003271B  4281 0001:0003272D  4282 0001:0003273F  4283 0001:00032751
  4284 0001:00032763  4285 0001:00032775  4286 0001:00032787  4287 0001:00032799
  4288 0001:000327AB  4289 0001:000327BD  4290 0001:000327CF  4291 0001:000327E1
  4292 0001:000327F3  4293 0001:00032805  4294 0001:00032817  4295 0001:00032829
  4296 0001:0003283B  4297 0001:0003284D  4298 0001:0003285F  4299 0001:00032871
  4300 0001:00032883  4301 0001:00032895  4302 0001:000328A7  4303 0001:000328B9
  4304 0001:000328CB  4305 0001:000328DD  4306 0001:000328EF  4307 0001:00032901
  4308 0001:00032913  4309 0001:00032925  4310 0001:00032937  4311 0001:00032949
  4312 0001:0003295B  4313 0001:0003296D  4314 0001:0003297F  4315 0001:00032991
  4316 0001:000329A3  4317 0001:000329B5  4318 0001:000329C7  4319 0001:000329D9
  4320 0001:000329EB  4321 0001:000329FD  4322 0001:00032A0F  4323 0001:00032A21
  4324 0001:00032A33  4325 0001:00032A45  4326 0001:00032A57  4327 0001:00032A69
  4328 0001:00032A7B  4329 0001:00032A8D  4330 0001:00032A9F  4331 0001:00032AB1
  4332 0001:00032AC3  4333 0001:00032AD5  4334 0001:00032AE7  4335 0001:00032AF9
  4336 0001:00032B0B  4337 0001:00032B1D  4338 0001:00032B2F  4339 0001:00032B41
  4340 0001:00032B53  4341 0001:00032B65  4342 0001:00032B77  4343 0001:00032B89
  4344 0001:00032B9B  4345 0001:00032BAD  4346 0001:00032BBF  4347 0001:00032BD1
  4348 0001:00032BE3  4349 0001:00032BF5  4350 0001:00032C07  4351 0001:00032C19
  4352 0001:00032C2B  4353 0001:00032C3D  4354 0001:00032C4F  4355 0001:00032C61
  4356 0001:00032C73  4357 0001:00032C85  4358 0001:00032C97  4359 0001:00032CA9
  4360 0001:00032CBB  4361 0001:00032CCD  4362 0001:00032CDF  4363 0001:00032CF1
  4364 0001:00032D03  4365 0001:00032D15  4366 0001:00032D27  4367 0001:00032D39
  4368 0001:00032D4B  4369 0001:00032D5D  4370 0001:00032D6F  4371 0001:00032D81
  4372 0001:00032D93  4373 0001:00032DA5  4374 0001:00032DB7  4375 0001:00032DC9
  4376 0001:00032DDB  4377 0001:00032DED  4378 0001:00032DFF  4379 0001:00032E11
  4380 0001:00032E23  4381 0001:00032E35  4382 0001:00032E47  4383 0001:00032E59
  4384 0001:00032E6B  4385 0001:00032E7D  4386 0001:00032E8F  4387 0001:00032EA1
  4388 0001:00032EB3  4389 0001:00032EC5  4390 0001:00032ED7  4391 0001:00032EE9
  4392 0001:00032EFB  4393 0001:00032F0D  4394 0001:00032F1F  4395 0001:00032F31
  4396 0001:00032F43  4397 0001:00032F55  4398 0001:00032F67  4399 0001:00032F79
  4400 0001:00032F8B  4401 0001:00032F9D  4402 0001:00032FAF  4403 0001:00032FC1
  4404 0001:00032FD3  4405 0001:00032FE5  4406 0001:00032FF7  4407 0001:00033009
  4408 0001:0003301B  4409 0001:0003302D  4410 0001:0003303F  4411 0001:00033051
  4412 0001:00033063  4413 0001:00033075  4414 0001:00033087  4415 0001:00033099
  4416 0001:000330AB  4417 0001:000330BD  4418 0001:000330CF  4419 0001:000330E1
  4420 0001:000330F3  4421 0001:00033105  4422 0001:00033117  4423 0001:00033129
  4424 0001:0003313B  4425 0001:0003314D  4426 0001:0003315F  4427 0001:00033171
  4428 0001:00033183  4429 0001:00033195  4430 0001:000331A7  4431 0001:000331B9
  4432 0001:000331CB  4433 0001:000331DD  4434 0001:000331EF  4435 0001:00033201
  4436 0001:00033213  4437 0001:00033225  4438 0001:00033237  4439 0001:00033249
  4440 0001:0003325B  4441 0001:0003326D  4442 0001:0003327F  4443 0001:00033291
  4444 0001:000332A3  4445 0001:000332B5  4446 0001:000332C7  4447 0001:000332D9
  4448 0001:000332EB  4449 0001:000332FD  4450 0001:0003330F  4451 0001:00033321
  4452 0001:00033333  4453 0001:00033345  4454 0001:00033357  4455 0001:00033369
  4456 0001:0003337B  4457 0001:0003338D  4458 0001:0003339F  4459 0001:000333B1
  4460 0001:000333C3  4461 0001:000333D5  4462 0001:000333E7  4463 0001:000333F9
  4464 0001:0003340B  4465 0001:0003341D  4466 0001:0003342F  4467 0001:00033441
  4468 0001:00033453  4469 0001:00033465  4470 0001:00033477  4471 0001:00033489
  4472 0001:0003349B  4473 0001:000334AD  4474 0001:000334BF  4475 0001:000334D1
  4476 0001:000334E3  4477 0001:000334F5  4478 0001:00033507  4479 0001:00033519
  4480 0001:0003352B  4481 0001:0003353D  4482 0001:0003354F  4483 0001:00033561
  4484 0001:00033573  4485 0001:00033585  4486 0001:00033597  4487 0001:000335A9
  4488 0001:000335BB  4489 0001:000335CD  4490 0001:000335DF  4491 0001:000335F1
  4492 0001:00033603  4493 0001:00033615  4494 0001:00033627  4495 0001:00033639
  4496 0001:0003364B  4497 0001:0003365D  4498 0001:0003366F  4499 0001:00033681
  4500 0001:00033693  4501 0001:000336A5  4502 0001:000336B7  4503 0001:000336C9
  4504 0001:000336DB  4505 0001:000336ED  4506 0001:000336FF  4507 0001:00033711
  4508 0001:00033723  4509 0001:00033735  4510 0001:00033747  4511 0001:00033759
  4512 0001:0003376B  4513 0001:0003377D  4514 0001:0003378F  4515 0001:000337A1
  4516 0001:000337B3  4517 0001:000337C5  4518 0001:000337D7  4519 0001:000337E9
  4520 0001:000337FB  4521 0001:0003380D  4522 0001:0003381F  4523 0001:00033831
  4524 0001:00033843  4525 0001:00033855  4526 0001:00033867  4527 0001:00033879
  4528 0001:0003388B  4529 0001:0003389D  4530 0001:000338AF  4531 0001:000338C1
  4532 0001:000338D2  4535 0001:000358E8  4536 0001:000358F1  4537 0001:000358F5
  4540 0001:000358FC  4541 0001:0003591C  4542 0001:00035927  4543 0001:0003594D
  4549 0001:000359B4  4550 0001:000359D3  4552 0001:000359E0  4553 0001:000359F8
  4554 0001:000359FF  4555 0001:00035A08  4556 0001:00035A0F  4557 0001:00035A4B
  4558 0001:00035A88  4559 0001:00035ABD  4560 0001:00035AF2  4561 0001:00035B2A
  4562 0001:00035B5F  4563 0001:00035B97  4564 0001:00035BCF  4565 0001:00035C0A
  4566 0001:00035C45  4567 0001:00035C80  4568 0001:00035CC1  4569 0001:00035CF6
  4571 0001:00035D0A  4572 0001:00035D1E  4578 0001:00035FE8  4579 0001:0003600A
  4580 0001:00036015  4581 0001:00036037  4582 0001:0003604F  4581 0001:00036073
  4583 0001:00036078  4584 0001:00036089  4593 0001:000360C0  4594 0001:000360C9
  4595 0001:000360D1  4600 0001:000360D8  4612 0001:000360E4  4613 0001:000360EE
  4647 0001:000360F4  4648 0001:000360FD  4649 0001:00036105  4654 0001:0003610C
  4655 0001:00036118  4684 0001:00036125  4687 0001:000366BC  4688 0001:000366C8
  4723 0001:000366D5  4726 0001:00036EBC  4727 0001:00036EC8  4752 0001:00036ED5
  4757 0001:000374D0  4758 0001:000374EF  4759 0001:000374FA  4760 0001:00037509
  4788 0001:00037518  4813 0001:00037525  4818 0001:000383C4  4819 0001:000383E3
  4820 0001:000383FB  4821 0001:00038408  4822 0001:00038418  4823 0001:00038428
  4824 0001:00038438  4825 0001:00038448  4826 0001:00038458  4827 0001:00038468
  4828 0001:00038478  4829 0001:00038488  4830 0001:00038498  4831 0001:000384A8
  4832 0001:000384B8  4833 0001:000384C8  4834 0001:000384D8  4835 0001:000384E8
  4836 0001:000384F8  4837 0001:00038508  4838 0001:00038518  4839 0001:00038528
  4840 0001:00038538  4841 0001:00038548  4842 0001:00038558  4843 0001:00038568
  4844 0001:00038578  4845 0001:00038588  4846 0001:00038598  4847 0001:000385A8
  4848 0001:000385B8  4849 0001:000385C8  4850 0001:000385D8  4851 0001:000385E8
  4852 0001:000385F8  4853 0001:0003860A  4854 0001:0003861C  4855 0001:0003862E
  4856 0001:00038640  4857 0001:00038652  4858 0001:00038664  4859 0001:00038676
  4860 0001:00038688  4861 0001:0003869A  4862 0001:000386AC  4863 0001:000386BE
  4864 0001:000386D0  4865 0001:000386E1  4920 0001:00038B48  4924 0001:00038B6B
  4928 0001:00038B75  4932 0001:00038B7F  4936 0001:00038B89  4940 0001:00038B93
  4944 0001:00038B9D  4948 0001:00038BA7  4952 0001:00038BB1  4956 0001:00038BBB
  4960 0001:00038BC5  4964 0001:00038BCF  4968 0001:00038BD9

Line numbers for Dbx34DrvDbms(Dbx34DrvDbms.pas) segment .itext

  4867 0002:000000AC  4871 0002:000000B5  4875 0002:000000BF  4879 0002:000000C9
  4883 0002:000000D3  4887 0002:000000DD  4891 0002:000000E7  4895 0002:000000F1
  4899 0002:000000FB  4903 0002:00000105  4907 0002:0000010F  4911 0002:00000119
  4915 0002:00000123  4916 0002:0000012D

Line numbers for DbxOpenOdbcApiHook(DbxOpenOdbcApiHook.pas) segment .text

   328 0001:00038C84   329 0001:00038C90   330 0001:00038C9E   331 0001:00038CA4
   333 0001:00038CAE   334 0001:00038CB2   335 0001:00038CB6   336 0001:00038CBD
   338 0001:00038CC2   339 0001:00038CCC   340 0001:00038CD3   341 0001:00038CDA
   342 0001:00038CE3   343 0001:00038CEA   344 0001:00038CF0   345 0001:00038CFE
   346 0001:00038D0B   347 0001:00038D0F   348 0001:00038D15   350 0001:00038D1C
   351 0001:00038D26   352 0001:00038D35   353 0001:00038D3B   356 0001:00038D44
   358 0001:00038D53   360 0001:00038D5D   361 0001:00038D65   362 0001:00038D72
   364 0001:00038D79   365 0001:00038D88   366 0001:00038D91   367 0001:00038D97
   369 0001:00038DA0   371 0001:00038DA9   374 0001:00038DAE   376 0001:00038DBD
   377 0001:00038DCC   378 0001:00038DDB   379 0001:00038DE7   380 0001:00038DEE
   383 0001:00038DF7   385 0001:00038E06   386 0001:00038E71   387 0001:00038E78
   388 0001:00038E81   389 0001:00038E8A   390 0001:00038E93   391 0001:00038E9C
   392 0001:00038EA5   393 0001:00038EAE   394 0001:00038EB7   395 0001:00038EC0
   397 0001:00038EC7   398 0001:00038ED0   400 0001:00038EF1   404 0001:00038F11
   405 0001:00038F30   406 0001:00038F39   407 0001:00038F44   410 0001:00038F4F
   411 0001:00038F6E   412 0001:00038F7C   415 0001:00038F87   416 0001:00038F8D
   418 0001:00038F98   424 0001:00038FA1   426 0001:00038FB9   428 0001:00038FC3
   433 0001:00038FD0   434 0001:00038FD9   436 0001:00038FDE   437 0001:00038FE9
   438 0001:00038FEF   440 0001:00038FFD   441 0001:00039006   442 0001:0003900C
   448 0001:00039014   449 0001:00039020   450 0001:00039025   451 0001:0003902B
   453 0001:00039031   454 0001:0003903C   455 0001:00039045   451 0001:0003904B
   458 0001:00039051   462 0001:0003905F   463 0001:00039068   464 0001:0003907D
   465 0001:00039083   475 0001:0003908C   476 0001:0003909E   477 0001:000390A2
   478 0001:000390A7   479 0001:000390B5   480 0001:000390BB   481 0001:000390C7
   484 0001:000390D4   485 0001:000390EC   486 0001:000390F1   487 0001:00039109
   497 0001:0003910E   500 0001:00039116   501 0001:0003912C   502 0001:00039132
   508 0001:0003913B   510 0001:00039151   511 0001:00039165   518 0001:00039179
   520 0001:00039193   521 0001:00039199   522 0001:000391A1   524 0001:000391AD
   525 0001:000391B1   531 0001:000391BC   532 0001:000391CB   533 0001:000391CF
   534 0001:000391DB   535 0001:000391E1   536 0001:000391ED   538 0001:000391F3
   539 0001:00039203   541 0001:00039209   542 0001:0003921A   551 0001:00039224
   552 0001:00039230   553 0001:00039234   554 0001:0003923E   555 0001:0003924C
   556 0001:00039257   558 0001:00039261   559 0001:00039267   560 0001:0003926D
   561 0001:00039276   562 0001:0003927F   565 0001:00039286   573 0001:00039299
   579 0001:000392A7   581 0001:000392BC   588 0001:000392CF   590 0001:000392E9
   592 0001:000392F2   608 0001:000392FC   609 0001:00039305   611 0001:0003930B
   614 0001:00039329   618 0001:00039336   625 0001:00039340   626 0001:0003934F
   627 0001:00039353   628 0001:00039359   629 0001:00039368   631 0001:00039372
   633 0001:0003937E   634 0001:00039389   637 0001:00039395   643 0001:000393AA
   644 0001:000393B8   645 0001:000393BE   646 0001:000393CE   649 0001:000393D4
   650 0001:000393DA   655 0001:000393E9   658 0001:000393FA   659 0001:0003940D
   666 0001:00039426   673 0001:00039430   674 0001:0003943F   675 0001:00039443
   677 0001:00039463   678 0001:0003946E   680 0001:0003947C   686 0001:00039491
   687 0001:0003949F   689 0001:000394AF   692 0001:000394CB   693 0001:000394DE
   700 0001:000394F7   702 0001:0003950A   703 0001:0003950F   706 0001:0003951C
   707 0001:00039528   708 0001:00039534   710 0001:0003953A   713 0001:00039540
   718 0001:00039562   730 0001:0003956C   732 0001:00039578   735 0001:00039583
   737 0001:000395A6   739 0001:000395AC   741 0001:000395B0   745 0001:000395B8
   747 0001:000395C7   750 0001:000395CB   753 0001:000395D1   755 0001:000395D7
   758 0001:000395DD   761 0001:000395E7   763 0001:000395EB   766 0001:000395ED
   755 0001:000395F6   769 0001:000395FC   772 0001:00039604   774 0001:00039640
   776 0001:00039662   779 0001:000396B3   780 0001:000396B7   784 0001:000396F0
   786 0001:000396FF   789 0001:00039705   792 0001:0003971C   794 0001:00039726
   796 0001:0003973B   798 0001:0003974A   802 0001:00039750   806 0001:00039756
   807 0001:0003975A   811 0001:00039764   813 0001:00039773   816 0001:00039779
   818 0001:00039785   821 0001:0003978B   823 0001:00039799   818 0001:000397A2
   826 0001:000397A8   830 0001:000397AE   831 0001:000397B2   843 0001:000397BC
   846 0001:000397EF   849 0001:00039812   851 0001:00039818   853 0001:00039824
   855 0001:00039830   858 0001:0003983B   860 0001:00039846   866 0001:0003985A
   868 0001:00039866   871 0001:00039887   873 0001:00039893   875 0001:0003989B
   878 0001:000398AB   883 0001:000398B5   886 0001:000398BB   889 0001:000398DB
   892 0001:000398EB   894 0001:000398F0   898 0001:000398F6   900 0001:00039904
   903 0001:0003990A   906 0001:0003991E   909 0001:00039932   911 0001:0003993F
   913 0001:00039947   915 0001:00039952   920 0001:0003995A   880 0001:0003995E
   925 0001:00039972   927 0001:00039990   863 0001:00039994   931 0001:000399B5
   934 0001:000399EC   937 0001:00039A19   940 0001:00039A35   942 0001:00039A58
   947 0001:00039A80   950 0001:00039AAD   953 0001:00039AB9   955 0001:00039AC7
   957 0001:00039AD8   960 0001:00039AE2   962 0001:00039AF0   967 0001:00039B00
   969 0001:00039B0C   971 0001:00039B21   973 0001:00039B35   964 0001:00039B3D
   977 0001:00039B56   982 0001:00039B73   985 0001:00039B87   991 0001:00039BB0
   994 0001:00039BE9   997 0001:00039BF5   999 0001:00039C03  1001 0001:00039C0A
  1004 0001:00039C3E  1006 0001:00039C4F  1009 0001:00039C55  1011 0001:00039C63
  1016 0001:00039C79  1018 0001:00039C8A  1020 0001:00039C90  1025 0001:00039C99
  1027 0001:00039CAE  1030 0001:00039CB8  1032 0001:00039CC5  1034 0001:00039CD3
  1036 0001:00039D01  1038 0001:00039D16  1040 0001:00039D22  1042 0001:00039D30
  1044 0001:00039D57  1047 0001:00039D75  1052 0001:00039D8B  1058 0001:00039D91
  1061 0001:00039DA2  1064 0001:00039DB6  1068 0001:00039DF0  1071 0001:00039E26
  1074 0001:00039E32  1076 0001:00039E40  1078 0001:00039E45  1081 0001:00039E62
  1084 0001:00039E91  1087 0001:00039EC1  1089 0001:00039ED2  1092 0001:00039ED4
  1078 0001:00039ED7  1095 0001:00039EE9  1098 0001:00039EFD  1103 0001:00039F34
  1106 0001:00039F43  1109 0001:00039F4F  1111 0001:00039F5D  1113 0001:00039F6E
  1115 0001:00039F7C  1120 0001:00039F8C  1122 0001:00039F98  1124 0001:00039FAD
  1126 0001:00039FC7  1117 0001:00039FCF  1130 0001:00039FE8  1134 0001:0003A005
  1137 0001:0003A019  1143 0001:0003A020  1146 0001:0003A02C  1149 0001:0003A038
  1151 0001:0003A046  1153 0001:0003A054  1156 0001:0003A071  1158 0001:0003A082
  1163 0001:0003A092  1165 0001:0003A09E  1167 0001:0003A0B3  1169 0001:0003A0CD
  1160 0001:0003A0D5  1173 0001:0003A0EE  1175 0001:0003A0FE  1153 0001:0003A101
  1178 0001:0003A117  1182 0001:0003A137  1185 0001:0003A14B  1188 0001:0003A150
  1191 0001:0003A15C  1194 0001:0003A168  1196 0001:0003A176  1199 0001:0003A194
  1202 0001:0003A1A8  1205 0001:0003A1B0  1208 0001:0003A1B9  1211 0001:0003A1C5
  1213 0001:0003A1D3  1216 0001:0003A1E9  1219 0001:0003A1FD  1222 0001:0003A204
  1225 0001:0003A210  1228 0001:0003A21C  1230 0001:0003A22A  1233 0001:0003A240
  1236 0001:0003A254  1239 0001:0003A258  1242 0001:0003A261  1245 0001:0003A26D
  1247 0001:0003A27B  1250 0001:0003A294  1253 0001:0003A2A8  1256 0001:0003A2B0
  1259 0001:0003A2C8  1262 0001:0003A2D2  1265 0001:0003A2DE  1268 0001:0003A2F0
  1270 0001:0003A2F7  1273 0001:0003A318  1276 0001:0003A329  1278 0001:0003A337
  1280 0001:0003A345  1283 0001:0003A360  1286 0001:0003A373  1289 0001:0003A38C
  1292 0001:0003A3A2  1309 0001:0003A3B4  1310 0001:0003A3C0  1311 0001:0003A3C6
  1312 0001:0003A3D0  1313 0001:0003A3D8  1324 0001:0003A3E0  1325 0001:0003A3EF
  1326 0001:0003A3F5  1327 0001:0003A3FF  1329 0001:0003A407  1335 0001:0003A41C
  1336 0001:0003A42A  1339 0001:0003A43F  1340 0001:0003A452  1347 0001:0003A46B
  1350 0001:0003A474  1351 0001:0003A483  1352 0001:0003A491  1354 0001:0003A498
  1355 0001:0003A4A8  1356 0001:0003A4B2  1352 0001:0003A4B5  1357 0001:0003A4BE
  1359 0001:0003A4D4  1367 0001:0003A4E0  1370 0001:0003A4EC  1371 0001:0003A4F8
  1372 0001:0003A50A  1375 0001:0003A514  1376 0001:0003A520  1377 0001:0003A526
  1379 0001:0003A52E  1380 0001:0003A531  1383 0001:0003A541  1384 0001:0003A546

Line numbers for DbxOpenOdbcApiHook(DbxOpenOdbcApiHook.pas) segment .itext

  1386 0002:00000130

Line numbers for DbxDBFix(DbxDBFix.pas) segment .text

   358 0001:0003A588   359 0001:0003A597   360 0001:0003A59D   363 0001:0003A5A5
   364 0001:0003A5B1   365 0001:0003A5B5   366 0001:0003A5B9   361 0001:0003A5BC
   368 0001:0003A5CB   369 0001:0003A5D3   370 0001:0003A5E3   433 0001:0003A5EC
   436 0001:0003A627   439 0001:0003A639   440 0001:0003A64B   441 0001:0003A65B
   442 0001:0003A669   443 0001:0003A677   446 0001:0003A684   447 0001:0003A68D
   449 0001:0003A69B   450 0001:0003A6B0   451 0001:0003A6BC   452 0001:0003A6D2
   455 0001:0003A6DF   459 0001:0003A70C   463 0001:0003A715   465 0001:0003A722
   466 0001:0003A728   468 0001:0003A73C   469 0001:0003A749   484 0001:0003A750
   485 0001:0003A77A   488 0001:0003A783   490 0001:0003A799   492 0001:0003A7A7
   496 0001:0003A7D5   488 0001:0003A7D8   498 0001:0003A7DD   499 0001:0003A7E6
   501 0001:0003A7F0   502 0001:0003A800   504 0001:0003A813   505 0001:0003A821
   509 0001:0003A854   510 0001:0003A86A   513 0001:0003A870   502 0001:0003A873
   515 0001:0003A878   518 0001:0003A87D   520 0001:0003A8B0   521 0001:0003A8B7
   522 0001:0003A8BD   525 0001:0003A8D9   527 0001:0003A8ED   536 0001:0003A8F0
   540 0001:0003A8F9   542 0001:0003A909   543 0001:0003A910   546 0001:0003A925
   549 0001:0003A936   551 0001:0003A940   552 0001:0003A947   553 0001:0003A94D
   556 0001:0003A969   558 0001:0003A97D   582 0001:0003A980   585 0001:0003A9A8
   586 0001:0003A9C0   587 0001:0003A9D0   589 0001:0003A9DC   590 0001:0003A9E7
   591 0001:0003A9F5   593 0001:0003AA06   598 0001:0003AA21   603 0001:0003AA31
   606 0001:0003AA4D   611 0001:0003AA68   615 0001:0003AA83   625 0001:0003AA9E
   630 0001:0003AAB7   632 0001:0003AAE8   633 0001:0003AAEF   634 0001:0003AAF5
   637 0001:0003AB11   639 0001:0003AB25   651 0001:0003AB28   654 0001:0003AB5B
   655 0001:0003AB69   657 0001:0003AB72   658 0001:0003AB80   659 0001:0003AB8B
   660 0001:0003AB9B   662 0001:0003ABA1   663 0001:0003ABB3   664 0001:0003ABBE
   665 0001:0003ABCB   670 0001:0003ABD8   671 0001:0003ABE1   673 0001:0003ABF1
   674 0001:0003ABF7   676 0001:0003AC09   678 0001:0003AC0F   679 0001:0003AC29
   680 0001:0003AC3F   684 0001:0003AC4F   686 0001:0003AC74   687 0001:0003AC7B
   688 0001:0003AC81   691 0001:0003AC9D   693 0001:0003ACB1   702 0001:0003ACB4
   705 0001:0003ACD2   707 0001:0003ACE2   710 0001:0003AD0A   721 0001:0003AD27
   724 0001:0003AD33   726 0001:0003AD64   727 0001:0003AD6B   728 0001:0003AD71
   730 0001:0003AD8D   731 0001:0003AD97   814 0001:0003AD9C   815 0001:0003ADAB
   827 0001:0003ADB9   831 0001:0003ADD3   832 0001:0003ADEA   835 0001:0003ADF0
   836 0001:0003ADF7   837 0001:0003ADFD   839 0001:0003AE19   840 0001:0003AE23
   852 0001:0003AE28   853 0001:0003AE37   855 0001:0003AE40   868 0001:0003AE46
   869 0001:0003AE64   885 0001:0003AE72   886 0001:0003AE7D   887 0001:0003AE8D
   889 0001:0003AE9B   890 0001:0003AEAF   894 0001:0003AEBE   895 0001:0003AED5
   898 0001:0003AEDC   899 0001:0003AEE3   900 0001:0003AEE9   902 0001:0003AF05
   903 0001:0003AF0F   911 0001:0003AF14   913 0001:0003AF1D   916 0001:0003AF23
   917 0001:0003AF2E   922 0001:0003AF39   924 0001:0003AF43   929 0001:0003AF70
   932 0001:0003AF78   936 0001:0003AF80   940 0001:0003AF88   944 0001:0003AF90
   948 0001:0003AF98   968 0001:0003AFA0   972 0001:0003AFA8   975 0001:0003AFB0
   980 0001:0003AFB4   982 0001:0003AFD4

Line numbers for DbxDBFix(DbxDBFix.pas) segment .itext

   977 0002:00000140   978 0002:00000149   979 0002:00000150

Line numbers for DbxXXDrv(DbxXXDrv.pas) segment .text

   129 0001:0003AFEC   134 0001:0003AFF0   140 0001:0003AFFA

Line numbers for DbxXXDrv(DbxXXDrv.pas) segment .itext

   143 0002:00000154

Line numbers for Dbx34Drv(Dbx34Drv.pas) segment .text

   516 0001:0003C114   517 0001:0003C147   518 0001:0003C151   519 0001:0003C15C
   520 0001:0003C169   521 0001:0003C174   523 0001:0003C186   524 0001:0003C197
   525 0001:0003C1A8   526 0001:0003C1B2   529 0001:0003C1DA   521 0001:0003C1DD
   530 0001:0003C1E2   536 0001:0003C228   537 0001:0003C25E   538 0001:0003C268
   539 0001:0003C273   540 0001:0003C280   541 0001:0003C28B   543 0001:0003C29D
   544 0001:0003C2AE   545 0001:0003C2BF   546 0001:0003C2C9   549 0001:0003C2F4
   541 0001:0003C2F7   550 0001:0003C2FC   551 0001:0003C307   611 0001:0003C388
   612 0001:0003C3C1   614 0001:0003C3FA   615 0001:0003C40E   618 0001:0003C4D4
   619 0001:0003C501   620 0001:0003C512   621 0001:0003C524   634 0001:0003C574
   635 0001:0003C5A2   636 0001:0003C5A6   637 0001:0003C5B6   639 0001:0003C5CF
   640 0001:0003C5E6   642 0001:0003C5F0   644 0001:0003C609   646 0001:0003C613
   647 0001:0003C620   648 0001:0003C648   649 0001:0003C64E   653 0001:0003C65B
   654 0001:0003C66B   655 0001:0003C67A   656 0001:0003C6A4   658 0001:0003C6AA
   659 0001:0003C6B7   670 0001:0003C6C2   672 0001:0003C6CE   673 0001:0003C6F1
   674 0001:0003C70E   676 0001:0003C712   681 0001:0003C768   682 0001:0003C787
   683 0001:0003C78B   685 0001:0003C793   686 0001:0003C7A0   688 0001:0003C7A6
   689 0001:0003C7B4   691 0001:0003C7C2   692 0001:0003C7DA   696 0001:0003C7DE
   699 0001:0003C808   700 0001:0003C811   702 0001:0003C819   703 0001:0003C826
   706 0001:0003C82C   707 0001:0003C837   710 0001:0003C868   711 0001:0003C871
   713 0001:0003C879   714 0001:0003C886   717 0001:0003C88C   718 0001:0003C897
   725 0001:0003C8C4   727 0001:0003C902   728 0001:0003C915   730 0001:0003C92E
   735 0001:0003C941   743 0001:0003C988   744 0001:0003C997   745 0001:0003C9AD
   751 0001:0003C9B8   752 0001:0003C9C4   753 0001:0003C9CF   754 0001:0003C9E9
   755 0001:0003C9F4   756 0001:0003CA11   761 0001:0003CA18   762 0001:0003CA24
   764 0001:0003CA31   766 0001:0003CA3E   767 0001:0003CA4C   769 0001:0003CA64
   770 0001:0003CA70   771 0001:0003CA78   777 0001:0003CA84   780 0001:0003CA99
   788 0001:0003CAA4   791 0001:0003CAB4   794 0001:0003CAB8   795 0001:0003CAC4
   797 0001:0003CACF   800 0001:0003CAD4   801 0001:0003CAF3   803 0001:0003CAFE
   812 0001:0003CB20   813 0001:0003CB4F   817 0001:0003CB5C   818 0001:0003CB6E
   832 0001:0003CB80   861 0001:0003CB9D   864 0001:0003CCDC   865 0001:0003CCE8
   866 0001:0003CCF8   869 0001:0003CD2C   870 0001:0003CD38   871 0001:0003CD48
   874 0001:0003CD7C   875 0001:0003CD88   876 0001:0003CD98   879 0001:0003CDBC
   880 0001:0003CDC8   881 0001:0003CDD8   884 0001:0003CDFC   885 0001:0003CE08
   886 0001:0003CE18   889 0001:0003CE3C   890 0001:0003CE48   891 0001:0003CE58
   894 0001:0003CE7C   895 0001:0003CE88   896 0001:0003CE98   899 0001:0003CEBC
   900 0001:0003CEC8   901 0001:0003CED8   904 0001:0003CEFC   905 0001:0003CF18
   906 0001:0003CF36   909 0001:0003CF80   910 0001:0003CF9F   911 0001:0003CFBA
   914 0001:0003D000   915 0001:0003D00C   916 0001:0003D01C   919 0001:0003D064
   920 0001:0003D070   921 0001:0003D080   924 0001:0003D0C8   925 0001:0003D0D4
   926 0001:0003D0E4   929 0001:0003D118   930 0001:0003D124   931 0001:0003D134
   934 0001:0003D168   935 0001:0003D184   936 0001:0003D1A1   939 0001:0003D1E8
   940 0001:0003D207   941 0001:0003D224   944 0001:0003D268   945 0001:0003D274
   946 0001:0003D284   949 0001:0003D2B0   950 0001:0003D2BC   951 0001:0003D2CC
   970 0001:0003D2F8   971 0001:0003D32F   972 0001:0003D33F   973 0001:0003D34B
   979 0001:0003D35B   982 0001:0003D375   983 0001:0003D385   986 0001:0003D3A7
   987 0001:0003D3B4   990 0001:0003D3C4   991 0001:0003D3D2   992 0001:0003D3E0
   993 0001:0003D3EE   995 0001:0003D414   997 0001:0003D417   998 0001:0003D423
  1001 0001:0003D42D  1002 0001:0003D43B  1004 0001:0003D449  1005 0001:0003D456
  1006 0001:0003D464  1009 0001:0003D487  1011 0001:0003D48D  1013 0001:0003D498
  1016 0001:0003D4B3  1019 0001:0003D4C3  1022 0001:0003D5B8  1023 0001:0003D5BF
  1025 0001:0003D5C8  1026 0001:0003D5D4  1028 0001:0003D5DC  1089 0001:0003D5E0
  1090 0001:0003D5EC  1091 0001:0003D5FA  1094 0001:0003D600  1095 0001:0003D60C
  1096 0001:0003D619  1099 0001:0003D644  1101 0001:0003D653  1104 0001:0003D658
  1106 0001:0003D664  1114 0001:0003D668  1115 0001:0003D66B  1116 0001:0003D681
  1118 0001:0003D6F0  1119 0001:0003D70D  1120 0001:0003D720  1121 0001:0003D731
  1123 0001:0003D738  1124 0001:0003D74B  1125 0001:0003D75B  1126 0001:0003D761
  1127 0001:0003D776  1128 0001:0003D785  1130 0001:0003D78C  1131 0001:0003D794
  1132 0001:0003D79C  1133 0001:0003D7A4  1139 0001:0003D874  1143 0001:0003D895
  1144 0001:0003D8A5  1145 0001:0003D8B1  1147 0001:0003D8C6  1148 0001:0003D8D6
  1151 0001:0003D8F8  1152 0001:0003D905  1155 0001:0003D91A  1156 0001:0003D932
  1157 0001:0003D94A  1158 0001:0003D957  1159 0001:0003D962  1160 0001:0003D972
  1162 0001:0003D980  1163 0001:0003D99E  1167 0001:0003D9C3  1168 0001:0003D9D3
  1170 0001:0003D9DD  1171 0001:0003D9F5  1172 0001:0003DA0D  1173 0001:0003DA1A
  1174 0001:0003DA25  1175 0001:0003DA43  1181 0001:0003DA68  1184 0001:0003DC3C
  1186 0001:0003DC57  1187 0001:0003DC78  1188 0001:0003DC99  1192 0001:0003DD30
  1194 0001:0003DD37  1198 0001:0003DD3C  1199 0001:0003DD45  1208 0001:0003DD50
  1211 0001:0003DD58  1212 0001:0003DD5F  1214 0001:0003DD67  1217 0001:0003DD6C
  1219 0001:0003DD75  1223 0001:0003DD8E  1226 0001:0003DD98  1227 0001:0003DDA7
  1228 0001:0003DDB6  1230 0001:0003DDC6  1231 0001:0003DDD3  1236 0001:0003DE20
  1237 0001:0003DE3B  1238 0001:0003DE4C  1241 0001:0003DE70  1242 0001:0003DE79
  1243 0001:0003DE84  1304 0001:0003DE8C  1305 0001:0003DE98  1306 0001:0003DEA1
  1307 0001:0003DEAA  1314 0001:0003DEB0  1315 0001:0003DED3  1316 0001:0003DEDA
  1320 0001:0003DEE0  1340 0001:0003DF10  1342 0001:0003DF20  1347 0001:0003DF9C
  1348 0001:0003DFA5  1350 0001:0003DFB2  1351 0001:0003DFB7  1354 0001:0003DFEF
  1356 0001:0003DFFA  1358 0001:0003E016  1359 0001:0003E029  1363 0001:0003E032
  1364 0001:0003E03D  1367 0001:0003E044  1368 0001:0003E050  1369 0001:0003E05B
  1370 0001:0003E062  1371 0001:0003E06A  1381 0001:0003E070  1382 0001:0003E07C
  1383 0001:0003E087  1384 0001:0003E094  1392 0001:0003E0BC  1393 0001:0003E0C8
  1394 0001:0003E0D6  1397 0001:0003E0DC  1398 0001:0003E0E8  1399 0001:0003E0F6
  1407 0001:0003E0FC  1408 0001:0003E105  1409 0001:0003E109  1412 0001:0003E110
  1413 0001:0003E119  1414 0001:0003E11D  1417 0001:0003E124  1418 0001:0003E12D
  1419 0001:0003E131  1422 0001:0003E138  1423 0001:0003E141  1424 0001:0003E145
  1427 0001:0003E14C  1428 0001:0003E155  1429 0001:0003E159  1432 0001:0003E160
  1433 0001:0003E16C  1434 0001:0003E17A  1437 0001:0003E180  1438 0001:0003E18C
  1439 0001:0003E19A  1442 0001:0003E1A0  1443 0001:0003E1A9  1444 0001:0003E1AD
  1447 0001:0003E1B4  1448 0001:0003E1BD  1449 0001:0003E1C1  1452 0001:0003E1C8
  1453 0001:0003E1D1  1454 0001:0003E1D5  1457 0001:0003E1DC  1458 0001:0003E1E5
  1459 0001:0003E1E9  1462 0001:0003E1F0  1463 0001:0003E1F9  1464 0001:0003E204
  1469 0001:0003E20C  1479 0001:0003E215  1480 0001:0003E220  1485 0001:0003E228
  1486 0001:0003E231  1487 0001:0003E244  1492 0001:0003E24C  1493 0001:0003E255
  1494 0001:0003E25D  1503 0001:0003E264  1504 0001:0003E292  1506 0001:0003E2A9
  1507 0001:0003E2C9  1509 0001:0003E2F3  1510 0001:0003E303  1511 0001:0003E309
  1512 0001:0003E334  1519 0001:0003E35E  1520 0001:0003E36B  1522 0001:0003E37A
  1523 0001:0003E388  1524 0001:0003E396  1525 0001:0003E3A1  1527 0001:0003E3B9
  1530 0001:0003E3D2  1536 0001:0003E3E2  1537 0001:0003E3EB  1539 0001:0003E3F7
  1557 0001:0003E470  1558 0001:0003E493  1559 0001:0003E4A2  1560 0001:0003E4AD
  1561 0001:0003E4B6  1564 0001:0003E4BF  1569 0001:0003E4CA  1571 0001:0003E4D0
  1572 0001:0003E4DE  1573 0001:0003E4E4  1574 0001:0003E4F3  1575 0001:0003E4FE
  1576 0001:0003E50C  1577 0001:0003E513  1579 0001:0003E51E  1580 0001:0003E534
  1586 0001:0003E53F  1587 0001:0003E559  1590 0001:0003E580  1592 0001:0003E58C
  1593 0001:0003E599  1598 0001:0003E5C4  1599 0001:0003E5E4  1600 0001:0003E5ED
  1602 0001:0003E600  1604 0001:0003E613  1606 0001:0003E62A  1607 0001:0003E650
  1609 0001:0003E65C  1611 0001:0003E666  1612 0001:0003E672  1613 0001:0003E698
  1614 0001:0003E69F  1615 0001:0003E6C5  1617 0001:0003E6CC  1618 0001:0003E6E1
  1620 0001:0003E6E7  1621 0001:0003E6F8  1622 0001:0003E704  1623 0001:0003E715
  1626 0001:0003E71F  1628 0001:0003E727  1629 0001:0003E730  1630 0001:0003E737
  1631 0001:0003E743  1632 0001:0003E74C  1633 0001:0003E758  1636 0001:0003E85C
  1637 0001:0003E865  1638 0001:0003E876  1641 0001:0003E880  1642 0001:0003E887
  1643 0001:0003E88F  1646 0001:0003E894  1648 0001:0003E89B  1652 0001:0003E8A3
  1657 0001:0003E8A8  1658 0001:0003E8C0  1659 0001:0003E8C7  1660 0001:0003E8D1
  1682 0001:0003E8F0  1683 0001:0003E90C  1684 0001:0003E913  1685 0001:0003E91B
  1686 0001:0003E93A  1695 0001:0003E964  1696 0001:0003E980  1708 0001:0003E987
  1709 0001:0003E98F  1711 0001:0003E9A7  1723 0001:0003E9F4  1724 0001:0003EA1C
  1726 0001:0003EA32  1727 0001:0003EA3D  1728 0001:0003EA4C  1729 0001:0003EA56
  1730 0001:0003EA5D  1731 0001:0003EA71  1732 0001:0003EA7F  1733 0001:0003EA8D
  1735 0001:0003EAA4  1756 0001:0003EAA9  1759 0001:0003EAB1  1762 0001:0003EAC9
  1780 0001:0003EB34  1781 0001:0003EB62  1783 0001:0003EB7C  1784 0001:0003EB83
  1785 0001:0003EB8E  1786 0001:0003EB9D  1787 0001:0003EBA7  1788 0001:0003EBBB
  1789 0001:0003EBC9  1790 0001:0003EBE2  1792 0001:0003EBFC  1796 0001:0003EC01
  1797 0001:0003EC1B  1798 0001:0003EC29  1799 0001:0003EC30  1800 0001:0003EC3B
  1801 0001:0003EC4F  1802 0001:0003EC63  1803 0001:0003EC77  1804 0001:0003EC8B
  1805 0001:0003EC9F  1806 0001:0003ECB7  1807 0001:0003ECC4  1808 0001:0003ECD4
  1809 0001:0003ECE4  1810 0001:0003ECF4  1811 0001:0003ED04  1812 0001:0003ED14
  1813 0001:0003ED24  1814 0001:0003ED34  1815 0001:0003ED4C  1816 0001:0003ED57
  1817 0001:0003ED65  1818 0001:0003ED73  1819 0001:0003ED81  1820 0001:0003ED8F
  1821 0001:0003ED9D  1822 0001:0003EDAB  1824 0001:0003EDB9  1826 0001:0003EDD7
  1827 0001:0003EDEE  1828 0001:0003EDF6  1830 0001:0003EE1C  1832 0001:0003EE33
  1837 0001:0003EE38  1840 0001:0003EE40  1843 0001:0003EE58  1856 0001:0003F030
  1857 0001:0003F05B  1859 0001:0003F071  1860 0001:0003F078  1861 0001:0003F083
  1862 0001:0003F092  1863 0001:0003F09C  1864 0001:0003F0B0  1865 0001:0003F0BE
  1866 0001:0003F0D3  1868 0001:0003F0EA  1893 0001:0003F0EF  1901 0001:0003F0F7
  1904 0001:0003F10F  1917 0001:0003F178  1918 0001:0003F1A3  1920 0001:0003F1AC
  1921 0001:0003F1B3  1922 0001:0003F1BE  1923 0001:0003F1CD  1924 0001:0003F1D7
  1925 0001:0003F1EB  1926 0001:0003F1F9  1927 0001:0003F20E  1929 0001:0003F225
  1931 0001:0003F22A  1955 0001:0003F232  1959 0001:0003F23A  1962 0001:0003F252
  1974 0001:0003F2C0  1975 0001:0003F2EB  1977 0001:0003F2F4  1978 0001:0003F2FB
  1979 0001:0003F306  1980 0001:0003F315  1981 0001:0003F31F  1982 0001:0003F333
  1983 0001:0003F341  1984 0001:0003F356  1986 0001:0003F36D  2011 0001:0003F372
  2014 0001:0003F37A  2017 0001:0003F392  2030 0001:0003F414  2031 0001:0003F43F
  2033 0001:0003F44C  2034 0001:0003F453  2035 0001:0003F45E  2036 0001:0003F46D
  2037 0001:0003F477  2038 0001:0003F48B  2039 0001:0003F499  2041 0001:0003F4C2
  2043 0001:0003F4D9  2078 0001:0003F4DE  2081 0001:0003F4E6  2084 0001:0003F4FE
  2096 0001:0003F580  2097 0001:0003F5AB  2099 0001:0003F5B4  2100 0001:0003F5BB
  2101 0001:0003F5C6  2102 0001:0003F5D5  2103 0001:0003F5DF  2104 0001:0003F5F3
  2105 0001:0003F601  2106 0001:0003F616  2108 0001:0003F62D  2133 0001:0003F632
  2136 0001:0003F63A  2139 0001:0003F652  2151 0001:0003F6C8  2153 0001:0003F6F6
  2155 0001:0003F703  2156 0001:0003F70A  2157 0001:0003F715  2158 0001:0003F724
  2159 0001:0003F72E  2160 0001:0003F742  2161 0001:0003F750  2162 0001:0003F769
  2164 0001:0003F783  2168 0001:0003F788  2169 0001:0003F795  2170 0001:0003F7A3
  2171 0001:0003F7AA  2172 0001:0003F7C2  2173 0001:0003F7CF  2174 0001:0003F7DF
  2175 0001:0003F7EF  2176 0001:0003F7FF  2177 0001:0003F817  2178 0001:0003F822
  2179 0001:0003F830  2180 0001:0003F83E  2182 0001:0003F84C  2184 0001:0003F86A
  2185 0001:0003F881  2186 0001:0003F889  2187 0001:0003F8A0  2189 0001:0003F8C6
  2191 0001:0003F8DD  2196 0001:0003F8E2  2197 0001:0003F8EA  2200 0001:0003F901
  2203 0001:0003F919  2215 0001:0003FA7C  2216 0001:0003FAAA  2218 0001:0003FAB7
  2219 0001:0003FABE  2220 0001:0003FAC9  2221 0001:0003FAD8  2222 0001:0003FAE2
  2223 0001:0003FAF6  2224 0001:0003FB04  2225 0001:0003FB19  2227 0001:0003FB33
  2231 0001:0003FB38  2232 0001:0003FB45  2233 0001:0003FB53  2234 0001:0003FB5A
  2235 0001:0003FB72  2236 0001:0003FB7F  2237 0001:0003FB8F  2238 0001:0003FB9F
  2239 0001:0003FBB7  2240 0001:0003FBC2  2241 0001:0003FBD0  2243 0001:0003FBDE
  2245 0001:0003FBFC  2246 0001:0003FC13  2247 0001:0003FC1B  2248 0001:0003FC32
  2250 0001:0003FC58  2252 0001:0003FC6F  2257 0001:0003FC74  2258 0001:0003FC7C
  2261 0001:0003FC93  2264 0001:0003FCAB  2277 0001:0003FDD4  2278 0001:0003FDFF
  2280 0001:0003FE0C  2281 0001:0003FE13  2282 0001:0003FE1E  2283 0001:0003FE2D
  2284 0001:0003FE37  2285 0001:0003FE4B  2286 0001:0003FE59  2287 0001:0003FE72
  2289 0001:0003FE89  2316 0001:0003FE8E  2319 0001:0003FE96  2322 0001:0003FEAE
  2336 0001:0003FF24  2337 0001:0003FF4F  2339 0001:0003FF58  2340 0001:0003FF5F
  2341 0001:0003FF6A  2342 0001:0003FF79  2343 0001:0003FF83  2344 0001:0003FF97
  2345 0001:0003FFA5  2346 0001:0003FFBA  2348 0001:0003FFD1  2373 0001:0003FFD6
  2381 0001:0003FFDE  2384 0001:0003FFF6  2396 0001:00040078  2397 0001:000400A3
  2399 0001:000400AC  2400 0001:000400B3  2401 0001:000400BE  2402 0001:000400CD
  2403 0001:000400D7  2404 0001:000400EB  2405 0001:000400F9  2406 0001:0004010E
  2408 0001:00040125  2432 0001:0004012A  2435 0001:00040132  2438 0001:0004014A
  2451 0001:000401BC  2452 0001:000401E7  2454 0001:000401F4  2455 0001:000401FB
  2456 0001:00040206  2457 0001:00040215  2458 0001:0004021F  2459 0001:00040233
  2460 0001:00040241  2461 0001:0004025A  2463 0001:00040271  2465 0001:00040276
  2490 0001:0004027E  2494 0001:00040286  2497 0001:0004029E  2510 0001:00040324
  2511 0001:0004034F  2513 0001:00040358  2514 0001:0004035F  2515 0001:0004036A
  2516 0001:00040379  2517 0001:00040383  2518 0001:00040397  2519 0001:000403A5
  2520 0001:000403BA  2522 0001:000403D1  2547 0001:000403D6  2550 0001:000403DE
  2553 0001:000403F6  2566 0001:00040468  2567 0001:00040493  2569 0001:000404A0
  2570 0001:000404A7  2571 0001:000404B2  2572 0001:000404C1  2573 0001:000404CB
  2574 0001:000404DF  2575 0001:000404ED  2576 0001:0004050A  2578 0001:00040521
  2607 0001:00040526  2610 0001:0004052E  2613 0001:00040546  2626 0001:000405C8
  2627 0001:000405F3  2629 0001:00040600  2630 0001:00040607  2631 0001:00040612
  2632 0001:00040621  2633 0001:0004062B  2634 0001:0004063F  2635 0001:0004064D
  2636 0001:0004066A  2638 0001:00040681  2640 0001:00040686  2668 0001:0004068E
  2672 0001:00040696  2675 0001:000406AE  2687 0001:00040744  2688 0001:0004076F
  2690 0001:00040778  2691 0001:0004077F  2692 0001:0004078A  2693 0001:00040799
  2694 0001:000407A3  2695 0001:000407B7  2696 0001:000407C5  2697 0001:000407DA
  2699 0001:000407F1  2724 0001:000407F6  2727 0001:000407FE  2730 0001:00040816
  2739 0001:00040894  2740 0001:000408B6  2742 0001:000408BF  2743 0001:000408C6
  2744 0001:000408DA  2745 0001:000408E8  2746 0001:000408F3  2748 0001:0004090A
  2765 0001:0004090F  2768 0001:00040917  2771 0001:0004092F  2780 0001:0004097C
  2781 0001:0004099E  2783 0001:000409A7  2784 0001:000409AE  2785 0001:000409C2
  2786 0001:000409D0  2787 0001:000409DB  2789 0001:000409F2  2806 0001:000409F7
  2809 0001:000409FF  2812 0001:00040A17  2822 0001:00040A64  2823 0001:00040A82
  2825 0001:00040A8B  2826 0001:00040A92  2827 0001:00040AA6  2828 0001:00040AB4
  2829 0001:00040ABF  2831 0001:00040AD6  2846 0001:00040ADB  2847 0001:00040AE9
  2849 0001:00040AF1  2854 0001:00040AF7  2858 0001:00040B11  2860 0001:00040B32
  2863 0001:00040BA0  2864 0001:00040BAC  2865 0001:00040BB9  2868 0001:00040BE4
  2869 0001:00040BF0  2872 0001:00040BFE  2875 0001:00040C04  2876 0001:00040C10
  2877 0001:00040C1A  2880 0001:00040C20  2881 0001:00040C2C  2882 0001:00040C36
  2885 0001:00040C3C  2886 0001:00040C48  2887 0001:00040C52  2890 0001:00040C58
  2891 0001:00040C64  2892 0001:00040C6E  2895 0001:00040C74  2896 0001:00040C80
  2897 0001:00040C8A  2900 0001:00040C90  2901 0001:00040C9C  2902 0001:00040CA6
  2905 0001:00040CAC  2906 0001:00040CB8  2907 0001:00040CC2  2910 0001:00040CC8
  2911 0001:00040CD4  2912 0001:00040CDE  2915 0001:00040CE4  2916 0001:00040CF0
  2917 0001:00040CFA  2920 0001:00040D00  2921 0001:00040D0C  2922 0001:00040D16
  2925 0001:00040D1C  2926 0001:00040D28  2927 0001:00040D32  2930 0001:00040D38
  2931 0001:00040D44  2932 0001:00040D4E  2935 0001:00040D54  2936 0001:00040D60
  2937 0001:00040D6A  2940 0001:00040D70  2941 0001:00040D7C  2942 0001:00040D86
  2945 0001:00040D8C  2946 0001:00040D98  2947 0001:00040DA2  2950 0001:00040DA8
  2951 0001:00040DB4  2952 0001:00040DBE  2955 0001:00040DC4  2956 0001:00040DD0
  2957 0001:00040DDA  2960 0001:00040DE0  2961 0001:00040DEC  2962 0001:00040DF6
  2965 0001:00040DFC  2966 0001:00040E05  2967 0001:00040E09  2970 0001:00040E10
  2971 0001:00040E19  2972 0001:00040E1D  2995 0001:00040E24  2997 0001:00040E49
  2999 0001:00040E53  3003 0001:00040E74

Line numbers for Dbx34Drv(Dbx34Drv.pas) segment .itext

  2983 0002:0000015C  2985 0002:00000178  2987 0002:00000188  2988 0002:0000018F
  2990 0002:00000199  2993 0002:000001C0

Line numbers for .dbxoodbc(.\..\..\..\source\packages\pkg\dbxoodbc.dpk) segment .itext

    77 0002:00000204

Bound resource files

dbxoodbc_man_icn.res
dbxoodbc_ver.res
C:\TEMP\dtfF41.tmp


Program entry point at 0002:00000204
