
 Start         Length     Name                   Class
 0001:00000000 00003B50H .text                   CODE
 0002:00000000 00000588H .data                   DATA
 0002:00000588 00000071H .bss                    BSS


Detailed map of segments

 0001:00000000 0000017E C=CODE     S=.text    G=(none)   M=System   ACBP=A9
 0001:00000180 000001FC C=CODE     S=.text    G=(none)   M=SysInit  ACBP=A9
 0001:0000037C 000000C5 C=CODE     S=.text    G=(none)   M=Windows  ACBP=A9
 0001:00000444 0000000E C=CODE     S=.text    G=(none)   M=Types    ACBP=A9
 0001:00000454 0000006E C=CODE     S=.text    G=(none)   M=SysUtils ACBP=A9
 0001:000004C4 0000000E C=CODE     S=.text    G=(none)   M=SysConst ACBP=A9
 0001:000004D4 0000008E C=CODE     S=.text    G=(none)   M=Classes  ACBP=A9
 0001:00000564 0000000E C=CODE     S=.text    G=(none)   M=ActiveX  ACBP=A9
 0001:00000574 00000038 C=CODE     S=.text    G=(none)   M=Messages ACBP=A9
 0001:000005AC 0000000E C=CODE     S=.text    G=(none)   M=TypInfo  ACBP=A9
 0001:000005BC 00000076 C=CODE     S=.text    G=(none)   M=Variants ACBP=A9
 0001:00000634 0000000E C=CODE     S=.text    G=(none)   M=VarUtils ACBP=A9
 0001:00000644 0000000E C=CODE     S=.text    G=(none)   M=RTLConsts ACBP=A9
 0001:00000654 0000000E C=CODE     S=.text    G=(none)   M=DBClient ACBP=A9
 0001:00000664 0000000E C=CODE     S=.text    G=(none)   M=SqlTimSt ACBP=A9
 0001:00000674 0000000E C=CODE     S=.text    G=(none)   M=DBConsts ACBP=A9
 0001:00000684 0000000E C=CODE     S=.text    G=(none)   M=DateUtils ACBP=A9
 0001:00000694 0000000E C=CODE     S=.text    G=(none)   M=Math     ACBP=A9
 0001:000006A4 0000000E C=CODE     S=.text    G=(none)   M=Midas    ACBP=A9
 0001:000006B4 0000000E C=CODE     S=.text    G=(none)   M=DBCommon ACBP=A9
 0001:000006C4 0000000E C=CODE     S=.text    G=(none)   M=StrUtils ACBP=A9
 0001:000006D4 000003B6 C=CODE     S=.text    G=(none)   M=DB       ACBP=A9
 0001:00000A8C 0000001E C=CODE     S=.text    G=(none)   M=FMTBcd   ACBP=A9
 0001:00000AAC 0000000E C=CODE     S=.text    G=(none)   M=MaskUtils ACBP=A9
 0001:00000ABC 0000000E C=CODE     S=.text    G=(none)   M=ComObj   ACBP=A9
 0001:00000ACC 0000000E C=CODE     S=.text    G=(none)   M=ComConst ACBP=A9
 0001:00000ADC 0000000E C=CODE     S=.text    G=(none)   M=DSIntf   ACBP=A9
 0001:00000AEC 0000000E C=CODE     S=.text    G=(none)   M=MidConst ACBP=A9
 0001:00000AFC 0000000E C=CODE     S=.text    G=(none)   M=Provider ACBP=A9
 0001:00000B0C 0000000E C=CODE     S=.text    G=(none)   M=DataBkr  ACBP=A9
 0001:00000B1C 0000000E C=CODE     S=.text    G=(none)   M=DBXpress ACBP=A9
 0001:00000B2C 000001EE C=CODE     S=.text    G=(none)   M=SqlExpr  ACBP=A9
 0001:00000D1C 0000000E C=CODE     S=.text    G=(none)   M=DBConnAdmin ACBP=A9
 0001:00000D2C 0000000E C=CODE     S=.text    G=(none)   M=IniFiles ACBP=A9
 0001:00000D3C 0000000E C=CODE     S=.text    G=(none)   M=SqlConst ACBP=A9
 0001:00000D4C 0000000E C=CODE     S=.text    G=(none)   M=Registry ACBP=A9
 0001:00000D5C 00000940 C=CODE     S=.text    G=(none)   M=Dbx23Fix ACBP=A9
 0001:0000169C 00001970 C=CODE     S=.text    G=(none)   M=DbxOpenOdbcApiHook ACBP=A9
 0001:0000300C 0000000E C=CODE     S=.text    G=(none)   M=WideStrUtils ACBP=A9
 0001:0000301C 00000965 C=CODE     S=.text    G=(none)   M=DbxDBFix ACBP=A9
 0001:00003984 0000004C C=CODE     S=.text    G=(none)   M=DbxXXDrv ACBP=A9
 0001:000039D0 0000017D C=CODE     S=.text    G=(none)   M=.dbxoodbc ACBP=A9
 0002:00000000 0000002C C=DATA     S=.data    G=DGROUP   M=SysInit  ACBP=A9
 0002:0000002C 00000005 C=DATA     S=.data    G=DGROUP   M=Dbx23Fix ACBP=A9
 0002:00000034 00000540 C=DATA     S=.data    G=DGROUP   M=DbxOpenOdbcApiHook ACBP=A9
 0002:00001000 00000010 C=BSS      S=.bss     G=DGROUP   M=SysInit  ACBP=A9
 0002:00001010 00000008 C=BSS      S=.bss     G=DGROUP   M=Windows  ACBP=A9
 0002:00001018 00000004 C=BSS      S=.bss     G=DGROUP   M=Messages ACBP=A9
 0002:0000101C 00000004 C=BSS      S=.bss     G=DGROUP   M=Dbx23Fix ACBP=A9
 0002:00001020 00000004 C=BSS      S=.bss     G=DGROUP   M=DbxOpenOdbcApiHook ACBP=A9
 0002:00001024 00000048 C=BSS      S=.bss     G=DGROUP   M=DbxDBFix ACBP=A9
 0002:0000106C 00000004 C=BSS      S=.bss     G=DGROUP   M=DbxXXDrv ACBP=A9


  Address         Publics by Name

 0002:00001008       .1
 0002:00001018       .1
 0002:0000106C       .1
 0002:00001024       .1
 0002:00001020       .2
 0002:0000101C       .2
 0002:00001010       .3
 0001:00003B48       .dbxoodbc
 0001:00003B28       @GetPackageInfoTable
 0001:000002C8       @InitPkg
 0001:00003B30       @PackageLoad
 0001:0000032C       @PackageLoad
 0001:00003B3C       @PackageUnload
 0001:00000338       @PackageUnload
 0001:000001B8       AllocTlsBuffer
 0002:0000002C       bFixedSqlExpr
 0002:00000030       bFixedUnicode
 0002:00001040       BlobField_SetVarValue
 0001:0000110C       CalcUnits
 0001:000003E4       CopyMemory
 0001:00001694       Dbx23Fix
 0001:00003970       DbxDBFix
 0001:00003004       DbxOpenOdbcApiHook
 0001:000039C8       DbxXXDrv
 0001:0000037C       DeleteCriticalSection
 0001:00000384       EnterCriticalSection
 0001:00000274       ExitProcessTLS
 0001:0000023C       ExitThreadTLS
 0002:00001030       FieldAccess_FindField
 0002:00001050       Field_AssignValue
 0001:00001664       Finalization
 0001:00002FD4       Finalization
 0001:00000574       Finalization
 0001:00003998       Finalization
 0001:00003938       Finalization
 0001:00000344       Finalization
 0001:000003EC       Finalization
 0001:00002EF8       FindVirtualMethodIndex
 0001:00003394       FIX_TBLOBFIELD_SETVARVALUE
 0001:00003164       FIX_TFIELDS_FINDFIELD
 0001:000036A8       FIX_TFIELD_ASSIGNVALUE
 0001:000032A0       FIX_TINTEGERFIELD_GETISNULL
 0001:00003528       FIX_TSTRINGFIELD_GETVALUE
 0001:0000301C       FIX_TSTRINGFIELD_SETASANSISTRING
 0001:0000383C       FIX_TWIDESTRINGFIELD_GETASVARIANT
 0001:000037D0       FIX_TWIDESTRINGFIELD_GETASWIDESTRING
 0001:0000376C       FIX_TWIDESTRINGFIELD_GETDATASIZE
 0001:0000038C       FlushInstructionCache
 0001:00000394       FreeLibrary
 0001:00000180       FreeLibrary
 0001:00002F98       FxtGetStubAddress
 0001:0000039C       GetCurrentProcess
 0001:000003A4       GetModuleHandle
 0001:00001D9C       GetNativeAddr
 0001:0000106C       GetParamData
 0001:000003AC       GetProcAddress
 0001:000001C4       GetTlsSize
 0001:000003B4       GetVersion
 0001:00002E38       GetVirtualMethodAddress
 0001:00002F70       GetVirtualMethodOffset
 0002:00001004       HInstance
 0001:00001B2C       HookCode
 0001:00001C5C       HookProc
 0002:00001014       HtmlHelpModule
 0001:000003BC       InitializeCriticalSection
 0001:00000298       InitializeModule
 0001:00000210       InitProcessTLS
 0001:000001CC       InitThreadTLS
 0001:000038E4       INSTALL_FIXES
 0001:000034E8       INSTALL_FIX_TBLOBFIELD_SETVARVALUE
 0001:00003260       INSTALL_FIX_TFIELDS_FINDFIELD
 0001:00003734       INSTALL_FIX_TFIELD_ASSIGNVALUE
 0001:000032EC       INSTALL_FIX_TINTEGERFIELD_GETISNULL
 0001:00003668       INSTALL_FIX_TSTRINGFIELD_GETVALUE
 0001:00003120       INSTALL_FIX_TSTRINGFIELD_SETASANSISTRING
 0001:000038A4       INSTALL_FIX_TWIDESTRINGFIELD_GETASVARIANT
 0001:000037FC       INSTALL_FIX_TWIDESTRINGFIELD_GETASWIDESTRING
 0001:00003790       INSTALL_FIX_TWIDESTRINGFIELD_GETDATASIZE
 0002:00001038       IntegerField_GetIsNull
 0001:00003984       IsDbxDrvFixed
 0001:00001FBC       IsJumpFromCode
 0001:00001DE0       JumpFromCode
 0001:000003C4       LeaveCriticalSection
 0001:000003CC       LoadLibrary
 0001:00000188       LocalAlloc
 0001:00000190       LocalFree
 0001:000005A4       Messages
 0002:00000004       Module
 0002:00001000       ModuleIsLib
 0002:00001001       ModuleIsPackage
 0002:00000034       Opcodes1
 0002:00000234       Opcodes2
 0002:00000434       Opcodes3
 0001:00001ED0       RestoreSavedCode
 0001:00001AB4       SaveOldFunction
 0001:00002E64       SetVirtualMethodAddress
 0001:00001724       SizeOfCode
 0001:00001A70       SizeOfProc
 0002:00001048       StringField_GetValue
 0002:00001028       StringField_SetAsAnsiString
 0001:00000374       SysInit
 0001:0000332C       TBlobField_SetData
 0001:00002478       TIATPatch.BuildIATPatchList
 0001:00002AA4       TIATPatch.Clear
 0001:0000209C       TIATPatch.CompareLibraryNames
 0001:00002D34       TIATPatch.Create
 0001:000029B8       TIATPatch.Delete
 0001:00002D9C       TIATPatch.Destroy
 0001:00002248       TIATPatch.EnumIATList
 0001:00002874       TIATPatch.Find
 0001:00002CDC       TIATPatch.GetCount
 0001:00002BD4       TIATPatch.GetPatchRecord
 0001:00002C34       TIATPatch.GetUnpatchOnFree
 0001:00002050       TIATPatch.ListContainsIAT
 0001:0000200C       TIATPatch.NextFunctionName
 0001:0000263C       TIATPatch.Patch
 0001:00002C88       TIATPatch.SetUnpatchOnFree
 0001:0000250C       TIATPatch.Unpatch
 0001:0000217C       TIATPatch.UpdateEntry
 0001:000021F0       TIATPatch.UpdatePatch
 0001:00000198       TlsAlloc
 0002:0000100C       tlsBuffer
 0001:000001A0       TlsFree
 0001:000001A8       TlsGetValue
 0002:00000000       TlsIndex
 0002:FFBFB000       TlsLast
 0002:0000001C       TlsProc
 0001:000001B0       TlsSetValue
 0001:000011D4       TSQLStoredProc.PrepareStatement
 0001:00001CC4       UnhookCode
 0001:000002A4       UninitializeModule
 0001:000003D4       VirtualProtect
 0001:000003DC       VirtualProtect
 0002:00001064       WideStringField_GetAsVariant
 0002:0000105C       WideStringField_GetAsWideString
 0002:00001054       WideStringField_GetDataSize
 0001:00000430       Windows


  Address         Publics by Value

 0002:FFBFB000       TlsLast
 0001:00000180       FreeLibrary
 0001:00000188       LocalAlloc
 0001:00000190       LocalFree
 0001:00000198       TlsAlloc
 0001:000001A0       TlsFree
 0001:000001A8       TlsGetValue
 0001:000001B0       TlsSetValue
 0001:000001B8       AllocTlsBuffer
 0001:000001C4       GetTlsSize
 0001:000001CC       InitThreadTLS
 0001:00000210       InitProcessTLS
 0001:0000023C       ExitThreadTLS
 0001:00000274       ExitProcessTLS
 0001:00000298       InitializeModule
 0001:000002A4       UninitializeModule
 0001:000002C8       @InitPkg
 0001:0000032C       @PackageLoad
 0001:00000338       @PackageUnload
 0001:00000344       Finalization
 0001:00000374       SysInit
 0001:0000037C       DeleteCriticalSection
 0001:00000384       EnterCriticalSection
 0001:0000038C       FlushInstructionCache
 0001:00000394       FreeLibrary
 0001:0000039C       GetCurrentProcess
 0001:000003A4       GetModuleHandle
 0001:000003AC       GetProcAddress
 0001:000003B4       GetVersion
 0001:000003BC       InitializeCriticalSection
 0001:000003C4       LeaveCriticalSection
 0001:000003CC       LoadLibrary
 0001:000003D4       VirtualProtect
 0001:000003DC       VirtualProtect
 0001:000003E4       CopyMemory
 0001:000003EC       Finalization
 0001:00000430       Windows
 0001:00000574       Finalization
 0001:000005A4       Messages
 0001:0000106C       GetParamData
 0001:0000110C       CalcUnits
 0001:000011D4       TSQLStoredProc.PrepareStatement
 0001:00001664       Finalization
 0001:00001694       Dbx23Fix
 0001:00001724       SizeOfCode
 0001:00001A70       SizeOfProc
 0001:00001AB4       SaveOldFunction
 0001:00001B2C       HookCode
 0001:00001C5C       HookProc
 0001:00001CC4       UnhookCode
 0001:00001D9C       GetNativeAddr
 0001:00001DE0       JumpFromCode
 0001:00001ED0       RestoreSavedCode
 0001:00001FBC       IsJumpFromCode
 0001:0000200C       TIATPatch.NextFunctionName
 0001:00002050       TIATPatch.ListContainsIAT
 0001:0000209C       TIATPatch.CompareLibraryNames
 0001:0000217C       TIATPatch.UpdateEntry
 0001:000021F0       TIATPatch.UpdatePatch
 0001:00002248       TIATPatch.EnumIATList
 0001:00002478       TIATPatch.BuildIATPatchList
 0001:0000250C       TIATPatch.Unpatch
 0001:0000263C       TIATPatch.Patch
 0001:00002874       TIATPatch.Find
 0001:000029B8       TIATPatch.Delete
 0001:00002AA4       TIATPatch.Clear
 0001:00002BD4       TIATPatch.GetPatchRecord
 0001:00002C34       TIATPatch.GetUnpatchOnFree
 0001:00002C88       TIATPatch.SetUnpatchOnFree
 0001:00002CDC       TIATPatch.GetCount
 0001:00002D34       TIATPatch.Create
 0001:00002D9C       TIATPatch.Destroy
 0001:00002E38       GetVirtualMethodAddress
 0001:00002E64       SetVirtualMethodAddress
 0001:00002EF8       FindVirtualMethodIndex
 0001:00002F70       GetVirtualMethodOffset
 0001:00002F98       FxtGetStubAddress
 0001:00002FD4       Finalization
 0001:00003004       DbxOpenOdbcApiHook
 0001:0000301C       FIX_TSTRINGFIELD_SETASANSISTRING
 0001:00003120       INSTALL_FIX_TSTRINGFIELD_SETASANSISTRING
 0001:00003164       FIX_TFIELDS_FINDFIELD
 0001:00003260       INSTALL_FIX_TFIELDS_FINDFIELD
 0001:000032A0       FIX_TINTEGERFIELD_GETISNULL
 0001:000032EC       INSTALL_FIX_TINTEGERFIELD_GETISNULL
 0001:0000332C       TBlobField_SetData
 0001:00003394       FIX_TBLOBFIELD_SETVARVALUE
 0001:000034E8       INSTALL_FIX_TBLOBFIELD_SETVARVALUE
 0001:00003528       FIX_TSTRINGFIELD_GETVALUE
 0001:00003668       INSTALL_FIX_TSTRINGFIELD_GETVALUE
 0001:000036A8       FIX_TFIELD_ASSIGNVALUE
 0001:00003734       INSTALL_FIX_TFIELD_ASSIGNVALUE
 0001:0000376C       FIX_TWIDESTRINGFIELD_GETDATASIZE
 0001:00003790       INSTALL_FIX_TWIDESTRINGFIELD_GETDATASIZE
 0001:000037D0       FIX_TWIDESTRINGFIELD_GETASWIDESTRING
 0001:000037FC       INSTALL_FIX_TWIDESTRINGFIELD_GETASWIDESTRING
 0001:0000383C       FIX_TWIDESTRINGFIELD_GETASVARIANT
 0001:000038A4       INSTALL_FIX_TWIDESTRINGFIELD_GETASVARIANT
 0001:000038E4       INSTALL_FIXES
 0001:00003938       Finalization
 0001:00003970       DbxDBFix
 0001:00003984       IsDbxDrvFixed
 0001:00003998       Finalization
 0001:000039C8       DbxXXDrv
 0001:00003B28       @GetPackageInfoTable
 0001:00003B30       @PackageLoad
 0001:00003B3C       @PackageUnload
 0001:00003B48       .dbxoodbc
 0002:00000000       TlsIndex
 0002:00000004       Module
 0002:0000001C       TlsProc
 0002:0000002C       bFixedSqlExpr
 0002:00000030       bFixedUnicode
 0002:00000034       Opcodes1
 0002:00000234       Opcodes2
 0002:00000434       Opcodes3
 0002:00001000       ModuleIsLib
 0002:00001001       ModuleIsPackage
 0002:00001004       HInstance
 0002:00001008       .1
 0002:0000100C       tlsBuffer
 0002:00001010       .3
 0002:00001014       HtmlHelpModule
 0002:00001018       .1
 0002:0000101C       .2
 0002:00001020       .2
 0002:00001024       .1
 0002:00001028       StringField_SetAsAnsiString
 0002:00001030       FieldAccess_FindField
 0002:00001038       IntegerField_GetIsNull
 0002:00001040       BlobField_SetVarValue
 0002:00001048       StringField_GetValue
 0002:00001050       Field_AssignValue
 0002:00001054       WideStringField_GetDataSize
 0002:0000105C       WideStringField_GetAsWideString
 0002:00001064       WideStringField_GetAsVariant
 0002:0000106C       .1


Line numbers for SysInit(SysInit.pas) segment .text

    86 0001:00000180    95 0001:00000188    98 0001:00000190   101 0001:00000198
   104 0001:000001A0   107 0001:000001A8   110 0001:000001B0   121 0001:000001B8
   122 0001:000001C0   278 0001:000001C4   279 0001:000001C9   286 0001:000001CC
   287 0001:000001CD   288 0001:000001D4   292 0001:000001D8   293 0001:000001EB
   294 0001:000001F2   295 0001:000001F6   297 0001:00000202   298 0001:0000020E
   303 0001:00000210   305 0001:00000219   306 0001:00000223   307 0001:00000228
   308 0001:00000238   314 0001:0000023C   316 0001:00000245   317 0001:0000024E
   318 0001:00000259   319 0001:0000025D   320 0001:00000263   323 0001:00000270
   327 0001:00000274   329 0001:0000027D   330 0001:00000282   331 0001:0000028B
   332 0001:00000296   418 0001:00000298   419 0001:000002A2   423 0001:000002A4
   424 0001:000002AE   425 0001:000002BF   426 0001:000002C5   490 0001:000002C8
   491 0001:000002D3   492 0001:000002DA   493 0001:000002E1   494 0001:000002E6
   495 0001:000002EE   496 0001:000002F6   497 0001:000002FB   498 0001:00000304
   499 0001:0000030D   500 0001:00000312   501 0001:00000319   502 0001:0000031D
   503 0001:00000322   504 0001:00000325   535 0001:0000032C   536 0001:00000336
   540 0001:00000338   541 0001:00000342   835 0001:00000374   835 0001:0000037B

Line numbers for Dbx23Fix(Dbx23Fix.pas) segment .text

   294 0001:0000106C   295 0001:0000108F   298 0001:00001093   300 0001:000010A7
   301 0001:000010CB   304 0001:000010D7   306 0001:00001106  4317 0001:0000110C
  4318 0001:0000113C  4319 0001:0000113D  4320 0001:0000114D  4321 0001:00001153
  4324 0001:0000115B  4325 0001:00001175  4327 0001:0000117E  4328 0001:00001182
  4329 0001:00001186  4331 0001:0000118C  4332 0001:00001194  4334 0001:0000119B
  4322 0001:0000119C  4336 0001:000011CB  4363 0001:000011D4  4364 0001:00001203
  4366 0001:0000120A  4369 0001:0000121D  4370 0001:00001220  4371 0001:00001231
  4373 0001:0000123B  4374 0001:00001249  4375 0001:00001252  4376 0001:00001256
  4378 0001:0000125B  4379 0001:0000125D  4380 0001:00001262  4382 0001:00001295
  4385 0001:000012AD  4386 0001:000012BD  4387 0001:000012C9  4388 0001:000012D3
  4389 0001:000012D9  4390 0001:000012FC  4391 0001:00001303  4392 0001:00001309
  4393 0001:0000130F  4394 0001:0000131F  4395 0001:00001342  4396 0001:00001351
  4397 0001:00001366  4399 0001:00001375  4400 0001:0000137D  4401 0001:00001388
  4402 0001:00001392  4403 0001:0000139C  4404 0001:000013A4  4405 0001:000013AC
  4407 0001:000013B2  4408 0001:000013B4  4409 0001:000013CC  4411 0001:000013D6
  4413 0001:000013E0  4414 0001:000013EB  4415 0001:00001401  4417 0001:0000141B
  4418 0001:00001428  4419 0001:00001434  4420 0001:0000143C  4421 0001:00001452
  4423 0001:0000145C  4426 0001:000014A5  4427 0001:000014AB  4429 0001:000014CA
  4430 0001:000014D1  4431 0001:000014E2  4432 0001:000014E9  4434 0001:000014F8
  4439 0001:00001506  4440 0001:0000150F  4442 0001:0000151B  4446 0001:00001527
  4447 0001:0000152D  4449 0001:00001536  4450 0001:00001541  4451 0001:0000154C
  4452 0001:00001556  4455 0001:00001565  4460 0001:0000157C  4461 0001:00001596
  4466 0001:0000159E  4467 0001:000015AB  4470 0001:000015B0  4473 0001:000015F4
  4474 0001:000015FE  4382 0001:000015FF  4476 0001:00001608  4479 0001:00001624
  4488 0001:0000165C  4503 0001:00001694  4503 0001:0000169B

Line numbers for DbxOpenOdbcApiHook(DbxOpenOdbcApiHook.pas) segment .text

   328 0001:00001724   329 0001:00001730   330 0001:0000173E   331 0001:00001744
   333 0001:0000174E   334 0001:00001752   335 0001:00001756   336 0001:0000175D
   338 0001:00001762   339 0001:0000176C   340 0001:00001773   341 0001:0000177A
   342 0001:00001783   343 0001:0000178A   344 0001:00001790   345 0001:0000179E
   346 0001:000017AB   347 0001:000017AF   348 0001:000017B5   350 0001:000017BC
   351 0001:000017C6   352 0001:000017D5   353 0001:000017DB   356 0001:000017E4
   358 0001:000017F3   360 0001:000017FD   361 0001:00001805   362 0001:00001812
   364 0001:00001819   365 0001:00001828   366 0001:00001831   367 0001:00001837
   369 0001:00001840   371 0001:00001849   374 0001:0000184E   376 0001:0000185D
   377 0001:0000186C   378 0001:0000187B   379 0001:00001887   380 0001:0000188E
   383 0001:00001897   385 0001:000018A6   386 0001:00001911   387 0001:00001918
   388 0001:00001921   389 0001:0000192A   390 0001:00001933   391 0001:0000193C
   392 0001:00001945   393 0001:0000194E   394 0001:00001957   395 0001:00001960
   397 0001:00001967   398 0001:00001970   400 0001:00001991   404 0001:000019B1
   405 0001:000019D0   406 0001:000019D9   407 0001:000019E4   410 0001:000019EF
   411 0001:00001A0E   412 0001:00001A1C   415 0001:00001A27   416 0001:00001A2D
   418 0001:00001A38   424 0001:00001A41   426 0001:00001A59   428 0001:00001A66
   433 0001:00001A70   434 0001:00001A79   436 0001:00001A7E   437 0001:00001A89
   438 0001:00001A8F   440 0001:00001A9D   441 0001:00001AA6   442 0001:00001AAF
   448 0001:00001AB4   449 0001:00001AC0   450 0001:00001AC5   451 0001:00001ACB
   453 0001:00001AD1   454 0001:00001ADC   455 0001:00001AE5   451 0001:00001AEB
   458 0001:00001AF1   462 0001:00001AFF   463 0001:00001B08   464 0001:00001B1D
   465 0001:00001B26   475 0001:00001B2C   476 0001:00001B3E   477 0001:00001B42
   478 0001:00001B47   479 0001:00001B55   480 0001:00001B5B   481 0001:00001B67
   484 0001:00001B74   485 0001:00001B8C   486 0001:00001B91   487 0001:00001BA9
   497 0001:00001BAE   500 0001:00001BB6   501 0001:00001BCC   502 0001:00001BD2
   508 0001:00001BDB   510 0001:00001BF1   511 0001:00001C05   518 0001:00001C19
   520 0001:00001C33   521 0001:00001C39   522 0001:00001C41   524 0001:00001C4D
   525 0001:00001C54   531 0001:00001C5C   532 0001:00001C6B   533 0001:00001C6F
   534 0001:00001C7B   535 0001:00001C81   536 0001:00001C8D   538 0001:00001C93
   539 0001:00001CA3   541 0001:00001CA9   542 0001:00001CBD   551 0001:00001CC4
   552 0001:00001CD0   553 0001:00001CD4   554 0001:00001CDE   555 0001:00001CEC
   556 0001:00001CF7   558 0001:00001D01   559 0001:00001D07   560 0001:00001D0D
   561 0001:00001D16   562 0001:00001D1F   565 0001:00001D26   573 0001:00001D39
   579 0001:00001D47   581 0001:00001D5C   588 0001:00001D6F   590 0001:00001D89
   592 0001:00001D95   608 0001:00001D9C   609 0001:00001DA5   611 0001:00001DAB
   614 0001:00001DC9   618 0001:00001DD9   625 0001:00001DE0   626 0001:00001DEF
   627 0001:00001DF3   628 0001:00001DF9   629 0001:00001E08   631 0001:00001E12
   633 0001:00001E1E   634 0001:00001E29   637 0001:00001E35   643 0001:00001E4A
   644 0001:00001E58   645 0001:00001E5E   646 0001:00001E6E   649 0001:00001E74
   650 0001:00001E7A   655 0001:00001E89   658 0001:00001E9A   659 0001:00001EAD
   666 0001:00001EC9   673 0001:00001ED0   674 0001:00001EDF   675 0001:00001EE3
   677 0001:00001F03   678 0001:00001F0E   680 0001:00001F1C   686 0001:00001F31
   687 0001:00001F3F   689 0001:00001F4F   692 0001:00001F6B   693 0001:00001F7E
   700 0001:00001F97   702 0001:00001FAA   703 0001:00001FB2   706 0001:00001FBC
   707 0001:00001FC8   708 0001:00001FD4   710 0001:00001FDA   713 0001:00001FE0
   718 0001:00002005   730 0001:0000200C   732 0001:00002018   735 0001:00002023
   737 0001:0000203F   739 0001:00002045   741 0001:0000204C   745 0001:00002050
   747 0001:0000205F   750 0001:00002063   753 0001:00002069   755 0001:0000206F
   758 0001:00002075   761 0001:0000207F   763 0001:00002083   766 0001:00002085
   755 0001:0000208E   769 0001:00002097   772 0001:0000209C   774 0001:000020D8
   776 0001:000020F0   779 0001:00002141   780 0001:00002177   784 0001:0000217C
   786 0001:0000218B   789 0001:00002191   792 0001:000021A8   794 0001:000021B2
   796 0001:000021C7   798 0001:000021D6   802 0001:000021DC   806 0001:000021E2
   807 0001:000021E9   811 0001:000021F0   813 0001:000021FF   816 0001:00002205
   818 0001:00002211   821 0001:00002217   823 0001:00002225   818 0001:0000222E
   826 0001:00002234   830 0001:0000223A   831 0001:00002241   843 0001:00002248
   846 0001:0000227B   849 0001:0000229E   851 0001:000022A4   853 0001:000022B0
   855 0001:000022BC   858 0001:000022C7   860 0001:000022D2   866 0001:000022E6
   868 0001:000022F2   871 0001:00002313   873 0001:0000231F   875 0001:00002327
   878 0001:00002337   883 0001:00002341   886 0001:00002347   889 0001:00002367
   892 0001:00002377   894 0001:0000237C   898 0001:00002382   900 0001:00002390
   903 0001:00002396   906 0001:000023AA   909 0001:000023BE   911 0001:000023CB
   913 0001:000023D3   915 0001:000023DE   920 0001:000023E6   880 0001:000023EA
   925 0001:000023FE   927 0001:0000241C   863 0001:00002420   931 0001:0000246E
   934 0001:00002478   937 0001:000024A5   940 0001:000024C1   942 0001:00002506
   947 0001:0000250C   950 0001:00002539   953 0001:00002545   955 0001:00002553
   957 0001:00002564   960 0001:0000256E   962 0001:0000257C   967 0001:0000258C
   969 0001:00002598   971 0001:000025AD   973 0001:000025C1   964 0001:000025C9
   977 0001:000025E2   982 0001:000025FF   985 0001:00002635   991 0001:0000263C
   994 0001:00002675   997 0001:00002681   999 0001:0000268F  1001 0001:00002696
  1004 0001:000026C0  1006 0001:000026D1  1009 0001:000026D7  1011 0001:000026E5
  1016 0001:000026FB  1018 0001:0000270C  1020 0001:00002712  1025 0001:0000271B
  1027 0001:00002730  1030 0001:0000273A  1032 0001:00002747  1034 0001:00002755
  1036 0001:00002783  1038 0001:00002798  1040 0001:000027A4  1042 0001:000027B2
  1044 0001:000027D9  1047 0001:000027F7  1052 0001:0000280D  1058 0001:00002813
  1061 0001:00002824  1064 0001:0000286A  1068 0001:00002874  1071 0001:000028AA
  1074 0001:000028B6  1076 0001:000028C4  1078 0001:000028C9  1081 0001:000028E6
  1084 0001:00002915  1087 0001:00002945  1089 0001:00002956  1092 0001:00002958
  1078 0001:0000295B  1095 0001:0000296D  1098 0001:000029B3  1103 0001:000029B8
  1106 0001:000029C7  1109 0001:000029D3  1111 0001:000029E1  1113 0001:000029F2
  1115 0001:00002A00  1120 0001:00002A10  1122 0001:00002A1C  1124 0001:00002A31
  1126 0001:00002A4B  1117 0001:00002A53  1130 0001:00002A6C  1134 0001:00002A89
  1137 0001:00002A9D  1143 0001:00002AA4  1146 0001:00002AB0  1149 0001:00002ABC
  1151 0001:00002ACA  1153 0001:00002AD8  1156 0001:00002AF5  1158 0001:00002B06
  1163 0001:00002B16  1165 0001:00002B22  1167 0001:00002B37  1169 0001:00002B51
  1160 0001:00002B59  1173 0001:00002B72  1175 0001:00002B82  1153 0001:00002B85
  1178 0001:00002B9B  1182 0001:00002BBB  1185 0001:00002BCF  1188 0001:00002BD4
  1191 0001:00002BE0  1194 0001:00002BEC  1196 0001:00002BFA  1199 0001:00002C18
  1202 0001:00002C2F  1205 0001:00002C34  1208 0001:00002C3D  1211 0001:00002C49
  1213 0001:00002C57  1216 0001:00002C6D  1219 0001:00002C84  1222 0001:00002C88
  1225 0001:00002C94  1228 0001:00002CA0  1230 0001:00002CAE  1233 0001:00002CC4
  1236 0001:00002CD8  1239 0001:00002CDC  1242 0001:00002CE5  1245 0001:00002CF1
  1247 0001:00002CFF  1250 0001:00002D18  1253 0001:00002D2F  1256 0001:00002D34
  1259 0001:00002D4C  1262 0001:00002D56  1265 0001:00002D62  1268 0001:00002D74
  1270 0001:00002D96  1273 0001:00002D9C  1276 0001:00002DAD  1278 0001:00002DBB
  1280 0001:00002DC9  1283 0001:00002DE4  1286 0001:00002DF7  1289 0001:00002E10
  1292 0001:00002E34  1309 0001:00002E38  1310 0001:00002E44  1311 0001:00002E4A
  1312 0001:00002E54  1313 0001:00002E5F  1324 0001:00002E64  1325 0001:00002E73
  1326 0001:00002E79  1327 0001:00002E83  1329 0001:00002E8B  1335 0001:00002EA0
  1336 0001:00002EAE  1339 0001:00002EC3  1340 0001:00002ED6  1347 0001:00002EF2
  1350 0001:00002EF8  1351 0001:00002F07  1352 0001:00002F15  1354 0001:00002F1C
  1355 0001:00002F2C  1356 0001:00002F36  1352 0001:00002F39  1357 0001:00002F42
  1359 0001:00002F58  1367 0001:00002F67  1370 0001:00002F70  1371 0001:00002F7C
  1372 0001:00002F91  1375 0001:00002F98  1376 0001:00002FA4  1377 0001:00002FAA
  1379 0001:00002FB2  1380 0001:00002FB5  1383 0001:00002FC5  1384 0001:00002FCD
  1386 0001:00003004  1386 0001:0000300B

Line numbers for DbxDBFix(DbxDBFix.pas) segment .text

   433 0001:0000301C   436 0001:0000304F   439 0001:0000305E   440 0001:00003069
   441 0001:00003079   442 0001:00003087   443 0001:00003093   446 0001:000030A0
   447 0001:000030A9   449 0001:000030B7   450 0001:000030CC   451 0001:000030D8
   452 0001:000030EE   455 0001:00003118   459 0001:00003120   463 0001:00003129
   465 0001:00003136   466 0001:0000313C   468 0001:00003150   469 0001:0000315D
   484 0001:00003164   485 0001:00003170   488 0001:00003179   490 0001:0000318F
   494 0001:0000319D   496 0001:000031B3   488 0001:000031B6   498 0001:000031BB
   499 0001:000031C4   501 0001:000031CE   502 0001:000031D9   504 0001:000031EC
   505 0001:000031FA   509 0001:0000322D   510 0001:00003243   513 0001:00003249
   502 0001:0000324C   515 0001:00003251   518 0001:00003259   520 0001:00003260
   521 0001:00003267   522 0001:0000326D   525 0001:00003289   527 0001:0000329D
   536 0001:000032A0   540 0001:000032A9   542 0001:000032B9   543 0001:000032C0
   546 0001:000032D2   549 0001:000032E6   551 0001:000032EC   552 0001:000032F3
   553 0001:000032F9   556 0001:00003315   558 0001:00003329   571 0001:0000332C
   573 0001:00003339   574 0001:00003355   575 0001:00003363   577 0001:0000337E
   579 0001:0000338E   582 0001:00003394   585 0001:000033BC   586 0001:000033D4
   587 0001:000033E4   589 0001:000033F0   590 0001:000033FB   591 0001:00003409
   595 0001:0000341A   598 0001:00003434   603 0001:00003444   608 0001:00003458
   620 0001:00003473   625 0001:00003499   630 0001:000034E4   632 0001:000034E8
   633 0001:000034EF   634 0001:000034F5   637 0001:00003511   639 0001:00003525
   651 0001:00003528   654 0001:0000355B   655 0001:00003566   657 0001:0000356F
   658 0001:0000357B   659 0001:00003586   660 0001:00003596   662 0001:0000359C
   663 0001:000035AE   664 0001:000035B9   665 0001:000035C4   670 0001:000035D1
   671 0001:000035DA   673 0001:000035EA   674 0001:000035F0   676 0001:00003602
   678 0001:00003608   679 0001:00003622   680 0001:00003638   684 0001:00003663
   686 0001:00003668   687 0001:0000366F   688 0001:00003675   691 0001:00003691
   693 0001:000036A5   702 0001:000036A8   705 0001:000036CA   707 0001:000036D4
   721 0001:000036FC   724 0001:0000372D   726 0001:00003734   727 0001:0000373B
   728 0001:00003741   730 0001:0000375D   731 0001:00003767   738 0001:0000376C
   739 0001:00003775   740 0001:00003789   742 0001:00003790   743 0001:00003797
   744 0001:0000379D   747 0001:000037B9   749 0001:000037CD   756 0001:000037D0
   757 0001:000037DC   758 0001:000037F5   760 0001:000037FC   761 0001:00003803
   762 0001:00003809   765 0001:00003825   767 0001:00003839   776 0001:0000383C
   777 0001:0000385B   778 0001:0000389E   780 0001:000038A4   781 0001:000038AB
   782 0001:000038B1   785 0001:000038CD   787 0001:000038E1   911 0001:000038E4
   929 0001:000038EB   932 0001:000038F3   936 0001:000038FB   940 0001:00003903
   944 0001:0000390B   948 0001:00003913   952 0001:0000391B   956 0001:00003923
   960 0001:0000392B   975 0001:00003933   980 0001:00003938   982 0001:0000396D
   977 0001:00003970   978 0001:00003979   979 0001:00003980

Line numbers for DbxXXDrv(DbxXXDrv.pas) segment .text

   129 0001:00003984   137 0001:00003988   140 0001:00003995   143 0001:000039C8
   143 0001:000039CF

Line numbers for .dbxoodbc(.\..\..\..\source\packages\pkg\dbxoodbc.dpk) segment .text

    77 0001:00003B48

Bound resource files

dbxoodbc_man_icn.res
dbxoodbc_ver.res
C:\TEMP\dtfF35.tmp


Program entry point at 0001:00003B48
