
 Start         Length     Name                   Class
 0001:00000000 00096F44H .text                   CODE
 0002:00000000 00001818H .data                   DATA
 0002:00001818 00000FA4H .bss                    BSS


Detailed map of segments

 0001:00000000 00009C73 C=CODE     S=.text    G=(none)   M=System   ACBP=A9
 0001:00009C74 000005B2 C=CODE     S=.text    G=(none)   M=SysInit  ACBP=A9
 0001:0000A228 00000094 C=CODE     S=.text    G=(none)   M=ShareExcept ACBP=A9
 0001:0000A2BC 00000056 C=CODE     S=.text    G=(none)   M=Types    ACBP=A9
 0001:0000A314 00000056 C=CODE     S=.text    G=(none)   M=KernelDefs ACBP=A9
 0001:0000A36C 00000056 C=CODE     S=.text    G=(none)   M=KernelIoctl ACBP=A9
 0001:0000A3C4 0000015E C=CODE     S=.text    G=(none)   M=Libc     ACBP=A9
 0001:0000A524 00000056 C=CODE     S=.text    G=(none)   M=SysConst ACBP=A9
 0001:0000A57C 000086E8 C=CODE     S=.text    G=(none)   M=SysUtils ACBP=A9
 0001:00012C64 00003DE5 C=CODE     S=.text    G=(none)   M=VarUtils ACBP=A9
 0001:00016A4C 0000BD00 C=CODE     S=.text    G=(none)   M=Variants ACBP=A9
 0001:0002274C 00000056 C=CODE     S=.text    G=(none)   M=RTLConsts ACBP=A9
 0001:000227A4 00001B2E C=CODE     S=.text    G=(none)   M=TypInfo  ACBP=A9
 0001:000242D4 00003F45 C=CODE     S=.text    G=(none)   M=Classes  ACBP=A9
 0001:0002821C 00000086 C=CODE     S=.text    G=(none)   M=Math     ACBP=A9
 0001:000282A4 000003E2 C=CODE     S=.text    G=(none)   M=DateUtils ACBP=A9
 0001:00028688 00000056 C=CODE     S=.text    G=(none)   M=DBConsts ACBP=A9
 0001:000286E0 0000134B C=CODE     S=.text    G=(none)   M=SqlTimSt ACBP=A9
 0001:00029A2C 00003E23 C=CODE     S=.text    G=(none)   M=FMTBcd   ACBP=A9
 0001:0002D850 00000056 C=CODE     S=.text    G=(none)   M=MaskUtils ACBP=A9
 0001:0002D8A8 0000045C C=CODE     S=.text    G=(none)   M=DB       ACBP=A9
 0001:0002DD04 00000056 C=CODE     S=.text    G=(none)   M=DBCommon ACBP=A9
 0001:0002DD5C 00000056 C=CODE     S=.text    G=(none)   M=MidConst ACBP=A9
 0001:0002DDB4 000000AB C=CODE     S=.text    G=(none)   M=DSIntf   ACBP=A9
 0001:0002DE60 00000056 C=CODE     S=.text    G=(none)   M=DbxOpenOdbcTypes ACBP=A9
 0001:0002DEB8 00000A1E C=CODE     S=.text    G=(none)   M=DbxOpenOdbcInterface ACBP=A9
 0001:0002E8D8 000001E6 C=CODE     S=.text    G=(none)   M=SyncObjs ACBP=A9
 0001:0002EAC0 000008D6 C=CODE     S=.text    G=(none)   M=DbxOpenOdbcFuncs ACBP=A9
 0001:0002F398 0000B598 C=CODE     S=.text    G=(none)   M=OdbcApi  ACBP=A9
 0001:0003A930 00000076 C=CODE     S=.text    G=(none)   M=DbxOpenOdbcDbx3Types ACBP=A9
 0001:0003A9A8 00000056 C=CODE     S=.text    G=(none)   M=StrUtils ACBP=A9
 0001:0003AA00 00000056 C=CODE     S=.text    G=(none)   M=DBXpress ACBP=A9
 0001:0003AA58 000024D5 C=CODE     S=.text    G=(none)   M=DbxOpenOdbcTrace ACBP=A9
 0001:0003CF30 00001A0B C=CODE     S=.text    G=(none)   M=DbxOpenOdbcUtils ACBP=A9
 0001:0003E93C 00000116 C=CODE     S=.text    G=(none)   M=SqlConst ACBP=A9
 0001:0003EA54 00000086 C=CODE     S=.text    G=(none)   M=IniFiles ACBP=A9
 0001:0003EADC 00000056 C=CODE     S=.text    G=(none)   M=DBConnAdmin ACBP=A9
 0001:0003EB34 00000056 C=CODE     S=.text    G=(none)   M=SqlExpr  ACBP=A9
 0001:0003EB8C 0000037E C=CODE     S=.text    G=(none)   M=DbxOpenOdbcCallback ACBP=A9
 0001:0003EF0C 000056CA C=CODE     S=.text    G=(none)   M=RegExpr  ACBP=A9
 0001:000445D8 000011DA C=CODE     S=.text    G=(none)   M=DbxObjectParser ACBP=A9
 0001:000457B4 0000899D C=CODE     S=.text    G=(none)   M=DbxOpenOdbc3 ACBP=A9
 0001:0004E154 0004492D C=CODE     S=.text    G=(none)   M=DbxOpenOdbc ACBP=A9
 0001:00092A84 000001EC C=CODE     S=.text    G=(none)   M=dbxoodbc ACBP=A9
 0002:00000000 000000FC C=DATA     S=.data    G=DGROUP   M=System   ACBP=A9
 0002:000000FC 00000034 C=DATA     S=.data    G=DGROUP   M=SysInit  ACBP=A9
 0002:00000130 00000338 C=DATA     S=.data    G=DGROUP   M=SysConst ACBP=A9
 0002:00000468 000005D0 C=DATA     S=.data    G=DGROUP   M=SysUtils ACBP=A9
 0002:00000A38 00000124 C=DATA     S=.data    G=DGROUP   M=VarUtils ACBP=A9
 0002:00000B5C 000001BA C=DATA     S=.data    G=DGROUP   M=Variants ACBP=A9
 0002:00000D18 00000090 C=DATA     S=.data    G=DGROUP   M=RTLConsts ACBP=A9
 0002:00000DA8 0000000C C=DATA     S=.data    G=DGROUP   M=TypInfo  ACBP=A9
 0002:00000DB4 00000004 C=DATA     S=.data    G=DGROUP   M=Classes  ACBP=A9
 0002:00000DB8 00000020 C=DATA     S=.data    G=DGROUP   M=DBConsts ACBP=A9
 0002:00000DD8 0000003C C=DATA     S=.data    G=DGROUP   M=SqlTimSt ACBP=A9
 0002:00000E14 0000005E C=DATA     S=.data    G=DGROUP   M=FMTBcd   ACBP=A9
 0002:00000E74 00000098 C=DATA     S=.data    G=DGROUP   M=DB       ACBP=A9
 0002:00000F0C 00000004 C=DATA     S=.data    G=DGROUP   M=DSIntf   ACBP=A9
 0002:00000F10 0000017C C=DATA     S=.data    G=DGROUP   M=DbxOpenOdbcInterface ACBP=A9
 0002:0000108C 00000014 C=DATA     S=.data    G=DGROUP   M=DbxOpenOdbcFuncs ACBP=A9
 0002:000010A0 00000009 C=DATA     S=.data    G=DGROUP   M=OdbcApi  ACBP=A9
 0002:000010AC 00000274 C=DATA     S=.data    G=DGROUP   M=DbxOpenOdbcTrace ACBP=A9
 0002:00001320 00000004 C=DATA     S=.data    G=DGROUP   M=DbxOpenOdbcUtils ACBP=A9
 0002:00001324 000000E8 C=DATA     S=.data    G=DGROUP   M=SqlConst ACBP=A9
 0002:0000140C 00000008 C=DATA     S=.data    G=DGROUP   M=IniFiles ACBP=A9
 0002:00001414 0000003D C=DATA     S=.data    G=DGROUP   M=RegExpr  ACBP=A9
 0002:00001454 0000022C C=DATA     S=.data    G=DGROUP   M=DbxObjectParser ACBP=A9
 0002:00001680 00000196 C=DATA     S=.data    G=DGROUP   M=DbxOpenOdbc ACBP=A9
 0002:0000A574 00000AE0 C=BSS      S=.bss     G=DGROUP   M=System   ACBP=A9
 0002:0000B054 00000018 C=BSS      S=.bss     G=DGROUP   M=SysInit  ACBP=A9
 0002:0000B06C 00000018 C=BSS      S=.bss     G=DGROUP   M=ShareExcept ACBP=A9
 0002:0000B084 00000004 C=BSS      S=.bss     G=DGROUP   M=Types    ACBP=A9
 0002:0000B088 00000004 C=BSS      S=.bss     G=DGROUP   M=KernelDefs ACBP=A9
 0002:0000B08C 00000004 C=BSS      S=.bss     G=DGROUP   M=KernelIoctl ACBP=A9
 0002:0000B090 00000004 C=BSS      S=.bss     G=DGROUP   M=Libc     ACBP=A9
 0002:0000B094 00000004 C=BSS      S=.bss     G=DGROUP   M=SysConst ACBP=A9
 0002:0000B098 0000017C C=BSS      S=.bss     G=DGROUP   M=SysUtils ACBP=A9
 0002:0000B214 0000005C C=BSS      S=.bss     G=DGROUP   M=VarUtils ACBP=A9
 0002:0000B270 00000198 C=BSS      S=.bss     G=DGROUP   M=Variants ACBP=A9
 0002:0000B408 00000004 C=BSS      S=.bss     G=DGROUP   M=RTLConsts ACBP=A9
 0002:0000B40C 00000004 C=BSS      S=.bss     G=DGROUP   M=TypInfo  ACBP=A9
 0002:0000B410 00000038 C=BSS      S=.bss     G=DGROUP   M=Classes  ACBP=A9
 0002:0000B448 00000004 C=BSS      S=.bss     G=DGROUP   M=Math     ACBP=A9
 0002:0000B44C 00000004 C=BSS      S=.bss     G=DGROUP   M=DateUtils ACBP=A9
 0002:0000B450 00000004 C=BSS      S=.bss     G=DGROUP   M=DBConsts ACBP=A9
 0002:0000B454 00000004 C=BSS      S=.bss     G=DGROUP   M=SqlTimSt ACBP=A9
 0002:0000B458 00000004 C=BSS      S=.bss     G=DGROUP   M=FMTBcd   ACBP=A9
 0002:0000B45C 00000004 C=BSS      S=.bss     G=DGROUP   M=MaskUtils ACBP=A9
 0002:0000B460 0000000C C=BSS      S=.bss     G=DGROUP   M=DB       ACBP=A9
 0002:0000B46C 00000004 C=BSS      S=.bss     G=DGROUP   M=DBCommon ACBP=A9
 0002:0000B470 00000004 C=BSS      S=.bss     G=DGROUP   M=MidConst ACBP=A9
 0002:0000B474 0000001C C=BSS      S=.bss     G=DGROUP   M=DSIntf   ACBP=A9
 0002:0000B490 00000004 C=BSS      S=.bss     G=DGROUP   M=DbxOpenOdbcTypes ACBP=A9
 0002:0000B494 00000014 C=BSS      S=.bss     G=DGROUP   M=DbxOpenOdbcInterface ACBP=A9
 0002:0000B4A8 00000004 C=BSS      S=.bss     G=DGROUP   M=SyncObjs ACBP=A9
 0002:0000B4AC 00000004 C=BSS      S=.bss     G=DGROUP   M=DbxOpenOdbcFuncs ACBP=A9
 0002:0000B4B0 00000008 C=BSS      S=.bss     G=DGROUP   M=OdbcApi  ACBP=A9
 0002:0000B4B8 00000004 C=BSS      S=.bss     G=DGROUP   M=DbxOpenOdbcDbx3Types ACBP=A9
 0002:0000B4BC 00000004 C=BSS      S=.bss     G=DGROUP   M=StrUtils ACBP=A9
 0002:0000B4C0 00000004 C=BSS      S=.bss     G=DGROUP   M=DBXpress ACBP=A9
 0002:0000B4C4 00000004 C=BSS      S=.bss     G=DGROUP   M=DbxOpenOdbcTrace ACBP=A9
 0002:0000B4C8 00000004 C=BSS      S=.bss     G=DGROUP   M=DbxOpenOdbcUtils ACBP=A9
 0002:0000B4CC 00000004 C=BSS      S=.bss     G=DGROUP   M=SqlConst ACBP=A9
 0002:0000B4D0 00000004 C=BSS      S=.bss     G=DGROUP   M=IniFiles ACBP=A9
 0002:0000B4D4 00000004 C=BSS      S=.bss     G=DGROUP   M=DBConnAdmin ACBP=A9
 0002:0000B4D8 00000004 C=BSS      S=.bss     G=DGROUP   M=SqlExpr  ACBP=A9
 0002:0000B4DC 00000004 C=BSS      S=.bss     G=DGROUP   M=DbxOpenOdbcCallback ACBP=A9
 0002:0000B4E0 00000004 C=BSS      S=.bss     G=DGROUP   M=RegExpr  ACBP=A9
 0002:0000B4E4 00000004 C=BSS      S=.bss     G=DGROUP   M=DbxObjectParser ACBP=A9
 0002:0000B4E8 0000002C C=BSS      S=.bss     G=DGROUP   M=DbxOpenOdbc3 ACBP=A9
 0002:0000B514 00000004 C=BSS      S=.bss     G=DGROUP   M=DbxOpenOdbc ACBP=A9


  Address         Publics by Name

 0001:000068D8       .
 0002:00000090       .
 0001:00006B58       .
 0002:00001AE0       .
 0002:000000E0       .
 0002:0000AC0C       .
 0001:00007054       .
 0002:00001B24       .
 0002:000000F0       .
 0002:0000B010       .
 0001:00008C20       .
 0002:00002054       .
 0002:000000F8       .
 0002:0000B014       .
 0001:000068D8       ..
 0002:00000090       ..
 0001:00006B58       ..
 0002:00001AE0       ..
 0002:000000E0       ..
 0002:0000AC0C       ..
 0001:00007054       ..
 0002:00001B24       ..
 0002:000000F0       ..
 0002:0000B010       ..
 0001:00008C20       ..
 0002:00002054       ..
 0002:000000F8       ..
 0002:0000B014       ..
 0002:0000B4D8       .01
 0002:0000B064       .1
 0002:0000B06C       .1
 0002:0000B084       .1
 0002:0000B08C       .1
 0002:0000B094       .1
 0002:0000B408       .1
 0002:0000B44C       .1
 0002:0000B450       .1
 0002:0000B454       .1
 0002:0000B470       .1
 0002:0000B490       .1
 0002:0000B494       .1
 0002:0000B4AC       .1
 0002:0000B4B8       .1
 0002:0000B4BC       .1
 0002:0000B4C0       .1
 0002:0000B4C8       .1
 0002:0000B4DC       .1
 0002:0000B088       .2
 0002:0000B448       .2
 0002:0000B45C       .2
 0002:0000B474       .2
 0002:0000B4CC       .2
 0002:0000B4D4       .2
 0002:0000B4E4       .2
 0002:0000B514       .23
 0002:0000B090       .3
 0002:0000B458       .3
 0002:0000B46C       .3
 0002:0000B4E0       .3
 0002:0000B468       .36
 0002:0000B41C       .45
 0002:0000AB24       .5
 0002:0000B26C       .5
 0002:0000B4B0       .5
 0002:0000B40C       .6
 0002:0000B4A8       .6
 0002:0000B510       .71
 0002:0000B204       .74
 0002:0000B4D0       .8
 0002:0000B290       .81
 0002:0000B4C4       .9
 0001:000099B4       ._BorUnwind_AddressIsInPCMap
 0001:00008558       ._BorUnwind_BCBLookup
 0001:00008C54       ._BorUnwind_ClearForeignUnwindHook
 0001:00008A88       ._BorUnwind_DumpUnwindInfo
 0001:00009A5C       ._BorUnwind_GetFuncUnwindInfo
 0001:000094A0       ._BorUnwind_Resume
 0001:00007F78       ._BorUnwind_SetCPPHandler
 0001:00008C24       ._BorUnwind_SetForeignUnwindHook
 0001:00009AA0       ._BorUnwind_SetUnhandledExceptionFilter
 0002:0000B020       ._BorUnwind_UEFOuterProc
 0002:0000B024       ._BorUnwind_UnhandledExceptionFilter
 0002:000000E0       ._dbfp
 0002:0000B00C       ._dbinits
 0002:000000F0       ._debug_class.24
 0002:000000F4       ._debug_class.25
 0001:0000698C       .Arith_WrSigned
 0001:000068D8       .Arith_WrUnsigned
 0001:00008064       .BCBPersonalityFn
 0001:00007480       .BitCount
 0001:00008EFC       .CheckAlternatives
 0002:000000EC       .class_count.8
 0001:00007F9C       .CopyArg
 0002:0000B010       .CPPhandler
 0002:000000E4       .current_class
 0001:00006E0C       .debug_file
 0001:00006F14       .debug_shutdown
 0001:00007058       .DecodeFrameInfo
 0001:000071A8       .DecodeReversedFrameInfo
 0001:00007358       .DecodeTo
 0001:00007B74       .DelphiPersonalityFn
 0002:0000AC0C       .enabled_classes.7
 0001:00009180       .FindPersonality
 0001:0000721C       .FindRange
 0001:00007298       .FindRangeCPP
 0002:0000B014       .ForeignUnwindHooks
 0001:000068D8       .gcc2_compiled.
 0001:00006B58       .gcc2_compiled.
 0001:00007054       .gcc2_compiled.
 0001:00008C20       .gcc2_compiled.
 0001:000092CC       .GetContext
 0001:000094A8       .GetFSChain
 0001:00006D94       .getSTDOUT
 0001:00006B58       .glob_match
 0001:00007308       .InitDelphiDecoder
 0002:000000F8       .initialized.9
 0001:00009478       .InstallAndResume
 0002:00000090       .lenTab
 0002:0000B01C       .LookList
 0001:00008010       .PushArg
 0002:0000B028       .RunningCodeSizeTotal
 0002:0000B03C       .RunningExcProcTotal
 0002:0000B02C       .RunningExcSizeTotal
 0002:0000B040       .RunningFramedProcTotal
 0002:0000B048       .RunningNonFramedProcUSize
 0002:0000B044       .RunningPotentialSavings
 0002:0000B038       .RunningProcCountTotal
 0002:0000B034       .RunningRangeSizeTotal
 0002:0000B04C       .RunningSmallProcCount
 0002:0000B050       .RunningSmallProcRanges
 0002:0000B030       .RunningUnwindSizeTotal
 0002:000000D0       .shiftTab
 0002:000000E8       .state.6
 0001:000074BC       .UnwindDelphiFrame
 0001:000015B8       @_CLenToPasStr
 0001:FFFFF910       @_close
 0001:00001594       @_CToPasStr
 0001:FFFFF9E0       @_errno_location
 0001:FFFFF980       @_free
 0001:FFFFF940       @_getcwd
 0001:FFFFF950       @_getenv
 0001:000008D4       @_IOTest
 0001:00004794       @_lldiv
 0001:0000488C       @_llmod
 0001:00004760       @_llmul
 0001:0000498C       @_llshl
 0001:00004828       @_lludiv
 0001:00004924       @_llumod
 0001:000049B4       @_llushr
 0001:FFFFF970       @_malloc
 0001:FFFFF900       @_open
 0001:FFFFFA60       @_raise
 0001:FFFFF920       @_read
 0001:FFFFF990       @_realloc
 0001:FFFFF930       @_write
 0001:FFFFFA70       @_xstat
 0001:00000B5C       @AbstractError
 0001:00001EB4       @AfterConstruction
 0001:00002AE0       @Assert
 0001:0000128C       @AStrCmp
 0001:00001EE0       @BeforeDestruction
 0001:000094B8       @BorUnwind_ClosestDelphiHandler
 0001:00008974       @BorUnwind_DelphiForeignUnwindHook
 0001:00008728       @BorUnwind_DelphiLookup
 0001:00008E50       @BorUnwind_FindGOT
 0001:00009310       @BorUnwind_GetGR
 0001:000092EC       @BorUnwind_GetIP
 0001:00009ACC       @BorUnwind_GetUEFOuterProc
 0001:00009AF0       @BorUnwind_GetUnhandledExceptionFilter
 0001:00009680       @BorUnwind_RaiseException
 0001:00008C78       @BorUnwind_RegisterIPLookup
 0001:000093B0       @BorUnwind_SetGR
 0001:000092FC       @BorUnwind_SetIP
 0001:00008DA0       @BorUnwind_UnregisterIPLookup
 0001:00001960       @BoundErr
 0001:00001D68       @CallDynaInst
 0001:00001E68       @ClassCreate
 0001:00001E8C       @ClassDestroy
 0001:00002284       @ClassHandleException
 0001:000011AC       @Close
 0001:00000930       @Copy
 0001:000041A0       @CopyArray
 0001:00004058       @CopyRecord
 0001:00001F70       @DbgEvalEnd
 0001:00001F58       @DbgEvalExcept
 0001:00001F88       @DbgEvalFrame
 0001:00001F40       @DbgEvalMarker
 0001:00001F00       @DbgExcNotify
 0001:00002344       @DestroyException
 0001:00004750       @DispCallByIDError
 0001:000042D8       @Dispose
 0001:000023C8       @DoneExcept
 0001:00005048       @DynArrayAsg
 0001:00005004       @DynArrayClear
 0001:00004E98       @DynArrayCopy
 0001:00004EE0       @DynArrayCopyRange
 0001:00004C8C       @DynArrayHigh
 0001:00004C7C       @DynArrayLength
 0001:00004E84       @DynArraySetLength
 0001:0000A184       @ExitLib
 0001:00001310       @FillChar
 0001:00004048       @Finalize
 0001:00003F38       @FinalizeArray
 0001:00003EF4       @FinalizeRecord
 0001:0000118C       @Flush
 0001:00001948       @FpuInit
 0001:00000208       @FreeMem
 0001:FFFFF9C0       @ftruncate
 0001:0000A1AC       @GetCallerEIP
 0001:000001B4       @GetMem
 0001:00009F18       @GetTls
 0001:00002A2C       @Halt
 0001:0000285C       @Halt0
 0001:000020E0       @HandleAnyException
 0001:000021FC       @HandleFinally
 0001:000021B0       @HandleOnExceptionPIC
 0001:00003EE4       @Initialize
 0001:00003E30       @InitializeArray
 0001:00003DF0       @InitializeRecord
 0001:000026B0       @InitImports
 0001:0000A094       @InitLib
 0001:00002680       @InitResStringImports
 0001:00002650       @InitResStrings
 0001:00000AE8       @INT
 0001:00005BB8       @IntfAddRef
 0001:00005B70       @IntfCast
 0001:00005B0C       @IntfClear
 0001:00005B2C       @IntfCopy
 0001:00001CDC       @IsClass
 0001:00000980       @LGetDir
 0001:FFFFF9B0       @lseek
 0001:000035E0       @LStrAddRef
 0001:00002B50       @LStrArrayClr
 0001:00002B8C       @LStrAsg
 0001:0000338C       @LStrCat
 0001:000033E4       @LStrCat3
 0001:00003478       @LStrCatN
 0001:00002B24       @LStrClr
 0001:00003524       @LStrCmp
 0001:000036A0       @LStrCopy
 0001:000036EC       @LStrDelete
 0001:0000330C       @LStrFromArray
 0001:00003250       @LStrFromChar
 0001:00003280       @LStrFromPChar
 0001:00002C4C       @LStrFromPCharLen
 0001:000032B8       @LStrFromPWChar
 0001:00003188       @LStrFromPWCharLen
 0001:000032FC       @LStrFromString
 0001:00003268       @LStrFromWChar
 0001:00003338       @LStrFromWStr
 0001:00003748       @LStrInsert
 0001:00002BE0       @LStrLAsg
 0001:0000337C       @LStrLen
 0001:00003898       @LStrOfChar
 0001:000037BC       @LStrPos
 0001:00003820       @LStrSetLength
 0001:00003618       @LStrToPChar
 0001:00003350       @LStrToString
 0001:000042B8       @New
 0001:00002C10       @NewAnsiString
 0001:00003904       @NewWideString
 0001:00001648       @Pow10
 0001:00001268       @PStrCpy
 0001:00001228       @PStrNCat
 0001:000022B8       @RaiseAgain
 0001:00002248       @RaiseAtExcept
 0001:00002274       @RaiseExcept
 0001:FFFFFA90       @readlink
 0001:0000025C       @ReallocMem
 0001:00000C1C       @RewritText
 0001:00000B14       @ROUND
 0001:00002A54       @Run0Error
 0001:00002A64       @RunError
 0001:000015E8       @SetElem
 0001:FFFFFBD0       @setlocale
 0001:00001628       @SetSub
 0001:00001618       @SetUnion
 0001:0000256C       @StartLib
 0001:FFFFFA80       @strlen
 0001:00000B2C       @TRUNC
 0001:00002A88       @UnhandledException
 0001:00003688       @UniqueStringA
 0001:00003694       @UniqueStringW
 0001:000049DC       @ValInt64
 0001:00001338       @ValLong
 0001:00004410       @VarClear
 0001:0000473C       @VarClr
 0001:00004430       @VarCopy
 0001:000045F4       @VarFromBool
 0001:00004638       @VarFromCurr
 0001:000046DC       @VarFromDisp
 0001:000045A8       @VarFromInt
 0001:000045D0       @VarFromInt64
 0001:000046BC       @VarFromIntf
 0001:0000467C       @VarFromLStr
 0001:0000465C       @VarFromPStr
 0001:00004614       @VarFromReal
 0001:0000469C       @VarFromWStr
 0001:000046FC       @VarNeg
 0001:0000471C       @VarNot
 0001:000044A8       @VarToBool
 0001:000044F8       @VarToCurr
 0001:00004588       @VarToDisp
 0001:00004450       @VarToInt
 0001:00004470       @VarToInt64
 0001:00004568       @VarToIntf
 0001:00004528       @VarToLStr
 0001:000044C8       @VarToReal
 0001:00004548       @VarToWStr
 0001:00001490       @WriteBytes
 0001:000038D4       @WriteLString
 0001:00001508       @WriteSpaces
 0001:00003DE4       @WStrAddRef
 0001:0000394C       @WStrArrayClr
 0001:00003958       @WStrAsg
 0001:00003B60       @WStrCat
 0001:00003BF4       @WStrCatN
 0001:00003940       @WStrClr
 0001:00003C58       @WStrCmp
 0001:00003CF4       @WStrCopy
 0001:00003AA0       @WStrFromChar
 0001:00003B28       @WStrFromLStr
 0001:00003970       @WStrFromPCharLen
 0001:00003AB8       @WStrFromPWChar
 0001:00003A34       @WStrFromPWCharLen
 0001:00003AFC       @WStrFromWArray
 0001:00003964       @WStrLAsg
 0001:00003B50       @WStrLen
 0001:00003D64       @WStrSetLength
 0001:00003B3C       @WStrToPWChar
 0001:FFFFFD80       __close
 0001:FFFFFE40       __ctype_get_mb_cur_max
 0001:FFFFFD90       __lseek
 0001:FFFFFDA0       __read
 0001:FFFFFCD0       __time
 0001:FFFFFDB0       __write
 0001:FFFFFCB0       _BorUnwind_ClosestDelphiHandler
 0001:FFFFFC90       _BorUnwind_DelphiLookup
 0001:FFFFFCA0       _BorUnwind_RaiseException
 0001:FFFFFC70       _BorUnwind_RegisterIPLookup
 0001:FFFFFC80       _BorUnwind_UnregisterIPLookup
 0001:0002BF98       _CopyBytes
 0001:0002BFB0       _CopyOddFractions
 0001:0002BFE0       _CopyRestBlank
 0001:00017530       _DispInvoke
 0001:000170D4       _DispInvokeError
 0001:0002BE28       _Divide
 0001:0002BF68       _GetRemainder
 0001:0002BF80       _GetSubRemainder
 0002:0000A2F4       _GLOBAL_OFFSET_TABLE_
 0001:0002BC90       _LongDivide
 0001:0002B314       _LongMultiply
 0001:0002B6AC       _Multiply
 0001:0001CA60       _OleVarFromInt
 0001:0001CF64       _OleVarFromLStr
 0001:0001CFC4       _OleVarFromPStr
 0001:0001D0CC       _OleVarFromVar
 0002:0000B498       _RegisterDbXpressLibs
 0001:0002B03C       _ShortMultiply
 0001:0001FA04       _VarAddRef
 0001:00020438       _VarArrayGet
 0001:00020578       _VarArrayPut
 0001:00020194       _VarArrayRedim
 0001:00018274       _VarCast
 0001:000184FC       _VarCastOle
 0001:00017504       _VarClear
 0001:0001EF4C       _VarCmp
 0001:00017B24       _VarCopy
 0001:00017E70       _VarCopyNoInd
 0001:0001CD0C       _VarFromBool
 0001:0001CAA0       _VarFromByte
 0001:0001CD8C       _VarFromCurr
 0001:0001CC94       _VarFromCurrency
 0001:0001CCD0       _VarFromDate
 0001:0001CEFC       _VarFromDisp
 0001:0001CC58       _VarFromDouble
 0001:0001CF48       _VarFromDynArray
 0001:0001C9BC       _VarFromInt
 0001:0001CBE8       _VarFromInt64
 0001:0001CA20       _VarFromInteger
 0001:0001CEB0       _VarFromIntf
 0001:0001CB24       _VarFromLongWord
 0001:0001CDA8       _VarFromLStr
 0001:0001CDF4       _VarFromPStr
 0001:0001CD54       _VarFromReal
 0001:0001CB64       _VarFromShortInt
 0001:0001CC24       _VarFromSingle
 0001:0001CBA8       _VarFromSmallInt
 0001:0001CD70       _VarFromTDateTime
 0001:0001CAE4       _VarFromWord
 0001:0001CE54       _VarFromWStr
 0001:0001F168       _VarNeg
 0001:0001F74C       _VarNot
 0001:00017138       _VarNull
 0001:0001E2AC       _VarOp
 0001:00017E9C       _VarStringToOleStr
 0001:00019BB4       _VarToBool
 0001:00019F28       _VarToBoolWithFix
 0001:00018CE4       _VarToByte
 0001:0001B1D0       _VarToCurrency
 0001:0001AB00       _VarToDate
 0001:0001C8D4       _VarToDisp
 0001:0001A1F4       _VarToDouble
 0001:0001C9A8       _VarToDynArray
 0001:0001A59C       _VarToExtended
 0001:0001948C       _VarToInt64
 0001:0001882C       _VarToInteger
 0001:0001C7E0       _VarToIntf
 0001:00018FE4       _VarToLongWord
 0001:0001B9A8       _VarToLStr
 0001:0001BF08       _VarToPStr
 0001:00018C04       _VarToShortInt
 0001:0001A5D4       _VarToSingle
 0001:00018DBC       _VarToSmallInt
 0001:00018EE0       _VarToWord
 0001:0001C1CC       _VarToWStr
 0001:00020010       _Write0Variant
 0001:0001FF94       _WriteVariant
 0002:0000A598       AbstractErrorProc
 0001:000007A8       AcquireExceptionObject
 0001:0002AB8C       AddChars
 0001:0002D2E8       AddDigit
 0001:000058CC       AddModuleUnloadProc
 0001:0000590C       AddModuleUnloadProc
 0001:0002C520       AddNormalizedFractions
 0001:0002D2C0       AddOneChar
 0001:0002AC80       AddStrings
 0002:00000DF4       AdjustAmt
 0002:00000DFC       AdjustAmt
 0002:00000E04       AdjustAmt
 0002:00000E0C       AdjustAmt
 0001:0002B824       AdjustDecimalPosition
 0001:0002C998       AdjustNibbles
 0001:00050D70       AllocateDbxHStmtNodes
 0001:00000730       AllocateException
 0001:0000A6CC       AllocMem
 0001:00009C74       AllocTlsBuffer
 0001:00009D28       AllocTlsIndex
 0001:0000A9DC       AnsiCompareStr
 0001:0000AA44       AnsiCompareText
 0001:0000A96C       AnsiLowerCase
 0001:0001101C       AnsiPos
 0001:0003E7D4       AnsiPos
 0001:0000AAC0       AnsiSameText
 0001:0000AB00       AnsiStrComp
 0001:00011088       AnsiStrPos
 0001:0001117C       AnsiStrRScan
 0001:000111D0       AnsiStrScan
 0001:0000613C       AnsiToUtf8
 0001:0000A8FC       AnsiUpperCase
 0001:0001D6D8       AnyOp
 0001:0001C744       AnyToIntf
 0001:0000D850       AppendChars
 0001:0000DBC4       AppendFormat
 0001:0000D8DC       AppendNumber
 0001:0000D8B0       AppendString
 0001:00000668       AreOSExceptionsBlocked
 0002:0000A5B4       ArgCount
 0001:0003E77C       ArgStrNull
 0002:0000A5B8       ArgValues
 0001:00006AE8       Arith_RdSigned
 0001:00006A70       Arith_RdUnsigned
 0001:0003BE14       ArrayToStr
 0001:0002EFAC       ArrScanByte
 0001:0002EFD4       ArrScanWord
 0001:000101C0       AssertErrorHandler
 0002:0000A590       AssertErrorProc
 0001:00023914       AssignLongStr
 0001:00024120       AssignVariant
 0001:0001528C       BackupVarBoolFromStr
 0001:00015418       BackupVarBStrFromBool
 0001:00015318       BackupVarBStrFromCy
 0001:00015398       BackupVarBStrFromDate
 0001:00015214       BackupVarCyFromStr
 0001:0001519C       BackupVarDateFromStr
 0001:00015034       BackupVarI4FromStr
 0001:00014F90       BackupVariantChangeTypeEx
 0001:000150AC       BackupVarR4FromStr
 0001:00015124       BackupVarR8FromStr
 0002:00000B74       BaseTypeMap
 0001:0003D1A8       BCD2Str
 0001:0002D0B8       BcdAdd
 0001:0002CB84       BcdCompare
 0001:0002CEBC       BcdDivide
 0001:0002D03C       BcdDivide
 0001:00029AA8       BcdError
 0001:00029A2C       BcdErrorFmt
 0001:0002CD3C       BcdMultiply
 0001:0002CE40       BcdMultiply
 0001:0002D644       BcdScale
 0001:0002CCD8       BcdSubtract
 0001:0002D72C       BCDToCurr
 0001:0002A6B8       BcdToDouble
 0001:0002D4E0       BcdToStr
 0001:00014FFC       BiUnimplemented
 0001:0002B648       BlankArgument
 0001:0000062C       BlockOSExceptions
 0002:00000DA8       BooleanIdents
 0002:00000B70       BooleanToStringRule
 0001:0000B45C       BoolToStr
 0001:0003BDA8       BoolToStr
 0001:0001B688       BoolToWStrViaOS
 0001:00002DCC       BufConvert
 0001:0003D8AC       BufConvert
 0001:0003D820       BufConvert0
 0001:0008B64C       BuildTableIndexKey
 0001:00010C00       ByteType
 0001:00010B68       ByteTypeTest
 0001:0008B728       CacheTableIndex
 0001:0007ABF8       CalculateBlobFixSize
 0001:FFFFFE50       calloc
 0001:00002400       CallProc
 0001:0002B5C4       CanUseShort
 0002:000016D0       cBindMapDateTimeOdbc2
 0002:000016DC       cBindMapDateTimeOdbc3
 0002:00001310       cBoolean
 0002:00001318       cBoolean
 0002:00000C20       CBooleanToRelationship
 0002:00001814       cBoolOptionSwitches
 0002:00000B48       cCheckAll
 0002:00001680       cConnectionOptionsDefault
 0002:0000B4E8       cConnectionOptionsDefault3
 0002:00000FD0       cConnectionOptionsDescs
 0002:00000F10       cConnectionOptionsNames
 0002:000016A8       cConnectionOptionsRestrictions
 0002:00000FA8       cConnectionOptionsTypes
 0002:00001298       cDbmsType
 0002:0000180C       cDbxDriverVersionString
 0002:00001810       cDbxProductVersionString
 0002:000016E8       cDecimalSeparatorDefault
 0002:00001094       CEnvVars
 0002:000016F4       cGetOptionExceptionInfos
 0002:0000B288       ChangeAnyProc
 0001:00002CCC       CharacterSizeLocaleChar
 0001:0003DA24       CharacterSizeLocaleChar
 0001:00002CAC       CharacterSizeWideChar
 0001:00002F7C       CharFromWChar
 0001:00010D1C       CharLength
 0001:0003F02C       CharLower
 0001:0003EF7C       CharUpper
 0001:00077B64       CheckAutoIncSubType
 0001:000122D8       CheckLocale
 0001:00050C70       CheckMaxLines
 0001:00029898       CheckSqlTimeStamp
 0001:0008B7D8       CheckTableIndexColumn
 0001:0001D698       CheckType
 0001:0006C7C4       ChkDbxSQLParamDelim
 0001:0006C7F4       ChkDbxSQLParamDelim
 0002:00000B8C       CInvalidCustomVariantType
 0001:00028174       Classes
 0002:0000B284       ClearAnyProc
 0001:00043F28       ClearMatchs
 0001:00052654       ClearNewErrors
 0001:000212F4       ClearVariantTypeList
 0002:000010A4       cLibsSeparator
 0002:00000B54       cLockResult
 0002:00000C2C       CmpTypeMap
 0001:00015018       CmpUnimplemented
 0002:0000108C       cNullAnsiCharBuf
 0002:00001090       cNullWideCharBuf
 0002:00001224       cOdbcDriverType
 0002:0009CF64       CodeSegSize
 0001:0002C8C8       CompactBcd
 0001:00059CEC       CompactNullConn
 0001:0005A194       CompactNullConn
 0001:0002A8F8       CompareDigits
 0001:0000A83C       CompareMem
 0001:0002C5EC       CompareNormalizedFractions
 0001:0000A800       CompareStr
 0001:0000A86C       CompareText
 0001:0000B350       CompareWith
 0001:0000DA6C       ConvertEraString
 0001:0000A658       ConvertError
 0001:0000A684       ConvertErrorFmt
 0001:0000DAC4       ConvertYearString
 0002:00001068       cOptionSwitchesNames
 0001:00004C98       CopyArray
 0001:0000A1B8       Copyright
 0002:00000014       CoreDumpEnabled
 0001:0001551C       CountElements
 0002:00000B90       CRangeToType
 0001:000100E8       CreateAssertException
 0001:0000FFC4       CreateInOutError
 0002:0000167C       cRegExprSpesialSymbols
 0002:00000D04       CRelationshipToBoolean
 0002:00000B40       CResult
 0002:00000B4C       cResults
 0002:000004EC       cSimpleBoolStrs
 0002:000010A8       cSqlAttrOdbcVerSeparator
 0002:000011B8       cSQLCommandOption
 0002:000010C4       cSQLConnectionOption
 0002:00001218       cSQLCursorOption
 0002:000010AC       cSQLDriverOption
 0002:00001170       cSQLMetaDataOption
 0002:00001204       cSTMTParamType
 0002:00000CAC       CText
 0001:FFFFFB70       ctime
 0002:00000CA8       CTruth
 0001:0001E720       CurrCompare
 0002:0000B0A4       CurrencyDecimals
 0002:0000B0A0       CurrencyFormat
 0002:00000A1C       CurrencyFormats
 0002:0000B09C       CurrencyString
 0001:0000067C       CurrentException
 0001:000006AC       CurrentPrivateException
 0001:0000D7D0       CurrentYear
 0001:0001DDBC       CurrOp
 0001:0002D68C       CurrToBCD
 0001:0000CE38       CurrToStr
 0001:0001B5D8       CurrToWStrViaOS
 0002:00000A38       CVarTypeToElementInfo
 0002:00000510       CWNear
 0002:00000E70       CWNear
 0002:0000107C       cXSQLCommandOptionStringTypes
 0002:00001074       cXSQLConnectionOptionStringTypes
 0002:00001080       cXSQLMetaDataOptionStringTypes
 0001:0001E6D8       DateCompare
 0001:0001D850       DateOp
 0002:0000B0A5       DateSeparator
 0001:00029788       DateTimeToSQLTimeStamp
 0001:0000E574       DateTimeToStr
 0001:0000E41C       DateTimeToString
 0001:0000D168       DateTimeToTimeStamp
 0001:0001B630       DateToWStrViaOS
 0001:00028668       DateUtils
 0001:0000D794       DayOfWeek
 0001:000282A4       DaysInAMonth
 0001:0002DC68       DB
 0002:0000B464       DBApplication
 0002:00000F0C       DbClientHandle
 0001:0002DD3C       DBCommon
 0001:0003EB14       DBConnAdmin
 0001:000286C0       DBConsts
 0002:00001604       DbmsObjectNameTemplateInfo
 0002:0000B460       DBScreen
 0002:000013BC       DbxError
 0001:00045794       DbxObjectParser
 0001:00092C20       dbxoodbc
 0001:00092A5C       DbxOpenOdbc
 0001:0004E0E8       DbxOpenOdbc3
 0001:0003EEEC       DbxOpenOdbcCallback
 0001:0003A988       DbxOpenOdbcDbx3Types
 0001:0002F378       DbxOpenOdbcFuncs
 0001:0002E8B8       DbxOpenOdbcInterface
 0001:0003CE80       DbxOpenOdbcTrace
 0001:0002DE98       DbxOpenOdbcTypes
 0001:0003E8B4       DbxOpenOdbcUtils
 0001:0003AA38       DBXpress
 0002:0000050C       DCon10
 0001:00006C40       debug_class_enabled
 0001:00006FFC       debug_continue
 0001:00006E34       debug_init
 0001:00006F74       debug_print
 0002:0000B0A3       DecimalSeparator
 0001:00020920       DecIndices
 0001:0000D758       DecodeDate
 0001:0000D5E0       DecodeDateFully
 0001:0000D3A4       DecodeTime
 0002:00000010       Default8087CW
 0002:00001454       DefaultMathesIndexes
 0002:0000147C       DefaultObjectNameTemplateInfo
 0002:00000018       DefaultTextLineBreakStyle
 0002:0000B098       DeferUserInterrupts
 0002:0000059C       DefLongDayNames
 0002:00000550       DefLongMonthNames
 0002:00000580       DefShortDayNames
 0002:00000520       DefShortMonthNames
 0001:00005510       DelayLoadResourceModule
 0001:FFFFFF90       DeleteCriticalSection
 0002:00000070       dig
 0001:00092418       DisableLinker
 0002:0000A574       DispCallByIDProc
 0001:00050D14       DisposeDbxConStmt
 0001:0000A614       DivMod
 0001:FFFFFAA0       dladdr
 0001:FFFFFC20       dladdr
 0001:FFFFFF20       dladdr
 0001:FFFFFAC0       dlclose
 0001:FFFFFC10       dlclose
 0001:FFFFFF10       dlclose
 0001:FFFFFAE0       dlerror
 0001:FFFFFEF0       dlerror
 0002:0000B05C       DllProc
 0001:FFFFFAB0       dlopen
 0001:FFFFFC00       dlopen
 0001:FFFFFEE0       dlopen
 0001:FFFFFAD0       dlsym
 0001:FFFFFF00       dlsym
 0001:0006CBFC       DoFetchColumns
 0001:0006CF50       DoFetchIndexColumns
 0001:0006CD98       DoFetchIndexes
 0001:0006C828       DoFetchTables
 0001:0004FA44       DoFormatParameter
 0001:0002F8C0       DoGetProcAddress
 0001:0002F8FC       DoGetProcAddressEx
 0001:00092488       DoInitialzeUnit
 0001:0006D268       DoMetadataQuery
 0001:0006D14C       DoMetadataQueryExecute
 0001:00010AB4       DoneExceptions
 0001:00027F70       DoneThreadSynchronization
 0001:0006BB7C       DoPrepareNow
 0001:0006B6F4       DoReBindParams
 0001:000923E8       DoRegisterDbXpressLibA
 0001:00092400       DoRegisterDbXpressLibAW
 0001:0004E068       DoRegisterDbXpressLibW
 0001:0004E08C       DoRegisterDbXpressLibWA
 0001:000584F0       DoRelaseDbxConStmt
 0001:00046EA0       DoSetCustomString
 0001:00046CA0       DoSetVendoLib
 0001:00033C94       DoSQLFreeHandle
 0002:00000DB0       DotSep
 0001:00025334       DoWrite
 0001:0002DE34       DSIntf
 0001:FFFFFBC0       dup
 0001:0002088C       DynArrayBounds
 0001:00004CB8       DynArrayClear
 0001:000207A4       DynArrayDim
 0001:00020770       DynArrayElTypeInfo
 0001:00020F50       DynArrayFromVariant
 0001:00020730       DynArrayIndex
 0001:00004CC4       DynArraySetLength
 0001:000207D8       DynArraySize
 0001:00020B90       DynArrayToVariant
 0001:00020A98       DynArrayVariantBounds
 0001:00020B2C       DynArrayVarType
 0001:0000FFA0       EHeapException.FreeInstance
 0001:00006268       ElfHashLowercase
 0001:00040EEC       EmitComplexBraces
 0001:00041654       EmitExactly
 0001:00041734       EmitRange
 0001:00041878       EmitRangeC
 0001:00041808       EmitRangeCPrim
 0001:00041ACC       EmitRangeStr
 0001:00040FFC       EmitSimpleBraces
 0001:00041AA0       EmitSimpleRangeC
 0001:0001E498       EmptyCompare
 0001:0001DD14       EmptyOp
 0002:0000B270       EmptyParam
 0002:00000468       EmptyStr
 0002:0000046C       EmptyWideStr
 0001:0000D580       EncodeDate
 0001:00028308       EncodeDateTime
 0001:0000D350       EncodeTime
 0001:FFFFFF70       EnterCriticalSection
 0002:0000B1F8       EraCount
 0002:0000B16C       EraNames
 0002:0000B1A4       EraRanges
 0001:0000EA8C       EraToYear
 0002:0000B1DC       EraYearFormats
 0002:0000B188       EraYearOffsets
 0001:000008C0       Error
 0002:00000008       ErrorAddr
 0001:0000083C       ErrorAt
 0001:00010060       ErrorHandler
 0002:000005B8       ErrorMap
 0002:0000A57C       ErrorProc
 0002:0000A958       ErrOutput
 0001:FFFFFDC0       euidaccess
 0001:000007EC       ExceptAddr
 0001:000104EC       ExceptHandler
 0001:0000FD44       Exception.Create
 0001:0000FDB0       Exception.CreateFmt
 0001:0000FE68       Exception.CreateRes
 0001:0000FED4       Exception.CreateResFmt
 0002:0000A588       ExceptionClass
 0001:0000FAE0       ExceptionErrorMessage
 0002:000005F0       ExceptMap
 0001:000007C4       ExceptObject
 0002:0000A578       ExceptProc
 0001:00010FC4       ExcludeTrailingPathDelimiter
 0002:00000000       ExcNotificationProc
 0002:00000004       ExitCode
 0001:00002778       ExitDll
 0002:0000A5A8       ExitProc
 0001:FFFFF9A0       ExitProcess
 0002:0000A594       ExitProcessProc
 0001:0000BAD8       ExpandFileName
 0001:0000B9BC       ExpandTilde
 0002:0000A580       ExternalExceptProc
 0001:0004E9AC       ExtractCatalog
 0001:0000B958       ExtractFileName
 0001:0000B8F4       ExtractFilePath
 0001:0002F7DC       ExtractNextLibName
 0002:0000B200       FalseBoolStrs
 0001:FFFFFB80       fclose
 0001:FFFFFD60       fcntl
 0002:00000500       FCon1E18
 0002:00000E6C       FConst10
 0001:FFFFFB50       fdopen
 0001:FFFFFBB0       fflush
 0002:00000E74       FieldTypeNames
 0002:0000A5B0       FileAccessRights
 0001:0000B7D8       FileClose
 0001:0000B62C       FileCreate
 0001:0000B814       FileExists
 0002:0000000C       FileMode
 0001:00000CC8       FileNOPProc
 0001:0000B4D0       FileOpen
 0001:0000B694       FileRead
 0001:0000B73C       FileSeek
 0001:0000B790       FileSeek
 0001:0000B6E8       FileWrite
 0001:00009B18       Finalization
 0001:0000A1D0       Finalization
 0001:0000A228       Finalization
 0001:0000A2BC       Finalization
 0001:0000A314       Finalization
 0001:0000A36C       Finalization
 0001:0000A4CC       Finalization
 0001:0000A524       Finalization
 0001:000129F4       Finalization
 0001:000169EC       Finalization
 0001:00022460       Finalization
 0001:0002274C       Finalization
 0001:00024258       Finalization
 0001:000280AC       Finalization
 0001:0002824C       Finalization
 0001:00028630       Finalization
 0001:00028688       Finalization
 0001:000299B4       Finalization
 0001:0002D7D8       Finalization
 0001:0002D850       Finalization
 0001:0002DC00       Finalization
 0001:0002DD04       Finalization
 0001:0002DD5C       Finalization
 0001:0002DDB4       Finalization
 0001:0002DE60       Finalization
 0001:0002E83C       Finalization
 0001:0002EA68       Finalization
 0001:0002F328       Finalization
 0001:0003A8A8       Finalization
 0001:0003A950       Finalization
 0001:0003A9A8       Finalization
 0001:0003AA00       Finalization
 0001:0003CCF0       Finalization
 0001:0003E854       Finalization
 0001:0003E93C       Finalization
 0001:0003EA6C       Finalization
 0001:0003EADC       Finalization
 0001:0003EB34       Finalization
 0001:0003EEB4       Finalization
 0001:00044548       Finalization
 0001:000456F8       Finalization
 0001:0004E0B0       Finalization
 0001:000929AC       Finalization
 0001:00092A84       Finalization
 0001:00004CAC       FinalizeArray
 0001:00002414       FinalizeUnits
 0001:00022340       FindCustomVariantType
 0001:0000DA0C       FindEra
 0002:0000B428       FindGlobalComponentProcs
 0001:00005080       FindHInstance
 0001:00002144       FindOnExceptionDescEntry
 0001:0000643C       FindResource
 0001:0000558C       FindResourceHInstance
 0001:0001FD44       FindVarData
 0001:0000CEF4       FloatToCurr
 0001:0000E4F4       FloatToDateTime
 0001:0000CA98       FloatToDecimal
 0001:0000CDF4       FloatToStr
 0001:0000C7AC       FloatToText
 0001:0000116C       Flush
 0002:00000514       FMSecsPerDay
 0001:0002D81C       FMTBcd
 0002:00000E38       FMTBcdVariantType
 0001:0000C668       FmtStr
 0002:0000B4B4       fOdbcApiCache
 0001:FFFFFB40       fopen
 0001:0000C640       Format
 0002:0000051C       Format
 0001:0000C1A4       FormatBuf
 0001:0000C17C       FormatClearStr
 0001:0004F58C       FormatDbxSubType
 0001:0004EF78       FormatDbxType
 0001:0000C0C4       FormatError
 0002:000004F8       FormatErrorStrs
 0001:00050960       FormatParameter
 0001:00050B60       FormatParameters
 0001:0000C148       FormatVarToStr
 0001:0000163C       FPower10
 0001:FFFFFB90       fprintf
 0001:0002D37C       FractionToStr
 0001:FFFFF980       free
 0001:FFFFFBF0       free
 0001:FFFFFE60       free
 0001:00012254       FreeAndNil
 0001:000006D0       FreeException
 0001:00028008       FreeIntConstList
 0001:FFFFFAC0       FreeLibrary
 0001:FFFFFC10       FreeLibrary
 0001:00011DF0       FreeLibrary
 0001:0003CF30       FreeMemAndNil
 0001:00012038       FreeTerminateProcs
 0001:00009CE4       FreeTLSBuffer
 0001:FFFFFDD0       ftruncate
 0001:00000AD8       Get8087CW
 0001:0002F2C8       GetCompilerVersion
 0001:000525AC       GetConnection
 0001:000643C0       GetConnectionCustomOptions
 0001:0000D93C       GetCount
 0001:0000619C       GetCPUType
 0001:0000BD70       GetCurrentDir
 0001:FFFFFAF0       GetCurrentThreadID
 0001:FFFFFD50       GetCurrentThreadID
 0001:0003BB68       GetCurThreadInfoStr
 0001:00064660       GetDatabaseNameOption
 0001:0000D974       GetDate
 0001:0000E920       GetDateOrder
 0001:0004490C       GetDbmsObjectNameTemplateInfo
 0001:00001D28       GetDynaMethod
 0001:00022FBC       GetEnumName
 0001:000230CC       GetEnumNameValue
 0001:00023414       GetEnumProp
 0001:00023128       GetEnumValue
 0001:FFFFF950       getenv
 0001:FFFFFE70       getenv
 0001:0000EA04       GetEraYearOffset
 0001:0003C83C       GetExceptionInfoStr
 0001:000103BC       GetExceptionObject
 0001:00010948       GetExternalException
 0001:00011840       GetFirstCharacter
 0001:00023D68       GetFloatProp
 0001:000118E4       GetFormatSettings
 0001:00000000       GetGOT
 0001:0000A634       GetGOT
 0001:0002D668       GetGot
 0001:000241EC       GetInt64Prop
 0001:00000024       GetLastError
 0001:0000F470       GetLocaleStr
 0001:00023948       GetLongStrProp
 0001:0000513C       GetModuleFileName
 0001:0000F4DC       GetMonthDayNames
 0001:0002EB90       GetOptionValue
 0001:00023328       GetOrdProp
 0001:FFFFFDE0       getpid
 0001:00011E34       GetProcAddress
 0001:00022824       GetPropInfo
 0001:00022874       GetPropInfo
 0001:00023248       GetPropInfo
 0001:000232CC       GetPropInfo
 0001:000228C4       GetPropValue
 0001:000062D8       GetResourceCache
 0001:0007F310       GetRowStatus
 0001:0000A5F0       GetSafeCallExceptionAddr
 0001:0000A5BC       GetSafeCallExceptionMsg
 0001:000234DC       GetSetProp
 0001:000237C4       GetShortStrProp
 0001:0002386C       GetShortStrPropAsLongStr
 0001:0004E154       getSQLDriverODBC
 0001:0004E300       getSQLDriverODBCAW
 0001:000457B4       getSQLDriverODBCW
 0001:00045A88       getSQLDriverODBCWA
 0001:00051A9C       GetStringOptions
 0001:00023AB8       GetStrProp
 0001:00009FA0       GetTextEnd
 0001:00009F8C       GetTextStart
 0001:00009D9C       GetThisModuleHandle
 0001:0000D9BC       GetTime
 0001:00009E5C       GetTlsSize
 0001:0003EB8C       GetTraceFlagName
 0001:0003CAFC       GetTransactionDescStr
 0001:00064E74       GetTransactionTypeName
 0001:00022FAC       GetTypeData
 0001:0002A9BC       GetValueAndMultiplyOrder
 0001:00067274       GetValueAsAnsiStr
 0001:00020230       GetVarArray
 0001:0002003C       GetVarDataArrayInfo
 0001:000043A8       GetVariantManager
 0001:00024154       GetVariantProp
 0001:000648D8       GetVendorProperty
 0001:00023B64       GetWideStrProp
 0001:000239E0       GetWideStrPropAsLongStr
 0002:0000B42C       GlobalFixupList
 0002:0000B410       GlobalNameSpace
 0001:FFFFFF60       gnu_get_libc_version
 0002:0000B340       GOldVariantManager
 0002:0000B294       GVariantManager
 0001:00017028       HandleConversionException
 0001:000416DC       HexDig
 0002:000004E8       HexDisplayPrefix
 0001:0005A910       HidePassword
 0002:0000B058       HInstance
 0001:00010908       HookOSExceptions
 0002:000004C4       HookOSExceptionsProc
 0001:000106EC       HookSignal
 0001:FFFFFA10       iconv
 0001:FFFFFFE0       iconv
 0001:FFFFFA20       iconv_close
 0001:FFFFFFD0       iconv_close
 0001:FFFFFA00       iconv_open
 0001:FFFFFFC0       iconv_open
 0002:00001320       IconvContext
 0002:00000518       IMSecsPerDay
 0001:00017164       InBounds
 0001:00017674       InBounds
 0001:00010F64       IncludeTrailingPathDelimiter
 0001:000171A4       Increment
 0001:000176B4       Increment
 0002:00000DE8       IncrementAmount
 0002:00001568       InformixMathesIndexes
 0002:00001584       InformixObjectNameTemplateInfo
 0001:0003EABC       IniFiles
 0002:0000AB3C       InitContext
 0001:0000F60C       InitEras
 0001:00010A04       InitExceptions
 0001:0000A3FC       InitializeCriticalSection
 0001:00009FB0       InitializeModule
 0001:0001689C       InitializeVarUtils
 0002:0000B068       InitOnceSemaphore
 0001:00011234       InitSysLocale
 0001:00027F1C       InitThreadSynchronization
 0001:00009E68       InitThreadTLS
 0001:000024BC       InitUnits
 0001:000002C4       InitUnwinder
 0001:0000436C       InitVariantManager
 0001:0000A13C       InnerExitLib
 0002:0000A5C0       Input
 0001:00010644       InquireSignal
 0001:0001E638       Int64Compare
 0001:0001DA20       Int64Op
 0001:0001E5FC       IntCompare
 0002:0000B420       IntConstList
 0001:000000B8       InterlockedDecrement
 0001:000000A4       InterlockedIncrement
 0001:00000D54       InternalClose
 0001:00001104       InternalFlush
 0001:0000362C       InternalUniqueString
 0001:0001D8F0       IntOp
 0001:0000AFE4       IntToHex
 0001:0000B04C       IntToHex
 0001:0000AF4C       IntToStr
 0001:0000AF9C       IntToStr
 0001:000000CC       InvalidateModuleCache
 0001:0002C13C       InvalidBcdString
 0001:00028458       InvalidDateTimeError
 0002:0000B210       InvalidPointer
 0001:00001B94       InvokeImplGetter
 0001:000009F0       IOResult
 0001:00052624       IsConnection
 0002:0000A5AC       IsConsole
 0002:000016EC       IsDriverEmbedded
 0001:000207E8       IsDynArrayRectangular
 0001:0008B5FC       IsFilteredIndex
 0001:00057A28       IsFreeDbxConStmt
 0001:0000D418       IsLeapYear
 0002:0000A5A4       IsLibrary
 0002:0000A5AD       IsMultiThread
 0001:00010F04       IsPathDelimiter
 0001:0004E424       IsRestrictedConnectionOptionValue
 0001:000286E0       IsSQLTimeStampBlank
 0001:00029628       IsSqlTimeStampValid
 0001:0000A34C       KernelDefs
 0001:0000A3A4       KernelIoctl
 0001:FFFFFCF0       kill
 0001:0000B868       LastDelimiter
 0001:00072038       LDo_PostgreSQL_Make_Buffer
 0001:0004534C       LDoCalculateTemplate
 0001:000571A0       LDoClearResult
 0001:00052748       LDoMakeResult
 0002:000004C8       LeadBytes
 0001:FFFFFF80       LeaveCriticalSection
 0001:0002A898       LeftTrim
 0001:00064860       LGetISQLConnection2x
 0001:00046C2C       LGetISQLConnection30
 0001:0000A504       Libc
 0002:0000001C       LibModuleList
 0002:0000B208       libuuidHandle
 0001:0000209C       LinkException
 0002:0000B16A       ListSeparator
 0002:00000D00       LNextVarType
 0002:0000B478       Loading
 0001:00011DA8       LoadLibrary
 0001:0002F9E4       LoadOdbcDriverManager
 0001:00006634       LoadResource
 0001:000055E0       LoadResourceModule
 0001:00006678       LoadResString
 0001:FFFFFEA0       localeconv
 0001:00002C8C       LocaleConversionError
 0001:FFFFFCC0       localtime_r
 0001:0003C41C       LogEnterProc
 0001:0003C510       LogEnterProc
 0001:0003C984       LogExceptProc
 0001:0003C6B0       LogExitProc
 0001:0003C7B8       LogExitProc
 0001:0003C594       LogInfoProc
 0001:0003C634       LogInfoProc
 0002:0000B0AC       LongDateFormat
 0002:0000B140       LongDayNames
 0002:0000B0F4       LongMonthNames
 0002:0000B0C0       LongTimeFormat
 0001:0000A784       LowerCase
 0001:000679BC       lValue2Str
 0002:0000B3EC       LVarTypes
 0002:0000B3F0       LVarTypeSync
 0002:0000A59C       MainInstance
 0002:0000A5A0       MainThreadID
 0001:000026E4       MakeErrorMessage
 0001:00070D7C       MakeStoredProcParams
 0001:000517B8       MakeStringExceptionFromInfo
 0001:000868D4       MakeTableTypeString
 0001:FFFFF970       malloc
 0001:FFFFFBE0       malloc
 0001:000102A0       MapFault
 0001:0001025C       MapFPE
 0001:000101F0       MapFPUStatus
 0001:00010314       MapSignal
 0001:0002D888       MaskUtils
 0001:00028284       Math
 0001:0002821C       Max
 0001:0002EAF0       max
 0002:000016F0       MaxCount
 0002:0000047C       MaxCurrency
 0002:000004BC       MaxDateTime
 0001:0003D068       MaxSet
 0001:0003D0A0       MaxSet
 0001:0003D0F4       MaxSet
 0001:0003D12C       MaxSet
 0001:0003D170       MaxSet
 0001:0000208C       MaybeCooptException
 0001:0000A3C4       MB_CUR_MAX
 0001:FFFFFA30       mblen
 0001:FFFFFE80       mblen
 0001:FFFFFFF0       mblen
 0001:FFFFF960       memcpy
 0002:00000028       MemoryManager
 0001:FFFFFB00       memset
 0001:0005AA2C       MergeAndSetConnOptions
 0002:00001444       META
 0001:0002DD94       MidConst
 0001:0002EAC0       min
 0002:00000474       MinCurrency
 0002:000004B4       MinDateTime
 0001:FFFFFA40       mmap
 0002:00000104       Module
 0002:00000024       ModuleCacheVersion
 0002:0000B056       ModuleIsCpp
 0002:0000B054       ModuleIsLib
 0002:0000B055       ModuleIsPackage
 0001:0002808C       ModuleUnload
 0002:00000020       ModuleUnloadList
 0002:00000484       MonthDays
 0001:00000A28       Move
 0001:0002C6BC       MoveNibbles
 0001:0000D270       MSecsToTimeStamp
 0001:FFFFFA50       munmap
 0001:00006204       NameToId
 0001:0001F0D8       NegateAny
 0001:0001EF5C       NegateAsDouble
 0001:0001F034       NegateByte
 0001:0001F114       NegateCustom
 0001:0001F088       NegateLongWord
 0001:0001EFE0       NegateVariant
 0001:0001EF8C       NegateViaOS
 0001:0001F060       NegateWord
 0002:0000B0A1       NegCurrFormat
 0002:00000A20       NegCurrFormats
 0001:00050CB8       NewDbxConStmt
 0001:00010E10       NextCharIndex
 0001:0002B750       NextDigit
 0001:00023628       NextWord
 0001:FFFFF9F0       nl_langinfo
 0001:FFFFFEB0       nl_langinfo
 0001:FFFFFFB0       nl_langinfo
 0001:0002C734       NormalizeBcd
 0001:0002CA30       NormalizeBcdPair
 0001:0002BFF4       NormalizeFractions
 0001:0001F6BC       NotAny
 0001:0001F588       NotAsOrdinal
 0001:0001F490       NotAsString
 0001:0001F6F8       NotCustom
 0001:00002010       NotifyExcept
 0001:00002068       NotifyExceptFinally
 0001:000059DC       NotifyModuleUnload
 0001:00002040       NotifyOnExcept
 0001:00001FE8       NotifyReRaise
 0001:0001F668       NotVariant
 0001:0001F614       NotViaOS
 0002:00000088       Null
 0001:00022440       Null
 0002:00000B68       NullAsStringValue
 0002:00000E14       NullBcd
 0001:0001E4C4       NullCompare
 0002:00000B5C       NullEqualityRule
 0002:00000B60       NullMagnitudeRule
 0001:0001DC4C       NullOp
 0002:00000DD8       NullSQLTimeStamp
 0002:00000B64       NullStrictConvert
 0001:0002C894       NumberOfDigits
 0001:0003A8F8       OdbcApi
 0001:0004EA90       OdbcDataTypeToDbxType
 0001:000772C0       OdbcSqlCTypeToStr
 0001:000767E0       OdbcSqlTypeToStr
 0001:0001D024       OleVarFromAny
 0001:0001D0AC       OleVarFromVarArrayProc
 0001:FFFFFD70       open
 0001:00000B98       OpenText
 0001:0007AA5C       OptimizeNextChunkSize
 0002:00000BA4       OpTypeMap
 0002:00001518       OracleMathesIndexes
 0002:00001534       OracleObjectNameTemplateInfo
 0002:0000B20C       OutOfMemory
 0002:0000A78C       Output
 0001:0003BC74       OutputDebugString
 0001:00029ADC       OverflowError
 0002:00000B6C       PackVarCreation
 0001:0003E5E8       PAnsiCharParam
 0001:0003E624       PAnsiCharParam
 0001:00000A78       ParamStr
 0001:0005AB40       ParseConnectionOptions
 0001:00040E74       parsenum
 0001:00021D04       ParseParam
 0001:000035F4       PICEmptyString
 0001:0003E704       PIntToStr
 0001:FFFFFDF0       pipe
 0002:0000008C       PNull
 0001:000243DC       PointerInModule
 0001:0002EF58       PointerOffset
 0001:0002EB20       Pos
 0001:0002F000       PosChar
 0001:0002F050       PosChar
 0001:0002F0A0       PosCharEx
 0001:0002F114       PosCharEx
 0002:00000E5C       Power10
 0001:FFFFFB10       printf
 0001:00071DF0       ProcessVarDataLength
 0001:000124E4       PropagateSignals
 0001:000227D0       PropertyNotFound
 0001:00049ED8       PropValue2Str
 0001:000755CC       PropValue2Str
 0001:00027520       PropValueError
 0001:FFFFFC40       pthread_key_create
 0001:FFFFFD10       pthread_mutex_init
 0001:FFFFFD20       pthread_mutexattr_destroy
 0001:FFFFFD30       pthread_mutexattr_init
 0001:FFFFFD40       pthread_mutexattr_settype
 0001:FFFFFC30       pthread_once
 0002:00000100       PtrToNil
 0001:00006810       PUCS4Chars
 0001:0000C748       PutExponent
 0001:000101AC       RaiseAssertException
 0001:00026D90       RaiseException
 0001:00011F88       RaiseLastOSError
 0001:00010514       RaiseSignalException
 0001:00022B58       RangedValue
 0001:000274EC       ReadError
 0001:0001E690       RealCompare
 0001:0001D78C       RealOp
 0002:0000B28C       RefAnyProc
 0001:000445B8       RegExpr
 0002:00001438       RegExprInvertCaseFunction
 0002:00001434       RegExprLinePairedSeparator
 0002:00001430       RegExprLineSeparators
 0002:00001440       RegExprMetaSet
 0002:00001420       RegExprModifierG
 0002:00001414       RegExprModifierI
 0002:00001424       RegExprModifierM
 0002:00001418       RegExprModifierR
 0002:0000141C       RegExprModifierS
 0002:00001428       RegExprSpaceChars
 0002:0000142C       RegExprWordChars
 0002:0000B424       RegGroups
 0001:0002E808       RegisterDbXpressLibProc
 0001:00005A5C       RegisterModule
 0001:0000A02C       RegisterPCMap
 0001:00043F78       RegMatch
 0001:00000710       ReleaseDelphiException
 0001:000067BC       ReleaseZeroPage
 0002:00000034       reMap
 0001:00027394       RemoveFixupReferences
 0001:00027450       RemoveFixups
 0001:000058EC       RemoveModuleUnloadProc
 0001:0000594C       RemoveModuleUnloadProc
 0001:00006718       ReserveZeroPage
 0001:000469E0       Result2Str
 0001:00064F74       Result2Str
 0001:0008FBF4       RetrieveProcedureSchemaForSysNaming
 0001:000248D4       ReturnAddr
 0001:000254E8       ReturnAddr
 0001:00044418       ReturnAddr
 0001:0002C698       ReverseNegative
 0001:0002A720       RoundAt
 0001:00022784       RTLConsts
 0002:00000080       RTLInitFailed
 0002:00000050       runErrMsg
 0001:00000814       RunErrorAt
 0001:000163F8       SafeArrayAccessData
 0001:00015C80       SafeArrayAllocData
 0001:00015C00       SafeArrayAllocDescriptor
 0001:000159D8       SafeArrayAllocMem
 0001:000154F0       SafeArrayCalculateElementAddress
 0001:000156F8       SafeArrayClearDataSpace
 0001:000160E4       SafeArrayCopy
 0001:00015834       SafeArrayCopyDataSpace
 0001:00015AD4       SafeArrayCreate
 0001:00015D00       SafeArrayDestroy
 0001:00015DCC       SafeArrayDestroyData
 0001:00015D60       SafeArrayDestroyDescriptor
 0001:000156A8       SafeArrayElementStyle
 0001:00015658       SafeArrayElementTotal
 0001:00015A18       SafeArrayFreeMem
 0001:000164E0       SafeArrayGetElement
 0001:00016348       SafeArrayGetLBound
 0001:0001639C       SafeArrayGetUBound
 0001:0001646C       SafeArrayLock
 0001:00016868       SafeArrayPtrOfIndex
 0001:000166A4       SafeArrayPutElement
 0001:00015A54       SafeArrayReallocMem
 0001:00015E54       SafeArrayRedim
 0001:00016438       SafeArrayUnaccessData
 0001:000164A4       SafeArrayUnlock
 0001:0001549C       SafeArrayValidate
 0001:0001555C       SafeArrayValidateAndCalculateAddress
 0001:00012568       SafeCallError
 0002:0000A58C       SafeCallErrorProc
 0001:00050A54       SafeFormatParameter
 0001:0001227C       SafeLoadLibrary
 0001:0000A8D0       SameText
 0001:0000E598       ScanBlanks
 0001:0000E8B8       ScanChar
 0001:0000EAA8       ScanDate
 0001:0000E654       ScanNumber
 0001:0000E700       ScanString
 0001:0000EED0       ScanTime
 0001:0000E99C       ScanToNumber
 0001:0000E79C       SearchString
 0001:0001FF70       SetClearVarToEmptyParam
 0001:00067318       SetConnectionCustomOptions
 0001:0004E4F4       SetConnectionOption
 0001:0002345C       SetEnumProp
 0001:00023EC8       SetFloatProp
 0001:00000904       SetInOutRes
 0001:00024218       SetInt64Prop
 0001:00000060       SetLastError
 0001:FFFFFE90       setlocale
 0001:00023994       SetLongStrProp
 0001:000233A8       SetOrdProp
 0001:00022BD4       SetPropValue
 0001:0000A588       SetSafeCallExceptionMsg
 0001:0002377C       SetSetProp
 0001:0002380C       SetShortStrProp
 0001:000238B8       SetShortStrPropAsLongStr
 0001:00023B14       SetStrProp
 0001:00023520       SetToString
 0001:0001FF38       SetVarAsError
 0001:00071EBC       SetVarData
 0001:000043DC       SetVariantManager
 0001:000241A0       SetVariantProp
 0001:00023C6C       SetWideStrProp
 0001:00023A4C       SetWideStrPropAsLongStr
 0002:0000B070       SharedUnwinder
 0001:0000A260       ShareExcept
 0002:000004F4       ShareMode
 0002:0000B0A8       ShortDateFormat
 0002:0000B124       ShortDayNames
 0002:0000B0C4       ShortMonthNames
 0002:0000B0BC       ShortTimeFormat
 0001:0000FCB4       ShowException
 0001:FFFFFCE0       sigaction
 0001:FFFFFD00       sigaddset
 0002:0000B099       SIGINTIssued
 0001:00010558       SignalConverter
 0001:00010584       SignalDispatcher
 0002:000006B0       Signals
 0001:0002C408       SignificantIntDigits
 0002:0000B09A       SIGQUITIssued
 0001:0001DF68       SimpleVarOp
 0001:000279C0       SkipBinary
 0001:00027A04       SkipCollection
 0001:00027988       SkipList
 0001:0000E5E8       SkipNextBlank
 0001:0000E838       SkipNextNumber
 0002:00000E3C       spaceChars
 0001:0003EA28       SqlConst
 0001:0003EB6C       SqlExpr
 0001:0003A930       SQLExpr_RegisterDbXpressLib
 0001:000527BC       SQLGetDiagRecLevel2
 0002:000014B0       SQLServerMathesIndexes
 0002:000014E4       SQLServerObjectNameTemplateInfo
 0001:000297E4       SQLTimeStampToDateTime
 0001:000295C4       SQLTimeStampToStr
 0002:00000DF0       SQLTimeStampVariantType
 0001:000299F8       SqlTimSt
 0001:0003D4FC       Str2BCD
 0001:0000C03C       StrAlloc
 0001:0003E658       StrAnsiStringParam
 0001:0003E6A0       StrAnsiStringParam
 0001:0003DD9C       StrBuffCopy
 0001:0003DE38       StrBuffCopy
 0001:00010C48       StrByteType
 0001:FFFFF9D0       strcasecmp
 0001:00010C80       StrCharLength
 0001:0003DEDC       StrClone
 0001:0003DF98       StrClone
 0001:0003E014       StrClone
 0001:0003E074       StrClone
 0001:0003E10C       StrClone
 0001:FFFFFE00       strcoll
 0001:0000BE64       StrComp
 0001:0000BDE8       StrCopy
 0001:00040840       strcspn
 0001:FFFFFB30       strdup
 0001:FFFFFE10       strerror_r
 0001:0000BE94       StrIComp
 0001:0002F1A0       StringCharModify
 0001:0002F22C       StringCharModify
 0001:0001E76C       StringCompare
 0001:00026B48       StringListCompareStrings
 0001:0002B24C       StringMultiplyByByte
 0001:00011C58       StringReplace
 0001:0003DC18       StringsToWStr
 0001:000042F0       StringToOleStr
 0001:00023688       StringToSet
 0001:0003DB3C       StringToWideChar
 0001:0003DBA4       StringToWStr
 0001:0003E51C       StrISameText
 0001:0003E578       StrISameText
 0001:0003E5B0       StrISameText
 0001:0003E16C       StrIsEmpty
 0001:0003E1A8       StrIsEmpty
 0001:0003E200       StrIsEmpty
 0001:0000BEE0       StrLComp
 0001:0000BE20       StrLCopy
 0001:0000BD94       StrLen
 0001:0003DCA0       StrLenNil
 0001:0000C5E0       StrLFmt
 0001:0000BF18       StrLIComp
 0001:0000BDB0       StrMove
 0001:FFFFFE20       strncmp
 0001:0000C06C       StrNew
 0001:00010CF0       StrNextChar
 0001:0003E258       StrNotEmpty
 0001:0003E2B0       StrNotEmpty
 0001:0000C008       StrPas
 0001:0000BFA0       StrPos
 0001:0003E308       StrPtrToString
 0001:0003E384       StrPtrToString
 0001:0003E3CC       StrPtrToString
 0001:0003E44C       StrSameText
 0001:0003E4A8       StrSameText
 0001:0003E4E0       StrSameText
 0001:0000BF6C       StrScan
 0001:0002A650       StrToBcd
 0001:0000B2FC       StrToBool
 0001:0000D0C8       StrToCurr
 0001:0000F2E8       StrToDateTime
 0001:0000CF88       StrToFloat
 0001:0002C0DC       StrToFraction
 0001:0000B0A0       StrToInt
 0001:0000B188       StrToInt64
 0001:0000B100       StrToIntDef
 0001:FFFFFB20       strtok
 0001:0002970C       StrToSQLTimeStamp
 0001:0003A9E0       StrUtils
 0001:FFFFFE30       strverscmp
 0001:0002AC1C       SubtractChars
 0001:0002C454       SubtractNormalizedFractions
 0001:0002AE08       SubtractStrings
 0002:0000B414       SyncEvent
 0002:00000DB4       SyncList
 0001:0002EAA0       SyncObjs
 0001:0008B528       SyncPKSortOrder
 0001:0000A55C       SysConst
 0001:0000F3FC       SysErrorMessage
 0001:0000012C       SysFreeMem
 0001:000000F0       SysGetMem
 0001:0000A208       SysInit
 0002:0000B15C       SysLocale
 0002:000010A0       sysodbclib
 0001:000005D0       SysRaiseCPPException
 0001:00000574       SysRaiseException
 0001:00000168       SysReallocMem
 0001:000004D0       SysRegisterIPLookup
 0001:00009B78       System
 0001:00000538       SysUnregisterIPLookup
 0001:00012BBC       SysUtils
 0001:00092090       TBlobChunkCollection.AddFragment
 0001:00092118       TBlobChunkCollection.Clear
 0001:00092188       TBlobChunkCollection.Destroy
 0001:000921E8       TBlobChunkCollection.GetSize
 0001:00092220       TBlobChunkCollection.Read
 0001:000922EC       TBlobChunkCollection.ReadBlobToStream
 0001:00092290       TBlobChunkCollection.ReadBlobToVariant
 0001:0002E9E8       TCriticalSection.Acquire
 0001:0002E908       TCriticalSection.Create
 0001:0002E978       TCriticalSection.Destroy
 0001:0002EA28       TCriticalSection.Release
 0001:00021C00       TCustomVariantType._AddRef
 0001:00021C1C       TCustomVariantType._Release
 0001:00021394       TCustomVariantType.BinaryOp
 0001:000213B0       TCustomVariantType.Cast
 0001:00021418       TCustomVariantType.CastTo
 0001:000214EC       TCustomVariantType.CastToOle
 0001:00021478       TCustomVariantType.Compare
 0001:00021494       TCustomVariantType.CompareOp
 0001:0002155C       TCustomVariantType.Create
 0001:000215D0       TCustomVariantType.Create
 0001:000218E0       TCustomVariantType.Destroy
 0001:00021B9C       TCustomVariantType.DispInvoke
 0001:000219A4       TCustomVariantType.IsClear
 0001:000219C0       TCustomVariantType.LeftPromotion
 0001:000219F0       TCustomVariantType.OlePromotion
 0001:00021C38       TCustomVariantType.QueryInterface
 0001:00021A1C       TCustomVariantType.RaiseCastError
 0001:00021A5C       TCustomVariantType.RaiseDispError
 0001:00021A3C       TCustomVariantType.RaiseInvalidOp
 0001:00021A7C       TCustomVariantType.RightPromotion
 0001:00021AAC       TCustomVariantType.UnaryOp
 0001:00021B4C       TCustomVariantType.VarDataCastTo
 0001:00021B08       TCustomVariantType.VarDataClear
 0001:00021B28       TCustomVariantType.VarDataCopyNoInd
 0001:00021BDC       TCustomVariantType.VarDataFromOleStr
 0001:00021BB8       TCustomVariantType.VarDataFromStr
 0001:00021ACC       TCustomVariantType.VarDataInit
 0001:00021B70       TCustomVariantType.VarDataIsByRef
 0001:00021C70       TCustomVariantType.VarDataIsStr
 0001:00021C9C       TCustomVariantType.VarDataToStr
 0001:0004C378       TDbxCommandParser.Create
 0001:0004C700       TDbxCommandParser.GetParam
 0001:0004C264       TDbxCommandParser.IsDbxCommand
 0001:0004C2FC       TDbxCommandParser.IsDbxCommand
 0001:0002DB48       TDefaultDBScreenApplication.GetCursor
 0001:0002DB64       TDefaultDBScreenApplication.GetTitle
 0001:0002DB98       TDefaultDBScreenApplication.ProcessMessages
 0001:0002DBB0       TDefaultDBScreenApplication.SetCursor
 0001:0002DBCC       TDefaultDBScreenApplication.SetTitle
 0001:00051C3C       TDOSQLObject.SelfObj
 0002:00000A34       TerminateProcList
 0002:0000A5BC       Test8086
 0001:00000D9C       TextClose
 0001:00000C40       TextIn
 0002:000015B8       TextMathesIndexes
 0002:000015D0       TextObjectNameTemplateInfo
 0001:00000E0C       TextOpen
 0001:00000DD8       TextOpenCleanup
 0001:00000CE4       TextOut
 0002:00014280       TextStartAdj
 0001:0000CCD0       TextToFloat
 0001:00027148       TFileStream.Create
 0001:000271C0       TFileStream.Create
 0001:00027340       TFileStream.Destroy
 0001:00029C78       TFMTBcdData.Compare
 0001:00029F98       TFMTBcdData.Create
 0001:0002A014       TFMTBcdData.Create
 0001:0002A110       TFMTBcdData.Create
 0001:0002A1F0       TFMTBcdData.Create
 0001:00029B10       TFMTBcdData.DoAdd
 0001:00029B58       TFMTBcdData.DoAdd
 0001:00029C2C       TFMTBcdData.DoDivide
 0001:00029BE0       TFMTBcdData.DoMultiply
 0001:00029B78       TFMTBcdData.DoSubtract
 0001:00029BC0       TFMTBcdData.DoSubtract
 0001:00029DD8       TFMTBcdData.GetAsCurrency
 0001:00029CEC       TFMTBcdData.GetAsDouble
 0001:00029D54       TFMTBcdData.GetAsInteger
 0001:00029DB0       TFMTBcdData.GetAsSmallInt
 0001:00029CB8       TFMTBcdData.GetAsString
 0001:00029F68       TFMTBcdData.SetAsCurrency
 0001:00029E54       TFMTBcdData.SetAsDouble
 0001:00029ED4       TFMTBcdData.SetAsInteger
 0001:00029F48       TFMTBcdData.SetAsSmallInt
 0001:00029E08       TFMTBcdData.SetAsString
 0001:0002A588       TFMTBcdVariantType.BinaryOp
 0001:0002A284       TFMTBcdVariantType.Cast
 0001:0002A3D8       TFMTBcdVariantType.CastTo
 0001:0002A25C       TFMTBcdVariantType.Clear
 0001:0002A618       TFMTBcdVariantType.Compare
 0001:0002A51C       TFMTBcdVariantType.Copy
 0001:0002A5F0       TFMTBcdVariantType.GetInstance
 0001:00026F70       THandleStream.Create
 0001:00026FE0       THandleStream.Read
 0001:00027040       THandleStream.Seek
 0001:00027080       THandleStream.SetSize
 0001:000270B4       THandleStream.SetSize
 0001:00027010       THandleStream.Write
 0002:0000B0A2       ThousandSeparator
 0002:0000B430       ThreadLock
 0001:FFFFFB60       time
 0002:0000B0B4       TimeAMString
 0002:0000B0B8       TimePMString
 0002:0000B0B0       TimeSeparator
 0001:0000D218       TimeStampToDateTime
 0001:0000D298       TimeStampToMSecs
 0001:0000E548       TimeToStr
 0001:00005C9C       TInterfacedObject._AddRef
 0001:00005CC0       TInterfacedObject._Release
 0001:00005BF8       TInterfacedObject.AfterConstruction
 0001:00005C18       TInterfacedObject.BeforeDestruction
 0001:00005C40       TInterfacedObject.NewInstance
 0001:00005C64       TInterfacedObject.QueryInterface
 0001:0002201C       TInvokeableVariantType.DispInvoke
 0001:00022310       TInvokeableVariantType.DoFunction
 0001:00022328       TInvokeableVariantType.DoProcedure
 0001:00021CD0       TInvokeableVariantType.FixupIdent
 0001:000222E0       TInvokeableVariantType.GetProperty
 0001:000222F8       TInvokeableVariantType.SetProperty
 0001:000247B8       TList.Add
 0001:00024818       TList.Clear
 0001:0002484C       TList.Delete
 0001:00024774       TList.Destroy
 0001:000248E0       TList.Error
 0001:00024948       TList.Error
 0001:000249B4       TList.Get
 0001:00024A08       TList.Grow
 0001:00024A5C       TList.IndexOf
 0001:00024C70       TList.Notify
 0001:00024A98       TList.Put
 0001:00024B2C       TList.Remove
 0001:00024B6C       TList.SetCapacity
 0001:00024BC8       TList.SetCount
 0001:FFFFFC50       TlsGetValue
 0001:FFFFFFA0       TlsGetValue
 0002:000000FC       TlsIndex
 0002:FFE5B074       TlsLast
 0001:FFFFFC60       TlsSetValue
 0001:00085494       TMetaColumn.Create
 0001:000856E8       TMetaColumn.Destroy
 0001:000857F0       TMetaIndexColumn.Create
 0001:00085A6C       TMetaIndexColumn.Destroy
 0001:00085B7C       TMetaProcedure.Create
 0001:00085DD0       TMetaProcedure.Destroy
 0001:00085EDC       TMetaProcedureParam.Create
 0001:00086070       TMetaProcedureParam.Destroy
 0001:00084A30       TMetaTable.Create
 0001:00084EA4       TMetaTable.CreateW
 0001:00085380       TMetaTable.Destroy
 0001:00001E00       TObject.AfterConstruction
 0001:00001E18       TObject.BeforeDestruction
 0001:00001DA8       TObject.ClassInfo
 0001:00001994       TObject.ClassName
 0001:000019B4       TObject.ClassParent
 0001:00001970       TObject.ClassType
 0001:00001B64       TObject.CleanupInstance
 0001:00001A4C       TObject.Create
 0001:00001DE8       TObject.DefaultHandler
 0001:00001A9C       TObject.Destroy
 0001:00001E30       TObject.Dispatch
 0001:00001AC4       TObject.Free
 0001:000019FC       TObject.FreeInstance
 0001:00001BC8       TObject.GetInterface
 0001:00001C88       TObject.GetInterfaceEntry
 0001:00001D90       TObject.InheritsFrom
 0001:00001AF4       TObject.InitInstance
 0001:00001A2C       TObject.InstanceSize
 0001:000019C4       TObject.NewInstance
 0001:00001DC8       TObject.SafeCallException
 0001:00044970       TObjectNameParser.Create
 0001:00044FB4       TObjectNameParser.DecodeObjectFullName
 0001:00044F2C       TObjectNameParser.Destroy
 0001:00045370       TObjectNameParser.EncodeObjectFullName
 0001:00038678       TOdbcApiIntfImpl.CheckAvailableProxy
 0001:000386E8       TOdbcApiIntfImpl.FireVSDebugEvent
 0001:00038724       TOdbcApiIntfImpl.ODBCGetTryWaitValue
 0001:00038760       TOdbcApiIntfImpl.ODBCSetTryWaitValue
 0001:000387A0       TOdbcApiIntfImpl.SQL_ADD_RECORD
 0001:000387EC       TOdbcApiIntfImpl.SQL_DELETE_RECORD
 0001:00038838       TOdbcApiIntfImpl.SQL_FUNC_EXISTS
 0001:00038884       TOdbcApiIntfImpl.SQL_LEN_BINARY_ATTR
 0001:000388C8       TOdbcApiIntfImpl.SQL_LEN_DATA_AT_EXEC
 0001:0003890C       TOdbcApiIntfImpl.SQL_LOCK_RECORD
 0001:00038960       TOdbcApiIntfImpl.SQL_POSITION_TO
 0001:000389AC       TOdbcApiIntfImpl.SQL_REFRESH_RECORD
 0001:00038A00       TOdbcApiIntfImpl.SQL_UPDATE_RECORD
 0001:00038A4C       TOdbcApiIntfImpl.SQLAllocConnect
 0001:00038A94       TOdbcApiIntfImpl.SQLAllocEnv
 0001:00038AD8       TOdbcApiIntfImpl.SQLAllocHandle
 0001:00038B28       TOdbcApiIntfImpl.SQLAllocHandleStd
 0001:00038B78       TOdbcApiIntfImpl.SQLAllocStmt
 0001:00038BC0       TOdbcApiIntfImpl.SQLBindCol
 0001:00038C20       TOdbcApiIntfImpl.SQLBindParam
 0001:00038C88       TOdbcApiIntfImpl.SQLBindParameter
 0001:00038CF8       TOdbcApiIntfImpl.SQLBrowseConnect
 0001:00038D54       TOdbcApiIntfImpl.SQLBulkOperations
 0001:00038DA0       TOdbcApiIntfImpl.SQLCancel
 0001:00038DE4       TOdbcApiIntfImpl.SQLCloseCursor
 0001:00038E28       TOdbcApiIntfImpl.SQLColAttribute
 0001:00038E8C       TOdbcApiIntfImpl.SQLColAttributeInt
 0001:00038EF0       TOdbcApiIntfImpl.SQLColAttributes
 0001:00038F54       TOdbcApiIntfImpl.SQLColAttributeString
 0001:00038FB8       TOdbcApiIntfImpl.SQLColumnPrivileges
 0001:00039024       TOdbcApiIntfImpl.SQLColumns
 0001:00039090       TOdbcApiIntfImpl.SQLConnect
 0001:000390F4       TOdbcApiIntfImpl.SQLCopyDesc
 0001:0003913C       TOdbcApiIntfImpl.SQLDataSources
 0001:000391A4       TOdbcApiIntfImpl.SQLDescribeCol
 0001:00039210       TOdbcApiIntfImpl.SQLDescribeParam
 0001:0003926C       TOdbcApiIntfImpl.SQLDisconnect
 0001:000392B0       TOdbcApiIntfImpl.SQLDriverConnect
 0001:00039318       TOdbcApiIntfImpl.SQLDrivers
 0001:00039380       TOdbcApiIntfImpl.SQLEndTran
 0001:000393D4       TOdbcApiIntfImpl.SQLError
 0001:00039438       TOdbcApiIntfImpl.SQLExecDirect
 0001:00039488       TOdbcApiIntfImpl.SQLExecute
 0001:000394CC       TOdbcApiIntfImpl.SQLExtendedFetch
 0001:00039524       TOdbcApiIntfImpl.SQLFetch
 0001:00039568       TOdbcApiIntfImpl.SQLFetchScroll
 0001:000395B8       TOdbcApiIntfImpl.SQLForeignKeys
 0001:00039634       TOdbcApiIntfImpl.SQLFreeConnect
 0001:00039678       TOdbcApiIntfImpl.SQLFreeEnv
 0001:000396BC       TOdbcApiIntfImpl.SQLFreeHandle
 0001:00039708       TOdbcApiIntfImpl.SQLFreeStmt
 0001:00039754       TOdbcApiIntfImpl.SQLFunctionSupported
 0001:0003979C       TOdbcApiIntfImpl.SQLGetConnectAttr
 0001:000397F4       TOdbcApiIntfImpl.SQLGetConnectOption
 0001:00039844       TOdbcApiIntfImpl.SQLGetCursorName
 0001:00039898       TOdbcApiIntfImpl.SQLGetData
 0001:000398F8       TOdbcApiIntfImpl.SQLGetDescField
 0001:00039958       TOdbcApiIntfImpl.SQLGetDescRec
 0001:000399CC       TOdbcApiIntfImpl.SQLGetDiagField
 0001:00039A30       TOdbcApiIntfImpl.SQLGetDiagRec
 0001:00039A98       TOdbcApiIntfImpl.SQLGetEnvAttr
 0001:00039AF0       TOdbcApiIntfImpl.SQLGetFunctions
 0001:00039B40       TOdbcApiIntfImpl.SQLGetInfo
 0001:00039B9C       TOdbcApiIntfImpl.SQLGetInfoInt
 0001:00039BF8       TOdbcApiIntfImpl.SQLGetInfoSmallint
 0001:00039C54       TOdbcApiIntfImpl.SQLGetInfoString
 0001:00039CB0       TOdbcApiIntfImpl.SQLGetStmtAttr
 0001:00039D08       TOdbcApiIntfImpl.SQLGetStmtOption
 0001:00039D58       TOdbcApiIntfImpl.SQLGetTypeInfo
 0001:00039DA4       TOdbcApiIntfImpl.SQLMoreResults
 0001:00039DE8       TOdbcApiIntfImpl.SQLNativeSql
 0001:00039E44       TOdbcApiIntfImpl.SQLNumParams
 0001:00039E8C       TOdbcApiIntfImpl.SQLNumResultCols
 0001:00039ED4       TOdbcApiIntfImpl.SQLParamData
 0001:00039F1C       TOdbcApiIntfImpl.SQLParamOptions
 0001:00039F6C       TOdbcApiIntfImpl.SQLPrepare
 0001:00039FBC       TOdbcApiIntfImpl.SQLPrimaryKeys
 0001:0003A020       TOdbcApiIntfImpl.SQLProcedureColumns
 0001:0003A08C       TOdbcApiIntfImpl.SQLProcedures
 0001:0003A0F0       TOdbcApiIntfImpl.SQLPutData
 0001:0003A140       TOdbcApiIntfImpl.SQLRowCount
 0001:0003A188       TOdbcApiIntfImpl.SQLSetConnectAttr
 0001:0003A1DC       TOdbcApiIntfImpl.SQLSetConnectOption
 0001:0003A22C       TOdbcApiIntfImpl.SQLSetCursorName
 0001:0003A27C       TOdbcApiIntfImpl.SQLSetDescField
 0001:0003A2D8       TOdbcApiIntfImpl.SQLSetDescRec
 0001:0003A348       TOdbcApiIntfImpl.SQLSetEnvAttr
 0001:0003A39C       TOdbcApiIntfImpl.SQLSetParam
 0001:0003A404       TOdbcApiIntfImpl.SQLSetPos
 0001:0003A45C       TOdbcApiIntfImpl.SQLSetScrollOptions
 0001:0003A4B4       TOdbcApiIntfImpl.SQLSetStmtAttr
 0001:0003A508       TOdbcApiIntfImpl.SQLSetStmtOption
 0001:0003A558       TOdbcApiIntfImpl.SQLSpecialColumns
 0001:0003A5CC       TOdbcApiIntfImpl.SQLStatistics
 0001:0003A638       TOdbcApiIntfImpl.SQLTablePrivileges
 0001:0003A69C       TOdbcApiIntfImpl.SQLTables
 0001:0003A708       TOdbcApiIntfImpl.SQLTransact
 0001:0003A758       TOdbcApiIntfImpl.TraceCloseLogFile
 0001:0003A794       TOdbcApiIntfImpl.TraceOpenLogFile
 0001:0003A7E4       TOdbcApiIntfImpl.TraceReturn
 0001:0003A828       TOdbcApiIntfImpl.TraceVersion
 0001:0003A864       TOdbcApiIntfImpl.TraceVSControl
 0001:00031554       TOdbcApiProxy.BeginLock
 0001:00031370       TOdbcApiProxy.Destroy
 0001:0003157C       TOdbcApiProxy.EndLock
 0001:0003813C       TOdbcApiProxy.FireVSDebugEvent
 0001:00038604       TOdbcApiProxy.GetOdbcApiIntf
 0001:00031418       TOdbcApiProxy.NotImplemented
 0001:000381C0       TOdbcApiProxy.ODBCGetTryWaitValue
 0001:00038248       TOdbcApiProxy.ODBCSetTryWaitValue
 0001:00038544       TOdbcApiProxy.SetOdbcDriverLevel
 0001:000382DC       TOdbcApiProxy.SQL_ADD_RECORD
 0001:00038320       TOdbcApiProxy.SQL_DELETE_RECORD
 0001:00038364       TOdbcApiProxy.SQL_FUNC_EXISTS
 0001:000383C4       TOdbcApiProxy.SQL_LEN_BINARY_ATTR
 0001:000383F8       TOdbcApiProxy.SQL_LEN_DATA_AT_EXEC
 0001:0003842C       TOdbcApiProxy.SQL_LOCK_RECORD
 0001:00038474       TOdbcApiProxy.SQL_POSITION_TO
 0001:000384B8       TOdbcApiProxy.SQL_REFRESH_RECORD
 0001:00038500       TOdbcApiProxy.SQL_UPDATE_RECORD
 0001:000315A4       TOdbcApiProxy.SQLAllocConnect
 0001:00031614       TOdbcApiProxy.SQLAllocEnv
 0001:00031720       TOdbcApiProxy.SQLAllocHandle
 0001:00031684       TOdbcApiProxy.SQLAllocHandleStd
 0001:0003185C       TOdbcApiProxy.SQLAllocStmt
 0001:000318CC       TOdbcApiProxy.SQLBindCol
 0001:00031968       TOdbcApiProxy.SQLBindParam
 0001:00031A10       TOdbcApiProxy.SQLBindParameter
 0001:00031ACC       TOdbcApiProxy.SQLBrowseConnect
 0001:00031CA4       TOdbcApiProxy.SQLBulkOperations
 0001:00031D3C       TOdbcApiProxy.SQLCancel
 0001:00031DBC       TOdbcApiProxy.SQLCloseCursor
 0001:00031E60       TOdbcApiProxy.SQLColAttribute
 0001:000320B4       TOdbcApiProxy.SQLColAttributeInt
 0001:00032164       TOdbcApiProxy.SQLColAttributes
 0001:0003210C       TOdbcApiProxy.SQLColAttributeString
 0001:00032350       TOdbcApiProxy.SQLColumnPrivileges
 0001:00032518       TOdbcApiProxy.SQLColumns
 0001:00032724       TOdbcApiProxy.SQLConnect
 0001:000328EC       TOdbcApiProxy.SQLCopyDesc
 0001:00032974       TOdbcApiProxy.SQLDataSources
 0001:00032B90       TOdbcApiProxy.SQLDescribeCol
 0001:00032D64       TOdbcApiProxy.SQLDescribeParam
 0001:00032E0C       TOdbcApiProxy.SQLDisconnect
 0001:00032E90       TOdbcApiProxy.SQLDriverConnect
 0001:000330B4       TOdbcApiProxy.SQLDrivers
 0001:00033330       TOdbcApiProxy.SQLEndTran
 0001:0003341C       TOdbcApiProxy.SQLError
 0001:0003361C       TOdbcApiProxy.SQLExecDirect
 0001:0003373C       TOdbcApiProxy.SQLExecute
 0001:000337BC       TOdbcApiProxy.SQLExtendedFetch
 0001:00033860       TOdbcApiProxy.SQLFetch
 0001:000338E4       TOdbcApiProxy.SQLFetchScroll
 0001:00033968       TOdbcApiProxy.SQLForeignKeys
 0001:00033B88       TOdbcApiProxy.SQLFreeConnect
 0001:00033C10       TOdbcApiProxy.SQLFreeEnv
 0001:00033D88       TOdbcApiProxy.SQLFreeHandle
 0001:00033E20       TOdbcApiProxy.SQLFreeStmt
 0001:00034CC8       TOdbcApiProxy.SQLFunctionSupported
 0001:00033EB0       TOdbcApiProxy.SQLGetConnectAttr
 0001:00034134       TOdbcApiProxy.SQLGetConnectOption
 0001:00034288       TOdbcApiProxy.SQLGetCursorName
 0001:0003442C       TOdbcApiProxy.SQLGetData
 0001:000344CC       TOdbcApiProxy.SQLGetDescField
 0001:0003469C       TOdbcApiProxy.SQLGetDescRec
 0001:0003486C       TOdbcApiProxy.SQLGetDiagField
 0001:00034A18       TOdbcApiProxy.SQLGetDiagRec
 0001:00034C28       TOdbcApiProxy.SQLGetEnvAttr
 0001:00034D1C       TOdbcApiProxy.SQLGetFunctions
 0001:000359AC       TOdbcApiProxy.SQLGetInfo
 0001:00035BA0       TOdbcApiProxy.SQLGetInfoInt
 0001:00035BEC       TOdbcApiProxy.SQLGetInfoSmallint
 0001:00035C38       TOdbcApiProxy.SQLGetInfoString
 0001:00035C88       TOdbcApiProxy.SQLGetStmtAttr
 0001:00035E6C       TOdbcApiProxy.SQLGetStmtOption
 0001:00035F08       TOdbcApiProxy.SQLGetTypeInfo
 0001:00035FD0       TOdbcApiProxy.SQLMoreResults
 0001:00036030       TOdbcApiProxy.SQLNativeSql
 0001:000361F0       TOdbcApiProxy.SQLNumParams
 0001:00036280       TOdbcApiProxy.SQLNumResultCols
 0001:00036314       TOdbcApiProxy.SQLParamData
 0001:000363A4       TOdbcApiProxy.SQLParamOptions
 0001:0003643C       TOdbcApiProxy.SQLPrepare
 0001:0003655C       TOdbcApiProxy.SQLPrimaryKeys
 0001:00036718       TOdbcApiProxy.SQLProcedureColumns
 0001:00036910       TOdbcApiProxy.SQLProcedures
 0001:00036ACC       TOdbcApiProxy.SQLPutData
 0001:00036B60       TOdbcApiProxy.SQLRowCount
 0001:00036BEC       TOdbcApiProxy.SQLSetConnectAttr
 0001:00036D80       TOdbcApiProxy.SQLSetConnectOption
 0001:00036E58       TOdbcApiProxy.SQLSetCursorName
 0001:00036F90       TOdbcApiProxy.SQLSetDescField
 0001:000370D4       TOdbcApiProxy.SQLSetDescRec
 0001:0003718C       TOdbcApiProxy.SQLSetEnvAttr
 0001:00037228       TOdbcApiProxy.SQLSetParam
 0001:000372D4       TOdbcApiProxy.SQLSetPos
 0001:00037370       TOdbcApiProxy.SQLSetScrollOptions
 0001:00037410       TOdbcApiProxy.SQLSetStmtAttr
 0001:0003759C       TOdbcApiProxy.SQLSetStmtOption
 0001:00037638       TOdbcApiProxy.SQLSpecialColumns
 0001:00037818       TOdbcApiProxy.SQLStatistics
 0001:00037A10       TOdbcApiProxy.SQLTablePrivileges
 0001:00037BC8       TOdbcApiProxy.SQLTables
 0001:00037DF0       TOdbcApiProxy.SQLTransact
 0001:00037E84       TOdbcApiProxy.TraceCloseLogFile
 0001:00037F0C       TOdbcApiProxy.TraceOpenLogFile
 0001:00037FA8       TOdbcApiProxy.TraceReturn
 0001:0003802C       TOdbcApiProxy.TraceVersion
 0001:000380B0       TOdbcApiProxy.TraceVSControl
 0001:00084558       TOdbcBindCol.Create
 0001:00084698       TOdbcBindCol.Destroy
 0001:000847D4       TOdbcBindParam.Create
 0001:00084918       TOdbcBindParam.Destroy
 0001:FFFFFF40       towlower
 0001:FFFFFF30       towupper
 0001:00024E80       TPersistent.Assign
 0001:00024EAC       TPersistent.AssignError
 0001:00024F90       TPersistent.AssignTo
 0001:00024FB0       TPersistent.DefineProperties
 0001:00024E30       TPersistent.Destroy
 0001:00024FC8       TPersistent.GetNamePath
 0001:00025090       TPersistent.GetOwner
 0001:00022EE0       TPublishableVariantType.GetProperty
 0001:00022F64       TPublishableVariantType.SetProperty
 0001:000283EC       Translate
 0001:000112FC       TranslateFormat
 0001:00016D3C       TranslateResult
 0001:00027544       TReader.CheckValue
 0001:00027588       TReader.EndOfList
 0001:000275B8       TReader.NextValue
 0001:000275E4       TReader.Read
 0001:00027644       TReader.ReadBuffer
 0001:000276A0       TReader.ReadListBegin
 0001:000276C0       TReader.ReadListEnd
 0001:000276E0       TReader.ReadStr
 0001:00027740       TReader.ReadString
 0001:00027900       TReader.ReadValue
 0001:0002780C       TReader.ReadWideString
 0001:00027C78       TReader.SkipBytes
 0001:00027C20       TReader.SkipProperty
 0001:00027930       TReader.SkipSetBody
 0001:00027A70       TReader.SkipValue
 0001:00040510       TRegExpr.Compile
 0001:0004089C       TRegExpr.CompileRegExpr
 0001:0003FCA0       TRegExpr.Create
 0001:0003FDF4       TRegExpr.Destroy
 0001:00040764       TRegExpr.EmitC
 0001:0004070C       TRegExpr.EmitNode
 0001:00044424       TRegExpr.Error
 0001:0003F0F4       TRegExpr.ErrorMsg
 0001:00043EE8       TRegExpr.Exec
 0001:00043FD8       TRegExpr.ExecPrim
 0001:000439B4       TRegExpr.FillFirstCharSet
 0001:0004284C       TRegExpr.GetCompilerErrorPos
 0001:00040058       TRegExpr.GetMatch
 0001:0003FFDC       TRegExpr.GetMatchPos
 0001:00040384       TRegExpr.GetModifier
 0001:0003FF80       TRegExpr.GetSubExprMatchCount
 0001:000407A4       TRegExpr.InsertOperator
 0001:000404D8       TRegExpr.InvalidateProgramm
 0001:0003FE68       TRegExpr.InvertCaseFunction
 0001:00040554       TRegExpr.IsProgrammOk
 0001:00042C68       TRegExpr.MatchPrim
 0001:000406CC       TRegExpr.OpTail
 0001:00041CB8       TRegExpr.ParseAtom
 0001:00040D98       TRegExpr.ParseBranch
 0001:00040100       TRegExpr.ParseModifiersStr
 0001:00041084       TRegExpr.ParsePiece
 0001:00040B84       TRegExpr.ParseReg
 0001:00042C20       TRegExpr.regnext
 0001:00042888       TRegExpr.regrepeat
 0001:0003FEA4       TRegExpr.SetExpression
 0001:000441D8       TRegExpr.SetInputString
 0001:000442D0       TRegExpr.SetLinePairedSeparator
 0001:0004043C       TRegExpr.SetModifier
 0001:00040660       TRegExpr.Tail
 0001:000242D4       TRegGroup.Create
 0001:0002437C       TRegGroup.Destroy
 0001:00024428       TRegGroup.UnregisterModuleClasses
 0001:000244F4       TRegGroups.Create
 0001:00024598       TRegGroups.Destroy
 0001:00024648       TRegGroups.Lock
 0001:00024688       TRegGroups.Unlock
 0001:000246C8       TRegGroups.UnregisterModuleClasses
 0001:0000ADC8       Trim
 0001:0000AE54       Trim
 0001:0000AEE0       TrimLeft
 0002:0000B1FC       TrueBoolStrs
 0001:0000D47C       TryEncodeDate
 0001:00028388       TryEncodeDateTime
 0001:0000D2C8       TryEncodeTime
 0001:0000CE7C       TryFloatToCurr
 0001:0000E48C       TryFloatToDateTime
 0001:00001424       TryOpenForOutput
 0001:0002C1E4       TryStrToBcd
 0001:0000B3A0       TryStrToBool
 0001:0000D124       TryStrToCurr
 0001:0000F218       TryStrToDate
 0001:0000F33C       TryStrToDateTime
 0001:0000CFE4       TryStrToFloat
 0001:0000D028       TryStrToFloat
 0001:0000D078       TryStrToFloat
 0001:0000B13C       TryStrToInt
 0001:0000B1EC       TryStrToInt64
 0001:00029690       TryStrToSQLTimeStamp
 0001:0000F280       TryStrToTime
 0001:000121D4       TSimpleRWSync.BeginRead
 0001:00012154       TSimpleRWSync.BeginWrite
 0001:00012074       TSimpleRWSync.Create
 0001:000120E4       TSimpleRWSync.Destroy
 0001:00012214       TSimpleRWSync.EndRead
 0001:00012194       TSimpleRWSync.EndWrite
 0001:0006AFD0       TSqlCommandOdbc.AddError
 0001:0006B1A4       TSqlCommandOdbc.BuildStoredProcSQL
 0001:0006E008       TSqlCommandOdbc.Cancel
 0001:0006AC8C       TSqlCommandOdbc.ClearParams
 0001:0006B078       TSqlCommandOdbc.close
 0001:0006A908       TSqlCommandOdbc.CloseStmt
 0001:0006A3AC       TSqlCommandOdbc.Create
 0001:0006ADD4       TSqlCommandOdbc.Destroy
 0001:000702B8       TSqlCommandOdbc.DoAllocateParams
 0001:0006A648       TSqlCommandOdbc.DoAllocateStmt
 0001:0006BC8C       TSqlCommandOdbc.DoExecute
 0001:0006D35C       TSqlCommandOdbc.DoExecuteImmediate
 0001:0007039C       TSqlCommandOdbc.DoExpandParams
 0001:00070458       TSqlCommandOdbc.DoPrepare
 0001:0006B464       TSqlCommandOdbc.DoSQLMoreResults
 0001:0006C768       TSqlCommandOdbc.DoUnprepareStmt
 0001:0006C584       TSqlCommandOdbc.execute
 0001:0006DDB0       TSqlCommandOdbc.ExecuteImmediate
 0001:0006E558       TSqlCommandOdbc.getErrorMessage
 0001:0006E5E4       TSqlCommandOdbc.getErrorMessageLen
 0001:0006E398       TSqlCommandOdbc.GetLockTimeout
 0001:0006E66C       TSqlCommandOdbc.getNextCursor
 0001:0006EA78       TSqlCommandOdbc.GetOption
 0001:0006F7C4       TSqlCommandOdbc.getParameter
 0001:00070188       TSqlCommandOdbc.getRowsAffected
 0001:0006B018       TSqlCommandOdbc.OdbcCheck
 0001:00070AC4       TSqlCommandOdbc.prepare
 0001:0006E13C       TSqlCommandOdbc.SetLockTimeout
 0001:00070FD0       TSqlCommandOdbc.SetOption
 0001:000720F0       TSqlCommandOdbc.setParameter
 0001:0004824C       TSqlCommandOdbc3.execute
 0001:0004843C       TSqlCommandOdbc3.executeImmediate
 0001:000486F4       TSqlCommandOdbc3.getErrorMessage
 0001:0004873C       TSqlCommandOdbc3.getErrorMessageLen
 0001:00048784       TSqlCommandOdbc3.getNextCursor
 0001:000487C8       TSqlCommandOdbc3.GetOption
 0001:00047F20       TSqlCommandOdbc3.prepare
 0001:00048CF0       TSqlCommandOdbc3.SetOption
 0001:00057EC0       TSqlConnectionOdbc.AllocHStmt
 0001:0005949C       TSqlConnectionOdbc.beginTransaction
 0001:00062BE4       TSqlConnectionOdbc.CheckDbmsTransactionSupport
 0001:0005A8D8       TSqlConnectionOdbc.CheckHCon
 0001:00062934       TSqlConnectionOdbc.CheckTransactionSupport
 0001:0005A644       TSqlConnectionOdbc.ClearConnectionOptions
 0001:000560C8       TSqlConnectionOdbc.CloneOdbcConnection
 0001:00059D30       TSqlConnectionOdbc.commit
 0001:0005AC84       TSqlConnectionOdbc.connect
 0001:0005516C       TSqlConnectionOdbc.Create
 0001:000570C8       TSqlConnectionOdbc.CreateRegExpObjectNameParser
 0001:00057650       TSqlConnectionOdbc.DbxCallBackSendMsg
 0001:0005796C       TSqlConnectionOdbc.DbxCallBackSendMsgFmt
 0001:000571D4       TSqlConnectionOdbc.DecodeObjectFullName
 0001:00055320       TSqlConnectionOdbc.Destroy
 0001:00061F28       TSqlConnectionOdbc.disconnect
 0001:00055528       TSqlConnectionOdbc.DoDestroy
 0001:000573E0       TSqlConnectionOdbc.EncodeObjectFullName
 0001:00057BC8       TSqlConnectionOdbc.FindFreeConnection
 0001:000588AC       TSqlConnectionOdbc.FreeHStmt
 0001:00058FFC       TSqlConnectionOdbc.GetCatalog
 0001:0006A32C       TSqlConnectionOdbc.GetConnectionHandle
 0001:000592A0       TSqlConnectionOdbc.GetCurrentCatalog
 0001:00058F58       TSqlConnectionOdbc.GetCurrentConnectionHandle
 0001:00058D98       TSqlConnectionOdbc.GetCurrentDbxConStmt
 0001:00058F08       TSqlConnectionOdbc.GetCurrentDbxConStmt
 0001:0006A220       TSqlConnectionOdbc.GetCursorPreserved
 0001:0006A028       TSqlConnectionOdbc.GetDbmsName
 0001:00069DA4       TSqlConnectionOdbc.GetDbmsType
 0001:0006A0D0       TSqlConnectionOdbc.GetDbmsVersionBuild
 0001:0006A04C       TSqlConnectionOdbc.GetDbmsVersionMajor
 0001:0006A078       TSqlConnectionOdbc.GetDbmsVersionMinor
 0001:0006A0A4       TSqlConnectionOdbc.GetDbmsVersionRelease
 0001:0006A0FC       TSqlConnectionOdbc.GetDbmsVersionString
 0001:0006A380       TSqlConnectionOdbc.GetDecimalSeparator
 0001:00056C7C       TSqlConnectionOdbc.GetDefaultConnectionOptions
 0001:0006A300       TSqlConnectionOdbc.GetEnvironmentHandle
 0001:00062828       TSqlConnectionOdbc.getErrorMessage
 0001:000628AC       TSqlConnectionOdbc.getErrorMessageLen
 0001:0006A24C       TSqlConnectionOdbc.GetIsSystemODBCManager
 0001:00069FFC       TSqlConnectionOdbc.GetLastOdbcSqlState
 0001:00062D04       TSqlConnectionOdbc.GetMetaDataOption
 0001:0006A358       TSqlConnectionOdbc.GetOdbcApiIntf
 0001:00069DFC       TSqlConnectionOdbc.GetOdbcConnectStrings
 0001:0006A27C       TSqlConnectionOdbc.GetOdbcDriverLevel
 0001:0006A120       TSqlConnectionOdbc.GetOdbcDriverName
 0001:00069DD0       TSqlConnectionOdbc.GetOdbcDriverType
 0001:0006A1CC       TSqlConnectionOdbc.GetOdbcDriverVersionBuild
 0001:0006A148       TSqlConnectionOdbc.GetOdbcDriverVersionMajor
 0001:0006A174       TSqlConnectionOdbc.GetOdbcDriverVersionMinor
 0001:0006A1A0       TSqlConnectionOdbc.GetOdbcDriverVersionRelease
 0001:0006A1F8       TSqlConnectionOdbc.GetOdbcDriverVersionString
 0001:000651E0       TSqlConnectionOdbc.GetOption
 0001:00057594       TSqlConnectionOdbc.GetQuotedObjectName
 0001:00066D74       TSqlConnectionOdbc.getSQLCommand
 0001:00066FF0       TSqlConnectionOdbc.getSQLMetaData
 0001:0006A2D4       TSqlConnectionOdbc.GetStatementsPerConnection
 0001:0006A2A8       TSqlConnectionOdbc.GetSupportsSqlPrimaryKeys
 0001:00056DD0       TSqlConnectionOdbc.GetUnquotedName
 0001:00056CC0       TSqlConnectionOdbc.GetUnquotedNameLen
 0001:00056F24       TSqlConnectionOdbc.ObjectIsStoredProc
 0001:00058FA0       TSqlConnectionOdbc.OdbcCheck
 0001:00057154       TSqlConnectionOdbc.ReleaseRegExpObjectNameParser
 0001:0005ED3C       TSqlConnectionOdbc.RetrieveDbmsOptions
 0001:0005F474       TSqlConnectionOdbc.RetrieveDriverName
 0001:0005A1D8       TSqlConnectionOdbc.rollback
 0001:00056694       TSqlConnectionOdbc.SetCurrentDbxConStmt
 0001:000567F0       TSqlConnectionOdbc.SetLoginTimeout
 0001:00056A20       TSqlConnectionOdbc.SetNetworkTimeout
 0001:00067BB0       TSqlConnectionOdbc.SetOption
 0001:00055834       TSqlConnectionOdbc.SetVendorLib
 0001:00055CD0       TSqlConnectionOdbc.SynchronizeInTransaction
 0001:00069A58       TSqlConnectionOdbc.TransactionCheck
 0001:000461DC       TSqlConnectionOdbc3.connect
 0001:000463B0       TSqlConnectionOdbc3.connect
 0001:00046044       TSqlConnectionOdbc3.Create
 0001:00046188       TSqlConnectionOdbc3.Destroy
 0001:0004663C       TSqlConnectionOdbc3.getErrorMessage
 0001:00046800       TSqlConnectionOdbc3.getErrorMessageLen
 0001:00046988       TSqlConnectionOdbc3.GetMetaDataReader
 0001:00046FDC       TSqlConnectionOdbc3.GetOption
 0001:00047AF4       TSqlConnectionOdbc3.getSQLCommand
 0001:00047D08       TSqlConnectionOdbc3.getSQLMetaData
 0001:00047884       TSqlConnectionOdbc3.SetOption
 0001:00081628       TSqlCursorMetaData.BindInteger
 0001:00081120       TSqlCursorMetaData.BindSmallint
 0001:00080394       TSqlCursorMetaData.ClearMetaData
 0001:000800D8       TSqlCursorMetaData.Create
 0001:000805B8       TSqlCursorMetaData.DbgColumnName
 0001:0008061C       TSqlCursorMetaData.DbgPhysColumnName
 0001:00080ACC       TSqlCursorMetaData.DescribeAllocBindString
 0001:00080DD4       TSqlCursorMetaData.DescribeAllocBindWString
 0001:00080278       TSqlCursorMetaData.Destroy
 0001:00081B14       TSqlCursorMetaData.getBcd
 0001:00081C60       TSqlCursorMetaData.getBlob
 0001:00081D94       TSqlCursorMetaData.getBlobSize
 0001:00081ED0       TSqlCursorMetaData.getBytes
 0001:00082018       TSqlCursorMetaData.getColumnCount
 0001:00082078       TSqlCursorMetaData.getColumnLength
 0001:00082228       TSqlCursorMetaData.getColumnName
 0001:00082418       TSqlCursorMetaData.getColumnNameLength
 0001:000825D4       TSqlCursorMetaData.getColumnPrecision
 0001:000827F8       TSqlCursorMetaData.getColumnScale
 0001:000829CC       TSqlCursorMetaData.getColumnType
 0001:00082BE0       TSqlCursorMetaData.getDate
 0001:00082D28       TSqlCursorMetaData.getDouble
 0001:00082E78       TSqlCursorMetaData.getErrorMessage
 0001:00082F08       TSqlCursorMetaData.getErrorMessageLen
 0001:00083668       TSqlCursorMetaData.getInt64
 0001:00082F90       TSqlCursorMetaData.getLong
 0001:000830D8       TSqlCursorMetaData.GetOption
 0001:00080558       TSqlCursorMetaData.GetPhysColumnAnsiString
 0001:000803D8       TSqlCursorMetaData.GetPhysColumnNumber
 0001:00080588       TSqlCursorMetaData.GetPhysColumnWideString
 0001:0008320C       TSqlCursorMetaData.getShort
 0001:00083354       TSqlCursorMetaData.getString
 0001:000837B8       TSqlCursorMetaData.getTime
 0001:00083900       TSqlCursorMetaData.getTimeStamp
 0001:000834E4       TSqlCursorMetaData.getWideString
 0001:00083A54       TSqlCursorMetaData.isAutoIncrement
 0001:00083B8C       TSqlCursorMetaData.isBlobSizeExact
 0001:00083CC4       TSqlCursorMetaData.isNullable
 0001:0008049C       TSqlCursorMetaData.IsPhysColumnStringType
 0001:000804FC       TSqlCursorMetaData.IsPhysColumnWideStringType
 0001:00083DF8       TSqlCursorMetaData.isReadOnly
 0001:00083F30       TSqlCursorMetaData.isSearchable
 0001:00084064       TSqlCursorMetaData.next
 0001:000843DC       TSqlCursorMetaData.OdbcCheck
 0001:00080A20       TSqlCursorMetaData.ParseTableName
 0001:00080758       TSqlCursorMetaData.ParseTableNameBase
 0001:00080668       TSqlCursorMetaData.remap
 0001:000841A0       TSqlCursorMetaData.SetOption
 0001:00088F3C       TSqlCursorMetaDataColumns.Clear
 0001:00088478       TSqlCursorMetaDataColumns.Create
 0001:00088E1C       TSqlCursorMetaDataColumns.Destroy
 0001:00089100       TSqlCursorMetaDataColumns.FetchColumns
 0001:00089F64       TSqlCursorMetaDataColumns.getLong
 0001:0008A688       TSqlCursorMetaDataColumns.GetPhysColumnAnsiString
 0001:0008A80C       TSqlCursorMetaDataColumns.GetPhysColumnWideString
 0001:0008A2E8       TSqlCursorMetaDataColumns.getShort
 0001:0008A990       TSqlCursorMetaDataColumns.next
 0001:0004B150       TSqlCursorMetaDataColumns3.getColumnName
 0001:0004B320       TSqlCursorMetaDataColumns3.getErrorMessage
 0001:0004B450       TSqlCursorMetaDataColumns3.getErrorMessageLen
 0001:0004CCA0       TSqlCursorMetaDataColumnsDbx34.Create
 0001:0004D060       TSqlCursorMetaDataColumnsDbx34.getLong
 0001:0004D294       TSqlCursorMetaDataColumnsDbx34.getShort
 0001:0004D9D8       TSqlCursorMetaDataIndexColumnsDbx34.Create
 0001:0004DCF8       TSqlCursorMetaDataIndexColumnsDbx34.getLong
 0001:0004DEAC       TSqlCursorMetaDataIndexColumnsDbx34.getShort
 0001:0008B390       TSqlCursorMetaDataIndexes.Clear
 0001:0008AB30       TSqlCursorMetaDataIndexes.Create
 0001:0008B270       TSqlCursorMetaDataIndexes.Destroy
 0001:0008B818       TSqlCursorMetaDataIndexes.FetchIndexes
 0001:0008D4B4       TSqlCursorMetaDataIndexes.getLong
 0001:0008CF3C       TSqlCursorMetaDataIndexes.GetPhysColumnAnsiString
 0001:0008D1F8       TSqlCursorMetaDataIndexes.GetPhysColumnWideString
 0001:0008D804       TSqlCursorMetaDataIndexes.getShort
 0001:0008DB8C       TSqlCursorMetaDataIndexes.next
 0001:0004B580       TSqlCursorMetaDataIndexes3.getColumnName
 0001:0004B750       TSqlCursorMetaDataIndexes3.getErrorMessage
 0001:0004B880       TSqlCursorMetaDataIndexes3.getErrorMessageLen
 0001:0004D460       TSqlCursorMetaDataIndexesDbx34.Create
 0001:0004D790       TSqlCursorMetaDataIndexesDbx34.getShort
 0001:0008F1A4       TSqlCursorMetaDataProcedureParams.Create
 0001:0008FA30       TSqlCursorMetaDataProcedureParams.Destroy
 0001:0008FDB8       TSqlCursorMetaDataProcedureParams.FetchProcedureParams
 0001:00091688       TSqlCursorMetaDataProcedureParams.getLong
 0001:00091CBC       TSqlCursorMetaDataProcedureParams.GetPhysColumnAnsiString
 0001:00091E04       TSqlCursorMetaDataProcedureParams.GetPhysColumnWideString
 0001:0009195C       TSqlCursorMetaDataProcedureParams.getShort
 0001:00091F4C       TSqlCursorMetaDataProcedureParams.next
 0001:0004BE1C       TSqlCursorMetaDataProcedureParams3.getColumnName
 0001:0004BFF4       TSqlCursorMetaDataProcedureParams3.getErrorMessage
 0001:0004C12C       TSqlCursorMetaDataProcedureParams3.getErrorMessageLen
 0001:0008DCC8       TSqlCursorMetaDataProcedures.Create
 0001:0008E1F0       TSqlCursorMetaDataProcedures.Destroy
 0001:0008E360       TSqlCursorMetaDataProcedures.FetchProcedures
 0001:0008E964       TSqlCursorMetaDataProcedures.getLong
 0001:0008EE9C       TSqlCursorMetaDataProcedures.GetPhysColumnAnsiString
 0001:0008EF80       TSqlCursorMetaDataProcedures.GetPhysColumnWideString
 0001:0008EC00       TSqlCursorMetaDataProcedures.getShort
 0001:0008F064       TSqlCursorMetaDataProcedures.next
 0001:0004B9B0       TSqlCursorMetaDataProcedures3.getColumnName
 0001:0004BBB4       TSqlCursorMetaDataProcedures3.getErrorMessage
 0001:0004BCE8       TSqlCursorMetaDataProcedures3.getErrorMessageLen
 0001:00086760       TSqlCursorMetaDataTables.Clear
 0001:00086180       TSqlCursorMetaDataTables.Create
 0001:00086640       TSqlCursorMetaDataTables.Destroy
 0001:00086AC8       TSqlCursorMetaDataTables.FetchTables
 0001:000880FC       TSqlCursorMetaDataTables.getColumnLength
 0001:00087AC4       TSqlCursorMetaDataTables.getLong
 0001:00087DF8       TSqlCursorMetaDataTables.GetPhysColumnAnsiString
 0001:00087F70       TSqlCursorMetaDataTables.GetPhysColumnWideString
 0001:0008833C       TSqlCursorMetaDataTables.next
 0001:0004AF84       TSqlCursorMetaDataTables3.getColumnName
 0001:0004AD24       TSqlCursorMetaDataTables3.getErrorMessage
 0001:0004AE54       TSqlCursorMetaDataTables3.getErrorMessageLen
 0001:0004C87C       TSqlCursorMetaDataTablesDbx34.Create
 0001:0004CAF0       TSqlCursorMetaDataTablesDbx34.GetPhysColumnWideString
 0001:0007AA28       TSqlCursorOdbc.AddError
 0001:00077C5C       TSqlCursorOdbc.BindResultSet
 0001:0007A7FC       TSqlCursorOdbc.CheckFetchCacheColumns
 0001:000762BC       TSqlCursorOdbc.ClearCursor
 0001:00075FFC       TSqlCursorOdbc.Create
 0001:00076468       TSqlCursorOdbc.Destroy
 0001:0007A348       TSqlCursorOdbc.DoFetchLateBoundData
 0001:0007AD20       TSqlCursorOdbc.DoFetchLongData
 0001:0007A56C       TSqlCursorOdbc.FetchLateBoundData
 0001:0007B6DC       TSqlCursorOdbc.FetchLongData
 0001:0007B8C0       TSqlCursorOdbc.getBcd
 0001:0007BA9C       TSqlCursorOdbc.getBlob
 0001:0007BECC       TSqlCursorOdbc.getBlobSize
 0001:0007C250       TSqlCursorOdbc.getBytes
 0001:0007C4C0       TSqlCursorOdbc.getColumnCount
 0001:0007C500       TSqlCursorOdbc.getColumnLength
 0001:0007CBA4       TSqlCursorOdbc.getColumnName
 0001:0007CCF8       TSqlCursorOdbc.getColumnNameLength
 0001:0007CE90       TSqlCursorOdbc.getColumnPrecision
 0001:0007D180       TSqlCursorOdbc.getColumnScale
 0001:0007D3A4       TSqlCursorOdbc.getColumnType
 0001:0007D5E0       TSqlCursorOdbc.getDate
 0001:0007D838       TSqlCursorOdbc.getDouble
 0001:0007DA08       TSqlCursorOdbc.getErrorMessage
 0001:0007DAA4       TSqlCursorOdbc.getErrorMessageLen
 0001:0007DB30       TSqlCursorOdbc.getLong
 0001:0007DD54       TSqlCursorOdbc.GetOption
 0001:0007DE84       TSqlCursorOdbc.getShort
 0001:0007E0C8       TSqlCursorOdbc.getString
 0001:0007E554       TSqlCursorOdbc.getTime
 0001:0007E740       TSqlCursorOdbc.getTimeStamp
 0001:0007E9A0       TSqlCursorOdbc.isAutoIncrement
 0001:0007ECD0       TSqlCursorOdbc.isBlobSizeExact
 0001:0007ED20       TSqlCursorOdbc.isNullable
 0001:0007EEA8       TSqlCursorOdbc.isReadOnly
 0001:0007F098       TSqlCursorOdbc.isSearchable
 0001:0007F52C       TSqlCursorOdbc.next
 0001:00076780       TSqlCursorOdbc.OdbcCheck
 0001:0007FEB0       TSqlCursorOdbc.SetOption
 0001:000491C4       TSqlCursorOdbc3.getColumnName
 0001:00048FEC       TSqlCursorOdbc3.getColumnNameLength
 0001:00048F5C       TSqlCursorOdbc3.getErrorMessage
 0001:00048FA4       TSqlCursorOdbc3.getErrorMessageLen
 0001:00049310       TSqlCursorOdbc3.getInt64
 0001:00049544       TSqlCursorOdbc3.getWideString
 0001:00053C14       TSqlDriverOdbc.AllocHCon
 0001:00053F34       TSqlDriverOdbc.AllocHEnv
 0001:000520CC       TSqlDriverOdbc.AssignFields
 0001:00052070       TSqlDriverOdbc.ClearFields
 0001:00051C64       TSqlDriverOdbc.Create
 0001:00051E68       TSqlDriverOdbc.Destroy
 0001:00054CD0       TSqlDriverOdbc.Drivers
 0001:00053D88       TSqlDriverOdbc.FreeHCon
 0001:00054224       TSqlDriverOdbc.FreeHEnv
 0001:00054FC0       TSqlDriverOdbc.GetOdbcDrivers
 0001:000543E4       TSqlDriverOdbc.GetOption
 0001:00054784       TSqlDriverOdbc.getSQLConnection
 0001:00052134       TSqlDriverOdbc.OdbcCheck
 0001:00052898       TSqlDriverOdbc.RetrieveOdbcErrorInfo
 0001:00054964       TSqlDriverOdbc.SetOption
 0001:00045D5C       TSqlDriverOdbc3.Create
 0001:00045EB8       TSqlDriverOdbc3.getSQLConnection
 0001:00073E14       TSQLMetaDataOdbc.Create
 0001:00073F80       TSQLMetaDataOdbc.Destroy
 0001:000750F4       TSQLMetaDataOdbc.DoGetTables
 0001:0007409C       TSQLMetaDataOdbc.getColumns
 0001:00074384       TSQLMetaDataOdbc.getErrorMessage
 0001:00074414       TSQLMetaDataOdbc.getErrorMessageLen
 0001:0007449C       TSQLMetaDataOdbc.getIndices
 0001:00074764       TSQLMetaDataOdbc.getObjectList
 0001:00074898       TSQLMetaDataOdbc.GetOption
 0001:00074B90       TSQLMetaDataOdbc.getProcedureParams
 0001:00074E50       TSQLMetaDataOdbc.getProcedures
 0001:00075400       TSQLMetaDataOdbc.getTables
 0001:0007565C       TSQLMetaDataOdbc.SetOption
 0001:0004A6B8       TSQLMetaDataOdbc3.getColumns
 0001:000498E0       TSQLMetaDataOdbc3.getErrorMessage
 0001:00049A5C       TSQLMetaDataOdbc3.getErrorMessageLen
 0001:0004A90C       TSQLMetaDataOdbc3.getIndices
 0001:0004A1D0       TSQLMetaDataOdbc3.getObjectList
 0001:00049BE4       TSQLMetaDataOdbc3.GetOption
 0001:0004AAFC       TSQLMetaDataOdbc3.getProcedureParams
 0001:0004A468       TSQLMetaDataOdbc3.getProcedures
 0001:0004A2DC       TSQLMetaDataOdbc3.getTables
 0001:00049F6C       TSQLMetaDataOdbc3.SetOption
 0001:00028944       TSQLTimeStampData.AdjustDate
 0001:00028798       TSQLTimeStampData.AdjustDays
 0001:0002880C       TSQLTimeStampData.AdjustHours
 0001:00028874       TSQLTimeStampData.AdjustMinutes
 0001:00028750       TSQLTimeStampData.AdjustMonths
 0001:000288DC       TSQLTimeStampData.AdjustSeconds
 0001:00028AD8       TSQLTimeStampData.Compare
 0001:00028C70       TSQLTimeStampData.Create
 0001:00028CF8       TSQLTimeStampData.Create
 0001:00028D78       TSQLTimeStampData.Create
 0001:00028DF8       TSQLTimeStampData.Create
 0001:000289DC       TSQLTimeStampData.DaysInMonth
 0001:00028A64       TSQLTimeStampData.DoAdd
 0001:00028A0C       TSQLTimeStampData.DoSubtract
 0001:00028BB8       TSQLTimeStampData.GetAsDateTime
 0001:00028B84       TSQLTimeStampData.GetAsString
 0001:00028730       TSQLTimeStampData.GetIsBlank
 0001:00028C30       TSQLTimeStampData.SetAsDateTime
 0001:00028BEC       TSQLTimeStampData.SetAsString
 0001:00028E64       TSQLTimeStampData.SetDay
 0001:00028F1C       TSQLTimeStampData.SetFractions
 0001:00028F38       TSQLTimeStampData.SetHour
 0001:00028FE0       TSQLTimeStampData.SetMinute
 0001:00029088       TSQLTimeStampData.SetMonth
 0001:00029134       TSQLTimeStampData.SetSecond
 0001:000291DC       TSQLTimeStampData.SetYear
 0001:00029544       TSQLTimeStampVariantType.BinaryOp
 0001:00029220       TSQLTimeStampVariantType.Cast
 0001:0002936C       TSQLTimeStampVariantType.CastTo
 0001:000291F8       TSQLTimeStampVariantType.Clear
 0001:0002958C       TSQLTimeStampVariantType.Compare
 0001:000294B0       TSQLTimeStampVariantType.Copy
 0001:0002951C       TSQLTimeStampVariantType.GetInstance
 0001:00026C50       TStream.GetPosition
 0001:00026C94       TStream.GetSize
 0001:00026DF0       TStream.Seek
 0001:00026E8C       TStream.Seek
 0001:00026D14       TStream.SetSize
 0001:00026D2C       TStream.SetSize
 0001:00026F10       TStream.WriteBuffer
 0001:0002F5B4       TStringHash.Add
 0001:0002F78C       TStringHash.BeginLock
 0001:0002F4A4       TStringHash.Clear
 0001:0002F3AC       TStringHash.Create
 0001:0002F448       TStringHash.Destroy
 0001:0002F7B4       TStringHash.EndLock
 0001:0002F710       TStringHash.Find
 0001:0002F54C       TStringHash.HashOf
 0001:0002F650       TStringHash.Remove
 0001:0002F6C4       TStringHash.ValueOf
 0001:0002625C       TStringList.Add
 0001:00026290       TStringList.AddObject
 0001:00026328       TStringList.Changed
 0001:00026360       TStringList.Changing
 0001:00026398       TStringList.Clear
 0001:00026C0C       TStringList.CompareStrings
 0001:00026BB0       TStringList.CustomSort
 0001:000263F4       TStringList.Delete
 0001:000261DC       TStringList.Destroy
 0001:00026480       TStringList.Exchange
 0001:00026508       TStringList.ExchangeItems
 0001:00026558       TStringList.Find
 0001:0002660C       TStringList.Get
 0001:00026664       TStringList.GetCapacity
 0001:00026680       TStringList.GetCount
 0001:0002669C       TStringList.GetObject
 0001:000266F0       TStringList.Grow
 0001:0002674C       TStringList.IndexOf
 0001:000267AC       TStringList.Insert
 0001:0002684C       TStringList.InsertItem
 0001:000267E4       TStringList.InsertObject
 0001:000268E4       TStringList.Put
 0001:00026964       TStringList.PutObject
 0001:000269CC       TStringList.QuickSort
 0001:00026A8C       TStringList.SetCapacity
 0001:00026AC4       TStringList.SetSorted
 0001:00026B0C       TStringList.SetUpdateState
 0001:00026B88       TStringList.Sort
 0001:00025100       TStrings.Add
 0001:00025148       TStrings.AddObject
 0001:00025190       TStrings.AddStrings
 0001:0002525C       TStrings.Assign
 0001:00025300       TStrings.BeginUpdate
 0001:00026134       TStrings.CompareStrings
 0001:000253A0       TStrings.DefineProperties
 0001:000250AC       TStrings.Destroy
 0001:00025404       TStrings.EndUpdate
 0001:0002542C       TStrings.Equals
 0001:000254F4       TStrings.Error
 0001:0002555C       TStrings.Error
 0001:000255C8       TStrings.Exchange
 0001:000256C8       TStrings.GetCapacity
 0001:00026164       TStrings.GetNameValueSeparator
 0001:000256E8       TStrings.GetObject
 0001:00025704       TStrings.GetText
 0001:00025764       TStrings.GetTextStr
 0001:000258B0       TStrings.IndexOf
 0001:0002594C       TStrings.IndexOfName
 0001:00025A34       TStrings.IndexOfObject
 0001:00025A98       TStrings.InsertObject
 0001:00025AE0       TStrings.LoadFromFile
 0001:00025B44       TStrings.LoadFromStream
 0001:00025C08       TStrings.Move
 0001:00025CD0       TStrings.Put
 0001:00025D34       TStrings.PutObject
 0001:00025D4C       TStrings.ReadData
 0001:00025E10       TStrings.SaveToFile
 0001:00025E78       TStrings.SaveToStream
 0001:00025EE0       TStrings.SetCapacity
 0001:00026198       TStrings.SetNameValueSeparator
 0001:00025EF8       TStrings.SetStringsAdapter
 0001:00025F48       TStrings.SetText
 0001:00025FA8       TStrings.SetTextStr
 0001:00026080       TStrings.SetUpdateState
 0001:00026098       TStrings.WriteData
 0001:0002E8D8       TSynchroObject.Acquire
 0001:0002E8F0       TSynchroObject.Release
 0001:00024C88       TThreadList.Create
 0001:00024D0C       TThreadList.Destroy
 0001:00024DA8       TThreadList.LockList
 0001:00024DF0       TThreadList.UnlockList
 0002:00000470       TwoDigitYearCenturyWindow
 0001:00027CE8       TWriter.Write
 0001:00027D48       TWriter.WriteBuffer
 0001:00027D7C       TWriter.WriteListBegin
 0001:00027D9C       TWriter.WriteListEnd
 0001:00027DBC       TWriter.WriteMinStr
 0001:00027E8C       TWriter.WriteString
 0001:00027EEC       TWriter.WriteValue
 0001:0000A2F4       Types
 0001:000242B4       TypInfo
 0001:00048B34       ulValue2Str
 0001:00070E44       ulValue2Str
 0001:00000650       UnblockOSExceptions
 0001:000108D8       UnhookOSExceptions
 0001:00010814       UnhookSignal
 0001:00005CF8       UnicodeToUtf8
 0001:00005D4C       UnicodeToUtf8
 0001:00009FD4       UninitializeModule
 0001:0000367C       UniqueString
 0001:00014FE0       UniUnimplemented
 0001:000020C4       UnlinkException
 0001:000312EC       UnLoadOdbcDriverManager
 0001:000109A8       UnpackExternalException
 0002:0000A584       UnpackExternalExceptProc
 0001:00041B28       UnQuoteChar
 0001:00005A88       UnregisterModule
 0001:0002471C       UnRegisterModuleClasses
 0001:0000A070       UnregisterPCMap
 0002:0000AB28       Unwinder
 0001:00000AC8       UpCase
 0001:0000A708       UpperCase
 0001:00006080       UTF8Decode
 0001:00005FBC       UTF8Encode
 0001:00005E64       Utf8ToUnicode
 0001:0000D1B8       ValidateTimeStamp
 0001:0002B9E0       ValueOverOne
 0002:0000140C       Values
 0002:0000B220       VarAdd
 0002:0000B238       VarAnd
 0001:00017210       VarArrayClear
 0001:00017720       VarArrayCopyForEach
 0001:000200A8       VarArrayCreate
 0001:00016CD8       VarArrayCreateError
 0001:0002027C       VarArrayDimCount
 0001:0002054C       VarArrayGet
 0001:00020330       VarArrayHighBound
 0001:000202C4       VarArrayLowBound
 0001:00020704       VarArrayPut
 0002:0000B25C       VarBoolFromStr
 0002:0000B268       VarBstrFromBool
 0002:0000B260       VarBstrFromCy
 0002:0000B264       VarBstrFromDate
 0001:00017EE8       VarCastAsAny
 0001:00018028       VarCastAsDispatch
 0001:00018080       VarCastAsInterface
 0001:00017F78       VarCastAsOleStr
 0001:00017FD0       VarCastAsString
 0001:00016A4C       VarCastError
 0001:00016AB0       VarCastError
 0001:000181D4       VarCastRare
 0001:000180D8       VarCastViaOS
 0001:00017424       VarClearDeep
 0002:0000B244       VarCmp
 0001:0001EE8C       VarCompare
 0001:0001E380       VarCompareAny
 0001:0001EA24       VarCompareRare
 0001:0001E7E8       VarCompareSimple
 0001:00017C84       VarCopyByRef
 0001:000179E8       VarCopyCopyProc
 0001:00017A08       VarCopyDeep
 0001:00017C08       VarCopyNoIndCopyProc
 0001:00017C28       VarCopyNoIndDeep
 0001:00017BE8       VarCopyNoIndOleStr
 0001:00017B88       VarCopyNoIndViaOS
 0002:0000B258       VarCyFromStr
 0002:0000B254       VarDateFromStr
 0002:0000B280       VarDispProc
 0002:0000B22C       VarDiv
 0001:00012C64       VarExceptionToResult
 0002:0000B248       VarI4FromStr
 0001:000133F4       VariantChangeByteArrayIntoOleStr
 0001:000131E8       VariantChangeOleStrIntoByteArray
 0001:00013574       VariantChangeSimpleIntoSimple
 0001:00014EDC       VariantChangeType
 0002:0000B214       VariantChangeTypeEx
 0001:00012D4C       VariantClear
 0001:00012E24       VariantCopy
 0001:00012FB4       VariantCopyInd
 0001:00012D1C       VariantInit
 0002:0000AB60       VariantManager
 0001:00022508       Variants
 0001:00004340       VariantSystemDefaultVarClear
 0001:00004330       VariantSystemUndefinedError
 0002:0000B230       VarIDiv
 0001:00016BC4       VarInvalidNullOp
 0001:00016B60       VarInvalidOp
 0001:0001FDBC       VarIsNull
 0002:0000B234       VarMod
 0002:0000B228       VarMul
 0002:0000B218       VarNeg
 0002:0000B21C       VarNot
 0001:0001D300       VarOpRare
 0002:0000B23C       VarOr
 0001:00016C28       VarOverflowError
 0002:0000B24C       VarR4FromStr
 0002:0000B250       VarR8FromStr
 0001:00016FB0       VarResultCheck
 0001:00016FD4       VarResultCheck
 0001:0001D240       VarStrCat
 0001:00017EDC       VarStringToOleStr
 0002:0000B224       VarSub
 0001:00019A98       VarToBoolAny
 0001:00019908       VarToBoolAsString
 0001:00019B20       VarToBoolCustom
 0001:000199F0       VarToBoolViaOS
 0001:0001B0B0       VarToCurrencyAny
 0001:0001AF64       VarToCurrencyAsDouble
 0001:0001AE84       VarToCurrencyAsString
 0001:0001B138       VarToCurrencyCustom
 0001:0001B000       VarToCurrencyViaOS
 0001:0001A9E0       VarToDateAny
 0001:0001A894       VarToDateAsDouble
 0001:0001A784       VarToDateAsString
 0001:0001AA68       VarToDateCustom
 0001:0001A930       VarToDateViaOS
 0001:0001A0D4       VarToDoubleAny
 0001:00019F3C       VarToDoubleAsString
 0001:0001A15C       VarToDoubleCustom
 0001:0001A024       VarToDoubleViaOS
 0001:00019364       VarToInt64Any
 0001:0001922C       VarToInt64AsString
 0001:000193F4       VarToInt64Custom
 0001:000190F4       VarToInt64ViaOS
 0001:00018714       VarToIntAny
 0001:0001859C       VarToIntAsString
 0001:0001879C       VarToIntCustom
 0001:00018670       VarToIntViaOS
 0001:0001B878       VarToLStrAny
 0001:0001B900       VarToLStrCustom
 0001:0001B770       VarToLStrViaOS
 0001:0001FDEC       VarToStr
 0001:0001FE28       VarToStrDef
 0001:0001FE7C       VarToWideStr
 0001:0001FEE4       VarToWideStrDef
 0001:0001C054       VarToWStrAny
 0001:0001C0DC       VarToWStrCustom
 0001:0001BF64       VarToWStrViaOS
 0001:0001FD28       VarType
 0001:0001FB94       VarTypeAsText
 0001:0001FD68       VarTypeIsCustom
 0001:0001FD90       VarTypeIsStr
 0001:0002039C       VarTypeIsValidArrayType
 0001:000203D4       VarTypeIsValidElementType
 0001:00016A24       VarUtils
 0002:0000B240       VarXor
 0001:0000B23C       VerifyBoolStrArray
 0001:0005F2DC       VersionStringToNumeric
 0001:FFFFFBA0       vfprintf
 0001:00003078       WCharFromChar
 0001:0003DAA0       WCharFromChar
 0001:FFFFFF50       wcscoll
 0001:00071FA4       WideCharToUtf8
 0001:0000AC94       WideCompareStr
 0001:0000AD4C       WideCompareText
 0001:0000ABF0       WideLowerCase
 0001:0003D790       WideStringLengthFromStrings
 0001:00006848       WideStringToUCS4String
 0001:0000AB4C       WideUpperCase
 0001:FFFFFEC0       wordexp
 0001:FFFFFED0       wordfree
 0001:000027A8       WriteErrorMessage
 0001:0003DD0C       WStrLComp
 0001:0003DCE4       WStrLen
 0001:00003924       WStrSet
 0002:00000084       ZeroPageReserved


  Address         Publics by Value

 0002:FFE5B074       TlsLast
 0001:FFFFF900       @_open
 0001:FFFFF910       @_close
 0001:FFFFF920       @_read
 0001:FFFFF930       @_write
 0001:FFFFF940       @_getcwd
 0001:FFFFF950       @_getenv
 0001:FFFFF950       getenv
 0001:FFFFF960       memcpy
 0001:FFFFF970       @_malloc
 0001:FFFFF970       malloc
 0001:FFFFF980       @_free
 0001:FFFFF980       free
 0001:FFFFF990       @_realloc
 0001:FFFFF9A0       ExitProcess
 0001:FFFFF9B0       @lseek
 0001:FFFFF9C0       @ftruncate
 0001:FFFFF9D0       strcasecmp
 0001:FFFFF9E0       @_errno_location
 0001:FFFFF9F0       nl_langinfo
 0001:FFFFFA00       iconv_open
 0001:FFFFFA10       iconv
 0001:FFFFFA20       iconv_close
 0001:FFFFFA30       mblen
 0001:FFFFFA40       mmap
 0001:FFFFFA50       munmap
 0001:FFFFFA60       @_raise
 0001:FFFFFA70       @_xstat
 0001:FFFFFA80       @strlen
 0001:FFFFFA90       @readlink
 0001:FFFFFAA0       dladdr
 0001:FFFFFAB0       dlopen
 0001:FFFFFAC0       dlclose
 0001:FFFFFAC0       FreeLibrary
 0001:FFFFFAD0       dlsym
 0001:FFFFFAE0       dlerror
 0001:FFFFFAF0       GetCurrentThreadID
 0001:FFFFFB00       memset
 0001:FFFFFB10       printf
 0001:FFFFFB20       strtok
 0001:FFFFFB30       strdup
 0001:FFFFFB40       fopen
 0001:FFFFFB50       fdopen
 0001:FFFFFB60       time
 0001:FFFFFB70       ctime
 0001:FFFFFB80       fclose
 0001:FFFFFB90       fprintf
 0001:FFFFFBA0       vfprintf
 0001:FFFFFBB0       fflush
 0001:FFFFFBC0       dup
 0001:FFFFFBD0       @setlocale
 0001:FFFFFBE0       malloc
 0001:FFFFFBF0       free
 0001:FFFFFC00       dlopen
 0001:FFFFFC10       dlclose
 0001:FFFFFC10       FreeLibrary
 0001:FFFFFC20       dladdr
 0001:FFFFFC30       pthread_once
 0001:FFFFFC40       pthread_key_create
 0001:FFFFFC50       TlsGetValue
 0001:FFFFFC60       TlsSetValue
 0001:FFFFFC70       _BorUnwind_RegisterIPLookup
 0001:FFFFFC80       _BorUnwind_UnregisterIPLookup
 0001:FFFFFC90       _BorUnwind_DelphiLookup
 0001:FFFFFCA0       _BorUnwind_RaiseException
 0001:FFFFFCB0       _BorUnwind_ClosestDelphiHandler
 0001:FFFFFCC0       localtime_r
 0001:FFFFFCD0       __time
 0001:FFFFFCE0       sigaction
 0001:FFFFFCF0       kill
 0001:FFFFFD00       sigaddset
 0001:FFFFFD10       pthread_mutex_init
 0001:FFFFFD20       pthread_mutexattr_destroy
 0001:FFFFFD30       pthread_mutexattr_init
 0001:FFFFFD40       pthread_mutexattr_settype
 0001:FFFFFD50       GetCurrentThreadID
 0001:FFFFFD60       fcntl
 0001:FFFFFD70       open
 0001:FFFFFD80       __close
 0001:FFFFFD90       __lseek
 0001:FFFFFDA0       __read
 0001:FFFFFDB0       __write
 0001:FFFFFDC0       euidaccess
 0001:FFFFFDD0       ftruncate
 0001:FFFFFDE0       getpid
 0001:FFFFFDF0       pipe
 0001:FFFFFE00       strcoll
 0001:FFFFFE10       strerror_r
 0001:FFFFFE20       strncmp
 0001:FFFFFE30       strverscmp
 0001:FFFFFE40       __ctype_get_mb_cur_max
 0001:FFFFFE50       calloc
 0001:FFFFFE60       free
 0001:FFFFFE70       getenv
 0001:FFFFFE80       mblen
 0001:FFFFFE90       setlocale
 0001:FFFFFEA0       localeconv
 0001:FFFFFEB0       nl_langinfo
 0001:FFFFFEC0       wordexp
 0001:FFFFFED0       wordfree
 0001:FFFFFEE0       dlopen
 0001:FFFFFEF0       dlerror
 0001:FFFFFF00       dlsym
 0001:FFFFFF10       dlclose
 0001:FFFFFF20       dladdr
 0001:FFFFFF30       towupper
 0001:FFFFFF40       towlower
 0001:FFFFFF50       wcscoll
 0001:FFFFFF60       gnu_get_libc_version
 0001:FFFFFF70       EnterCriticalSection
 0001:FFFFFF80       LeaveCriticalSection
 0001:FFFFFF90       DeleteCriticalSection
 0001:FFFFFFA0       TlsGetValue
 0001:FFFFFFB0       nl_langinfo
 0001:FFFFFFC0       iconv_open
 0001:FFFFFFD0       iconv_close
 0001:FFFFFFE0       iconv
 0001:FFFFFFF0       mblen
 0001:00000000       GetGOT
 0001:00000024       GetLastError
 0001:00000060       SetLastError
 0001:000000A4       InterlockedIncrement
 0001:000000B8       InterlockedDecrement
 0001:000000CC       InvalidateModuleCache
 0001:000000F0       SysGetMem
 0001:0000012C       SysFreeMem
 0001:00000168       SysReallocMem
 0001:000001B4       @GetMem
 0001:00000208       @FreeMem
 0001:0000025C       @ReallocMem
 0001:000002C4       InitUnwinder
 0001:000004D0       SysRegisterIPLookup
 0001:00000538       SysUnregisterIPLookup
 0001:00000574       SysRaiseException
 0001:000005D0       SysRaiseCPPException
 0001:0000062C       BlockOSExceptions
 0001:00000650       UnblockOSExceptions
 0001:00000668       AreOSExceptionsBlocked
 0001:0000067C       CurrentException
 0001:000006AC       CurrentPrivateException
 0001:000006D0       FreeException
 0001:00000710       ReleaseDelphiException
 0001:00000730       AllocateException
 0001:000007A8       AcquireExceptionObject
 0001:000007C4       ExceptObject
 0001:000007EC       ExceptAddr
 0001:00000814       RunErrorAt
 0001:0000083C       ErrorAt
 0001:000008C0       Error
 0001:000008D4       @_IOTest
 0001:00000904       SetInOutRes
 0001:00000930       @Copy
 0001:00000980       @LGetDir
 0001:000009F0       IOResult
 0001:00000A28       Move
 0001:00000A78       ParamStr
 0001:00000AC8       UpCase
 0001:00000AD8       Get8087CW
 0001:00000AE8       @INT
 0001:00000B14       @ROUND
 0001:00000B2C       @TRUNC
 0001:00000B5C       @AbstractError
 0001:00000B98       OpenText
 0001:00000C1C       @RewritText
 0001:00000C40       TextIn
 0001:00000CC8       FileNOPProc
 0001:00000CE4       TextOut
 0001:00000D54       InternalClose
 0001:00000D9C       TextClose
 0001:00000DD8       TextOpenCleanup
 0001:00000E0C       TextOpen
 0001:00001104       InternalFlush
 0001:0000116C       Flush
 0001:0000118C       @Flush
 0001:000011AC       @Close
 0001:00001228       @PStrNCat
 0001:00001268       @PStrCpy
 0001:0000128C       @AStrCmp
 0001:00001310       @FillChar
 0001:00001338       @ValLong
 0001:00001424       TryOpenForOutput
 0001:00001490       @WriteBytes
 0001:00001508       @WriteSpaces
 0001:00001594       @_CToPasStr
 0001:000015B8       @_CLenToPasStr
 0001:000015E8       @SetElem
 0001:00001618       @SetUnion
 0001:00001628       @SetSub
 0001:0000163C       FPower10
 0001:00001648       @Pow10
 0001:00001948       @FpuInit
 0001:00001960       @BoundErr
 0001:00001970       TObject.ClassType
 0001:00001994       TObject.ClassName
 0001:000019B4       TObject.ClassParent
 0001:000019C4       TObject.NewInstance
 0001:000019FC       TObject.FreeInstance
 0001:00001A2C       TObject.InstanceSize
 0001:00001A4C       TObject.Create
 0001:00001A9C       TObject.Destroy
 0001:00001AC4       TObject.Free
 0001:00001AF4       TObject.InitInstance
 0001:00001B64       TObject.CleanupInstance
 0001:00001B94       InvokeImplGetter
 0001:00001BC8       TObject.GetInterface
 0001:00001C88       TObject.GetInterfaceEntry
 0001:00001CDC       @IsClass
 0001:00001D28       GetDynaMethod
 0001:00001D68       @CallDynaInst
 0001:00001D90       TObject.InheritsFrom
 0001:00001DA8       TObject.ClassInfo
 0001:00001DC8       TObject.SafeCallException
 0001:00001DE8       TObject.DefaultHandler
 0001:00001E00       TObject.AfterConstruction
 0001:00001E18       TObject.BeforeDestruction
 0001:00001E30       TObject.Dispatch
 0001:00001E68       @ClassCreate
 0001:00001E8C       @ClassDestroy
 0001:00001EB4       @AfterConstruction
 0001:00001EE0       @BeforeDestruction
 0001:00001F00       @DbgExcNotify
 0001:00001F40       @DbgEvalMarker
 0001:00001F58       @DbgEvalExcept
 0001:00001F70       @DbgEvalEnd
 0001:00001F88       @DbgEvalFrame
 0001:00001FE8       NotifyReRaise
 0001:00002010       NotifyExcept
 0001:00002040       NotifyOnExcept
 0001:00002068       NotifyExceptFinally
 0001:0000208C       MaybeCooptException
 0001:0000209C       LinkException
 0001:000020C4       UnlinkException
 0001:000020E0       @HandleAnyException
 0001:00002144       FindOnExceptionDescEntry
 0001:000021B0       @HandleOnExceptionPIC
 0001:000021FC       @HandleFinally
 0001:00002248       @RaiseAtExcept
 0001:00002274       @RaiseExcept
 0001:00002284       @ClassHandleException
 0001:000022B8       @RaiseAgain
 0001:00002344       @DestroyException
 0001:000023C8       @DoneExcept
 0001:00002400       CallProc
 0001:00002414       FinalizeUnits
 0001:000024BC       InitUnits
 0001:0000256C       @StartLib
 0001:00002650       @InitResStrings
 0001:00002680       @InitResStringImports
 0001:000026B0       @InitImports
 0001:000026E4       MakeErrorMessage
 0001:00002778       ExitDll
 0001:000027A8       WriteErrorMessage
 0001:0000285C       @Halt0
 0001:00002A2C       @Halt
 0001:00002A54       @Run0Error
 0001:00002A64       @RunError
 0001:00002A88       @UnhandledException
 0001:00002AE0       @Assert
 0001:00002B24       @LStrClr
 0001:00002B50       @LStrArrayClr
 0001:00002B8C       @LStrAsg
 0001:00002BE0       @LStrLAsg
 0001:00002C10       @NewAnsiString
 0001:00002C4C       @LStrFromPCharLen
 0001:00002C8C       LocaleConversionError
 0001:00002CAC       CharacterSizeWideChar
 0001:00002CCC       CharacterSizeLocaleChar
 0001:00002DCC       BufConvert
 0001:00002F7C       CharFromWChar
 0001:00003078       WCharFromChar
 0001:00003188       @LStrFromPWCharLen
 0001:00003250       @LStrFromChar
 0001:00003268       @LStrFromWChar
 0001:00003280       @LStrFromPChar
 0001:000032B8       @LStrFromPWChar
 0001:000032FC       @LStrFromString
 0001:0000330C       @LStrFromArray
 0001:00003338       @LStrFromWStr
 0001:00003350       @LStrToString
 0001:0000337C       @LStrLen
 0001:0000338C       @LStrCat
 0001:000033E4       @LStrCat3
 0001:00003478       @LStrCatN
 0001:00003524       @LStrCmp
 0001:000035E0       @LStrAddRef
 0001:000035F4       PICEmptyString
 0001:00003618       @LStrToPChar
 0001:0000362C       InternalUniqueString
 0001:0000367C       UniqueString
 0001:00003688       @UniqueStringA
 0001:00003694       @UniqueStringW
 0001:000036A0       @LStrCopy
 0001:000036EC       @LStrDelete
 0001:00003748       @LStrInsert
 0001:000037BC       @LStrPos
 0001:00003820       @LStrSetLength
 0001:00003898       @LStrOfChar
 0001:000038D4       @WriteLString
 0001:00003904       @NewWideString
 0001:00003924       WStrSet
 0001:00003940       @WStrClr
 0001:0000394C       @WStrArrayClr
 0001:00003958       @WStrAsg
 0001:00003964       @WStrLAsg
 0001:00003970       @WStrFromPCharLen
 0001:00003A34       @WStrFromPWCharLen
 0001:00003AA0       @WStrFromChar
 0001:00003AB8       @WStrFromPWChar
 0001:00003AFC       @WStrFromWArray
 0001:00003B28       @WStrFromLStr
 0001:00003B3C       @WStrToPWChar
 0001:00003B50       @WStrLen
 0001:00003B60       @WStrCat
 0001:00003BF4       @WStrCatN
 0001:00003C58       @WStrCmp
 0001:00003CF4       @WStrCopy
 0001:00003D64       @WStrSetLength
 0001:00003DE4       @WStrAddRef
 0001:00003DF0       @InitializeRecord
 0001:00003E30       @InitializeArray
 0001:00003EE4       @Initialize
 0001:00003EF4       @FinalizeRecord
 0001:00003F38       @FinalizeArray
 0001:00004048       @Finalize
 0001:00004058       @CopyRecord
 0001:000041A0       @CopyArray
 0001:000042B8       @New
 0001:000042D8       @Dispose
 0001:000042F0       StringToOleStr
 0001:00004330       VariantSystemUndefinedError
 0001:00004340       VariantSystemDefaultVarClear
 0001:0000436C       InitVariantManager
 0001:000043A8       GetVariantManager
 0001:000043DC       SetVariantManager
 0001:00004410       @VarClear
 0001:00004430       @VarCopy
 0001:00004450       @VarToInt
 0001:00004470       @VarToInt64
 0001:000044A8       @VarToBool
 0001:000044C8       @VarToReal
 0001:000044F8       @VarToCurr
 0001:00004528       @VarToLStr
 0001:00004548       @VarToWStr
 0001:00004568       @VarToIntf
 0001:00004588       @VarToDisp
 0001:000045A8       @VarFromInt
 0001:000045D0       @VarFromInt64
 0001:000045F4       @VarFromBool
 0001:00004614       @VarFromReal
 0001:00004638       @VarFromCurr
 0001:0000465C       @VarFromPStr
 0001:0000467C       @VarFromLStr
 0001:0000469C       @VarFromWStr
 0001:000046BC       @VarFromIntf
 0001:000046DC       @VarFromDisp
 0001:000046FC       @VarNeg
 0001:0000471C       @VarNot
 0001:0000473C       @VarClr
 0001:00004750       @DispCallByIDError
 0001:00004760       @_llmul
 0001:00004794       @_lldiv
 0001:00004828       @_lludiv
 0001:0000488C       @_llmod
 0001:00004924       @_llumod
 0001:0000498C       @_llshl
 0001:000049B4       @_llushr
 0001:000049DC       @ValInt64
 0001:00004C7C       @DynArrayLength
 0001:00004C8C       @DynArrayHigh
 0001:00004C98       CopyArray
 0001:00004CAC       FinalizeArray
 0001:00004CB8       DynArrayClear
 0001:00004CC4       DynArraySetLength
 0001:00004E84       @DynArraySetLength
 0001:00004E98       @DynArrayCopy
 0001:00004EE0       @DynArrayCopyRange
 0001:00005004       @DynArrayClear
 0001:00005048       @DynArrayAsg
 0001:00005080       FindHInstance
 0001:0000513C       GetModuleFileName
 0001:00005510       DelayLoadResourceModule
 0001:0000558C       FindResourceHInstance
 0001:000055E0       LoadResourceModule
 0001:000058CC       AddModuleUnloadProc
 0001:000058EC       RemoveModuleUnloadProc
 0001:0000590C       AddModuleUnloadProc
 0001:0000594C       RemoveModuleUnloadProc
 0001:000059DC       NotifyModuleUnload
 0001:00005A5C       RegisterModule
 0001:00005A88       UnregisterModule
 0001:00005B0C       @IntfClear
 0001:00005B2C       @IntfCopy
 0001:00005B70       @IntfCast
 0001:00005BB8       @IntfAddRef
 0001:00005BF8       TInterfacedObject.AfterConstruction
 0001:00005C18       TInterfacedObject.BeforeDestruction
 0001:00005C40       TInterfacedObject.NewInstance
 0001:00005C64       TInterfacedObject.QueryInterface
 0001:00005C9C       TInterfacedObject._AddRef
 0001:00005CC0       TInterfacedObject._Release
 0001:00005CF8       UnicodeToUtf8
 0001:00005D4C       UnicodeToUtf8
 0001:00005E64       Utf8ToUnicode
 0001:00005FBC       UTF8Encode
 0001:00006080       UTF8Decode
 0001:0000613C       AnsiToUtf8
 0001:0000619C       GetCPUType
 0001:00006204       NameToId
 0001:00006268       ElfHashLowercase
 0001:000062D8       GetResourceCache
 0001:0000643C       FindResource
 0001:00006634       LoadResource
 0001:00006678       LoadResString
 0001:00006718       ReserveZeroPage
 0001:000067BC       ReleaseZeroPage
 0001:00006810       PUCS4Chars
 0001:00006848       WideStringToUCS4String
 0001:000068D8       .
 0001:000068D8       ..
 0001:000068D8       .Arith_WrUnsigned
 0001:000068D8       .gcc2_compiled.
 0001:0000698C       .Arith_WrSigned
 0001:00006A70       Arith_RdUnsigned
 0001:00006AE8       Arith_RdSigned
 0001:00006B58       .
 0001:00006B58       ..
 0001:00006B58       .gcc2_compiled.
 0001:00006B58       .glob_match
 0001:00006C40       debug_class_enabled
 0001:00006D94       .getSTDOUT
 0001:00006E0C       .debug_file
 0001:00006E34       debug_init
 0001:00006F14       .debug_shutdown
 0001:00006F74       debug_print
 0001:00006FFC       debug_continue
 0001:00007054       .
 0001:00007054       ..
 0001:00007054       .gcc2_compiled.
 0001:00007058       .DecodeFrameInfo
 0001:000071A8       .DecodeReversedFrameInfo
 0001:0000721C       .FindRange
 0001:00007298       .FindRangeCPP
 0001:00007308       .InitDelphiDecoder
 0001:00007358       .DecodeTo
 0001:00007480       .BitCount
 0001:000074BC       .UnwindDelphiFrame
 0001:00007B74       .DelphiPersonalityFn
 0001:00007F78       ._BorUnwind_SetCPPHandler
 0001:00007F9C       .CopyArg
 0001:00008010       .PushArg
 0001:00008064       .BCBPersonalityFn
 0001:00008558       ._BorUnwind_BCBLookup
 0001:00008728       @BorUnwind_DelphiLookup
 0001:00008974       @BorUnwind_DelphiForeignUnwindHook
 0001:00008A88       ._BorUnwind_DumpUnwindInfo
 0001:00008C20       .
 0001:00008C20       ..
 0001:00008C20       .gcc2_compiled.
 0001:00008C24       ._BorUnwind_SetForeignUnwindHook
 0001:00008C54       ._BorUnwind_ClearForeignUnwindHook
 0001:00008C78       @BorUnwind_RegisterIPLookup
 0001:00008DA0       @BorUnwind_UnregisterIPLookup
 0001:00008E50       @BorUnwind_FindGOT
 0001:00008EFC       .CheckAlternatives
 0001:00009180       .FindPersonality
 0001:000092CC       .GetContext
 0001:000092EC       @BorUnwind_GetIP
 0001:000092FC       @BorUnwind_SetIP
 0001:00009310       @BorUnwind_GetGR
 0001:000093B0       @BorUnwind_SetGR
 0001:00009478       .InstallAndResume
 0001:000094A0       ._BorUnwind_Resume
 0001:000094A8       .GetFSChain
 0001:000094B8       @BorUnwind_ClosestDelphiHandler
 0001:00009680       @BorUnwind_RaiseException
 0001:000099B4       ._BorUnwind_AddressIsInPCMap
 0001:00009A5C       ._BorUnwind_GetFuncUnwindInfo
 0001:00009AA0       ._BorUnwind_SetUnhandledExceptionFilter
 0001:00009ACC       @BorUnwind_GetUEFOuterProc
 0001:00009AF0       @BorUnwind_GetUnhandledExceptionFilter
 0001:00009B18       Finalization
 0001:00009B78       System
 0001:00009C74       AllocTlsBuffer
 0001:00009CE4       FreeTLSBuffer
 0001:00009D28       AllocTlsIndex
 0001:00009D9C       GetThisModuleHandle
 0001:00009E5C       GetTlsSize
 0001:00009E68       InitThreadTLS
 0001:00009F18       @GetTls
 0001:00009F8C       GetTextStart
 0001:00009FA0       GetTextEnd
 0001:00009FB0       InitializeModule
 0001:00009FD4       UninitializeModule
 0001:0000A02C       RegisterPCMap
 0001:0000A070       UnregisterPCMap
 0001:0000A094       @InitLib
 0001:0000A13C       InnerExitLib
 0001:0000A184       @ExitLib
 0001:0000A1AC       @GetCallerEIP
 0001:0000A1B8       Copyright
 0001:0000A1D0       Finalization
 0001:0000A208       SysInit
 0001:0000A228       Finalization
 0001:0000A260       ShareExcept
 0001:0000A2BC       Finalization
 0001:0000A2F4       Types
 0001:0000A314       Finalization
 0001:0000A34C       KernelDefs
 0001:0000A36C       Finalization
 0001:0000A3A4       KernelIoctl
 0001:0000A3C4       MB_CUR_MAX
 0001:0000A3FC       InitializeCriticalSection
 0001:0000A4CC       Finalization
 0001:0000A504       Libc
 0001:0000A524       Finalization
 0001:0000A55C       SysConst
 0001:0000A588       SetSafeCallExceptionMsg
 0001:0000A5BC       GetSafeCallExceptionMsg
 0001:0000A5F0       GetSafeCallExceptionAddr
 0001:0000A614       DivMod
 0001:0000A634       GetGOT
 0001:0000A658       ConvertError
 0001:0000A684       ConvertErrorFmt
 0001:0000A6CC       AllocMem
 0001:0000A708       UpperCase
 0001:0000A784       LowerCase
 0001:0000A800       CompareStr
 0001:0000A83C       CompareMem
 0001:0000A86C       CompareText
 0001:0000A8D0       SameText
 0001:0000A8FC       AnsiUpperCase
 0001:0000A96C       AnsiLowerCase
 0001:0000A9DC       AnsiCompareStr
 0001:0000AA44       AnsiCompareText
 0001:0000AAC0       AnsiSameText
 0001:0000AB00       AnsiStrComp
 0001:0000AB4C       WideUpperCase
 0001:0000ABF0       WideLowerCase
 0001:0000AC94       WideCompareStr
 0001:0000AD4C       WideCompareText
 0001:0000ADC8       Trim
 0001:0000AE54       Trim
 0001:0000AEE0       TrimLeft
 0001:0000AF4C       IntToStr
 0001:0000AF9C       IntToStr
 0001:0000AFE4       IntToHex
 0001:0000B04C       IntToHex
 0001:0000B0A0       StrToInt
 0001:0000B100       StrToIntDef
 0001:0000B13C       TryStrToInt
 0001:0000B188       StrToInt64
 0001:0000B1EC       TryStrToInt64
 0001:0000B23C       VerifyBoolStrArray
 0001:0000B2FC       StrToBool
 0001:0000B350       CompareWith
 0001:0000B3A0       TryStrToBool
 0001:0000B45C       BoolToStr
 0001:0000B4D0       FileOpen
 0001:0000B62C       FileCreate
 0001:0000B694       FileRead
 0001:0000B6E8       FileWrite
 0001:0000B73C       FileSeek
 0001:0000B790       FileSeek
 0001:0000B7D8       FileClose
 0001:0000B814       FileExists
 0001:0000B868       LastDelimiter
 0001:0000B8F4       ExtractFilePath
 0001:0000B958       ExtractFileName
 0001:0000B9BC       ExpandTilde
 0001:0000BAD8       ExpandFileName
 0001:0000BD70       GetCurrentDir
 0001:0000BD94       StrLen
 0001:0000BDB0       StrMove
 0001:0000BDE8       StrCopy
 0001:0000BE20       StrLCopy
 0001:0000BE64       StrComp
 0001:0000BE94       StrIComp
 0001:0000BEE0       StrLComp
 0001:0000BF18       StrLIComp
 0001:0000BF6C       StrScan
 0001:0000BFA0       StrPos
 0001:0000C008       StrPas
 0001:0000C03C       StrAlloc
 0001:0000C06C       StrNew
 0001:0000C0C4       FormatError
 0001:0000C148       FormatVarToStr
 0001:0000C17C       FormatClearStr
 0001:0000C1A4       FormatBuf
 0001:0000C5E0       StrLFmt
 0001:0000C640       Format
 0001:0000C668       FmtStr
 0001:0000C748       PutExponent
 0001:0000C7AC       FloatToText
 0001:0000CA98       FloatToDecimal
 0001:0000CCD0       TextToFloat
 0001:0000CDF4       FloatToStr
 0001:0000CE38       CurrToStr
 0001:0000CE7C       TryFloatToCurr
 0001:0000CEF4       FloatToCurr
 0001:0000CF88       StrToFloat
 0001:0000CFE4       TryStrToFloat
 0001:0000D028       TryStrToFloat
 0001:0000D078       TryStrToFloat
 0001:0000D0C8       StrToCurr
 0001:0000D124       TryStrToCurr
 0001:0000D168       DateTimeToTimeStamp
 0001:0000D1B8       ValidateTimeStamp
 0001:0000D218       TimeStampToDateTime
 0001:0000D270       MSecsToTimeStamp
 0001:0000D298       TimeStampToMSecs
 0001:0000D2C8       TryEncodeTime
 0001:0000D350       EncodeTime
 0001:0000D3A4       DecodeTime
 0001:0000D418       IsLeapYear
 0001:0000D47C       TryEncodeDate
 0001:0000D580       EncodeDate
 0001:0000D5E0       DecodeDateFully
 0001:0000D758       DecodeDate
 0001:0000D794       DayOfWeek
 0001:0000D7D0       CurrentYear
 0001:0000D850       AppendChars
 0001:0000D8B0       AppendString
 0001:0000D8DC       AppendNumber
 0001:0000D93C       GetCount
 0001:0000D974       GetDate
 0001:0000D9BC       GetTime
 0001:0000DA0C       FindEra
 0001:0000DA6C       ConvertEraString
 0001:0000DAC4       ConvertYearString
 0001:0000DBC4       AppendFormat
 0001:0000E41C       DateTimeToString
 0001:0000E48C       TryFloatToDateTime
 0001:0000E4F4       FloatToDateTime
 0001:0000E548       TimeToStr
 0001:0000E574       DateTimeToStr
 0001:0000E598       ScanBlanks
 0001:0000E5E8       SkipNextBlank
 0001:0000E654       ScanNumber
 0001:0000E700       ScanString
 0001:0000E79C       SearchString
 0001:0000E838       SkipNextNumber
 0001:0000E8B8       ScanChar
 0001:0000E920       GetDateOrder
 0001:0000E99C       ScanToNumber
 0001:0000EA04       GetEraYearOffset
 0001:0000EA8C       EraToYear
 0001:0000EAA8       ScanDate
 0001:0000EED0       ScanTime
 0001:0000F218       TryStrToDate
 0001:0000F280       TryStrToTime
 0001:0000F2E8       StrToDateTime
 0001:0000F33C       TryStrToDateTime
 0001:0000F3FC       SysErrorMessage
 0001:0000F470       GetLocaleStr
 0001:0000F4DC       GetMonthDayNames
 0001:0000F60C       InitEras
 0001:0000FAE0       ExceptionErrorMessage
 0001:0000FCB4       ShowException
 0001:0000FD44       Exception.Create
 0001:0000FDB0       Exception.CreateFmt
 0001:0000FE68       Exception.CreateRes
 0001:0000FED4       Exception.CreateResFmt
 0001:0000FFA0       EHeapException.FreeInstance
 0001:0000FFC4       CreateInOutError
 0001:00010060       ErrorHandler
 0001:000100E8       CreateAssertException
 0001:000101AC       RaiseAssertException
 0001:000101C0       AssertErrorHandler
 0001:000101F0       MapFPUStatus
 0001:0001025C       MapFPE
 0001:000102A0       MapFault
 0001:00010314       MapSignal
 0001:000103BC       GetExceptionObject
 0001:000104EC       ExceptHandler
 0001:00010514       RaiseSignalException
 0001:00010558       SignalConverter
 0001:00010584       SignalDispatcher
 0001:00010644       InquireSignal
 0001:000106EC       HookSignal
 0001:00010814       UnhookSignal
 0001:000108D8       UnhookOSExceptions
 0001:00010908       HookOSExceptions
 0001:00010948       GetExternalException
 0001:000109A8       UnpackExternalException
 0001:00010A04       InitExceptions
 0001:00010AB4       DoneExceptions
 0001:00010B68       ByteTypeTest
 0001:00010C00       ByteType
 0001:00010C48       StrByteType
 0001:00010C80       StrCharLength
 0001:00010CF0       StrNextChar
 0001:00010D1C       CharLength
 0001:00010E10       NextCharIndex
 0001:00010F04       IsPathDelimiter
 0001:00010F64       IncludeTrailingPathDelimiter
 0001:00010FC4       ExcludeTrailingPathDelimiter
 0001:0001101C       AnsiPos
 0001:00011088       AnsiStrPos
 0001:0001117C       AnsiStrRScan
 0001:000111D0       AnsiStrScan
 0001:00011234       InitSysLocale
 0001:000112FC       TranslateFormat
 0001:00011840       GetFirstCharacter
 0001:000118E4       GetFormatSettings
 0001:00011C58       StringReplace
 0001:00011DA8       LoadLibrary
 0001:00011DF0       FreeLibrary
 0001:00011E34       GetProcAddress
 0001:00011F88       RaiseLastOSError
 0001:00012038       FreeTerminateProcs
 0001:00012074       TSimpleRWSync.Create
 0001:000120E4       TSimpleRWSync.Destroy
 0001:00012154       TSimpleRWSync.BeginWrite
 0001:00012194       TSimpleRWSync.EndWrite
 0001:000121D4       TSimpleRWSync.BeginRead
 0001:00012214       TSimpleRWSync.EndRead
 0001:00012254       FreeAndNil
 0001:0001227C       SafeLoadLibrary
 0001:000122D8       CheckLocale
 0001:000124E4       PropagateSignals
 0001:00012568       SafeCallError
 0001:000129F4       Finalization
 0001:00012BBC       SysUtils
 0001:00012C64       VarExceptionToResult
 0001:00012D1C       VariantInit
 0001:00012D4C       VariantClear
 0001:00012E24       VariantCopy
 0001:00012FB4       VariantCopyInd
 0001:000131E8       VariantChangeOleStrIntoByteArray
 0001:000133F4       VariantChangeByteArrayIntoOleStr
 0001:00013574       VariantChangeSimpleIntoSimple
 0001:00014EDC       VariantChangeType
 0001:00014F90       BackupVariantChangeTypeEx
 0001:00014FE0       UniUnimplemented
 0001:00014FFC       BiUnimplemented
 0001:00015018       CmpUnimplemented
 0001:00015034       BackupVarI4FromStr
 0001:000150AC       BackupVarR4FromStr
 0001:00015124       BackupVarR8FromStr
 0001:0001519C       BackupVarDateFromStr
 0001:00015214       BackupVarCyFromStr
 0001:0001528C       BackupVarBoolFromStr
 0001:00015318       BackupVarBStrFromCy
 0001:00015398       BackupVarBStrFromDate
 0001:00015418       BackupVarBStrFromBool
 0001:0001549C       SafeArrayValidate
 0001:000154F0       SafeArrayCalculateElementAddress
 0001:0001551C       CountElements
 0001:0001555C       SafeArrayValidateAndCalculateAddress
 0001:00015658       SafeArrayElementTotal
 0001:000156A8       SafeArrayElementStyle
 0001:000156F8       SafeArrayClearDataSpace
 0001:00015834       SafeArrayCopyDataSpace
 0001:000159D8       SafeArrayAllocMem
 0001:00015A18       SafeArrayFreeMem
 0001:00015A54       SafeArrayReallocMem
 0001:00015AD4       SafeArrayCreate
 0001:00015C00       SafeArrayAllocDescriptor
 0001:00015C80       SafeArrayAllocData
 0001:00015D00       SafeArrayDestroy
 0001:00015D60       SafeArrayDestroyDescriptor
 0001:00015DCC       SafeArrayDestroyData
 0001:00015E54       SafeArrayRedim
 0001:000160E4       SafeArrayCopy
 0001:00016348       SafeArrayGetLBound
 0001:0001639C       SafeArrayGetUBound
 0001:000163F8       SafeArrayAccessData
 0001:00016438       SafeArrayUnaccessData
 0001:0001646C       SafeArrayLock
 0001:000164A4       SafeArrayUnlock
 0001:000164E0       SafeArrayGetElement
 0001:000166A4       SafeArrayPutElement
 0001:00016868       SafeArrayPtrOfIndex
 0001:0001689C       InitializeVarUtils
 0001:000169EC       Finalization
 0001:00016A24       VarUtils
 0001:00016A4C       VarCastError
 0001:00016AB0       VarCastError
 0001:00016B60       VarInvalidOp
 0001:00016BC4       VarInvalidNullOp
 0001:00016C28       VarOverflowError
 0001:00016CD8       VarArrayCreateError
 0001:00016D3C       TranslateResult
 0001:00016FB0       VarResultCheck
 0001:00016FD4       VarResultCheck
 0001:00017028       HandleConversionException
 0001:000170D4       _DispInvokeError
 0001:00017138       _VarNull
 0001:00017164       InBounds
 0001:000171A4       Increment
 0001:00017210       VarArrayClear
 0001:00017424       VarClearDeep
 0001:00017504       _VarClear
 0001:00017530       _DispInvoke
 0001:00017674       InBounds
 0001:000176B4       Increment
 0001:00017720       VarArrayCopyForEach
 0001:000179E8       VarCopyCopyProc
 0001:00017A08       VarCopyDeep
 0001:00017B24       _VarCopy
 0001:00017B88       VarCopyNoIndViaOS
 0001:00017BE8       VarCopyNoIndOleStr
 0001:00017C08       VarCopyNoIndCopyProc
 0001:00017C28       VarCopyNoIndDeep
 0001:00017C84       VarCopyByRef
 0001:00017E70       _VarCopyNoInd
 0001:00017E9C       _VarStringToOleStr
 0001:00017EDC       VarStringToOleStr
 0001:00017EE8       VarCastAsAny
 0001:00017F78       VarCastAsOleStr
 0001:00017FD0       VarCastAsString
 0001:00018028       VarCastAsDispatch
 0001:00018080       VarCastAsInterface
 0001:000180D8       VarCastViaOS
 0001:000181D4       VarCastRare
 0001:00018274       _VarCast
 0001:000184FC       _VarCastOle
 0001:0001859C       VarToIntAsString
 0001:00018670       VarToIntViaOS
 0001:00018714       VarToIntAny
 0001:0001879C       VarToIntCustom
 0001:0001882C       _VarToInteger
 0001:00018C04       _VarToShortInt
 0001:00018CE4       _VarToByte
 0001:00018DBC       _VarToSmallInt
 0001:00018EE0       _VarToWord
 0001:00018FE4       _VarToLongWord
 0001:000190F4       VarToInt64ViaOS
 0001:0001922C       VarToInt64AsString
 0001:00019364       VarToInt64Any
 0001:000193F4       VarToInt64Custom
 0001:0001948C       _VarToInt64
 0001:00019908       VarToBoolAsString
 0001:000199F0       VarToBoolViaOS
 0001:00019A98       VarToBoolAny
 0001:00019B20       VarToBoolCustom
 0001:00019BB4       _VarToBool
 0001:00019F28       _VarToBoolWithFix
 0001:00019F3C       VarToDoubleAsString
 0001:0001A024       VarToDoubleViaOS
 0001:0001A0D4       VarToDoubleAny
 0001:0001A15C       VarToDoubleCustom
 0001:0001A1F4       _VarToDouble
 0001:0001A59C       _VarToExtended
 0001:0001A5D4       _VarToSingle
 0001:0001A784       VarToDateAsString
 0001:0001A894       VarToDateAsDouble
 0001:0001A930       VarToDateViaOS
 0001:0001A9E0       VarToDateAny
 0001:0001AA68       VarToDateCustom
 0001:0001AB00       _VarToDate
 0001:0001AE84       VarToCurrencyAsString
 0001:0001AF64       VarToCurrencyAsDouble
 0001:0001B000       VarToCurrencyViaOS
 0001:0001B0B0       VarToCurrencyAny
 0001:0001B138       VarToCurrencyCustom
 0001:0001B1D0       _VarToCurrency
 0001:0001B5D8       CurrToWStrViaOS
 0001:0001B630       DateToWStrViaOS
 0001:0001B688       BoolToWStrViaOS
 0001:0001B770       VarToLStrViaOS
 0001:0001B878       VarToLStrAny
 0001:0001B900       VarToLStrCustom
 0001:0001B9A8       _VarToLStr
 0001:0001BF08       _VarToPStr
 0001:0001BF64       VarToWStrViaOS
 0001:0001C054       VarToWStrAny
 0001:0001C0DC       VarToWStrCustom
 0001:0001C1CC       _VarToWStr
 0001:0001C744       AnyToIntf
 0001:0001C7E0       _VarToIntf
 0001:0001C8D4       _VarToDisp
 0001:0001C9A8       _VarToDynArray
 0001:0001C9BC       _VarFromInt
 0001:0001CA20       _VarFromInteger
 0001:0001CA60       _OleVarFromInt
 0001:0001CAA0       _VarFromByte
 0001:0001CAE4       _VarFromWord
 0001:0001CB24       _VarFromLongWord
 0001:0001CB64       _VarFromShortInt
 0001:0001CBA8       _VarFromSmallInt
 0001:0001CBE8       _VarFromInt64
 0001:0001CC24       _VarFromSingle
 0001:0001CC58       _VarFromDouble
 0001:0001CC94       _VarFromCurrency
 0001:0001CCD0       _VarFromDate
 0001:0001CD0C       _VarFromBool
 0001:0001CD54       _VarFromReal
 0001:0001CD70       _VarFromTDateTime
 0001:0001CD8C       _VarFromCurr
 0001:0001CDA8       _VarFromLStr
 0001:0001CDF4       _VarFromPStr
 0001:0001CE54       _VarFromWStr
 0001:0001CEB0       _VarFromIntf
 0001:0001CEFC       _VarFromDisp
 0001:0001CF48       _VarFromDynArray
 0001:0001CF64       _OleVarFromLStr
 0001:0001CFC4       _OleVarFromPStr
 0001:0001D024       OleVarFromAny
 0001:0001D0AC       OleVarFromVarArrayProc
 0001:0001D0CC       _OleVarFromVar
 0001:0001D240       VarStrCat
 0001:0001D300       VarOpRare
 0001:0001D698       CheckType
 0001:0001D6D8       AnyOp
 0001:0001D78C       RealOp
 0001:0001D850       DateOp
 0001:0001D8F0       IntOp
 0001:0001DA20       Int64Op
 0001:0001DC4C       NullOp
 0001:0001DD14       EmptyOp
 0001:0001DDBC       CurrOp
 0001:0001DF68       SimpleVarOp
 0001:0001E2AC       _VarOp
 0001:0001E380       VarCompareAny
 0001:0001E498       EmptyCompare
 0001:0001E4C4       NullCompare
 0001:0001E5FC       IntCompare
 0001:0001E638       Int64Compare
 0001:0001E690       RealCompare
 0001:0001E6D8       DateCompare
 0001:0001E720       CurrCompare
 0001:0001E76C       StringCompare
 0001:0001E7E8       VarCompareSimple
 0001:0001EA24       VarCompareRare
 0001:0001EE8C       VarCompare
 0001:0001EF4C       _VarCmp
 0001:0001EF5C       NegateAsDouble
 0001:0001EF8C       NegateViaOS
 0001:0001EFE0       NegateVariant
 0001:0001F034       NegateByte
 0001:0001F060       NegateWord
 0001:0001F088       NegateLongWord
 0001:0001F0D8       NegateAny
 0001:0001F114       NegateCustom
 0001:0001F168       _VarNeg
 0001:0001F490       NotAsString
 0001:0001F588       NotAsOrdinal
 0001:0001F614       NotViaOS
 0001:0001F668       NotVariant
 0001:0001F6BC       NotAny
 0001:0001F6F8       NotCustom
 0001:0001F74C       _VarNot
 0001:0001FA04       _VarAddRef
 0001:0001FB94       VarTypeAsText
 0001:0001FD28       VarType
 0001:0001FD44       FindVarData
 0001:0001FD68       VarTypeIsCustom
 0001:0001FD90       VarTypeIsStr
 0001:0001FDBC       VarIsNull
 0001:0001FDEC       VarToStr
 0001:0001FE28       VarToStrDef
 0001:0001FE7C       VarToWideStr
 0001:0001FEE4       VarToWideStrDef
 0001:0001FF38       SetVarAsError
 0001:0001FF70       SetClearVarToEmptyParam
 0001:0001FF94       _WriteVariant
 0001:00020010       _Write0Variant
 0001:0002003C       GetVarDataArrayInfo
 0001:000200A8       VarArrayCreate
 0001:00020194       _VarArrayRedim
 0001:00020230       GetVarArray
 0001:0002027C       VarArrayDimCount
 0001:000202C4       VarArrayLowBound
 0001:00020330       VarArrayHighBound
 0001:0002039C       VarTypeIsValidArrayType
 0001:000203D4       VarTypeIsValidElementType
 0001:00020438       _VarArrayGet
 0001:0002054C       VarArrayGet
 0001:00020578       _VarArrayPut
 0001:00020704       VarArrayPut
 0001:00020730       DynArrayIndex
 0001:00020770       DynArrayElTypeInfo
 0001:000207A4       DynArrayDim
 0001:000207D8       DynArraySize
 0001:000207E8       IsDynArrayRectangular
 0001:0002088C       DynArrayBounds
 0001:00020920       DecIndices
 0001:00020A98       DynArrayVariantBounds
 0001:00020B2C       DynArrayVarType
 0001:00020B90       DynArrayToVariant
 0001:00020F50       DynArrayFromVariant
 0001:000212F4       ClearVariantTypeList
 0001:00021394       TCustomVariantType.BinaryOp
 0001:000213B0       TCustomVariantType.Cast
 0001:00021418       TCustomVariantType.CastTo
 0001:00021478       TCustomVariantType.Compare
 0001:00021494       TCustomVariantType.CompareOp
 0001:000214EC       TCustomVariantType.CastToOle
 0001:0002155C       TCustomVariantType.Create
 0001:000215D0       TCustomVariantType.Create
 0001:000218E0       TCustomVariantType.Destroy
 0001:000219A4       TCustomVariantType.IsClear
 0001:000219C0       TCustomVariantType.LeftPromotion
 0001:000219F0       TCustomVariantType.OlePromotion
 0001:00021A1C       TCustomVariantType.RaiseCastError
 0001:00021A3C       TCustomVariantType.RaiseInvalidOp
 0001:00021A5C       TCustomVariantType.RaiseDispError
 0001:00021A7C       TCustomVariantType.RightPromotion
 0001:00021AAC       TCustomVariantType.UnaryOp
 0001:00021ACC       TCustomVariantType.VarDataInit
 0001:00021B08       TCustomVariantType.VarDataClear
 0001:00021B28       TCustomVariantType.VarDataCopyNoInd
 0001:00021B4C       TCustomVariantType.VarDataCastTo
 0001:00021B70       TCustomVariantType.VarDataIsByRef
 0001:00021B9C       TCustomVariantType.DispInvoke
 0001:00021BB8       TCustomVariantType.VarDataFromStr
 0001:00021BDC       TCustomVariantType.VarDataFromOleStr
 0001:00021C00       TCustomVariantType._AddRef
 0001:00021C1C       TCustomVariantType._Release
 0001:00021C38       TCustomVariantType.QueryInterface
 0001:00021C70       TCustomVariantType.VarDataIsStr
 0001:00021C9C       TCustomVariantType.VarDataToStr
 0001:00021CD0       TInvokeableVariantType.FixupIdent
 0001:00021D04       ParseParam
 0001:0002201C       TInvokeableVariantType.DispInvoke
 0001:000222E0       TInvokeableVariantType.GetProperty
 0001:000222F8       TInvokeableVariantType.SetProperty
 0001:00022310       TInvokeableVariantType.DoFunction
 0001:00022328       TInvokeableVariantType.DoProcedure
 0001:00022340       FindCustomVariantType
 0001:00022440       Null
 0001:00022460       Finalization
 0001:00022508       Variants
 0001:0002274C       Finalization
 0001:00022784       RTLConsts
 0001:000227D0       PropertyNotFound
 0001:00022824       GetPropInfo
 0001:00022874       GetPropInfo
 0001:000228C4       GetPropValue
 0001:00022B58       RangedValue
 0001:00022BD4       SetPropValue
 0001:00022EE0       TPublishableVariantType.GetProperty
 0001:00022F64       TPublishableVariantType.SetProperty
 0001:00022FAC       GetTypeData
 0001:00022FBC       GetEnumName
 0001:000230CC       GetEnumNameValue
 0001:00023128       GetEnumValue
 0001:00023248       GetPropInfo
 0001:000232CC       GetPropInfo
 0001:00023328       GetOrdProp
 0001:000233A8       SetOrdProp
 0001:00023414       GetEnumProp
 0001:0002345C       SetEnumProp
 0001:000234DC       GetSetProp
 0001:00023520       SetToString
 0001:00023628       NextWord
 0001:00023688       StringToSet
 0001:0002377C       SetSetProp
 0001:000237C4       GetShortStrProp
 0001:0002380C       SetShortStrProp
 0001:0002386C       GetShortStrPropAsLongStr
 0001:000238B8       SetShortStrPropAsLongStr
 0001:00023914       AssignLongStr
 0001:00023948       GetLongStrProp
 0001:00023994       SetLongStrProp
 0001:000239E0       GetWideStrPropAsLongStr
 0001:00023A4C       SetWideStrPropAsLongStr
 0001:00023AB8       GetStrProp
 0001:00023B14       SetStrProp
 0001:00023B64       GetWideStrProp
 0001:00023C6C       SetWideStrProp
 0001:00023D68       GetFloatProp
 0001:00023EC8       SetFloatProp
 0001:00024120       AssignVariant
 0001:00024154       GetVariantProp
 0001:000241A0       SetVariantProp
 0001:000241EC       GetInt64Prop
 0001:00024218       SetInt64Prop
 0001:00024258       Finalization
 0001:000242B4       TypInfo
 0001:000242D4       TRegGroup.Create
 0001:0002437C       TRegGroup.Destroy
 0001:000243DC       PointerInModule
 0001:00024428       TRegGroup.UnregisterModuleClasses
 0001:000244F4       TRegGroups.Create
 0001:00024598       TRegGroups.Destroy
 0001:00024648       TRegGroups.Lock
 0001:00024688       TRegGroups.Unlock
 0001:000246C8       TRegGroups.UnregisterModuleClasses
 0001:0002471C       UnRegisterModuleClasses
 0001:00024774       TList.Destroy
 0001:000247B8       TList.Add
 0001:00024818       TList.Clear
 0001:0002484C       TList.Delete
 0001:000248D4       ReturnAddr
 0001:000248E0       TList.Error
 0001:00024948       TList.Error
 0001:000249B4       TList.Get
 0001:00024A08       TList.Grow
 0001:00024A5C       TList.IndexOf
 0001:00024A98       TList.Put
 0001:00024B2C       TList.Remove
 0001:00024B6C       TList.SetCapacity
 0001:00024BC8       TList.SetCount
 0001:00024C70       TList.Notify
 0001:00024C88       TThreadList.Create
 0001:00024D0C       TThreadList.Destroy
 0001:00024DA8       TThreadList.LockList
 0001:00024DF0       TThreadList.UnlockList
 0001:00024E30       TPersistent.Destroy
 0001:00024E80       TPersistent.Assign
 0001:00024EAC       TPersistent.AssignError
 0001:00024F90       TPersistent.AssignTo
 0001:00024FB0       TPersistent.DefineProperties
 0001:00024FC8       TPersistent.GetNamePath
 0001:00025090       TPersistent.GetOwner
 0001:000250AC       TStrings.Destroy
 0001:00025100       TStrings.Add
 0001:00025148       TStrings.AddObject
 0001:00025190       TStrings.AddStrings
 0001:0002525C       TStrings.Assign
 0001:00025300       TStrings.BeginUpdate
 0001:00025334       DoWrite
 0001:000253A0       TStrings.DefineProperties
 0001:00025404       TStrings.EndUpdate
 0001:0002542C       TStrings.Equals
 0001:000254E8       ReturnAddr
 0001:000254F4       TStrings.Error
 0001:0002555C       TStrings.Error
 0001:000255C8       TStrings.Exchange
 0001:000256C8       TStrings.GetCapacity
 0001:000256E8       TStrings.GetObject
 0001:00025704       TStrings.GetText
 0001:00025764       TStrings.GetTextStr
 0001:000258B0       TStrings.IndexOf
 0001:0002594C       TStrings.IndexOfName
 0001:00025A34       TStrings.IndexOfObject
 0001:00025A98       TStrings.InsertObject
 0001:00025AE0       TStrings.LoadFromFile
 0001:00025B44       TStrings.LoadFromStream
 0001:00025C08       TStrings.Move
 0001:00025CD0       TStrings.Put
 0001:00025D34       TStrings.PutObject
 0001:00025D4C       TStrings.ReadData
 0001:00025E10       TStrings.SaveToFile
 0001:00025E78       TStrings.SaveToStream
 0001:00025EE0       TStrings.SetCapacity
 0001:00025EF8       TStrings.SetStringsAdapter
 0001:00025F48       TStrings.SetText
 0001:00025FA8       TStrings.SetTextStr
 0001:00026080       TStrings.SetUpdateState
 0001:00026098       TStrings.WriteData
 0001:00026134       TStrings.CompareStrings
 0001:00026164       TStrings.GetNameValueSeparator
 0001:00026198       TStrings.SetNameValueSeparator
 0001:000261DC       TStringList.Destroy
 0001:0002625C       TStringList.Add
 0001:00026290       TStringList.AddObject
 0001:00026328       TStringList.Changed
 0001:00026360       TStringList.Changing
 0001:00026398       TStringList.Clear
 0001:000263F4       TStringList.Delete
 0001:00026480       TStringList.Exchange
 0001:00026508       TStringList.ExchangeItems
 0001:00026558       TStringList.Find
 0001:0002660C       TStringList.Get
 0001:00026664       TStringList.GetCapacity
 0001:00026680       TStringList.GetCount
 0001:0002669C       TStringList.GetObject
 0001:000266F0       TStringList.Grow
 0001:0002674C       TStringList.IndexOf
 0001:000267AC       TStringList.Insert
 0001:000267E4       TStringList.InsertObject
 0001:0002684C       TStringList.InsertItem
 0001:000268E4       TStringList.Put
 0001:00026964       TStringList.PutObject
 0001:000269CC       TStringList.QuickSort
 0001:00026A8C       TStringList.SetCapacity
 0001:00026AC4       TStringList.SetSorted
 0001:00026B0C       TStringList.SetUpdateState
 0001:00026B48       StringListCompareStrings
 0001:00026B88       TStringList.Sort
 0001:00026BB0       TStringList.CustomSort
 0001:00026C0C       TStringList.CompareStrings
 0001:00026C50       TStream.GetPosition
 0001:00026C94       TStream.GetSize
 0001:00026D14       TStream.SetSize
 0001:00026D2C       TStream.SetSize
 0001:00026D90       RaiseException
 0001:00026DF0       TStream.Seek
 0001:00026E8C       TStream.Seek
 0001:00026F10       TStream.WriteBuffer
 0001:00026F70       THandleStream.Create
 0001:00026FE0       THandleStream.Read
 0001:00027010       THandleStream.Write
 0001:00027040       THandleStream.Seek
 0001:00027080       THandleStream.SetSize
 0001:000270B4       THandleStream.SetSize
 0001:00027148       TFileStream.Create
 0001:000271C0       TFileStream.Create
 0001:00027340       TFileStream.Destroy
 0001:00027394       RemoveFixupReferences
 0001:00027450       RemoveFixups
 0001:000274EC       ReadError
 0001:00027520       PropValueError
 0001:00027544       TReader.CheckValue
 0001:00027588       TReader.EndOfList
 0001:000275B8       TReader.NextValue
 0001:000275E4       TReader.Read
 0001:00027644       TReader.ReadBuffer
 0001:000276A0       TReader.ReadListBegin
 0001:000276C0       TReader.ReadListEnd
 0001:000276E0       TReader.ReadStr
 0001:00027740       TReader.ReadString
 0001:0002780C       TReader.ReadWideString
 0001:00027900       TReader.ReadValue
 0001:00027930       TReader.SkipSetBody
 0001:00027988       SkipList
 0001:000279C0       SkipBinary
 0001:00027A04       SkipCollection
 0001:00027A70       TReader.SkipValue
 0001:00027C20       TReader.SkipProperty
 0001:00027C78       TReader.SkipBytes
 0001:00027CE8       TWriter.Write
 0001:00027D48       TWriter.WriteBuffer
 0001:00027D7C       TWriter.WriteListBegin
 0001:00027D9C       TWriter.WriteListEnd
 0001:00027DBC       TWriter.WriteMinStr
 0001:00027E8C       TWriter.WriteString
 0001:00027EEC       TWriter.WriteValue
 0001:00027F1C       InitThreadSynchronization
 0001:00027F70       DoneThreadSynchronization
 0001:00028008       FreeIntConstList
 0001:0002808C       ModuleUnload
 0001:000280AC       Finalization
 0001:00028174       Classes
 0001:0002821C       Max
 0001:0002824C       Finalization
 0001:00028284       Math
 0001:000282A4       DaysInAMonth
 0001:00028308       EncodeDateTime
 0001:00028388       TryEncodeDateTime
 0001:000283EC       Translate
 0001:00028458       InvalidDateTimeError
 0001:00028630       Finalization
 0001:00028668       DateUtils
 0001:00028688       Finalization
 0001:000286C0       DBConsts
 0001:000286E0       IsSQLTimeStampBlank
 0001:00028730       TSQLTimeStampData.GetIsBlank
 0001:00028750       TSQLTimeStampData.AdjustMonths
 0001:00028798       TSQLTimeStampData.AdjustDays
 0001:0002880C       TSQLTimeStampData.AdjustHours
 0001:00028874       TSQLTimeStampData.AdjustMinutes
 0001:000288DC       TSQLTimeStampData.AdjustSeconds
 0001:00028944       TSQLTimeStampData.AdjustDate
 0001:000289DC       TSQLTimeStampData.DaysInMonth
 0001:00028A0C       TSQLTimeStampData.DoSubtract
 0001:00028A64       TSQLTimeStampData.DoAdd
 0001:00028AD8       TSQLTimeStampData.Compare
 0001:00028B84       TSQLTimeStampData.GetAsString
 0001:00028BB8       TSQLTimeStampData.GetAsDateTime
 0001:00028BEC       TSQLTimeStampData.SetAsString
 0001:00028C30       TSQLTimeStampData.SetAsDateTime
 0001:00028C70       TSQLTimeStampData.Create
 0001:00028CF8       TSQLTimeStampData.Create
 0001:00028D78       TSQLTimeStampData.Create
 0001:00028DF8       TSQLTimeStampData.Create
 0001:00028E64       TSQLTimeStampData.SetDay
 0001:00028F1C       TSQLTimeStampData.SetFractions
 0001:00028F38       TSQLTimeStampData.SetHour
 0001:00028FE0       TSQLTimeStampData.SetMinute
 0001:00029088       TSQLTimeStampData.SetMonth
 0001:00029134       TSQLTimeStampData.SetSecond
 0001:000291DC       TSQLTimeStampData.SetYear
 0001:000291F8       TSQLTimeStampVariantType.Clear
 0001:00029220       TSQLTimeStampVariantType.Cast
 0001:0002936C       TSQLTimeStampVariantType.CastTo
 0001:000294B0       TSQLTimeStampVariantType.Copy
 0001:0002951C       TSQLTimeStampVariantType.GetInstance
 0001:00029544       TSQLTimeStampVariantType.BinaryOp
 0001:0002958C       TSQLTimeStampVariantType.Compare
 0001:000295C4       SQLTimeStampToStr
 0001:00029628       IsSqlTimeStampValid
 0001:00029690       TryStrToSQLTimeStamp
 0001:0002970C       StrToSQLTimeStamp
 0001:00029788       DateTimeToSQLTimeStamp
 0001:000297E4       SQLTimeStampToDateTime
 0001:00029898       CheckSqlTimeStamp
 0001:000299B4       Finalization
 0001:000299F8       SqlTimSt
 0001:00029A2C       BcdErrorFmt
 0001:00029AA8       BcdError
 0001:00029ADC       OverflowError
 0001:00029B10       TFMTBcdData.DoAdd
 0001:00029B58       TFMTBcdData.DoAdd
 0001:00029B78       TFMTBcdData.DoSubtract
 0001:00029BC0       TFMTBcdData.DoSubtract
 0001:00029BE0       TFMTBcdData.DoMultiply
 0001:00029C2C       TFMTBcdData.DoDivide
 0001:00029C78       TFMTBcdData.Compare
 0001:00029CB8       TFMTBcdData.GetAsString
 0001:00029CEC       TFMTBcdData.GetAsDouble
 0001:00029D54       TFMTBcdData.GetAsInteger
 0001:00029DB0       TFMTBcdData.GetAsSmallInt
 0001:00029DD8       TFMTBcdData.GetAsCurrency
 0001:00029E08       TFMTBcdData.SetAsString
 0001:00029E54       TFMTBcdData.SetAsDouble
 0001:00029ED4       TFMTBcdData.SetAsInteger
 0001:00029F48       TFMTBcdData.SetAsSmallInt
 0001:00029F68       TFMTBcdData.SetAsCurrency
 0001:00029F98       TFMTBcdData.Create
 0001:0002A014       TFMTBcdData.Create
 0001:0002A110       TFMTBcdData.Create
 0001:0002A1F0       TFMTBcdData.Create
 0001:0002A25C       TFMTBcdVariantType.Clear
 0001:0002A284       TFMTBcdVariantType.Cast
 0001:0002A3D8       TFMTBcdVariantType.CastTo
 0001:0002A51C       TFMTBcdVariantType.Copy
 0001:0002A588       TFMTBcdVariantType.BinaryOp
 0001:0002A5F0       TFMTBcdVariantType.GetInstance
 0001:0002A618       TFMTBcdVariantType.Compare
 0001:0002A650       StrToBcd
 0001:0002A6B8       BcdToDouble
 0001:0002A720       RoundAt
 0001:0002A898       LeftTrim
 0001:0002A8F8       CompareDigits
 0001:0002A9BC       GetValueAndMultiplyOrder
 0001:0002AB8C       AddChars
 0001:0002AC1C       SubtractChars
 0001:0002AC80       AddStrings
 0001:0002AE08       SubtractStrings
 0001:0002B03C       _ShortMultiply
 0001:0002B24C       StringMultiplyByByte
 0001:0002B314       _LongMultiply
 0001:0002B5C4       CanUseShort
 0001:0002B648       BlankArgument
 0001:0002B6AC       _Multiply
 0001:0002B750       NextDigit
 0001:0002B824       AdjustDecimalPosition
 0001:0002B9E0       ValueOverOne
 0001:0002BC90       _LongDivide
 0001:0002BE28       _Divide
 0001:0002BF68       _GetRemainder
 0001:0002BF80       _GetSubRemainder
 0001:0002BF98       _CopyBytes
 0001:0002BFB0       _CopyOddFractions
 0001:0002BFE0       _CopyRestBlank
 0001:0002BFF4       NormalizeFractions
 0001:0002C0DC       StrToFraction
 0001:0002C13C       InvalidBcdString
 0001:0002C1E4       TryStrToBcd
 0001:0002C408       SignificantIntDigits
 0001:0002C454       SubtractNormalizedFractions
 0001:0002C520       AddNormalizedFractions
 0001:0002C5EC       CompareNormalizedFractions
 0001:0002C698       ReverseNegative
 0001:0002C6BC       MoveNibbles
 0001:0002C734       NormalizeBcd
 0001:0002C894       NumberOfDigits
 0001:0002C8C8       CompactBcd
 0001:0002C998       AdjustNibbles
 0001:0002CA30       NormalizeBcdPair
 0001:0002CB84       BcdCompare
 0001:0002CCD8       BcdSubtract
 0001:0002CD3C       BcdMultiply
 0001:0002CE40       BcdMultiply
 0001:0002CEBC       BcdDivide
 0001:0002D03C       BcdDivide
 0001:0002D0B8       BcdAdd
 0001:0002D2C0       AddOneChar
 0001:0002D2E8       AddDigit
 0001:0002D37C       FractionToStr
 0001:0002D4E0       BcdToStr
 0001:0002D644       BcdScale
 0001:0002D668       GetGot
 0001:0002D68C       CurrToBCD
 0001:0002D72C       BCDToCurr
 0001:0002D7D8       Finalization
 0001:0002D81C       FMTBcd
 0001:0002D850       Finalization
 0001:0002D888       MaskUtils
 0001:0002DB48       TDefaultDBScreenApplication.GetCursor
 0001:0002DB64       TDefaultDBScreenApplication.GetTitle
 0001:0002DB98       TDefaultDBScreenApplication.ProcessMessages
 0001:0002DBB0       TDefaultDBScreenApplication.SetCursor
 0001:0002DBCC       TDefaultDBScreenApplication.SetTitle
 0001:0002DC00       Finalization
 0001:0002DC68       DB
 0001:0002DD04       Finalization
 0001:0002DD3C       DBCommon
 0001:0002DD5C       Finalization
 0001:0002DD94       MidConst
 0001:0002DDB4       Finalization
 0001:0002DE34       DSIntf
 0001:0002DE60       Finalization
 0001:0002DE98       DbxOpenOdbcTypes
 0001:0002E808       RegisterDbXpressLibProc
 0001:0002E83C       Finalization
 0001:0002E8B8       DbxOpenOdbcInterface
 0001:0002E8D8       TSynchroObject.Acquire
 0001:0002E8F0       TSynchroObject.Release
 0001:0002E908       TCriticalSection.Create
 0001:0002E978       TCriticalSection.Destroy
 0001:0002E9E8       TCriticalSection.Acquire
 0001:0002EA28       TCriticalSection.Release
 0001:0002EA68       Finalization
 0001:0002EAA0       SyncObjs
 0001:0002EAC0       min
 0001:0002EAF0       max
 0001:0002EB20       Pos
 0001:0002EB90       GetOptionValue
 0001:0002EF58       PointerOffset
 0001:0002EFAC       ArrScanByte
 0001:0002EFD4       ArrScanWord
 0001:0002F000       PosChar
 0001:0002F050       PosChar
 0001:0002F0A0       PosCharEx
 0001:0002F114       PosCharEx
 0001:0002F1A0       StringCharModify
 0001:0002F22C       StringCharModify
 0001:0002F2C8       GetCompilerVersion
 0001:0002F328       Finalization
 0001:0002F378       DbxOpenOdbcFuncs
 0001:0002F3AC       TStringHash.Create
 0001:0002F448       TStringHash.Destroy
 0001:0002F4A4       TStringHash.Clear
 0001:0002F54C       TStringHash.HashOf
 0001:0002F5B4       TStringHash.Add
 0001:0002F650       TStringHash.Remove
 0001:0002F6C4       TStringHash.ValueOf
 0001:0002F710       TStringHash.Find
 0001:0002F78C       TStringHash.BeginLock
 0001:0002F7B4       TStringHash.EndLock
 0001:0002F7DC       ExtractNextLibName
 0001:0002F8C0       DoGetProcAddress
 0001:0002F8FC       DoGetProcAddressEx
 0001:0002F9E4       LoadOdbcDriverManager
 0001:000312EC       UnLoadOdbcDriverManager
 0001:00031370       TOdbcApiProxy.Destroy
 0001:00031418       TOdbcApiProxy.NotImplemented
 0001:00031554       TOdbcApiProxy.BeginLock
 0001:0003157C       TOdbcApiProxy.EndLock
 0001:000315A4       TOdbcApiProxy.SQLAllocConnect
 0001:00031614       TOdbcApiProxy.SQLAllocEnv
 0001:00031684       TOdbcApiProxy.SQLAllocHandleStd
 0001:00031720       TOdbcApiProxy.SQLAllocHandle
 0001:0003185C       TOdbcApiProxy.SQLAllocStmt
 0001:000318CC       TOdbcApiProxy.SQLBindCol
 0001:00031968       TOdbcApiProxy.SQLBindParam
 0001:00031A10       TOdbcApiProxy.SQLBindParameter
 0001:00031ACC       TOdbcApiProxy.SQLBrowseConnect
 0001:00031CA4       TOdbcApiProxy.SQLBulkOperations
 0001:00031D3C       TOdbcApiProxy.SQLCancel
 0001:00031DBC       TOdbcApiProxy.SQLCloseCursor
 0001:00031E60       TOdbcApiProxy.SQLColAttribute
 0001:000320B4       TOdbcApiProxy.SQLColAttributeInt
 0001:0003210C       TOdbcApiProxy.SQLColAttributeString
 0001:00032164       TOdbcApiProxy.SQLColAttributes
 0001:00032350       TOdbcApiProxy.SQLColumnPrivileges
 0001:00032518       TOdbcApiProxy.SQLColumns
 0001:00032724       TOdbcApiProxy.SQLConnect
 0001:000328EC       TOdbcApiProxy.SQLCopyDesc
 0001:00032974       TOdbcApiProxy.SQLDataSources
 0001:00032B90       TOdbcApiProxy.SQLDescribeCol
 0001:00032D64       TOdbcApiProxy.SQLDescribeParam
 0001:00032E0C       TOdbcApiProxy.SQLDisconnect
 0001:00032E90       TOdbcApiProxy.SQLDriverConnect
 0001:000330B4       TOdbcApiProxy.SQLDrivers
 0001:00033330       TOdbcApiProxy.SQLEndTran
 0001:0003341C       TOdbcApiProxy.SQLError
 0001:0003361C       TOdbcApiProxy.SQLExecDirect
 0001:0003373C       TOdbcApiProxy.SQLExecute
 0001:000337BC       TOdbcApiProxy.SQLExtendedFetch
 0001:00033860       TOdbcApiProxy.SQLFetch
 0001:000338E4       TOdbcApiProxy.SQLFetchScroll
 0001:00033968       TOdbcApiProxy.SQLForeignKeys
 0001:00033B88       TOdbcApiProxy.SQLFreeConnect
 0001:00033C10       TOdbcApiProxy.SQLFreeEnv
 0001:00033C94       DoSQLFreeHandle
 0001:00033D88       TOdbcApiProxy.SQLFreeHandle
 0001:00033E20       TOdbcApiProxy.SQLFreeStmt
 0001:00033EB0       TOdbcApiProxy.SQLGetConnectAttr
 0001:00034134       TOdbcApiProxy.SQLGetConnectOption
 0001:00034288       TOdbcApiProxy.SQLGetCursorName
 0001:0003442C       TOdbcApiProxy.SQLGetData
 0001:000344CC       TOdbcApiProxy.SQLGetDescField
 0001:0003469C       TOdbcApiProxy.SQLGetDescRec
 0001:0003486C       TOdbcApiProxy.SQLGetDiagField
 0001:00034A18       TOdbcApiProxy.SQLGetDiagRec
 0001:00034C28       TOdbcApiProxy.SQLGetEnvAttr
 0001:00034CC8       TOdbcApiProxy.SQLFunctionSupported
 0001:00034D1C       TOdbcApiProxy.SQLGetFunctions
 0001:000359AC       TOdbcApiProxy.SQLGetInfo
 0001:00035BA0       TOdbcApiProxy.SQLGetInfoInt
 0001:00035BEC       TOdbcApiProxy.SQLGetInfoSmallint
 0001:00035C38       TOdbcApiProxy.SQLGetInfoString
 0001:00035C88       TOdbcApiProxy.SQLGetStmtAttr
 0001:00035E6C       TOdbcApiProxy.SQLGetStmtOption
 0001:00035F08       TOdbcApiProxy.SQLGetTypeInfo
 0001:00035FD0       TOdbcApiProxy.SQLMoreResults
 0001:00036030       TOdbcApiProxy.SQLNativeSql
 0001:000361F0       TOdbcApiProxy.SQLNumParams
 0001:00036280       TOdbcApiProxy.SQLNumResultCols
 0001:00036314       TOdbcApiProxy.SQLParamData
 0001:000363A4       TOdbcApiProxy.SQLParamOptions
 0001:0003643C       TOdbcApiProxy.SQLPrepare
 0001:0003655C       TOdbcApiProxy.SQLPrimaryKeys
 0001:00036718       TOdbcApiProxy.SQLProcedureColumns
 0001:00036910       TOdbcApiProxy.SQLProcedures
 0001:00036ACC       TOdbcApiProxy.SQLPutData
 0001:00036B60       TOdbcApiProxy.SQLRowCount
 0001:00036BEC       TOdbcApiProxy.SQLSetConnectAttr
 0001:00036D80       TOdbcApiProxy.SQLSetConnectOption
 0001:00036E58       TOdbcApiProxy.SQLSetCursorName
 0001:00036F90       TOdbcApiProxy.SQLSetDescField
 0001:000370D4       TOdbcApiProxy.SQLSetDescRec
 0001:0003718C       TOdbcApiProxy.SQLSetEnvAttr
 0001:00037228       TOdbcApiProxy.SQLSetParam
 0001:000372D4       TOdbcApiProxy.SQLSetPos
 0001:00037370       TOdbcApiProxy.SQLSetScrollOptions
 0001:00037410       TOdbcApiProxy.SQLSetStmtAttr
 0001:0003759C       TOdbcApiProxy.SQLSetStmtOption
 0001:00037638       TOdbcApiProxy.SQLSpecialColumns
 0001:00037818       TOdbcApiProxy.SQLStatistics
 0001:00037A10       TOdbcApiProxy.SQLTablePrivileges
 0001:00037BC8       TOdbcApiProxy.SQLTables
 0001:00037DF0       TOdbcApiProxy.SQLTransact
 0001:00037E84       TOdbcApiProxy.TraceCloseLogFile
 0001:00037F0C       TOdbcApiProxy.TraceOpenLogFile
 0001:00037FA8       TOdbcApiProxy.TraceReturn
 0001:0003802C       TOdbcApiProxy.TraceVersion
 0001:000380B0       TOdbcApiProxy.TraceVSControl
 0001:0003813C       TOdbcApiProxy.FireVSDebugEvent
 0001:000381C0       TOdbcApiProxy.ODBCGetTryWaitValue
 0001:00038248       TOdbcApiProxy.ODBCSetTryWaitValue
 0001:000382DC       TOdbcApiProxy.SQL_ADD_RECORD
 0001:00038320       TOdbcApiProxy.SQL_DELETE_RECORD
 0001:00038364       TOdbcApiProxy.SQL_FUNC_EXISTS
 0001:000383C4       TOdbcApiProxy.SQL_LEN_BINARY_ATTR
 0001:000383F8       TOdbcApiProxy.SQL_LEN_DATA_AT_EXEC
 0001:0003842C       TOdbcApiProxy.SQL_LOCK_RECORD
 0001:00038474       TOdbcApiProxy.SQL_POSITION_TO
 0001:000384B8       TOdbcApiProxy.SQL_REFRESH_RECORD
 0001:00038500       TOdbcApiProxy.SQL_UPDATE_RECORD
 0001:00038544       TOdbcApiProxy.SetOdbcDriverLevel
 0001:00038604       TOdbcApiProxy.GetOdbcApiIntf
 0001:00038678       TOdbcApiIntfImpl.CheckAvailableProxy
 0001:000386E8       TOdbcApiIntfImpl.FireVSDebugEvent
 0001:00038724       TOdbcApiIntfImpl.ODBCGetTryWaitValue
 0001:00038760       TOdbcApiIntfImpl.ODBCSetTryWaitValue
 0001:000387A0       TOdbcApiIntfImpl.SQL_ADD_RECORD
 0001:000387EC       TOdbcApiIntfImpl.SQL_DELETE_RECORD
 0001:00038838       TOdbcApiIntfImpl.SQL_FUNC_EXISTS
 0001:00038884       TOdbcApiIntfImpl.SQL_LEN_BINARY_ATTR
 0001:000388C8       TOdbcApiIntfImpl.SQL_LEN_DATA_AT_EXEC
 0001:0003890C       TOdbcApiIntfImpl.SQL_LOCK_RECORD
 0001:00038960       TOdbcApiIntfImpl.SQL_POSITION_TO
 0001:000389AC       TOdbcApiIntfImpl.SQL_REFRESH_RECORD
 0001:00038A00       TOdbcApiIntfImpl.SQL_UPDATE_RECORD
 0001:00038A4C       TOdbcApiIntfImpl.SQLAllocConnect
 0001:00038A94       TOdbcApiIntfImpl.SQLAllocEnv
 0001:00038AD8       TOdbcApiIntfImpl.SQLAllocHandle
 0001:00038B28       TOdbcApiIntfImpl.SQLAllocHandleStd
 0001:00038B78       TOdbcApiIntfImpl.SQLAllocStmt
 0001:00038BC0       TOdbcApiIntfImpl.SQLBindCol
 0001:00038C20       TOdbcApiIntfImpl.SQLBindParam
 0001:00038C88       TOdbcApiIntfImpl.SQLBindParameter
 0001:00038CF8       TOdbcApiIntfImpl.SQLBrowseConnect
 0001:00038D54       TOdbcApiIntfImpl.SQLBulkOperations
 0001:00038DA0       TOdbcApiIntfImpl.SQLCancel
 0001:00038DE4       TOdbcApiIntfImpl.SQLCloseCursor
 0001:00038E28       TOdbcApiIntfImpl.SQLColAttribute
 0001:00038E8C       TOdbcApiIntfImpl.SQLColAttributeInt
 0001:00038EF0       TOdbcApiIntfImpl.SQLColAttributes
 0001:00038F54       TOdbcApiIntfImpl.SQLColAttributeString
 0001:00038FB8       TOdbcApiIntfImpl.SQLColumnPrivileges
 0001:00039024       TOdbcApiIntfImpl.SQLColumns
 0001:00039090       TOdbcApiIntfImpl.SQLConnect
 0001:000390F4       TOdbcApiIntfImpl.SQLCopyDesc
 0001:0003913C       TOdbcApiIntfImpl.SQLDataSources
 0001:000391A4       TOdbcApiIntfImpl.SQLDescribeCol
 0001:00039210       TOdbcApiIntfImpl.SQLDescribeParam
 0001:0003926C       TOdbcApiIntfImpl.SQLDisconnect
 0001:000392B0       TOdbcApiIntfImpl.SQLDriverConnect
 0001:00039318       TOdbcApiIntfImpl.SQLDrivers
 0001:00039380       TOdbcApiIntfImpl.SQLEndTran
 0001:000393D4       TOdbcApiIntfImpl.SQLError
 0001:00039438       TOdbcApiIntfImpl.SQLExecDirect
 0001:00039488       TOdbcApiIntfImpl.SQLExecute
 0001:000394CC       TOdbcApiIntfImpl.SQLExtendedFetch
 0001:00039524       TOdbcApiIntfImpl.SQLFetch
 0001:00039568       TOdbcApiIntfImpl.SQLFetchScroll
 0001:000395B8       TOdbcApiIntfImpl.SQLForeignKeys
 0001:00039634       TOdbcApiIntfImpl.SQLFreeConnect
 0001:00039678       TOdbcApiIntfImpl.SQLFreeEnv
 0001:000396BC       TOdbcApiIntfImpl.SQLFreeHandle
 0001:00039708       TOdbcApiIntfImpl.SQLFreeStmt
 0001:00039754       TOdbcApiIntfImpl.SQLFunctionSupported
 0001:0003979C       TOdbcApiIntfImpl.SQLGetConnectAttr
 0001:000397F4       TOdbcApiIntfImpl.SQLGetConnectOption
 0001:00039844       TOdbcApiIntfImpl.SQLGetCursorName
 0001:00039898       TOdbcApiIntfImpl.SQLGetData
 0001:000398F8       TOdbcApiIntfImpl.SQLGetDescField
 0001:00039958       TOdbcApiIntfImpl.SQLGetDescRec
 0001:000399CC       TOdbcApiIntfImpl.SQLGetDiagField
 0001:00039A30       TOdbcApiIntfImpl.SQLGetDiagRec
 0001:00039A98       TOdbcApiIntfImpl.SQLGetEnvAttr
 0001:00039AF0       TOdbcApiIntfImpl.SQLGetFunctions
 0001:00039B40       TOdbcApiIntfImpl.SQLGetInfo
 0001:00039B9C       TOdbcApiIntfImpl.SQLGetInfoInt
 0001:00039BF8       TOdbcApiIntfImpl.SQLGetInfoSmallint
 0001:00039C54       TOdbcApiIntfImpl.SQLGetInfoString
 0001:00039CB0       TOdbcApiIntfImpl.SQLGetStmtAttr
 0001:00039D08       TOdbcApiIntfImpl.SQLGetStmtOption
 0001:00039D58       TOdbcApiIntfImpl.SQLGetTypeInfo
 0001:00039DA4       TOdbcApiIntfImpl.SQLMoreResults
 0001:00039DE8       TOdbcApiIntfImpl.SQLNativeSql
 0001:00039E44       TOdbcApiIntfImpl.SQLNumParams
 0001:00039E8C       TOdbcApiIntfImpl.SQLNumResultCols
 0001:00039ED4       TOdbcApiIntfImpl.SQLParamData
 0001:00039F1C       TOdbcApiIntfImpl.SQLParamOptions
 0001:00039F6C       TOdbcApiIntfImpl.SQLPrepare
 0001:00039FBC       TOdbcApiIntfImpl.SQLPrimaryKeys
 0001:0003A020       TOdbcApiIntfImpl.SQLProcedureColumns
 0001:0003A08C       TOdbcApiIntfImpl.SQLProcedures
 0001:0003A0F0       TOdbcApiIntfImpl.SQLPutData
 0001:0003A140       TOdbcApiIntfImpl.SQLRowCount
 0001:0003A188       TOdbcApiIntfImpl.SQLSetConnectAttr
 0001:0003A1DC       TOdbcApiIntfImpl.SQLSetConnectOption
 0001:0003A22C       TOdbcApiIntfImpl.SQLSetCursorName
 0001:0003A27C       TOdbcApiIntfImpl.SQLSetDescField
 0001:0003A2D8       TOdbcApiIntfImpl.SQLSetDescRec
 0001:0003A348       TOdbcApiIntfImpl.SQLSetEnvAttr
 0001:0003A39C       TOdbcApiIntfImpl.SQLSetParam
 0001:0003A404       TOdbcApiIntfImpl.SQLSetPos
 0001:0003A45C       TOdbcApiIntfImpl.SQLSetScrollOptions
 0001:0003A4B4       TOdbcApiIntfImpl.SQLSetStmtAttr
 0001:0003A508       TOdbcApiIntfImpl.SQLSetStmtOption
 0001:0003A558       TOdbcApiIntfImpl.SQLSpecialColumns
 0001:0003A5CC       TOdbcApiIntfImpl.SQLStatistics
 0001:0003A638       TOdbcApiIntfImpl.SQLTablePrivileges
 0001:0003A69C       TOdbcApiIntfImpl.SQLTables
 0001:0003A708       TOdbcApiIntfImpl.SQLTransact
 0001:0003A758       TOdbcApiIntfImpl.TraceCloseLogFile
 0001:0003A794       TOdbcApiIntfImpl.TraceOpenLogFile
 0001:0003A7E4       TOdbcApiIntfImpl.TraceReturn
 0001:0003A828       TOdbcApiIntfImpl.TraceVersion
 0001:0003A864       TOdbcApiIntfImpl.TraceVSControl
 0001:0003A8A8       Finalization
 0001:0003A8F8       OdbcApi
 0001:0003A930       SQLExpr_RegisterDbXpressLib
 0001:0003A950       Finalization
 0001:0003A988       DbxOpenOdbcDbx3Types
 0001:0003A9A8       Finalization
 0001:0003A9E0       StrUtils
 0001:0003AA00       Finalization
 0001:0003AA38       DBXpress
 0001:0003BB68       GetCurThreadInfoStr
 0001:0003BC74       OutputDebugString
 0001:0003BDA8       BoolToStr
 0001:0003BE14       ArrayToStr
 0001:0003C41C       LogEnterProc
 0001:0003C510       LogEnterProc
 0001:0003C594       LogInfoProc
 0001:0003C634       LogInfoProc
 0001:0003C6B0       LogExitProc
 0001:0003C7B8       LogExitProc
 0001:0003C83C       GetExceptionInfoStr
 0001:0003C984       LogExceptProc
 0001:0003CAFC       GetTransactionDescStr
 0001:0003CCF0       Finalization
 0001:0003CE80       DbxOpenOdbcTrace
 0001:0003CF30       FreeMemAndNil
 0001:0003D068       MaxSet
 0001:0003D0A0       MaxSet
 0001:0003D0F4       MaxSet
 0001:0003D12C       MaxSet
 0001:0003D170       MaxSet
 0001:0003D1A8       BCD2Str
 0001:0003D4FC       Str2BCD
 0001:0003D790       WideStringLengthFromStrings
 0001:0003D820       BufConvert0
 0001:0003D8AC       BufConvert
 0001:0003DA24       CharacterSizeLocaleChar
 0001:0003DAA0       WCharFromChar
 0001:0003DB3C       StringToWideChar
 0001:0003DBA4       StringToWStr
 0001:0003DC18       StringsToWStr
 0001:0003DCA0       StrLenNil
 0001:0003DCE4       WStrLen
 0001:0003DD0C       WStrLComp
 0001:0003DD9C       StrBuffCopy
 0001:0003DE38       StrBuffCopy
 0001:0003DEDC       StrClone
 0001:0003DF98       StrClone
 0001:0003E014       StrClone
 0001:0003E074       StrClone
 0001:0003E10C       StrClone
 0001:0003E16C       StrIsEmpty
 0001:0003E1A8       StrIsEmpty
 0001:0003E200       StrIsEmpty
 0001:0003E258       StrNotEmpty
 0001:0003E2B0       StrNotEmpty
 0001:0003E308       StrPtrToString
 0001:0003E384       StrPtrToString
 0001:0003E3CC       StrPtrToString
 0001:0003E44C       StrSameText
 0001:0003E4A8       StrSameText
 0001:0003E4E0       StrSameText
 0001:0003E51C       StrISameText
 0001:0003E578       StrISameText
 0001:0003E5B0       StrISameText
 0001:0003E5E8       PAnsiCharParam
 0001:0003E624       PAnsiCharParam
 0001:0003E658       StrAnsiStringParam
 0001:0003E6A0       StrAnsiStringParam
 0001:0003E704       PIntToStr
 0001:0003E77C       ArgStrNull
 0001:0003E7D4       AnsiPos
 0001:0003E854       Finalization
 0001:0003E8B4       DbxOpenOdbcUtils
 0001:0003E93C       Finalization
 0001:0003EA28       SqlConst
 0001:0003EA6C       Finalization
 0001:0003EABC       IniFiles
 0001:0003EADC       Finalization
 0001:0003EB14       DBConnAdmin
 0001:0003EB34       Finalization
 0001:0003EB6C       SqlExpr
 0001:0003EB8C       GetTraceFlagName
 0001:0003EEB4       Finalization
 0001:0003EEEC       DbxOpenOdbcCallback
 0001:0003EF7C       CharUpper
 0001:0003F02C       CharLower
 0001:0003F0F4       TRegExpr.ErrorMsg
 0001:0003FCA0       TRegExpr.Create
 0001:0003FDF4       TRegExpr.Destroy
 0001:0003FE68       TRegExpr.InvertCaseFunction
 0001:0003FEA4       TRegExpr.SetExpression
 0001:0003FF80       TRegExpr.GetSubExprMatchCount
 0001:0003FFDC       TRegExpr.GetMatchPos
 0001:00040058       TRegExpr.GetMatch
 0001:00040100       TRegExpr.ParseModifiersStr
 0001:00040384       TRegExpr.GetModifier
 0001:0004043C       TRegExpr.SetModifier
 0001:000404D8       TRegExpr.InvalidateProgramm
 0001:00040510       TRegExpr.Compile
 0001:00040554       TRegExpr.IsProgrammOk
 0001:00040660       TRegExpr.Tail
 0001:000406CC       TRegExpr.OpTail
 0001:0004070C       TRegExpr.EmitNode
 0001:00040764       TRegExpr.EmitC
 0001:000407A4       TRegExpr.InsertOperator
 0001:00040840       strcspn
 0001:0004089C       TRegExpr.CompileRegExpr
 0001:00040B84       TRegExpr.ParseReg
 0001:00040D98       TRegExpr.ParseBranch
 0001:00040E74       parsenum
 0001:00040EEC       EmitComplexBraces
 0001:00040FFC       EmitSimpleBraces
 0001:00041084       TRegExpr.ParsePiece
 0001:00041654       EmitExactly
 0001:000416DC       HexDig
 0001:00041734       EmitRange
 0001:00041808       EmitRangeCPrim
 0001:00041878       EmitRangeC
 0001:00041AA0       EmitSimpleRangeC
 0001:00041ACC       EmitRangeStr
 0001:00041B28       UnQuoteChar
 0001:00041CB8       TRegExpr.ParseAtom
 0001:0004284C       TRegExpr.GetCompilerErrorPos
 0001:00042888       TRegExpr.regrepeat
 0001:00042C20       TRegExpr.regnext
 0001:00042C68       TRegExpr.MatchPrim
 0001:000439B4       TRegExpr.FillFirstCharSet
 0001:00043EE8       TRegExpr.Exec
 0001:00043F28       ClearMatchs
 0001:00043F78       RegMatch
 0001:00043FD8       TRegExpr.ExecPrim
 0001:000441D8       TRegExpr.SetInputString
 0001:000442D0       TRegExpr.SetLinePairedSeparator
 0001:00044418       ReturnAddr
 0001:00044424       TRegExpr.Error
 0001:00044548       Finalization
 0001:000445B8       RegExpr
 0001:0004490C       GetDbmsObjectNameTemplateInfo
 0001:00044970       TObjectNameParser.Create
 0001:00044F2C       TObjectNameParser.Destroy
 0001:00044FB4       TObjectNameParser.DecodeObjectFullName
 0001:0004534C       LDoCalculateTemplate
 0001:00045370       TObjectNameParser.EncodeObjectFullName
 0001:000456F8       Finalization
 0001:00045794       DbxObjectParser
 0001:000457B4       getSQLDriverODBCW
 0001:00045A88       getSQLDriverODBCWA
 0001:00045D5C       TSqlDriverOdbc3.Create
 0001:00045EB8       TSqlDriverOdbc3.getSQLConnection
 0001:00046044       TSqlConnectionOdbc3.Create
 0001:00046188       TSqlConnectionOdbc3.Destroy
 0001:000461DC       TSqlConnectionOdbc3.connect
 0001:000463B0       TSqlConnectionOdbc3.connect
 0001:0004663C       TSqlConnectionOdbc3.getErrorMessage
 0001:00046800       TSqlConnectionOdbc3.getErrorMessageLen
 0001:00046988       TSqlConnectionOdbc3.GetMetaDataReader
 0001:000469E0       Result2Str
 0001:00046C2C       LGetISQLConnection30
 0001:00046CA0       DoSetVendoLib
 0001:00046EA0       DoSetCustomString
 0001:00046FDC       TSqlConnectionOdbc3.GetOption
 0001:00047884       TSqlConnectionOdbc3.SetOption
 0001:00047AF4       TSqlConnectionOdbc3.getSQLCommand
 0001:00047D08       TSqlConnectionOdbc3.getSQLMetaData
 0001:00047F20       TSqlCommandOdbc3.prepare
 0001:0004824C       TSqlCommandOdbc3.execute
 0001:0004843C       TSqlCommandOdbc3.executeImmediate
 0001:000486F4       TSqlCommandOdbc3.getErrorMessage
 0001:0004873C       TSqlCommandOdbc3.getErrorMessageLen
 0001:00048784       TSqlCommandOdbc3.getNextCursor
 0001:000487C8       TSqlCommandOdbc3.GetOption
 0001:00048B34       ulValue2Str
 0001:00048CF0       TSqlCommandOdbc3.SetOption
 0001:00048F5C       TSqlCursorOdbc3.getErrorMessage
 0001:00048FA4       TSqlCursorOdbc3.getErrorMessageLen
 0001:00048FEC       TSqlCursorOdbc3.getColumnNameLength
 0001:000491C4       TSqlCursorOdbc3.getColumnName
 0001:00049310       TSqlCursorOdbc3.getInt64
 0001:00049544       TSqlCursorOdbc3.getWideString
 0001:000498E0       TSQLMetaDataOdbc3.getErrorMessage
 0001:00049A5C       TSQLMetaDataOdbc3.getErrorMessageLen
 0001:00049BE4       TSQLMetaDataOdbc3.GetOption
 0001:00049ED8       PropValue2Str
 0001:00049F6C       TSQLMetaDataOdbc3.SetOption
 0001:0004A1D0       TSQLMetaDataOdbc3.getObjectList
 0001:0004A2DC       TSQLMetaDataOdbc3.getTables
 0001:0004A468       TSQLMetaDataOdbc3.getProcedures
 0001:0004A6B8       TSQLMetaDataOdbc3.getColumns
 0001:0004A90C       TSQLMetaDataOdbc3.getIndices
 0001:0004AAFC       TSQLMetaDataOdbc3.getProcedureParams
 0001:0004AD24       TSqlCursorMetaDataTables3.getErrorMessage
 0001:0004AE54       TSqlCursorMetaDataTables3.getErrorMessageLen
 0001:0004AF84       TSqlCursorMetaDataTables3.getColumnName
 0001:0004B150       TSqlCursorMetaDataColumns3.getColumnName
 0001:0004B320       TSqlCursorMetaDataColumns3.getErrorMessage
 0001:0004B450       TSqlCursorMetaDataColumns3.getErrorMessageLen
 0001:0004B580       TSqlCursorMetaDataIndexes3.getColumnName
 0001:0004B750       TSqlCursorMetaDataIndexes3.getErrorMessage
 0001:0004B880       TSqlCursorMetaDataIndexes3.getErrorMessageLen
 0001:0004B9B0       TSqlCursorMetaDataProcedures3.getColumnName
 0001:0004BBB4       TSqlCursorMetaDataProcedures3.getErrorMessage
 0001:0004BCE8       TSqlCursorMetaDataProcedures3.getErrorMessageLen
 0001:0004BE1C       TSqlCursorMetaDataProcedureParams3.getColumnName
 0001:0004BFF4       TSqlCursorMetaDataProcedureParams3.getErrorMessage
 0001:0004C12C       TSqlCursorMetaDataProcedureParams3.getErrorMessageLen
 0001:0004C264       TDbxCommandParser.IsDbxCommand
 0001:0004C2FC       TDbxCommandParser.IsDbxCommand
 0001:0004C378       TDbxCommandParser.Create
 0001:0004C700       TDbxCommandParser.GetParam
 0001:0004C87C       TSqlCursorMetaDataTablesDbx34.Create
 0001:0004CAF0       TSqlCursorMetaDataTablesDbx34.GetPhysColumnWideString
 0001:0004CCA0       TSqlCursorMetaDataColumnsDbx34.Create
 0001:0004D060       TSqlCursorMetaDataColumnsDbx34.getLong
 0001:0004D294       TSqlCursorMetaDataColumnsDbx34.getShort
 0001:0004D460       TSqlCursorMetaDataIndexesDbx34.Create
 0001:0004D790       TSqlCursorMetaDataIndexesDbx34.getShort
 0001:0004D9D8       TSqlCursorMetaDataIndexColumnsDbx34.Create
 0001:0004DCF8       TSqlCursorMetaDataIndexColumnsDbx34.getLong
 0001:0004DEAC       TSqlCursorMetaDataIndexColumnsDbx34.getShort
 0001:0004E068       DoRegisterDbXpressLibW
 0001:0004E08C       DoRegisterDbXpressLibWA
 0001:0004E0B0       Finalization
 0001:0004E0E8       DbxOpenOdbc3
 0001:0004E154       getSQLDriverODBC
 0001:0004E300       getSQLDriverODBCAW
 0001:0004E424       IsRestrictedConnectionOptionValue
 0001:0004E4F4       SetConnectionOption
 0001:0004E9AC       ExtractCatalog
 0001:0004EA90       OdbcDataTypeToDbxType
 0001:0004EF78       FormatDbxType
 0001:0004F58C       FormatDbxSubType
 0001:0004FA44       DoFormatParameter
 0001:00050960       FormatParameter
 0001:00050A54       SafeFormatParameter
 0001:00050B60       FormatParameters
 0001:00050C70       CheckMaxLines
 0001:00050CB8       NewDbxConStmt
 0001:00050D14       DisposeDbxConStmt
 0001:00050D70       AllocateDbxHStmtNodes
 0001:000517B8       MakeStringExceptionFromInfo
 0001:00051A9C       GetStringOptions
 0001:00051C3C       TDOSQLObject.SelfObj
 0001:00051C64       TSqlDriverOdbc.Create
 0001:00051E68       TSqlDriverOdbc.Destroy
 0001:00052070       TSqlDriverOdbc.ClearFields
 0001:000520CC       TSqlDriverOdbc.AssignFields
 0001:00052134       TSqlDriverOdbc.OdbcCheck
 0001:000525AC       GetConnection
 0001:00052624       IsConnection
 0001:00052654       ClearNewErrors
 0001:00052748       LDoMakeResult
 0001:000527BC       SQLGetDiagRecLevel2
 0001:00052898       TSqlDriverOdbc.RetrieveOdbcErrorInfo
 0001:00053C14       TSqlDriverOdbc.AllocHCon
 0001:00053D88       TSqlDriverOdbc.FreeHCon
 0001:00053F34       TSqlDriverOdbc.AllocHEnv
 0001:00054224       TSqlDriverOdbc.FreeHEnv
 0001:000543E4       TSqlDriverOdbc.GetOption
 0001:00054784       TSqlDriverOdbc.getSQLConnection
 0001:00054964       TSqlDriverOdbc.SetOption
 0001:00054CD0       TSqlDriverOdbc.Drivers
 0001:00054FC0       TSqlDriverOdbc.GetOdbcDrivers
 0001:0005516C       TSqlConnectionOdbc.Create
 0001:00055320       TSqlConnectionOdbc.Destroy
 0001:00055528       TSqlConnectionOdbc.DoDestroy
 0001:00055834       TSqlConnectionOdbc.SetVendorLib
 0001:00055CD0       TSqlConnectionOdbc.SynchronizeInTransaction
 0001:000560C8       TSqlConnectionOdbc.CloneOdbcConnection
 0001:00056694       TSqlConnectionOdbc.SetCurrentDbxConStmt
 0001:000567F0       TSqlConnectionOdbc.SetLoginTimeout
 0001:00056A20       TSqlConnectionOdbc.SetNetworkTimeout
 0001:00056C7C       TSqlConnectionOdbc.GetDefaultConnectionOptions
 0001:00056CC0       TSqlConnectionOdbc.GetUnquotedNameLen
 0001:00056DD0       TSqlConnectionOdbc.GetUnquotedName
 0001:00056F24       TSqlConnectionOdbc.ObjectIsStoredProc
 0001:000570C8       TSqlConnectionOdbc.CreateRegExpObjectNameParser
 0001:00057154       TSqlConnectionOdbc.ReleaseRegExpObjectNameParser
 0001:000571A0       LDoClearResult
 0001:000571D4       TSqlConnectionOdbc.DecodeObjectFullName
 0001:000573E0       TSqlConnectionOdbc.EncodeObjectFullName
 0001:00057594       TSqlConnectionOdbc.GetQuotedObjectName
 0001:00057650       TSqlConnectionOdbc.DbxCallBackSendMsg
 0001:0005796C       TSqlConnectionOdbc.DbxCallBackSendMsgFmt
 0001:00057A28       IsFreeDbxConStmt
 0001:00057BC8       TSqlConnectionOdbc.FindFreeConnection
 0001:00057EC0       TSqlConnectionOdbc.AllocHStmt
 0001:000584F0       DoRelaseDbxConStmt
 0001:000588AC       TSqlConnectionOdbc.FreeHStmt
 0001:00058D98       TSqlConnectionOdbc.GetCurrentDbxConStmt
 0001:00058F08       TSqlConnectionOdbc.GetCurrentDbxConStmt
 0001:00058F58       TSqlConnectionOdbc.GetCurrentConnectionHandle
 0001:00058FA0       TSqlConnectionOdbc.OdbcCheck
 0001:00058FFC       TSqlConnectionOdbc.GetCatalog
 0001:000592A0       TSqlConnectionOdbc.GetCurrentCatalog
 0001:0005949C       TSqlConnectionOdbc.beginTransaction
 0001:00059CEC       CompactNullConn
 0001:00059D30       TSqlConnectionOdbc.commit
 0001:0005A194       CompactNullConn
 0001:0005A1D8       TSqlConnectionOdbc.rollback
 0001:0005A644       TSqlConnectionOdbc.ClearConnectionOptions
 0001:0005A8D8       TSqlConnectionOdbc.CheckHCon
 0001:0005A910       HidePassword
 0001:0005AA2C       MergeAndSetConnOptions
 0001:0005AB40       ParseConnectionOptions
 0001:0005AC84       TSqlConnectionOdbc.connect
 0001:0005ED3C       TSqlConnectionOdbc.RetrieveDbmsOptions
 0001:0005F2DC       VersionStringToNumeric
 0001:0005F474       TSqlConnectionOdbc.RetrieveDriverName
 0001:00061F28       TSqlConnectionOdbc.disconnect
 0001:00062828       TSqlConnectionOdbc.getErrorMessage
 0001:000628AC       TSqlConnectionOdbc.getErrorMessageLen
 0001:00062934       TSqlConnectionOdbc.CheckTransactionSupport
 0001:00062BE4       TSqlConnectionOdbc.CheckDbmsTransactionSupport
 0001:00062D04       TSqlConnectionOdbc.GetMetaDataOption
 0001:000643C0       GetConnectionCustomOptions
 0001:00064660       GetDatabaseNameOption
 0001:00064860       LGetISQLConnection2x
 0001:000648D8       GetVendorProperty
 0001:00064E74       GetTransactionTypeName
 0001:00064F74       Result2Str
 0001:000651E0       TSqlConnectionOdbc.GetOption
 0001:00066D74       TSqlConnectionOdbc.getSQLCommand
 0001:00066FF0       TSqlConnectionOdbc.getSQLMetaData
 0001:00067274       GetValueAsAnsiStr
 0001:00067318       SetConnectionCustomOptions
 0001:000679BC       lValue2Str
 0001:00067BB0       TSqlConnectionOdbc.SetOption
 0001:00069A58       TSqlConnectionOdbc.TransactionCheck
 0001:00069DA4       TSqlConnectionOdbc.GetDbmsType
 0001:00069DD0       TSqlConnectionOdbc.GetOdbcDriverType
 0001:00069DFC       TSqlConnectionOdbc.GetOdbcConnectStrings
 0001:00069FFC       TSqlConnectionOdbc.GetLastOdbcSqlState
 0001:0006A028       TSqlConnectionOdbc.GetDbmsName
 0001:0006A04C       TSqlConnectionOdbc.GetDbmsVersionMajor
 0001:0006A078       TSqlConnectionOdbc.GetDbmsVersionMinor
 0001:0006A0A4       TSqlConnectionOdbc.GetDbmsVersionRelease
 0001:0006A0D0       TSqlConnectionOdbc.GetDbmsVersionBuild
 0001:0006A0FC       TSqlConnectionOdbc.GetDbmsVersionString
 0001:0006A120       TSqlConnectionOdbc.GetOdbcDriverName
 0001:0006A148       TSqlConnectionOdbc.GetOdbcDriverVersionMajor
 0001:0006A174       TSqlConnectionOdbc.GetOdbcDriverVersionMinor
 0001:0006A1A0       TSqlConnectionOdbc.GetOdbcDriverVersionRelease
 0001:0006A1CC       TSqlConnectionOdbc.GetOdbcDriverVersionBuild
 0001:0006A1F8       TSqlConnectionOdbc.GetOdbcDriverVersionString
 0001:0006A220       TSqlConnectionOdbc.GetCursorPreserved
 0001:0006A24C       TSqlConnectionOdbc.GetIsSystemODBCManager
 0001:0006A27C       TSqlConnectionOdbc.GetOdbcDriverLevel
 0001:0006A2A8       TSqlConnectionOdbc.GetSupportsSqlPrimaryKeys
 0001:0006A2D4       TSqlConnectionOdbc.GetStatementsPerConnection
 0001:0006A300       TSqlConnectionOdbc.GetEnvironmentHandle
 0001:0006A32C       TSqlConnectionOdbc.GetConnectionHandle
 0001:0006A358       TSqlConnectionOdbc.GetOdbcApiIntf
 0001:0006A380       TSqlConnectionOdbc.GetDecimalSeparator
 0001:0006A3AC       TSqlCommandOdbc.Create
 0001:0006A648       TSqlCommandOdbc.DoAllocateStmt
 0001:0006A908       TSqlCommandOdbc.CloseStmt
 0001:0006AC8C       TSqlCommandOdbc.ClearParams
 0001:0006ADD4       TSqlCommandOdbc.Destroy
 0001:0006AFD0       TSqlCommandOdbc.AddError
 0001:0006B018       TSqlCommandOdbc.OdbcCheck
 0001:0006B078       TSqlCommandOdbc.close
 0001:0006B1A4       TSqlCommandOdbc.BuildStoredProcSQL
 0001:0006B464       TSqlCommandOdbc.DoSQLMoreResults
 0001:0006B6F4       DoReBindParams
 0001:0006BB7C       DoPrepareNow
 0001:0006BC8C       TSqlCommandOdbc.DoExecute
 0001:0006C584       TSqlCommandOdbc.execute
 0001:0006C768       TSqlCommandOdbc.DoUnprepareStmt
 0001:0006C7C4       ChkDbxSQLParamDelim
 0001:0006C7F4       ChkDbxSQLParamDelim
 0001:0006C828       DoFetchTables
 0001:0006CBFC       DoFetchColumns
 0001:0006CD98       DoFetchIndexes
 0001:0006CF50       DoFetchIndexColumns
 0001:0006D14C       DoMetadataQueryExecute
 0001:0006D268       DoMetadataQuery
 0001:0006D35C       TSqlCommandOdbc.DoExecuteImmediate
 0001:0006DDB0       TSqlCommandOdbc.ExecuteImmediate
 0001:0006E008       TSqlCommandOdbc.Cancel
 0001:0006E13C       TSqlCommandOdbc.SetLockTimeout
 0001:0006E398       TSqlCommandOdbc.GetLockTimeout
 0001:0006E558       TSqlCommandOdbc.getErrorMessage
 0001:0006E5E4       TSqlCommandOdbc.getErrorMessageLen
 0001:0006E66C       TSqlCommandOdbc.getNextCursor
 0001:0006EA78       TSqlCommandOdbc.GetOption
 0001:0006F7C4       TSqlCommandOdbc.getParameter
 0001:00070188       TSqlCommandOdbc.getRowsAffected
 0001:000702B8       TSqlCommandOdbc.DoAllocateParams
 0001:0007039C       TSqlCommandOdbc.DoExpandParams
 0001:00070458       TSqlCommandOdbc.DoPrepare
 0001:00070AC4       TSqlCommandOdbc.prepare
 0001:00070D7C       MakeStoredProcParams
 0001:00070E44       ulValue2Str
 0001:00070FD0       TSqlCommandOdbc.SetOption
 0001:00071DF0       ProcessVarDataLength
 0001:00071EBC       SetVarData
 0001:00071FA4       WideCharToUtf8
 0001:00072038       LDo_PostgreSQL_Make_Buffer
 0001:000720F0       TSqlCommandOdbc.setParameter
 0001:00073E14       TSQLMetaDataOdbc.Create
 0001:00073F80       TSQLMetaDataOdbc.Destroy
 0001:0007409C       TSQLMetaDataOdbc.getColumns
 0001:00074384       TSQLMetaDataOdbc.getErrorMessage
 0001:00074414       TSQLMetaDataOdbc.getErrorMessageLen
 0001:0007449C       TSQLMetaDataOdbc.getIndices
 0001:00074764       TSQLMetaDataOdbc.getObjectList
 0001:00074898       TSQLMetaDataOdbc.GetOption
 0001:00074B90       TSQLMetaDataOdbc.getProcedureParams
 0001:00074E50       TSQLMetaDataOdbc.getProcedures
 0001:000750F4       TSQLMetaDataOdbc.DoGetTables
 0001:00075400       TSQLMetaDataOdbc.getTables
 0001:000755CC       PropValue2Str
 0001:0007565C       TSQLMetaDataOdbc.SetOption
 0001:00075FFC       TSqlCursorOdbc.Create
 0001:000762BC       TSqlCursorOdbc.ClearCursor
 0001:00076468       TSqlCursorOdbc.Destroy
 0001:00076780       TSqlCursorOdbc.OdbcCheck
 0001:000767E0       OdbcSqlTypeToStr
 0001:000772C0       OdbcSqlCTypeToStr
 0001:00077B64       CheckAutoIncSubType
 0001:00077C5C       TSqlCursorOdbc.BindResultSet
 0001:0007A348       TSqlCursorOdbc.DoFetchLateBoundData
 0001:0007A56C       TSqlCursorOdbc.FetchLateBoundData
 0001:0007A7FC       TSqlCursorOdbc.CheckFetchCacheColumns
 0001:0007AA28       TSqlCursorOdbc.AddError
 0001:0007AA5C       OptimizeNextChunkSize
 0001:0007ABF8       CalculateBlobFixSize
 0001:0007AD20       TSqlCursorOdbc.DoFetchLongData
 0001:0007B6DC       TSqlCursorOdbc.FetchLongData
 0001:0007B8C0       TSqlCursorOdbc.getBcd
 0001:0007BA9C       TSqlCursorOdbc.getBlob
 0001:0007BECC       TSqlCursorOdbc.getBlobSize
 0001:0007C250       TSqlCursorOdbc.getBytes
 0001:0007C4C0       TSqlCursorOdbc.getColumnCount
 0001:0007C500       TSqlCursorOdbc.getColumnLength
 0001:0007CBA4       TSqlCursorOdbc.getColumnName
 0001:0007CCF8       TSqlCursorOdbc.getColumnNameLength
 0001:0007CE90       TSqlCursorOdbc.getColumnPrecision
 0001:0007D180       TSqlCursorOdbc.getColumnScale
 0001:0007D3A4       TSqlCursorOdbc.getColumnType
 0001:0007D5E0       TSqlCursorOdbc.getDate
 0001:0007D838       TSqlCursorOdbc.getDouble
 0001:0007DA08       TSqlCursorOdbc.getErrorMessage
 0001:0007DAA4       TSqlCursorOdbc.getErrorMessageLen
 0001:0007DB30       TSqlCursorOdbc.getLong
 0001:0007DD54       TSqlCursorOdbc.GetOption
 0001:0007DE84       TSqlCursorOdbc.getShort
 0001:0007E0C8       TSqlCursorOdbc.getString
 0001:0007E554       TSqlCursorOdbc.getTime
 0001:0007E740       TSqlCursorOdbc.getTimeStamp
 0001:0007E9A0       TSqlCursorOdbc.isAutoIncrement
 0001:0007ECD0       TSqlCursorOdbc.isBlobSizeExact
 0001:0007ED20       TSqlCursorOdbc.isNullable
 0001:0007EEA8       TSqlCursorOdbc.isReadOnly
 0001:0007F098       TSqlCursorOdbc.isSearchable
 0001:0007F310       GetRowStatus
 0001:0007F52C       TSqlCursorOdbc.next
 0001:0007FEB0       TSqlCursorOdbc.SetOption
 0001:000800D8       TSqlCursorMetaData.Create
 0001:00080278       TSqlCursorMetaData.Destroy
 0001:00080394       TSqlCursorMetaData.ClearMetaData
 0001:000803D8       TSqlCursorMetaData.GetPhysColumnNumber
 0001:0008049C       TSqlCursorMetaData.IsPhysColumnStringType
 0001:000804FC       TSqlCursorMetaData.IsPhysColumnWideStringType
 0001:00080558       TSqlCursorMetaData.GetPhysColumnAnsiString
 0001:00080588       TSqlCursorMetaData.GetPhysColumnWideString
 0001:000805B8       TSqlCursorMetaData.DbgColumnName
 0001:0008061C       TSqlCursorMetaData.DbgPhysColumnName
 0001:00080668       TSqlCursorMetaData.remap
 0001:00080758       TSqlCursorMetaData.ParseTableNameBase
 0001:00080A20       TSqlCursorMetaData.ParseTableName
 0001:00080ACC       TSqlCursorMetaData.DescribeAllocBindString
 0001:00080DD4       TSqlCursorMetaData.DescribeAllocBindWString
 0001:00081120       TSqlCursorMetaData.BindSmallint
 0001:00081628       TSqlCursorMetaData.BindInteger
 0001:00081B14       TSqlCursorMetaData.getBcd
 0001:00081C60       TSqlCursorMetaData.getBlob
 0001:00081D94       TSqlCursorMetaData.getBlobSize
 0001:00081ED0       TSqlCursorMetaData.getBytes
 0001:00082018       TSqlCursorMetaData.getColumnCount
 0001:00082078       TSqlCursorMetaData.getColumnLength
 0001:00082228       TSqlCursorMetaData.getColumnName
 0001:00082418       TSqlCursorMetaData.getColumnNameLength
 0001:000825D4       TSqlCursorMetaData.getColumnPrecision
 0001:000827F8       TSqlCursorMetaData.getColumnScale
 0001:000829CC       TSqlCursorMetaData.getColumnType
 0001:00082BE0       TSqlCursorMetaData.getDate
 0001:00082D28       TSqlCursorMetaData.getDouble
 0001:00082E78       TSqlCursorMetaData.getErrorMessage
 0001:00082F08       TSqlCursorMetaData.getErrorMessageLen
 0001:00082F90       TSqlCursorMetaData.getLong
 0001:000830D8       TSqlCursorMetaData.GetOption
 0001:0008320C       TSqlCursorMetaData.getShort
 0001:00083354       TSqlCursorMetaData.getString
 0001:000834E4       TSqlCursorMetaData.getWideString
 0001:00083668       TSqlCursorMetaData.getInt64
 0001:000837B8       TSqlCursorMetaData.getTime
 0001:00083900       TSqlCursorMetaData.getTimeStamp
 0001:00083A54       TSqlCursorMetaData.isAutoIncrement
 0001:00083B8C       TSqlCursorMetaData.isBlobSizeExact
 0001:00083CC4       TSqlCursorMetaData.isNullable
 0001:00083DF8       TSqlCursorMetaData.isReadOnly
 0001:00083F30       TSqlCursorMetaData.isSearchable
 0001:00084064       TSqlCursorMetaData.next
 0001:000841A0       TSqlCursorMetaData.SetOption
 0001:000843DC       TSqlCursorMetaData.OdbcCheck
 0001:00084558       TOdbcBindCol.Create
 0001:00084698       TOdbcBindCol.Destroy
 0001:000847D4       TOdbcBindParam.Create
 0001:00084918       TOdbcBindParam.Destroy
 0001:00084A30       TMetaTable.Create
 0001:00084EA4       TMetaTable.CreateW
 0001:00085380       TMetaTable.Destroy
 0001:00085494       TMetaColumn.Create
 0001:000856E8       TMetaColumn.Destroy
 0001:000857F0       TMetaIndexColumn.Create
 0001:00085A6C       TMetaIndexColumn.Destroy
 0001:00085B7C       TMetaProcedure.Create
 0001:00085DD0       TMetaProcedure.Destroy
 0001:00085EDC       TMetaProcedureParam.Create
 0001:00086070       TMetaProcedureParam.Destroy
 0001:00086180       TSqlCursorMetaDataTables.Create
 0001:00086640       TSqlCursorMetaDataTables.Destroy
 0001:00086760       TSqlCursorMetaDataTables.Clear
 0001:000868D4       MakeTableTypeString
 0001:00086AC8       TSqlCursorMetaDataTables.FetchTables
 0001:00087AC4       TSqlCursorMetaDataTables.getLong
 0001:00087DF8       TSqlCursorMetaDataTables.GetPhysColumnAnsiString
 0001:00087F70       TSqlCursorMetaDataTables.GetPhysColumnWideString
 0001:000880FC       TSqlCursorMetaDataTables.getColumnLength
 0001:0008833C       TSqlCursorMetaDataTables.next
 0001:00088478       TSqlCursorMetaDataColumns.Create
 0001:00088E1C       TSqlCursorMetaDataColumns.Destroy
 0001:00088F3C       TSqlCursorMetaDataColumns.Clear
 0001:00089100       TSqlCursorMetaDataColumns.FetchColumns
 0001:00089F64       TSqlCursorMetaDataColumns.getLong
 0001:0008A2E8       TSqlCursorMetaDataColumns.getShort
 0001:0008A688       TSqlCursorMetaDataColumns.GetPhysColumnAnsiString
 0001:0008A80C       TSqlCursorMetaDataColumns.GetPhysColumnWideString
 0001:0008A990       TSqlCursorMetaDataColumns.next
 0001:0008AB30       TSqlCursorMetaDataIndexes.Create
 0001:0008B270       TSqlCursorMetaDataIndexes.Destroy
 0001:0008B390       TSqlCursorMetaDataIndexes.Clear
 0001:0008B528       SyncPKSortOrder
 0001:0008B5FC       IsFilteredIndex
 0001:0008B64C       BuildTableIndexKey
 0001:0008B728       CacheTableIndex
 0001:0008B7D8       CheckTableIndexColumn
 0001:0008B818       TSqlCursorMetaDataIndexes.FetchIndexes
 0001:0008CF3C       TSqlCursorMetaDataIndexes.GetPhysColumnAnsiString
 0001:0008D1F8       TSqlCursorMetaDataIndexes.GetPhysColumnWideString
 0001:0008D4B4       TSqlCursorMetaDataIndexes.getLong
 0001:0008D804       TSqlCursorMetaDataIndexes.getShort
 0001:0008DB8C       TSqlCursorMetaDataIndexes.next
 0001:0008DCC8       TSqlCursorMetaDataProcedures.Create
 0001:0008E1F0       TSqlCursorMetaDataProcedures.Destroy
 0001:0008E360       TSqlCursorMetaDataProcedures.FetchProcedures
 0001:0008E964       TSqlCursorMetaDataProcedures.getLong
 0001:0008EC00       TSqlCursorMetaDataProcedures.getShort
 0001:0008EE9C       TSqlCursorMetaDataProcedures.GetPhysColumnAnsiString
 0001:0008EF80       TSqlCursorMetaDataProcedures.GetPhysColumnWideString
 0001:0008F064       TSqlCursorMetaDataProcedures.next
 0001:0008F1A4       TSqlCursorMetaDataProcedureParams.Create
 0001:0008FA30       TSqlCursorMetaDataProcedureParams.Destroy
 0001:0008FBF4       RetrieveProcedureSchemaForSysNaming
 0001:0008FDB8       TSqlCursorMetaDataProcedureParams.FetchProcedureParams
 0001:00091688       TSqlCursorMetaDataProcedureParams.getLong
 0001:0009195C       TSqlCursorMetaDataProcedureParams.getShort
 0001:00091CBC       TSqlCursorMetaDataProcedureParams.GetPhysColumnAnsiString
 0001:00091E04       TSqlCursorMetaDataProcedureParams.GetPhysColumnWideString
 0001:00091F4C       TSqlCursorMetaDataProcedureParams.next
 0001:00092090       TBlobChunkCollection.AddFragment
 0001:00092118       TBlobChunkCollection.Clear
 0001:00092188       TBlobChunkCollection.Destroy
 0001:000921E8       TBlobChunkCollection.GetSize
 0001:00092220       TBlobChunkCollection.Read
 0001:00092290       TBlobChunkCollection.ReadBlobToVariant
 0001:000922EC       TBlobChunkCollection.ReadBlobToStream
 0001:000923E8       DoRegisterDbXpressLibA
 0001:00092400       DoRegisterDbXpressLibAW
 0001:00092418       DisableLinker
 0001:00092488       DoInitialzeUnit
 0001:000929AC       Finalization
 0001:00092A5C       DbxOpenOdbc
 0001:00092A84       Finalization
 0001:00092C20       dbxoodbc
 0002:00000000       ExcNotificationProc
 0002:00000004       ExitCode
 0002:00000008       ErrorAddr
 0002:0000000C       FileMode
 0002:00000010       Default8087CW
 0002:00000014       CoreDumpEnabled
 0002:00000018       DefaultTextLineBreakStyle
 0002:0000001C       LibModuleList
 0002:00000020       ModuleUnloadList
 0002:00000024       ModuleCacheVersion
 0002:00000028       MemoryManager
 0002:00000034       reMap
 0002:00000050       runErrMsg
 0002:00000070       dig
 0002:00000080       RTLInitFailed
 0002:00000084       ZeroPageReserved
 0002:00000088       Null
 0002:0000008C       PNull
 0002:00000090       .
 0002:00000090       ..
 0002:00000090       .lenTab
 0002:000000D0       .shiftTab
 0002:000000E0       .
 0002:000000E0       ..
 0002:000000E0       ._dbfp
 0002:000000E4       .current_class
 0002:000000E8       .state.6
 0002:000000EC       .class_count.8
 0002:000000F0       .
 0002:000000F0       ..
 0002:000000F0       ._debug_class.24
 0002:000000F4       ._debug_class.25
 0002:000000F8       .
 0002:000000F8       ..
 0002:000000F8       .initialized.9
 0002:000000FC       TlsIndex
 0002:00000100       PtrToNil
 0002:00000104       Module
 0002:00000468       EmptyStr
 0002:0000046C       EmptyWideStr
 0002:00000470       TwoDigitYearCenturyWindow
 0002:00000474       MinCurrency
 0002:0000047C       MaxCurrency
 0002:00000484       MonthDays
 0002:000004B4       MinDateTime
 0002:000004BC       MaxDateTime
 0002:000004C4       HookOSExceptionsProc
 0002:000004C8       LeadBytes
 0002:000004E8       HexDisplayPrefix
 0002:000004EC       cSimpleBoolStrs
 0002:000004F4       ShareMode
 0002:000004F8       FormatErrorStrs
 0002:00000500       FCon1E18
 0002:0000050C       DCon10
 0002:00000510       CWNear
 0002:00000514       FMSecsPerDay
 0002:00000518       IMSecsPerDay
 0002:0000051C       Format
 0002:00000520       DefShortMonthNames
 0002:00000550       DefLongMonthNames
 0002:00000580       DefShortDayNames
 0002:0000059C       DefLongDayNames
 0002:000005B8       ErrorMap
 0002:000005F0       ExceptMap
 0002:000006B0       Signals
 0002:00000A1C       CurrencyFormats
 0002:00000A20       NegCurrFormats
 0002:00000A34       TerminateProcList
 0002:00000A38       CVarTypeToElementInfo
 0002:00000B40       CResult
 0002:00000B48       cCheckAll
 0002:00000B4C       cResults
 0002:00000B54       cLockResult
 0002:00000B5C       NullEqualityRule
 0002:00000B60       NullMagnitudeRule
 0002:00000B64       NullStrictConvert
 0002:00000B68       NullAsStringValue
 0002:00000B6C       PackVarCreation
 0002:00000B70       BooleanToStringRule
 0002:00000B74       BaseTypeMap
 0002:00000B8C       CInvalidCustomVariantType
 0002:00000B90       CRangeToType
 0002:00000BA4       OpTypeMap
 0002:00000C20       CBooleanToRelationship
 0002:00000C2C       CmpTypeMap
 0002:00000CA8       CTruth
 0002:00000CAC       CText
 0002:00000D00       LNextVarType
 0002:00000D04       CRelationshipToBoolean
 0002:00000DA8       BooleanIdents
 0002:00000DB0       DotSep
 0002:00000DB4       SyncList
 0002:00000DD8       NullSQLTimeStamp
 0002:00000DE8       IncrementAmount
 0002:00000DF0       SQLTimeStampVariantType
 0002:00000DF4       AdjustAmt
 0002:00000DFC       AdjustAmt
 0002:00000E04       AdjustAmt
 0002:00000E0C       AdjustAmt
 0002:00000E14       NullBcd
 0002:00000E38       FMTBcdVariantType
 0002:00000E3C       spaceChars
 0002:00000E5C       Power10
 0002:00000E6C       FConst10
 0002:00000E70       CWNear
 0002:00000E74       FieldTypeNames
 0002:00000F0C       DbClientHandle
 0002:00000F10       cConnectionOptionsNames
 0002:00000FA8       cConnectionOptionsTypes
 0002:00000FD0       cConnectionOptionsDescs
 0002:00001068       cOptionSwitchesNames
 0002:00001074       cXSQLConnectionOptionStringTypes
 0002:0000107C       cXSQLCommandOptionStringTypes
 0002:00001080       cXSQLMetaDataOptionStringTypes
 0002:0000108C       cNullAnsiCharBuf
 0002:00001090       cNullWideCharBuf
 0002:00001094       CEnvVars
 0002:000010A0       sysodbclib
 0002:000010A4       cLibsSeparator
 0002:000010A8       cSqlAttrOdbcVerSeparator
 0002:000010AC       cSQLDriverOption
 0002:000010C4       cSQLConnectionOption
 0002:00001170       cSQLMetaDataOption
 0002:000011B8       cSQLCommandOption
 0002:00001204       cSTMTParamType
 0002:00001218       cSQLCursorOption
 0002:00001224       cOdbcDriverType
 0002:00001298       cDbmsType
 0002:00001310       cBoolean
 0002:00001318       cBoolean
 0002:00001320       IconvContext
 0002:000013BC       DbxError
 0002:0000140C       Values
 0002:00001414       RegExprModifierI
 0002:00001418       RegExprModifierR
 0002:0000141C       RegExprModifierS
 0002:00001420       RegExprModifierG
 0002:00001424       RegExprModifierM
 0002:00001428       RegExprSpaceChars
 0002:0000142C       RegExprWordChars
 0002:00001430       RegExprLineSeparators
 0002:00001434       RegExprLinePairedSeparator
 0002:00001438       RegExprInvertCaseFunction
 0002:00001440       RegExprMetaSet
 0002:00001444       META
 0002:00001454       DefaultMathesIndexes
 0002:0000147C       DefaultObjectNameTemplateInfo
 0002:000014B0       SQLServerMathesIndexes
 0002:000014E4       SQLServerObjectNameTemplateInfo
 0002:00001518       OracleMathesIndexes
 0002:00001534       OracleObjectNameTemplateInfo
 0002:00001568       InformixMathesIndexes
 0002:00001584       InformixObjectNameTemplateInfo
 0002:000015B8       TextMathesIndexes
 0002:000015D0       TextObjectNameTemplateInfo
 0002:00001604       DbmsObjectNameTemplateInfo
 0002:0000167C       cRegExprSpesialSymbols
 0002:00001680       cConnectionOptionsDefault
 0002:000016A8       cConnectionOptionsRestrictions
 0002:000016D0       cBindMapDateTimeOdbc2
 0002:000016DC       cBindMapDateTimeOdbc3
 0002:000016E8       cDecimalSeparatorDefault
 0002:000016EC       IsDriverEmbedded
 0002:000016F0       MaxCount
 0002:000016F4       cGetOptionExceptionInfos
 0002:0000180C       cDbxDriverVersionString
 0002:00001810       cDbxProductVersionString
 0002:00001814       cBoolOptionSwitches
 0002:00001AE0       .
 0002:00001AE0       ..
 0002:00001B24       .
 0002:00001B24       ..
 0002:00002054       .
 0002:00002054       ..
 0002:0000A2F4       _GLOBAL_OFFSET_TABLE_
 0002:0000A574       DispCallByIDProc
 0002:0000A578       ExceptProc
 0002:0000A57C       ErrorProc
 0002:0000A580       ExternalExceptProc
 0002:0000A584       UnpackExternalExceptProc
 0002:0000A588       ExceptionClass
 0002:0000A58C       SafeCallErrorProc
 0002:0000A590       AssertErrorProc
 0002:0000A594       ExitProcessProc
 0002:0000A598       AbstractErrorProc
 0002:0000A59C       MainInstance
 0002:0000A5A0       MainThreadID
 0002:0000A5A4       IsLibrary
 0002:0000A5A8       ExitProc
 0002:0000A5AC       IsConsole
 0002:0000A5AD       IsMultiThread
 0002:0000A5B0       FileAccessRights
 0002:0000A5B4       ArgCount
 0002:0000A5B8       ArgValues
 0002:0000A5BC       Test8086
 0002:0000A5C0       Input
 0002:0000A78C       Output
 0002:0000A958       ErrOutput
 0002:0000AB24       .5
 0002:0000AB28       Unwinder
 0002:0000AB3C       InitContext
 0002:0000AB60       VariantManager
 0002:0000AC0C       .
 0002:0000AC0C       ..
 0002:0000AC0C       .enabled_classes.7
 0002:0000B00C       ._dbinits
 0002:0000B010       .
 0002:0000B010       ..
 0002:0000B010       .CPPhandler
 0002:0000B014       .
 0002:0000B014       ..
 0002:0000B014       .ForeignUnwindHooks
 0002:0000B01C       .LookList
 0002:0000B020       ._BorUnwind_UEFOuterProc
 0002:0000B024       ._BorUnwind_UnhandledExceptionFilter
 0002:0000B028       .RunningCodeSizeTotal
 0002:0000B02C       .RunningExcSizeTotal
 0002:0000B030       .RunningUnwindSizeTotal
 0002:0000B034       .RunningRangeSizeTotal
 0002:0000B038       .RunningProcCountTotal
 0002:0000B03C       .RunningExcProcTotal
 0002:0000B040       .RunningFramedProcTotal
 0002:0000B044       .RunningPotentialSavings
 0002:0000B048       .RunningNonFramedProcUSize
 0002:0000B04C       .RunningSmallProcCount
 0002:0000B050       .RunningSmallProcRanges
 0002:0000B054       ModuleIsLib
 0002:0000B055       ModuleIsPackage
 0002:0000B056       ModuleIsCpp
 0002:0000B058       HInstance
 0002:0000B05C       DllProc
 0002:0000B064       .1
 0002:0000B068       InitOnceSemaphore
 0002:0000B06C       .1
 0002:0000B070       SharedUnwinder
 0002:0000B084       .1
 0002:0000B088       .2
 0002:0000B08C       .1
 0002:0000B090       .3
 0002:0000B094       .1
 0002:0000B098       DeferUserInterrupts
 0002:0000B099       SIGINTIssued
 0002:0000B09A       SIGQUITIssued
 0002:0000B09C       CurrencyString
 0002:0000B0A0       CurrencyFormat
 0002:0000B0A1       NegCurrFormat
 0002:0000B0A2       ThousandSeparator
 0002:0000B0A3       DecimalSeparator
 0002:0000B0A4       CurrencyDecimals
 0002:0000B0A5       DateSeparator
 0002:0000B0A8       ShortDateFormat
 0002:0000B0AC       LongDateFormat
 0002:0000B0B0       TimeSeparator
 0002:0000B0B4       TimeAMString
 0002:0000B0B8       TimePMString
 0002:0000B0BC       ShortTimeFormat
 0002:0000B0C0       LongTimeFormat
 0002:0000B0C4       ShortMonthNames
 0002:0000B0F4       LongMonthNames
 0002:0000B124       ShortDayNames
 0002:0000B140       LongDayNames
 0002:0000B15C       SysLocale
 0002:0000B16A       ListSeparator
 0002:0000B16C       EraNames
 0002:0000B188       EraYearOffsets
 0002:0000B1A4       EraRanges
 0002:0000B1DC       EraYearFormats
 0002:0000B1F8       EraCount
 0002:0000B1FC       TrueBoolStrs
 0002:0000B200       FalseBoolStrs
 0002:0000B204       .74
 0002:0000B208       libuuidHandle
 0002:0000B20C       OutOfMemory
 0002:0000B210       InvalidPointer
 0002:0000B214       VariantChangeTypeEx
 0002:0000B218       VarNeg
 0002:0000B21C       VarNot
 0002:0000B220       VarAdd
 0002:0000B224       VarSub
 0002:0000B228       VarMul
 0002:0000B22C       VarDiv
 0002:0000B230       VarIDiv
 0002:0000B234       VarMod
 0002:0000B238       VarAnd
 0002:0000B23C       VarOr
 0002:0000B240       VarXor
 0002:0000B244       VarCmp
 0002:0000B248       VarI4FromStr
 0002:0000B24C       VarR4FromStr
 0002:0000B250       VarR8FromStr
 0002:0000B254       VarDateFromStr
 0002:0000B258       VarCyFromStr
 0002:0000B25C       VarBoolFromStr
 0002:0000B260       VarBstrFromCy
 0002:0000B264       VarBstrFromDate
 0002:0000B268       VarBstrFromBool
 0002:0000B26C       .5
 0002:0000B270       EmptyParam
 0002:0000B280       VarDispProc
 0002:0000B284       ClearAnyProc
 0002:0000B288       ChangeAnyProc
 0002:0000B28C       RefAnyProc
 0002:0000B290       .81
 0002:0000B294       GVariantManager
 0002:0000B340       GOldVariantManager
 0002:0000B3EC       LVarTypes
 0002:0000B3F0       LVarTypeSync
 0002:0000B408       .1
 0002:0000B40C       .6
 0002:0000B410       GlobalNameSpace
 0002:0000B414       SyncEvent
 0002:0000B41C       .45
 0002:0000B420       IntConstList
 0002:0000B424       RegGroups
 0002:0000B428       FindGlobalComponentProcs
 0002:0000B42C       GlobalFixupList
 0002:0000B430       ThreadLock
 0002:0000B448       .2
 0002:0000B44C       .1
 0002:0000B450       .1
 0002:0000B454       .1
 0002:0000B458       .3
 0002:0000B45C       .2
 0002:0000B460       DBScreen
 0002:0000B464       DBApplication
 0002:0000B468       .36
 0002:0000B46C       .3
 0002:0000B470       .1
 0002:0000B474       .2
 0002:0000B478       Loading
 0002:0000B490       .1
 0002:0000B494       .1
 0002:0000B498       _RegisterDbXpressLibs
 0002:0000B4A8       .6
 0002:0000B4AC       .1
 0002:0000B4B0       .5
 0002:0000B4B4       fOdbcApiCache
 0002:0000B4B8       .1
 0002:0000B4BC       .1
 0002:0000B4C0       .1
 0002:0000B4C4       .9
 0002:0000B4C8       .1
 0002:0000B4CC       .2
 0002:0000B4D0       .8
 0002:0000B4D4       .2
 0002:0000B4D8       .01
 0002:0000B4DC       .1
 0002:0000B4E0       .3
 0002:0000B4E4       .2
 0002:0000B4E8       cConnectionOptionsDefault3
 0002:0000B510       .71
 0002:0000B514       .23
 0002:00014280       TextStartAdj
 0002:0009CF64       CodeSegSize


Line numbers for System(System.pas) segment .text

  1683 0001:00000000  1685 0001:00000013  1687 0001:00000018  1918 0001:FFFFF900
  1921 0001:FFFFF910  1924 0001:FFFFF920  1927 0001:FFFFF930  1933 0001:FFFFF940
  1936 0001:FFFFF950  1954 0001:FFFFF960  1967 0001:FFFFF970  1970 0001:FFFFF980
  1973 0001:FFFFF990  1977 0001:FFFFF9A0  1983 0001:FFFFF9B0  1986 0001:FFFFF9C0
  1989 0001:FFFFF9D0  1992 0001:FFFFF9E0  1995 0001:FFFFF9F0  1998 0001:FFFFFA00
  2001 0001:FFFFFA10  2004 0001:FFFFFA20  2007 0001:FFFFFA30  2010 0001:FFFFFA40
  2013 0001:FFFFFA50  2019 0001:FFFFFA60  2052 0001:FFFFFA70  2055 0001:FFFFFA80
  2058 0001:FFFFFA90  2073 0001:FFFFFAA0  2075 0001:FFFFFAB0  2077 0001:FFFFFAC0
  2079 0001:FFFFFAC0  2081 0001:FFFFFAD0  2083 0001:FFFFFAE0  2109 0001:FFFFFAF0
  2114 0001:00000024  2115 0001:00000030  2116 0001:00000049  2119 0001:00000060
  2120 0001:0000006F  2121 0001:00000088  2125 0001:000000A4  2126 0001:000000A9
  2127 0001:000000AA  2128 0001:000000AE  2129 0001:000000AF  2133 0001:000000B8
  2134 0001:000000BD  2135 0001:000000BE  2136 0001:000000C2  2137 0001:000000C3
  2148 0001:000000CC  2149 0001:000000D8  2150 0001:000000E3  2420 0001:000000F0
  2421 0001:000000FC  2422 0001:00000114  2425 0001:0000012C  2426 0001:00000143
  2427 0001:00000150  2428 0001:00000152  2431 0001:00000168  2432 0001:00000175
  2433 0001:00000194  2468 0001:FFFFF970  2469 0001:FFFFFB00  2474 0001:FFFFFB10
  2475 0001:FFFFF980  2476 0001:FFFFF950  2477 0001:FFFFFB20  2478 0001:FFFFFB30
  2480 0001:FFFFFB40  2481 0001:FFFFFB50  2482 0001:FFFFFB60  2483 0001:FFFFFB70
  2484 0001:FFFFFB80  2485 0001:FFFFFB90  2486 0001:FFFFFBA0  2487 0001:FFFFFBB0
  2488 0001:FFFFFBC0  2501 0001:000001B4  2502 0001:000001C4  2505 0001:000001C8
  2506 0001:000001D3  2507 0001:000001D7  2508 0001:000001DE  2509 0001:000001E2
  2517 0001:000001EA  2518 0001:000001F2  2528 0001:00000208  2529 0001:00000215
  2532 0001:00000219  2533 0001:0000021E  2534 0001:00000223  2535 0001:0000022A
  2536 0001:00000230  2540 0001:0000023A  2541 0001:0000023E  2544 0001:00000247
  2545 0001:0000024B  2553 0001:0000025C  2554 0001:0000026C  2557 0001:00000271
  2558 0001:00000279  2560 0001:0000027D  2561 0001:0000028C  2565 0001:00000294
  2566 0001:0000029D  2580 0001:0000029F  2583 0001:000002A3  2584 0001:000002AA
  2586 0001:000002AC  2671 0001:000002C4  2677 0001:000002D0  2678 0001:000002F0
  2680 0001:000002F8  2681 0001:000002FE  2682 0001:0000031E  2683 0001:00000324
  2684 0001:00000344  2685 0001:0000034A  2686 0001:0000036A  2687 0001:00000370
  2688 0001:00000390  2692 0001:00000398  2693 0001:000003AF  2694 0001:000003BB
  2695 0001:000003C7  2696 0001:000003D3  2697 0001:000003DF  2699 0001:000003EB
  2709 0001:000004D0  2711 0001:000004EB  2713 0001:000004F4  2717 0001:000004F9
  2718 0001:00000528  2721 0001:00000538  2724 0001:0000054F  2725 0001:0000055D
  2730 0001:00000574  2731 0001:00000583  2732 0001:0000058A  2733 0001:0000058E
  2734 0001:00000594  2735 0001:000005B1  2743 0001:000005D0  2744 0001:000005DF
  2745 0001:000005E3  2746 0001:000005E7  2747 0001:000005EB  2748 0001:0000060E
  2779 0001:0000062C  2780 0001:0000062D  2781 0001:0000062E  2782 0001:00000633
  2783 0001:0000063D  2784 0001:0000063E  2785 0001:0000063F  2789 0001:00000650
  2790 0001:00000655  2791 0001:0000065F  2797 0001:00000668  2798 0001:0000066D
  2799 0001:00000673  2806 0001:0000067C  2807 0001:00000681  2808 0001:00000687
  2809 0001:0000068D  2810 0001:0000068F  2811 0001:00000691  2812 0001:00000692
  2813 0001:00000695  2814 0001:00000697  2816 0001:00000698  2817 0001:0000069D
  2819 0001:000006A3  2823 0001:000006AC  2824 0001:000006B1  2825 0001:000006B7
  2826 0001:000006BD  2827 0001:000006BF  2828 0001:000006C1  2829 0001:000006C2
  2830 0001:000006C5  2832 0001:000006C7  2843 0001:000006D0  2844 0001:000006D5
  2845 0001:000006D7  2847 0001:000006D9  2849 0001:000006DB  2850 0001:000006DE
  2851 0001:000006E0  2853 0001:000006E3  2854 0001:000006E4  2855 0001:000006E9
  2856 0001:000006EA  2857 0001:000006F0  2858 0001:000006F2  2860 0001:000006F3
  2861 0001:000006F8  2862 0001:000006FE  2863 0001:00000701  2864 0001:00000702
  2867 0001:00000710  2868 0001:0000071C  2869 0001:00000721  2874 0001:00000730
  2875 0001:00000731  2876 0001:00000732  2877 0001:00000733  2878 0001:00000738
  2883 0001:0000073A  2884 0001:0000073F  2885 0001:00000746  2886 0001:00000748
  2887 0001:0000074E  2888 0001:00000753  2889 0001:00000754  2890 0001:00000755
  2891 0001:00000758  2892 0001:0000075B  2893 0001:00000761  2894 0001:00000768
  2895 0001:0000076F  2897 0001:00000776  2901 0001:0000077C  2903 0001:0000077F
  2907 0001:00000785  2909 0001:00000788  2911 0001:00000789  2913 0001:0000078A
  2914 0001:0000078F  2915 0001:00000794  2919 0001:000007A8  2920 0001:000007AD
  2921 0001:000007AF  2922 0001:000007B1  2923 0001:000007B3  2924 0001:000007B6
  2927 0001:000007B7  2928 0001:000007BC  2952 0001:000007C4  2953 0001:000007D0
  2954 0001:000007D5  2955 0001:000007D9  2957 0001:000007DE  2958 0001:000007E0
  2965 0001:000007EC  2966 0001:000007F8  2967 0001:000007FD  2968 0001:00000801
  2970 0001:00000806  2971 0001:00000808  3039 0001:00000814  3040 0001:00000820
  3041 0001:00000828  3042 0001:0000082D  3084 0001:0000083C  3085 0001:00000850
  3086 0001:00000854  3087 0001:0000085F  3088 0001:0000086E  3089 0001:00000874
  3090 0001:00000884  3091 0001:0000088A  3092 0001:00000899  3093 0001:000008A5
  3097 0001:000008C0  3098 0001:000008C3  3099 0001:000008C6  3100 0001:000008CB
  3104 0001:000008D4  3105 0001:000008D5  3106 0001:000008D6  3107 0001:000008D7
  3108 0001:000008DC  3109 0001:000008E3  3110 0001:000008E4  3111 0001:000008E5
  3112 0001:000008E6  3113 0001:000008E8  3115 0001:000008E9  3116 0001:000008EB
  3117 0001:000008F0  3120 0001:00000904  3121 0001:00000913  3122 0001:0000091E
  3152 0001:00000930  3153 0001:00000931  3155 0001:00000932  3156 0001:00000934
  3158 0001:00000938  3159 0001:0000093A  3160 0001:0000093C  3164 0001:0000093E
  3165 0001:00000940  3166 0001:00000942  3167 0001:00000944  3172 0001:00000946
  3173 0001:00000948  3174 0001:00000949  3175 0001:0000094B  3176 0001:0000094D
  3177 0001:0000094F  3180 0001:00000951  3182 0001:00000953  3183 0001:00000955
  3184 0001:00000956  3185 0001:00000958  3188 0001:0000095A  3189 0001:0000095F
  3194 0001:00000961  3195 0001:00000963  3197 0001:00000965  3198 0001:00000967
  3200 0001:00000969  3202 0001:0000096B  3203 0001:0000096C  3204 0001:0000096D
  3205 0001:00000970  3272 0001:00000980  3273 0001:00000996  3274 0001:000009B7
  3276 0001:000009C5  3372 0001:000009F0  3373 0001:000009FD  3374 0001:00000A08
  3375 0001:00000A17  3415 0001:00000A28  3416 0001:00000A29  3418 0001:00000A2A
  3419 0001:00000A2C  3421 0001:00000A2E  3423 0001:00000A30  3424 0001:00000A32
  3425 0001:00000A34  3427 0001:00000A36  3428 0001:00000A39  3430 0001:00000A3B
  3432 0001:00000A3D  3433 0001:00000A3F  3434 0001:00000A42  3435 0001:00000A44
  3438 0001:00000A47  3439 0001:00000A4B  3441 0001:00000A4F  3442 0001:00000A52
  3443 0001:00000A54  3444 0001:00000A55  3446 0001:00000A57  3447 0001:00000A59
  3448 0001:00000A5C  3449 0001:00000A5F  3450 0001:00000A62  3451 0001:00000A64
  3453 0001:00000A65  3454 0001:00000A66  3455 0001:00000A67  3579 0001:00000A78
  3580 0001:00000A8A  3581 0001:00000A94  3583 0001:00000AA8  3585 0001:00000AAF
  3730 0001:00000AC8  3731 0001:00000ACA  3732 0001:00000ACC  3733 0001:00000ACE
  3734 0001:00000AD0  3736 0001:00000AD2  3755 0001:00000AD8  3756 0001:00000ADA
  3757 0001:00000ADD  3758 0001:00000ADE  3796 0001:00000AE8  3797 0001:00000AEB
  3798 0001:00000AEE  3799 0001:00000AF2  3800 0001:00000AF3  3801 0001:00000AFA
  3802 0001:00000AFE  3803 0001:00000B00  3804 0001:00000B01  3805 0001:00000B04
  3806 0001:00000B07  3841 0001:00000B14  3842 0001:00000B17  3843 0001:00000B1A
  3844 0001:00000B1B  3845 0001:00000B1C  3846 0001:00000B1D  3853 0001:00000B2C
  3854 0001:00000B2F  3855 0001:00000B32  3856 0001:00000B36  3857 0001:00000B37
  3858 0001:00000B3E  3859 0001:00000B42  3860 0001:00000B46  3861 0001:00000B47
  3862 0001:00000B4A  3863 0001:00000B4B  3864 0001:00000B4C  3865 0001:00000B4D
  3869 0001:00000B5C  3870 0001:00000B69  3871 0001:00000B74  3872 0001:00000B7E
  3873 0001:00000B85  3889 0001:00000B98  3890 0001:00000BAC  3891 0001:00000BBC
  3894 0001:00000BC3  3895 0001:00000BD2  3896 0001:00000BDA  3897 0001:00000BE6
  3898 0001:00000BEF  3900 0001:00000BF6  3901 0001:00000C03  3909 0001:00000C1C
  3910 0001:00000C28  3911 0001:00000C31  3921 0001:00000C40  3922 0001:00000C51
  3923 0001:00000C56  3925 0001:00000C5B  3926 0001:00000C82  3928 0001:00000C85
  3929 0001:00000C8A  3932 0001:00000C94  3944 0001:00000C9C  3947 0001:00000CC8
  3948 0001:00000CD4  3949 0001:00000CD6  3956 0001:00000CE4  3957 0001:00000CF3
  3958 0001:00000CF9  3962 0001:00000CFE  3967 0001:00000D25  3969 0001:00000D2C
  3970 0001:00000D2E  3972 0001:00000D33  3975 0001:00000D54  3977 0001:00000D63
  3982 0001:00000D80  3985 0001:00000D9C  3986 0001:00000DAB  3987 0001:00000DB1
  3988 0001:00000DBC  3990 0001:00000DC4  3991 0001:00000DC6  3994 0001:00000DD8
  3995 0001:00000DE7  3996 0001:00000DEE  3997 0001:00000DF4  3998 0001:00000DF9
  4006 0001:00000E0C  4007 0001:00000E1E  4008 0001:00000E23  4009 0001:00000E28
  4010 0001:00000E2D  4013 0001:00000E46  4014 0001:00000E4C  4018 0001:00000E57
  4019 0001:00000E5F  4023 0001:00000E6A  4024 0001:00000E72  4027 0001:00000E7D
  4028 0001:00000E82  4031 0001:00000E88  4033 0001:00000E91  4035 0001:00000E97
  4037 0001:00000E9D  4038 0001:00000EA6  4040 0001:00000EAD  4041 0001:00000EB6
  4043 0001:00000EBE  4044 0001:00000EC8  4046 0001:00000ED0  4047 0001:00000ED6
  4050 0001:00000EE4  4054 0001:00000EED  4056 0001:00000EF6  4057 0001:00000F23
  4059 0001:00000F2A  4060 0001:00000F30  4061 0001:00000F38  4064 0001:00000F3D
  4066 0001:00000F43  4068 0001:00000F4F  4070 0001:00000F55  4072 0001:00000F5F
  4073 0001:00000F81  4075 0001:00000F88  4076 0001:00000F92  4079 0001:00000F97
  4080 0001:00000F9F  4082 0001:00000FAC  4084 0001:00000FD0  4085 0001:00000FDA
  4088 0001:00000FDF  4089 0001:00001006  4091 0001:0000100D  4092 0001:00001017
  4095 0001:00001019  4097 0001:00001035  4099 0001:0000103A  4101 0001:0000107D
  4102 0001:00001087  4106 0001:00001089  4095 0001:0000108E  4110 0001:00001097
  4460 0001:00001104  4461 0001:00001111  4463 0001:00001123  4464 0001:0000112B
  4466 0001:0000112F  4467 0001:00001143  4469 0001:00001147  4471 0001:0000114C
  4472 0001:00001159  4475 0001:0000116C  4476 0001:00001178  4477 0001:00001180
  4480 0001:0000118C  4481 0001:00001198  4482 0001:000011A0  4554 0001:000011AC
  4555 0001:000011BC  4556 0001:000011BE  4558 0001:000011CE  4559 0001:000011DC
  4560 0001:000011E3  4561 0001:000011E7  4562 0001:000011EE  4563 0001:000011F2
  4566 0001:000011FB  4567 0001:00001205  4568 0001:00001211  4628 0001:00001228
  4629 0001:00001229  4633 0001:0000122A  4634 0001:0000122C  4635 0001:0000122E
  4639 0001:00001230  4640 0001:00001232  4641 0001:00001234  4642 0001:00001236
  4646 0001:00001237  4647 0001:00001239  4648 0001:0000123B  4649 0001:0000123D
  4652 0001:0000123F  4653 0001:00001241  4654 0001:00001243  4658 0001:00001245
  4659 0001:00001246  4663 0001:00001248  4666 0001:0000124A  4667 0001:0000124B
  4668 0001:0000124C  4673 0001:0000124D  4674 0001:0000124F  4675 0001:00001251
  4676 0001:00001253  4677 0001:00001255  4678 0001:00001257  4681 0001:00001268
  4682 0001:00001274  4683 0001:0000127F  4786 0001:0000128C  4787 0001:0000128D
  4788 0001:0000128E  4789 0001:0000128F  4790 0001:00001291  4791 0001:00001294
  4794 0001:00001296  4795 0001:00001298  4796 0001:0000129A  4797 0001:0000129C
  4798 0001:0000129E  4799 0001:0000129F  4800 0001:000012A1  4801 0001:000012A4
  4802 0001:000012A7  4803 0001:000012A9  4804 0001:000012AB  4805 0001:000012AE
  4806 0001:000012B1  4807 0001:000012B2  4808 0001:000012B4  4810 0001:000012B6
  4811 0001:000012B9  4813 0001:000012BC  4814 0001:000012BD  4815 0001:000012C0
  4817 0001:000012C2  4818 0001:000012C4  4819 0001:000012C6  4820 0001:000012C8
  4821 0001:000012C9  4822 0001:000012CB  4823 0001:000012CE  4824 0001:000012D1
  4825 0001:000012D3  4826 0001:000012D4  4827 0001:000012D6  4828 0001:000012D9
  4829 0001:000012DC  4832 0001:000012DE  4833 0001:000012E0  4836 0001:000012E3
  4837 0001:000012E4  4838 0001:000012E6  4839 0001:000012E8  4840 0001:000012EA
  4841 0001:000012EC  4842 0001:000012EF  4843 0001:000012F2  4844 0001:000012F4
  4845 0001:000012F6  4848 0001:000012F8  4849 0001:000012F9  4850 0001:000012FA
  5156 0001:00001310  5158 0001:00001311  5160 0001:00001313  5161 0001:00001315
  5162 0001:00001317  5163 0001:0000131A  5165 0001:0000131D  5166 0001:0000131F
  5167 0001:00001322  5169 0001:00001324  5171 0001:00001326  5172 0001:00001328
  5173 0001:0000132B  5176 0001:0000132D  5177 0001:0000132E  6349 0001:00001338
  6350 0001:00001339  6351 0001:0000133A  6353 0001:0000133B  6354 0001:0000133D
  6356 0001:0000133E  6357 0001:00001340  6359 0001:00001342  6360 0001:00001344
  6361 0001:00001346  6364 0001:0000134B  6365 0001:0000134D  6366 0001:0000134E
  6367 0001:00001351  6370 0001:00001353  6371 0001:00001355  6372 0001:00001358
  6373 0001:0000135A  6374 0001:0000135D  6377 0001:0000135F  6378 0001:00001362
  6380 0001:00001364  6381 0001:00001367  6382 0001:00001369  6383 0001:0000136C
  6384 0001:0000136E  6385 0001:00001371  6386 0001:00001373  6387 0001:00001375
  6388 0001:00001376  6389 0001:00001379  6390 0001:0000137B  6391 0001:0000137E
  6392 0001:00001380  6393 0001:00001382  6394 0001:00001384  6397 0001:00001386
  6398 0001:00001388  6401 0001:0000138A  6402 0001:0000138D  6403 0001:00001390
  6404 0001:00001392  6405 0001:00001394  6406 0001:00001396  6407 0001:00001399
  6408 0001:0000139B  6410 0001:0000139D  6411 0001:0000139F  6413 0001:000013A0
  6414 0001:000013A2  6417 0001:000013A4  6418 0001:000013A6  6419 0001:000013A8
  6420 0001:000013AA  6421 0001:000013AC  6424 0001:000013AE  6425 0001:000013AF
  6428 0001:000013B1  6429 0001:000013B3  6430 0001:000013B5  6434 0001:000013B7
  6435 0001:000013B8  6436 0001:000013BA  6439 0001:000013BC  6441 0001:000013BE
  6442 0001:000013C0  6443 0001:000013C1  6446 0001:000013C3  6448 0001:000013C8
  6449 0001:000013CA  6450 0001:000013CB  6451 0001:000013CD  6454 0001:000013CF
  6455 0001:000013D2  6456 0001:000013D4  6458 0001:000013D7  6459 0001:000013DA
  6460 0001:000013DD  6461 0001:000013DF  6462 0001:000013E2  6463 0001:000013E5
  6464 0001:000013E7  6466 0001:000013EA  6467 0001:000013EC  6468 0001:000013EE
  6469 0001:000013F1  6471 0001:000013F3  6472 0001:000013F5  6474 0001:000013F6
  6475 0001:000013F8  6477 0001:000013FA  6478 0001:000013FC  6479 0001:000013FE
  6482 0001:00001400  6483 0001:00001401  6486 0001:00001403  6487 0001:00001405
  6488 0001:00001406  6489 0001:00001407  6490 0001:00001408  6555 0001:00001424
  6556 0001:00001434  6558 0001:00001448  6559 0001:00001455  6562 0001:0000145C
  6563 0001:00001466  6564 0001:0000146C  6565 0001:00001479  6603 0001:00001490
  6604 0001:00001491  6606 0001:00001492  6608 0001:00001494  6609 0001:0000149A
  6610 0001:0000149C  6611 0001:0000149D  6612 0001:0000149E  6613 0001:0000149F
  6614 0001:000014A4  6615 0001:000014A6  6616 0001:000014A7  6617 0001:000014A8
  6618 0001:000014A9  6621 0001:000014AB  6622 0001:000014AE  6626 0001:000014B1
  6627 0001:000014B4  6631 0001:000014B7  6632 0001:000014B9  6636 0001:000014BB
  6637 0001:000014BE  6641 0001:000014C0  6642 0001:000014C1  6643 0001:000014C2
  6644 0001:000014C4  6646 0001:000014C6  6647 0001:000014C9  6648 0001:000014CB
  6650 0001:000014CD  6651 0001:000014CE  6652 0001:000014CF  6655 0001:000014D1
  6656 0001:000014D6  6657 0001:000014D7  6658 0001:000014D8  6660 0001:000014DB
  6661 0001:000014DE  6664 0001:000014E0  6665 0001:000014E1  6666 0001:000014E2
  6691 0001:00001508  6694 0001:0000150A  6699 0001:00001510  6700 0001:00001513
  6702 0001:00001515  6703 0001:00001518  6704 0001:00001519  6705 0001:0000151A
  6706 0001:0000151F  6707 0001:00001524  6708 0001:00001529  6709 0001:00001530
  6710 0001:00001532  6711 0001:00001533  6712 0001:00001534  6715 0001:00001536
  6716 0001:00001537  6717 0001:00001538  6720 0001:00001539  6722 0001:00001579
  6723 0001:0000157B  6725 0001:00001581  6933 0001:00001594  6934 0001:000015A0
  6935 0001:000015AA  6958 0001:000015B8  6959 0001:000015B9  6961 0001:000015BA
  6962 0001:000015C0  6963 0001:000015C2  6965 0001:000015C7  6966 0001:000015C9
  6967 0001:000015CA  6968 0001:000015CC  6969 0001:000015CE  6970 0001:000015CF
  6971 0001:000015D1  6972 0001:000015D2  6975 0001:000015D4  6976 0001:000015D5
  6977 0001:000015D7  6978 0001:000015D9  6979 0001:000015DA  7002 0001:000015E8
  7003 0001:000015E9  7005 0001:000015EA  7007 0001:000015EC  7008 0001:000015EE
  7009 0001:000015F0  7011 0001:000015F2  7012 0001:000015F4  7014 0001:000015F6
  7016 0001:000015F8  7017 0001:000015F9  7018 0001:000015FB  7019 0001:000015FD
  7020 0001:00001600  7021 0001:00001602  7022 0001:00001604  7025 0001:00001607
  7026 0001:00001608  7027 0001:00001609  7186 0001:00001618  7187 0001:0000161A
  7188 0001:0000161B  7189 0001:0000161D  7190 0001:0000161E  7191 0001:00001620
  7192 0001:00001622  7224 0001:00001628  7225 0001:0000162A  7226 0001:0000162C
  7227 0001:0000162D  7228 0001:0000162F  7229 0001:00001630  7230 0001:00001632
  7231 0001:00001634  7927 0001:0000163C  7928 0001:00001641  7941 0001:00001648
  7943 0001:00001649  7944 0001:0000164A  7945 0001:0000164F  7946 0001:00001651
  7950 0001:00001652  7951 0001:00001654  7952 0001:00001656  7953 0001:0000165C
  7954 0001:00001661  7955 0001:00001667  7956 0001:00001669  7957 0001:0000166C
  7958 0001:0000166F  7960 0001:00001676  7962 0001:00001678  7963 0001:0000167B
  7965 0001:0000167D  7966 0001:0000167F  7967 0001:00001682  7968 0001:00001684
  7969 0001:00001687  7970 0001:0000168E  7974 0001:00001690  7975 0001:00001693
  7976 0001:00001695  7977 0001:00001698  7978 0001:0000169F  7979 0001:000016A1
  7982 0001:000016A3  7983 0001:000016A5  7984 0001:000016AA  7985 0001:000016AC
  7986 0001:000016AE  7987 0001:000016B1  7988 0001:000016B4  7989 0001:000016BB
  7991 0001:000016BD  7992 0001:000016C0  7994 0001:000016C2  7995 0001:000016C4
  7996 0001:000016C7  7997 0001:000016C9  7998 0001:000016CC  7999 0001:000016D3
  8003 0001:000016D5  8004 0001:000016D8  8005 0001:000016DA  8006 0001:000016DD
  8007 0001:000016E4  8009 0001:000016E6  8012 0001:000016E8  8013 0001:000016EA
  8014 0001:000016F0  8017 0001:000016F2  8018 0001:000016F4  8021 0001:000016F6
  8022 0001:000016F7  8024 0001:000016F8  8025 0001:00001702  8026 0001:0000170C
  8027 0001:00001716  8028 0001:00001720  8029 0001:0000172A  8030 0001:00001734
  8031 0001:0000173E  8032 0001:00001748  8033 0001:00001752  8034 0001:0000175C
  8035 0001:00001766  8036 0001:00001770  8037 0001:0000177A  8038 0001:00001784
  8039 0001:0000178E  8040 0001:00001798  8041 0001:000017A2  8042 0001:000017AC
  8043 0001:000017B6  8044 0001:000017C0  8045 0001:000017CA  8046 0001:000017D4
  8047 0001:000017DE  8048 0001:000017E8  8049 0001:000017F2  8050 0001:000017FC
  8051 0001:00001806  8052 0001:00001810  8053 0001:0000181A  8054 0001:00001824
  8055 0001:0000182E  8056 0001:00001838  8058 0001:00001842  8059 0001:0000184C
  8060 0001:00001856  8061 0001:00001860  8062 0001:0000186A  8063 0001:00001874
  8064 0001:0000187E  8065 0001:00001888  8066 0001:00001892  8067 0001:0000189C
  8068 0001:000018A6  8069 0001:000018B0  8070 0001:000018BA  8071 0001:000018C4
  8072 0001:000018CE  8074 0001:000018D8  8075 0001:000018E2  8076 0001:000018EC
  8077 0001:000018F6  8078 0001:00001900  8079 0001:0000190A  8080 0001:00001914
  8081 0001:0000191E  8082 0001:00001928  8083 0001:00001932  8344 0001:00001948
  8345 0001:0000194A  8347 0001:0000194B  8348 0001:00001950  8349 0001:00001956
  8353 0001:00001958  8357 0001:00001960  8358 0001:00001962  8359 0001:00001967
  8368 0001:00001970  8369 0001:0000197D  8370 0001:00001983  8381 0001:00001994
  8382 0001:00001995  8383 0001:00001996  8384 0001:00001998  8385 0001:0000199B
  8386 0001:0000199D  8387 0001:0000199F  8388 0001:000019A0  8389 0001:000019A2
  8390 0001:000019A3  8391 0001:000019A4  8441 0001:000019B4  8442 0001:000019B7
  8443 0001:000019B9  8444 0001:000019BB  8446 0001:000019BD  8450 0001:000019C4
  8451 0001:000019D3  8452 0001:000019E8  8455 0001:000019FC  8456 0001:00001A0B
  8457 0001:00001A12  8458 0001:00001A19  8461 0001:00001A2C  8462 0001:00001A38
  8463 0001:00001A3D  8466 0001:00001A4C  8467 0001:00001A83  8470 0001:00001A9C
  8471 0001:00001AB6  8474 0001:00001AC4  8475 0001:00001AD3  8476 0001:00001AD7
  8477 0001:00001AE0  8505 0001:00001AF4  8506 0001:00001AF5  8507 0001:00001AF6
  8508 0001:00001AF7  8509 0001:00001AF9  8510 0001:00001AFB  8511 0001:00001AFC
  8512 0001:00001AFF  8513 0001:00001B01  8514 0001:00001B02  8515 0001:00001B05
  8516 0001:00001B06  8517 0001:00001B08  8518 0001:00001B09  8519 0001:00001B0C
  8520 0001:00001B0E  8521 0001:00001B10  8522 0001:00001B12  8523 0001:00001B15
  8524 0001:00001B17  8525 0001:00001B19  8526 0001:00001B1A  8527 0001:00001B1D
  8528 0001:00001B1F  8529 0001:00001B21  8530 0001:00001B23  8531 0001:00001B25
  8532 0001:00001B27  8533 0001:00001B29  8534 0001:00001B2A  8535 0001:00001B2C
  8536 0001:00001B2F  8537 0001:00001B32  8538 0001:00001B34  8539 0001:00001B36
  8540 0001:00001B39  8541 0001:00001B3C  8542 0001:00001B3F  8543 0001:00001B40
  8544 0001:00001B42  8545 0001:00001B44  8546 0001:00001B46  8547 0001:00001B47
  8548 0001:00001B48  8549 0001:00001B49  8570 0001:00001B64  8571 0001:00001B65
  8572 0001:00001B66  8573 0001:00001B68  8575 0001:00001B6A  8576 0001:00001B6C
  8577 0001:00001B6F  8578 0001:00001B72  8579 0001:00001B74  8580 0001:00001B76
  8581 0001:00001B7B  8583 0001:00001B7D  8584 0001:00001B7F  8586 0001:00001B81
  8587 0001:00001B82  8588 0001:00001B83  8613 0001:00001B94  8614 0001:00001B96
  8615 0001:00001B9C  8616 0001:00001B9E  8617 0001:00001BA4  8620 0001:00001BA6
  8621 0001:00001BA9  8622 0001:00001BAB  8625 0001:00001BAD  8628 0001:00001BAF
  8629 0001:00001BB5  8630 0001:00001BB7  8631 0001:00001BB9  8632 0001:00001BBB
  8633 0001:00001BC0  8639 0001:00001BC8  8640 0001:00001BE9  8641 0001:00001BED
  8642 0001:00001BFC  8644 0001:00001C00  8646 0001:00001C06  8647 0001:00001C0E
  8650 0001:00001C2F  8652 0001:00001C47  8653 0001:00001C69  8680 0001:00001C88
  8681 0001:00001C89  8682 0001:00001C8A  8683 0001:00001C8C  8684 0001:00001C8F
  8685 0001:00001C91  8686 0001:00001C93  8687 0001:00001C95  8688 0001:00001C98
  8689 0001:00001C9A  8690 0001:00001C9C  8691 0001:00001C9E  8692 0001:00001CA1
  8693 0001:00001CA4  8694 0001:00001CA6  8695 0001:00001CA9  8696 0001:00001CAC
  8697 0001:00001CAE  8698 0001:00001CB1  8699 0001:00001CB4  8700 0001:00001CB6
  8701 0001:00001CB9  8702 0001:00001CBA  8703 0001:00001CBC  8704 0001:00001CBF
  8705 0001:00001CC1  8706 0001:00001CC3  8707 0001:00001CC5  8708 0001:00001CC7
  8709 0001:00001CC9  8710 0001:00001CCA  8711 0001:00001CCB  8720 0001:00001CDC
  8721 0001:00001CEF  8722 0001:00001D0C  8765 0001:00001D28  8766 0001:00001D29
  8767 0001:00001D2A  8769 0001:00001D2C  8771 0001:00001D2E  8772 0001:00001D31
  8773 0001:00001D33  8774 0001:00001D35  8775 0001:00001D38  8776 0001:00001D39
  8777 0001:00001D3C  8778 0001:00001D3F  8779 0001:00001D41  8781 0001:00001D42
  8782 0001:00001D45  8783 0001:00001D47  8784 0001:00001D49  8787 0001:00001D4B
  8788 0001:00001D4C  8789 0001:00001D4E  8790 0001:00001D50  8793 0001:00001D54
  8794 0001:00001D55  8798 0001:00001D68  8799 0001:00001D69  8800 0001:00001D6A
  8801 0001:00001D6C  8802 0001:00001D71  8803 0001:00001D72  8804 0001:00001D73
  8805 0001:00001D75  8807 0001:00001D77  8808 0001:00001D78  8809 0001:00001D7D
  8870 0001:00001D90  8872 0001:00001D92  8874 0001:00001D94  8875 0001:00001D96
  8876 0001:00001D98  8877 0001:00001D9B  8878 0001:00001D9D  8879 0001:00001D9F
  8881 0001:00001DA0  8883 0001:00001DA2  8888 0001:00001DA8  8889 0001:00001DB4
  8890 0001:00001DB9  8895 0001:00001DC8  8896 0001:00001DD4  8897 0001:00001DD9
  8901 0001:00001DE8  8902 0001:00001DF4  8906 0001:00001E00  8907 0001:00001E0C
  8910 0001:00001E18  8911 0001:00001E24  8915 0001:00001E30  8916 0001:00001E31
  8917 0001:00001E34  8918 0001:00001E37  8919 0001:00001E39  8920 0001:00001E3E
  8921 0001:00001E40  8922 0001:00001E41  8923 0001:00001E43  8924 0001:00001E48
  8925 0001:00001E49  8926 0001:00001E4B  8927 0001:00001E4D  8928 0001:00001E4E
  8931 0001:00001E50  8932 0001:00001E51  8933 0001:00001E53  8934 0001:00001E56
  9106 0001:00001E68  9107 0001:00001E69  9108 0001:00001E6A  9109 0001:00001E6B
  9110 0001:00001E6D  9111 0001:00001E6F  9123 0001:00001E72  9124 0001:00001E73
  9125 0001:00001E74  9126 0001:00001E75  9148 0001:00001E76  9151 0001:00001E8C
  9152 0001:00001E9B  9153 0001:00001EA2  9157 0001:00001EB4  9158 0001:00001EC3
  9159 0001:00001ECA  9160 0001:00001ECC  9175 0001:00001EE0  9176 0001:00001EE2
  9177 0001:00001EE4  9179 0001:00001EE5  9180 0001:00001EE6  9181 0001:00001EE7
  9182 0001:00001EE9  9183 0001:00001EEC  9184 0001:00001EED  9185 0001:00001EEE
  9209 0001:00001F00  9217 0001:00001F10  9218 0001:00001F11  9220 0001:00001F12
  9221 0001:00001F1D  9223 0001:00001F38  9224 0001:00001F39  9227 0001:00001F3A
  9234 0001:00001F40  9235 0001:00001F4C  9238 0001:00001F58  9239 0001:00001F64
  9242 0001:00001F70  9243 0001:00001F7C  9252 0001:00001F88  9254 0001:00001F99
  9256 0001:00001FB1  9258 0001:00001FC2  9259 0001:00001FC7  9281 0001:00001FE8
  9282 0001:00001FEA  9283 0001:00001FEB  9284 0001:00001FED  9285 0001:00001FF0
  9286 0001:00001FF1  9287 0001:00001FF3  9288 0001:00001FF8  9299 0001:00001FFB
  9327 0001:00002010  9328 0001:00002011  9330 0001:00002014  9331 0001:00002015
  9332 0001:00002017  9333 0001:00002019  9334 0001:0000201C  9335 0001:0000201D
  9336 0001:0000201F  9337 0001:00002024  9339 0001:00002027  9349 0001:00002028
  9356 0001:00002040  9357 0001:00002041  9358 0001:00002043  9359 0001:00002045
  9360 0001:00002048  9361 0001:00002049  9362 0001:0000204B  9363 0001:00002050
  9372 0001:00002053  9412 0001:00002068  9413 0001:00002069  9414 0001:0000206B
  9415 0001:0000206D  9416 0001:0000206F  9417 0001:00002071  9418 0001:00002076
  9438 0001:00002079  9513 0001:0000208C  9514 0001:0000208E  9521 0001:00002090
  9524 0001:00002095  9528 0001:0000209C  9529 0001:0000209D  9530 0001:0000209E
  9531 0001:000020A3  9532 0001:000020A4  9533 0001:000020AA  9534 0001:000020AD
  9535 0001:000020B3  9536 0001:000020B5  9537 0001:000020B6  9541 0001:000020C4
  9542 0001:000020C9  9543 0001:000020CF  9544 0001:000020D2  9545 0001:000020D8
  9551 0001:000020E0  9552 0001:000020E6  9556 0001:000020E8  9557 0001:000020E9
  9558 0001:000020EA  9559 0001:000020EF  9560 0001:000020F1  9561 0001:000020F2
  9562 0001:000020F8  9563 0001:000020FB  9564 0001:000020FD  9573 0001:000020FF
  9575 0001:00002100  9578 0001:00002105  9579 0001:00002106  9580 0001:00002107
  9581 0001:00002108  9582 0001:0000210D  9583 0001:0000210E  9584 0001:0000210F
  9587 0001:00002110  9589 0001:00002115  9590 0001:00002119  9591 0001:0000211E
  9592 0001:00002120  9593 0001:00002123  9594 0001:00002128  9723 0001:0000212A
  9742 0001:00002144  9743 0001:00002145  9744 0001:00002147  9746 0001:0000214A
  9747 0001:0000214B  9748 0001:0000214C  9750 0001:0000214D  9751 0001:00002150
  9752 0001:00002152  9753 0001:00002154  9754 0001:00002157  9757 0001:0000215A
  9758 0001:0000215C  9759 0001:0000215E  9760 0001:00002160  9761 0001:00002163
  9762 0001:00002166  9765 0001:00002168  9767 0001:0000216A  9768 0001:0000216C
  9769 0001:0000216E  9771 0001:00002170  9772 0001:00002173  9773 0001:00002176
  9775 0001:00002178  9776 0001:0000217B  9778 0001:0000217E  9779 0001:00002180
  9780 0001:00002182  9781 0001:00002184  9783 0001:00002186  9784 0001:00002187
  9785 0001:00002188  9786 0001:0000218D  9789 0001:0000218F  9790 0001:00002192
  9791 0001:00002194  9792 0001:00002197  9793 0001:00002199  9795 0001:0000219B
  9796 0001:0000219E  9797 0001:0000219F  9800 0001:000021A1  9803 0001:000021A3
  9805 0001:000021A5  9806 0001:000021A6  9807 0001:000021A7  9808 0001:000021A8
  9809 0001:000021AA  9810 0001:000021AB  9821 0001:000021B0  9823 0001:000021B4
  9824 0001:000021B6  9825 0001:000021B9  9826 0001:000021BA  9827 0001:000021BD
  9828 0001:000021C2  9829 0001:000021C4  9831 0001:000021C6  9832 0001:000021C8
  9833 0001:000021CA  9834 0001:000021CB  9836 0001:000021CC  9839 0001:000021D1
  9841 0001:000021D4  9842 0001:000021D7  9843 0001:000021D9  9845 0001:000021DE
  9846 0001:000021E0  9849 0001:000021E2  9854 0001:000021E3  9856 0001:000021E7
  9857 0001:000021EC 10108 0001:000021FC 10110 0001:000021FE 10111 0001:00002204
 10113 0001:00002206 10114 0001:00002207 10115 0001:00002208 10116 0001:00002209
 10117 0001:0000220D 10118 0001:0000220F 10119 0001:00002210 10120 0001:00002211
 10121 0001:00002212 10124 0001:00002217 10125 0001:00002218 10126 0001:00002219
 10127 0001:0000221E 10128 0001:0000221F 10131 0001:00002220 10133 0001:00002225
 10134 0001:00002228 10135 0001:0000222D 10137 0001:0000222E 10146 0001:00002230
 10147 0001:00002233 10148 0001:00002235 10153 0001:00002236 10154 0001:0000223D
 10155 0001:0000223E 10156 0001:00002240 10190 0001:00002245 10338 0001:00002248
 10339 0001:0000224A 10340 0001:0000224C 10341 0001:00002251 10344 0001:00002256
 10345 0001:0000225B 10346 0001:0000225C 10347 0001:0000225E 10348 0001:00002263
 10349 0001:00002268 10354 0001:0000226D 10355 0001:00002272 10362 0001:00002274
 10363 0001:00002277 10399 0001:0000227C 10413 0001:00002284 10414 0001:00002285
 10415 0001:0000228A 10416 0001:0000228C 10417 0001:0000228D 10418 0001:0000228F
 10419 0001:00002295 10420 0001:00002297 10421 0001:00002299 10422 0001:0000229A
 10423 0001:0000229D 10424 0001:0000229E 10425 0001:000022A3 10426 0001:000022A8
 10435 0001:000022B8 10443 0001:000022BD 10444 0001:000022C4 10445 0001:000022C6
 10447 0001:000022CA 10448 0001:000022CB 10449 0001:000022D0 10455 0001:000022D1
 10456 0001:000022D2 10457 0001:000022D3 10458 0001:000022D8 10459 0001:000022DA
 10460 0001:000022DB 10461 0001:000022E1 10465 0001:000022E4 10468 0001:000022E6
 10469 0001:000022E9 10470 0001:000022EB 10471 0001:000022EC 10473 0001:000022EF
 10474 0001:000022F5 10478 0001:000022F7 10479 0001:000022F9 10480 0001:000022FA
 10481 0001:000022FC 10485 0001:000022FE 10486 0001:00002303 10487 0001:00002307
 10488 0001:0000230B 10489 0001:0000230E 10491 0001:00002311 10493 0001:00002312
 10496 0001:00002317 10499 0001:0000231A 10501 0001:0000231B 10502 0001:0000231E
 10551 0001:00002323 10566 0001:00002344 10568 0001:00002358 10569 0001:0000235E
 10570 0001:00002360 10572 0001:00002365 10575 0001:00002368 10577 0001:00002371
 10578 0001:00002376 10579 0001:0000237C 10580 0001:00002385 10581 0001:0000238E
 10582 0001:00002393 10583 0001:00002398 10584 0001:000023A5 10587 0001:000023AA
 10589 0001:000023B1 10590 0001:000023B9 10605 0001:000023C8 10606 0001:000023CD
 10607 0001:000023CF 10608 0001:000023D1 10610 0001:000023D6 10618 0001:000023DB
 10619 0001:000023E0 10620 0001:000023E2 10621 0001:000023E4 10622 0001:000023E7
 10623 0001:000023E9 10624 0001:000023EE 10625 0001:000023F0 10626 0001:000023F2
 10655 0001:000023F7 10840 0001:00002400 10841 0001:00002401 10842 0001:00002403
 10843 0001:00002405 10844 0001:00002407 10845 0001:00002408 10853 0001:00002414
 10854 0001:00002426 10856 0001:0000242F 10857 0001:00002435 10859 0001:00002441
 10862 0001:0000244D 10864 0001:00002451 10865 0001:00002452 10866 0001:00002458
 10867 0001:0000245F 10870 0001:00002463 10862 0001:00002471 10878 0001:0000247C
 10879 0001:00002481 10881 0001:00002492 10993 0001:000024BC 10994 0001:000024D0
 10996 0001:000024D9 10997 0001:000024E4 10998 0001:000024E6 11000 0001:000024F2
 11003 0001:000024FE 11005 0001:00002503 11006 0001:00002509 11007 0001:0000250A
 11008 0001:00002510 11011 0001:00002514 11003 0001:00002522 11019 0001:0000252E
 11020 0001:00002533 11022 0001:00002544 11184 0001:0000256C 11187 0001:00002586
 11188 0001:00002593 11189 0001:000025A0 11191 0001:000025AF 11192 0001:000025B2
 11198 0001:000025B4 11200 0001:000025B7 11202 0001:000025BD 11203 0001:000025C3
 11204 0001:000025C9 11208 0001:000025D3 11209 0001:000025D9 11212 0001:000025DE
 11213 0001:000025E4 11215 0001:000025EF 11217 0001:000025FA 11218 0001:00002603
 11221 0001:00002611 11222 0001:00002617 11224 0001:0000261E 11225 0001:00002623
 11244 0001:00002650 11245 0001:00002651 11246 0001:00002652 11247 0001:00002655
 11249 0001:00002659 11250 0001:0000265C 11251 0001:0000265E 11252 0001:00002660
 11253 0001:00002662 11254 0001:00002667 11255 0001:0000266A 11256 0001:0000266B
 11258 0001:0000266D 11259 0001:0000266E 11263 0001:0000266F 11281 0001:00002680
 11282 0001:00002681 11283 0001:00002682 11284 0001:00002685 11286 0001:00002689
 11287 0001:0000268C 11288 0001:0000268E 11289 0001:00002691 11290 0001:00002693
 11291 0001:00002698 11292 0001:0000269B 11293 0001:0000269C 11295 0001:0000269E
 11296 0001:0000269F 11300 0001:000026A0 11321 0001:000026B0 11322 0001:000026B1
 11323 0001:000026B2 11324 0001:000026B5 11332 0001:000026B9 11333 0001:000026BD
 11336 0001:000026BF 11337 0001:000026C2 11338 0001:000026C4 11339 0001:000026C7
 11340 0001:000026CA 11341 0001:000026CD 11342 0001:000026D0 11343 0001:000026D1
 11347 0001:000026D3 11348 0001:000026D4 11352 0001:000026D5 11395 0001:000026E4
 11396 0001:000026F3 11397 0001:000026F5 11399 0001:000026FD 11400 0001:00002715
 11401 0001:00002721 11402 0001:00002722 11403 0001:00002726 11404 0001:00002728
 11406 0001:00002733 11407 0001:0000274B 11408 0001:00002754 11409 0001:00002755
 11410 0001:0000275B 11435 0001:00002778 11440 0001:0000277E 11441 0001:00002781
 11442 0001:00002784 11443 0001:00002787 11445 0001:0000278A 11446 0001:0000278C
 11447 0001:00002791 11448 0001:00002793 11449 0001:00002794 11451 0001:00002795
 11456 0001:00002796 11458 0001:00002797 11481 0001:000027A8 11484 0001:000027B6
 11485 0001:000027D0 11487 0001:000027E1 11488 0001:00002803 11489 0001:00002807
 11491 0001:00002827 11499 0001:0000285C 11501 0001:00002870 11502 0001:00002886
 11504 0001:0000289F 11505 0001:000028B0 11507 0001:000028B7 11510 0001:000028C6
 11513 0001:000028CB 11514 0001:000028D1 11516 0001:000028DC 11517 0001:000028E6
 11518 0001:000028F0 11514 0001:000028F4 11523 0001:000028FF 11525 0001:0000290A
 11526 0001:0000290F 11527 0001:00002914 11538 0001:0000291E 11539 0001:0000292F
 11543 0001:00002934 11545 0001:00002939 11547 0001:0000294A 11550 0001:00002950
 11552 0001:00002958 11554 0001:00002963 11555 0001:0000297A 11568 0001:00002998
 11569 0001:0000299E 11571 0001:000029A3 11578 0001:000029A8 11579 0001:000029B3
 11580 0001:000029C8 11583 0001:000029DD 11533 0001:000029EC 11585 0001:000029F1
 11588 0001:00002A2C 11589 0001:00002A38 11590 0001:00002A40 11591 0001:00002A45
 11601 0001:00002A54 11602 0001:00002A56 11603 0001:00002A5B 11616 0001:00002A64
 11617 0001:00002A65 11618 0001:00002A6A 11619 0001:00002A6C 11620 0001:00002A6D
 11621 0001:00002A73 11625 0001:00002A75 11626 0001:00002A7A 11631 0001:00002A88
 11632 0001:00002A95 11633 0001:00002AA0 11635 0001:00002AB9 11636 0001:00002ACA
 11648 0001:00002AE0 11650 0001:00002AE1 11651 0001:00002AE2 11652 0001:00002AE3
 11653 0001:00002AE8 11654 0001:00002AEA 11655 0001:00002AF0 11656 0001:00002AF3
 11657 0001:00002AF4 11661 0001:00002AF5 11662 0001:00002AF7 11663 0001:00002AF9
 11664 0001:00002AFE 11666 0001:00002B00 11668 0001:00002B04 11669 0001:00002B0A
 11674 0001:00002B0C 11675 0001:00002B0D 11821 0001:00002B24 11822 0001:00002B26
 11823 0001:00002B28 11824 0001:00002B2A 11825 0001:00002B30 11826 0001:00002B33
 11827 0001:00002B34 11828 0001:00002B36 11829 0001:00002B3A 11830 0001:00002B3C
 11831 0001:00002B3D 11832 0001:00002B40 11833 0001:00002B45 11835 0001:00002B46
 11856 0001:00002B50 11857 0001:00002B51 11858 0001:00002B52 11859 0001:00002B54
 11862 0001:00002B56 11863 0001:00002B58 11864 0001:00002B5A 11865 0001:00002B5C
 11866 0001:00002B62 11867 0001:00002B65 11868 0001:00002B66 11869 0001:00002B68
 11870 0001:00002B6C 11871 0001:00002B6E 11872 0001:00002B71 11874 0001:00002B76
 11875 0001:00002B79 11876 0001:00002B7A 11878 0001:00002B7C 11879 0001:00002B7D
 11880 0001:00002B7E 11928 0001:00002B8C 11929 0001:00002B8E 11931 0001:00002B90
 11932 0001:00002B93 11933 0001:00002B94 11935 0001:00002B96 11936 0001:00002B97
 11937 0001:00002B98 11938 0001:00002B9B 11939 0001:00002BA0 11940 0001:00002BA2
 11941 0001:00002BA3 11942 0001:00002BA4 11943 0001:00002BA7 11944 0001:00002BAC
 11945 0001:00002BAD 11946 0001:00002BAE 11949 0001:00002BB0 11951 0001:00002BB4
 11952 0001:00002BB6 11953 0001:00002BB8 11954 0001:00002BBA 11955 0001:00002BBD
 11956 0001:00002BBE 11957 0001:00002BC0 11958 0001:00002BC4 11959 0001:00002BC6
 11960 0001:00002BC9 11962 0001:00002BCE 11981 0001:00002BE0 11982 0001:00002BE2
 11986 0001:00002BE4 11987 0001:00002BE7 11988 0001:00002BE8 11989 0001:00002BEA
 11994 0001:00002BEE 11995 0001:00002BF0 11996 0001:00002BF2 11997 0001:00002BF4
 11998 0001:00002BF7 11999 0001:00002BF8 12000 0001:00002BFA 12001 0001:00002BFE
 12002 0001:00002C00 12003 0001:00002C03 12005 0001:00002C08 12029 0001:00002C10
 12030 0001:00002C12 12031 0001:00002C14 12032 0001:00002C15 12033 0001:00002C18
 12034 0001:00002C1B 12035 0001:00002C1C 12036 0001:00002C21 12037 0001:00002C22
 12038 0001:00002C29 12039 0001:00002C2C 12040 0001:00002C2D 12041 0001:00002C30
 12042 0001:00002C37 12044 0001:00002C38 12045 0001:00002C3A 12054 0001:00002C4C
 12055 0001:00002C4D 12056 0001:00002C4E 12058 0001:00002C4F 12059 0001:00002C51
 12060 0001:00002C53 12064 0001:00002C55 12066 0001:00002C57 12067 0001:00002C5C
 12068 0001:00002C5E 12070 0001:00002C60 12071 0001:00002C62 12073 0001:00002C64
 12074 0001:00002C66 12075 0001:00002C68 12080 0001:00002C6D 12081 0001:00002C6F
 12082 0001:00002C74 12084 0001:00002C76 12085 0001:00002C77 12086 0001:00002C78
 12087 0001:00002C79 12091 0001:00002C8C 12092 0001:00002C98 12093 0001:00002C9F
 12099 0001:00002CAC 12100 0001:00002CB8 12101 0001:00002CBD 12104 0001:00002CCC
 12105 0001:00002CDF 12106 0001:00002CF9 12107 0001:00002D16 12109 0001:00002D1A
 12110 0001:00002D35 12112 0001:00002D3A 12130 0001:00002DCC 12131 0001:00002DE5
 12134 0001:00002DE8 12135 0001:00002DEE 12136 0001:00002DF4 12137 0001:00002DFC
 12141 0001:00002E01 12142 0001:00002E2E 12146 0001:00002E37 12147 0001:00002E3C
 12150 0001:00002E4D 12151 0001:00002E57 12152 0001:00002E5C 12153 0001:00002E61
 12154 0001:00002E66 12161 0001:00002E91 12162 0001:00002E9D 12163 0001:00002EA3
 12165 0001:00002EA9 12166 0001:00002EC8 12169 0001:00002ED6 12170 0001:00002EDC
 12171 0001:00002EDF 12176 0001:00002EE7 12177 0001:00002EEF 12178 0001:00002EF3
 12139 0001:00002EF7 12184 0001:00002EFC 12185 0001:00002F01 12186 0001:00002F09
 12194 0001:00002F7C 12196 0001:00002F97 12198 0001:00002FA9 12199 0001:00002FE4
 12200 0001:00002FEA 12202 0001:00002FEF 12205 0001:0000301A 12209 0001:0000303D
 12215 0001:00003045 12222 0001:00003078 12224 0001:00003093 12226 0001:000030A7
 12227 0001:000030E2 12228 0001:000030E8 12230 0001:000030ED 12233 0001:00003119
 12235 0001:0000313C 12236 0001:00003142 12239 0001:00003151 12245 0001:00003159
 12251 0001:00003188 12252 0001:000031A9 12254 0001:000031AD 12255 0001:000031B5
 12257 0001:000031B7 12259 0001:000031C1 12260 0001:000031D6 12262 0001:000031DA
 12263 0001:000031E8 12267 0001:000031EA 12268 0001:000031F1 12269 0001:000031FB
 12270 0001:0000320F 12271 0001:00003215 12272 0001:0000321F 12277 0001:00003250
 12278 0001:00003251 12279 0001:00003253 12280 0001:00003258 12281 0001:0000325D
 12282 0001:0000325E 12287 0001:00003268 12288 0001:00003269 12289 0001:0000326B
 12290 0001:00003270 12291 0001:00003275 12292 0001:00003276 12297 0001:00003280
 12298 0001:00003282 12299 0001:00003284 12300 0001:00003286 12301 0001:00003287
 12302 0001:00003289 12303 0001:0000328B 12304 0001:0000328E 12305 0001:00003290
 12306 0001:00003293 12307 0001:00003295 12308 0001:00003298 12309 0001:0000329A
 12310 0001:0000329D 12311 0001:0000329F 12312 0001:000032A0 12313 0001:000032A1
 12314 0001:000032A2 12315 0001:000032A4 12316 0001:000032A5 12317 0001:000032A7
 12318 0001:000032AC 12323 0001:000032B8 12324 0001:000032BA 12325 0001:000032BC
 12326 0001:000032BE 12327 0001:000032BF 12328 0001:000032C2 12329 0001:000032C4
 12330 0001:000032C8 12331 0001:000032CA 12332 0001:000032CE 12333 0001:000032D0
 12334 0001:000032D4 12335 0001:000032D6 12336 0001:000032D9 12337 0001:000032DB
 12338 0001:000032DE 12339 0001:000032E1 12340 0001:000032E4 12341 0001:000032E6
 12342 0001:000032E7 12343 0001:000032E9 12344 0001:000032EB 12345 0001:000032F0
 12350 0001:000032FC 12351 0001:000032FE 12352 0001:00003300 12353 0001:00003301
 12354 0001:00003306 12359 0001:0000330C 12360 0001:0000330D 12361 0001:0000330E
 12362 0001:0000330F 12363 0001:00003311 12364 0001:00003313 12365 0001:00003315
 12366 0001:00003317 12367 0001:00003319 12368 0001:0000331A 12369 0001:0000331C
 12370 0001:0000331D 12371 0001:0000331E 12372 0001:00003323 12398 0001:00003338
 12399 0001:0000333A 12400 0001:0000333C 12401 0001:0000333E 12402 0001:00003341
 12403 0001:00003343 12404 0001:00003348 12413 0001:00003350 12414 0001:00003351
 12415 0001:00003353 12416 0001:00003355 12417 0001:00003358 12418 0001:0000335A
 12420 0001:0000335C 12421 0001:0000335E 12422 0001:00003360 12424 0001:00003362
 12425 0001:00003364 12427 0001:00003365 12428 0001:00003366 12430 0001:0000336B
 12433 0001:0000336D 12436 0001:00003370 12437 0001:00003371 12450 0001:0000337C
 12451 0001:0000337E 12452 0001:00003380 12454 0001:00003383 12463 0001:0000338C
 12464 0001:0000338E 12466 0001:00003390 12467 0001:00003392 12468 0001:00003394
 12470 0001:0000339A 12471 0001:0000339B 12472 0001:0000339C 12473 0001:0000339D
 12474 0001:0000339F 12475 0001:000033A1 12477 0001:000033A4 12478 0001:000033A7
 12479 0001:000033A9 12480 0001:000033AB 12482 0001:000033AD 12483 0001:000033B2
 12484 0001:000033B4 12487 0001:000033B7 12488 0001:000033B9 12489 0001:000033BB
 12490 0001:000033C0 12491 0001:000033C1 12492 0001:000033C2 12493 0001:000033C3
 12496 0001:000033C4 12497 0001:000033C9 12498 0001:000033CB 12499 0001:000033CD
 12502 0001:000033CF 12511 0001:000033E4 12512 0001:000033E6 12514 0001:000033E8
 12515 0001:000033EA 12517 0001:000033F0 12518 0001:000033F2 12520 0001:000033F4
 12521 0001:000033F6 12523 0001:000033F8 12524 0001:000033F9 12525 0001:000033FA
 12527 0001:000033FF 12528 0001:00003400 12529 0001:00003401 12533 0001:00003406
 12534 0001:00003407 12535 0001:00003408 12537 0001:00003409 12538 0001:0000340B
 12539 0001:0000340D 12541 0001:0000340E 12542 0001:00003411 12543 0001:00003414
 12545 0001:00003419 12546 0001:0000341B 12547 0001:0000341D 12548 0001:0000341F
 12549 0001:00003422 12551 0001:00003427 12552 0001:00003429 12553 0001:0000342B
 12554 0001:0000342E 12555 0001:00003431 12557 0001:00003436 12558 0001:00003437
 12559 0001:00003439 12560 0001:0000343B 12561 0001:0000343D 12563 0001:00003440
 12565 0001:00003445 12566 0001:00003446 12567 0001:00003447 12569 0001:00003448
 12572 0001:00003449 12573 0001:0000344B 12576 0001:00003450 12577 0001:00003452
 12580 0001:00003457 12589 0001:00003478 12590 0001:00003479 12591 0001:0000347A
 12592 0001:0000347B 12593 0001:0000347C 12594 0001:0000347D 12596 0001:0000347F
 12597 0001:00003481 12598 0001:00003485 12599 0001:00003487 12600 0001:00003489
 12601 0001:0000348B 12602 0001:0000348D 12603 0001:0000348F 12604 0001:00003492
 12605 0001:00003493 12607 0001:00003495 12609 0001:00003497 12610 0001:0000349B
 12611 0001:0000349D 12612 0001:0000349F 12613 0001:000034A2 12614 0001:000034A4
 12615 0001:000034A6 12617 0001:000034A8 12618 0001:000034A9 12621 0001:000034AB
 12622 0001:000034AD 12623 0001:000034AF 12624 0001:000034B1 12625 0001:000034B4
 12626 0001:000034B7 12627 0001:000034BC 12628 0001:000034BF 12629 0001:000034C1
 12630 0001:000034C3 12631 0001:000034C4 12634 0001:000034C6 12635 0001:000034CB
 12636 0001:000034CC 12639 0001:000034CE 12640 0001:000034D2 12641 0001:000034D4
 12642 0001:000034D6 12643 0001:000034D8 12644 0001:000034DB 12645 0001:000034DD
 12647 0001:000034E2 12648 0001:000034E3 12650 0001:000034E5 12651 0001:000034E6
 12652 0001:000034E7 12653 0001:000034E9 12655 0001:000034EB 12656 0001:000034ED
 12657 0001:000034EF 12659 0001:000034F2 12662 0001:000034F7 12663 0001:000034F8
 12664 0001:000034F9 12665 0001:000034FA 12666 0001:000034FB 12667 0001:000034FC
 12668 0001:000034FF 12669 0001:00003501 12677 0001:00003524 12678 0001:00003525
 12679 0001:00003526 12681 0001:00003527 12682 0001:00003529 12684 0001:0000352B
 12685 0001:0000352D 12687 0001:00003533 12688 0001:00003535 12690 0001:00003537
 12691 0001:00003539 12693 0001:0000353B 12694 0001:0000353E 12696 0001:00003541
 12697 0001:00003543 12698 0001:00003545 12701 0001:00003547 12702 0001:00003548
 12703 0001:0000354B 12705 0001:0000354D 12706 0001:0000354F 12707 0001:00003551
 12708 0001:00003553 12709 0001:00003555 12710 0001:00003556 12711 0001:00003558
 12712 0001:0000355B 12713 0001:0000355E 12714 0001:00003560 12715 0001:00003562
 12716 0001:00003565 12717 0001:00003568 12718 0001:00003569 12719 0001:0000356B
 12721 0001:0000356D 12722 0001:00003570 12724 0001:00003573 12725 0001:00003574
 12726 0001:00003577 12728 0001:00003579 12729 0001:0000357B 12730 0001:0000357D
 12731 0001:0000357F 12732 0001:00003581 12733 0001:00003582 12734 0001:00003584
 12735 0001:00003586 12736 0001:00003588 12737 0001:00003589 12738 0001:0000358B
 12739 0001:00003591 12740 0001:00003597 12741 0001:00003599 12744 0001:0000359B
 12745 0001:0000359D 12748 0001:0000359F 12749 0001:000035A2 12750 0001:000035A4
 12753 0001:000035A6 12754 0001:000035A9 12755 0001:000035AB 12758 0001:000035AD
 12759 0001:000035AE 12760 0001:000035B0 12761 0001:000035B2 12762 0001:000035B4
 12763 0001:000035B6 12764 0001:000035B9 12765 0001:000035BC 12766 0001:000035BE
 12767 0001:000035C0 12770 0001:000035C2 12771 0001:000035C3 12772 0001:000035C4
 12774 0001:000035C5 12790 0001:000035E0 12791 0001:000035E2 12792 0001:000035E4
 12793 0001:000035E7 12794 0001:000035E8 12795 0001:000035EA 12797 0001:000035EE
 12801 0001:000035F4 12802 0001:00003600 12803 0001:00003606 12820 0001:00003618
 12821 0001:0000361A 12822 0001:0000361C 12825 0001:0000361D 12832 0001:00003622
 12839 0001:0000362C 12840 0001:0000362E 12841 0001:00003630 12842 0001:00003632
 12843 0001:00003635 12844 0001:00003636 12846 0001:00003638 12847 0001:00003639
 12848 0001:0000363B 12849 0001:0000363E 12850 0001:00003643 12851 0001:00003645
 12852 0001:00003647 12853 0001:00003649 12854 0001:0000364A 12855 0001:0000364D
 12856 0001:00003652 12857 0001:00003653 12858 0001:00003656 12859 0001:00003657
 12860 0001:00003659 12861 0001:0000365D 12862 0001:0000365F 12863 0001:00003662
 12865 0001:00003667 12866 0001:00003669 12868 0001:0000366A 12869 0001:0000366C
 12874 0001:0000367C 12875 0001:00003681 12879 0001:00003688 12880 0001:0000368D
 12895 0001:00003694 12900 0001:00003699 12909 0001:000036A0 12911 0001:000036A1
 12912 0001:000036A3 12914 0001:000036A5 12915 0001:000036A8 12916 0001:000036AA
 12920 0001:000036AC 12921 0001:000036AD 12922 0001:000036AF 12923 0001:000036B1
 12929 0001:000036B3 12930 0001:000036B5 12931 0001:000036B7 12932 0001:000036B9
 12933 0001:000036BB 12937 0001:000036BD 12938 0001:000036BF 12939 0001:000036C3
 12940 0001:000036C8 12943 0001:000036CA 12944 0001:000036CC 12946 0001:000036CE
 12947 0001:000036D0 12951 0001:000036D2 12952 0001:000036D6 12954 0001:000036DB
 12955 0001:000036DC 12956 0001:000036DF 12965 0001:000036EC 12966 0001:000036ED
 12967 0001:000036EE 12969 0001:000036EF 12970 0001:000036F1 12971 0001:000036F3
 12973 0001:000036F5 12975 0001:000036FA 12976 0001:000036FC 12977 0001:000036FE
 12979 0001:00003700 12983 0001:00003703 12984 0001:00003704 12985 0001:00003706
 12986 0001:00003708 12990 0001:0000370A 12991 0001:0000370C 12992 0001:0000370E
 12993 0001:00003710 12994 0001:00003712 12995 0001:00003714 13000 0001:00003716
 13001 0001:00003718 13002 0001:0000371A 13003 0001:0000371D 13007 0001:00003722
 13008 0001:00003724 13009 0001:00003726 13010 0001:00003729 13011 0001:0000372B
 13014 0001:00003730 13015 0001:00003731 13016 0001:00003732 13017 0001:00003733
 13026 0001:00003748 13027 0001:0000374A 13029 0001:0000374C 13030 0001:0000374D
 13031 0001:0000374E 13032 0001:0000374F 13034 0001:00003750 13035 0001:00003752
 13036 0001:00003754 13040 0001:00003756 13041 0001:00003758 13042 0001:00003759
 13043 0001:0000375B 13044 0001:0000375D 13046 0001:00003760 13047 0001:00003761
 13048 0001:00003763 13050 0001:00003765 13051 0001:00003767 13052 0001:00003769
 13055 0001:0000376B 13059 0001:0000376E 13060 0001:00003770 13061 0001:00003772
 13062 0001:00003777 13064 0001:00003778 13065 0001:0000377A 13066 0001:0000377C
 13072 0001:0000377E 13073 0001:00003780 13074 0001:00003783 13075 0001:00003786
 13076 0001:00003788 13077 0001:0000378A 13078 0001:0000378C 13082 0001:00003791
 13083 0001:00003793 13084 0001:00003795 13085 0001:00003797 13086 0001:00003799
 13089 0001:0000379E 13090 0001:0000379F 13091 0001:000037A0 13092 0001:000037A1
 13094 0001:000037A2 13103 0001:000037BC 13104 0001:000037BE 13106 0001:000037C0
 13107 0001:000037C2 13109 0001:000037C4 13110 0001:000037C5 13111 0001:000037C6
 13113 0001:000037C7 13114 0001:000037C9 13116 0001:000037CB 13118 0001:000037CE
 13120 0001:000037CF 13122 0001:000037D2 13123 0001:000037D3 13124 0001:000037D5
 13125 0001:000037D7 13127 0001:000037D8 13129 0001:000037DA 13131 0001:000037DC
 13132 0001:000037DE 13133 0001:000037E0 13134 0001:000037E2 13135 0001:000037E3
 13137 0001:000037E4 13138 0001:000037E6 13139 0001:000037E8 13140 0001:000037E9
 13141 0001:000037EA 13142 0001:000037EC 13143 0001:000037EE 13146 0001:000037F0
 13147 0001:000037F1 13148 0001:000037F3 13151 0001:000037F5 13152 0001:000037F7
 13155 0001:000037F8 13156 0001:000037F9 13157 0001:000037FB 13159 0001:000037FD
 13160 0001:000037FE 13161 0001:000037FF 13163 0001:00003800 13171 0001:00003820
 13172 0001:00003821 13173 0001:00003822 13174 0001:00003823 13175 0001:00003825
 13176 0001:00003827 13178 0001:00003829 13179 0001:0000382B 13181 0001:0000382D
 13182 0001:0000382F 13183 0001:00003831 13185 0001:00003833 13186 0001:00003837
 13188 0001:00003839 13189 0001:0000383C 13190 0001:0000383F 13191 0001:00003840
 13192 0001:00003842 13193 0001:00003847 13194 0001:00003848 13195 0001:0000384B
 13196 0001:0000384D 13197 0001:00003850 13198 0001:00003854 13201 0001:00003856
 13202 0001:00003858 13203 0001:0000385D 13205 0001:0000385F 13206 0001:00003861
 13207 0001:00003863 13209 0001:00003865 13210 0001:00003867 13211 0001:0000386A
 13212 0001:0000386C 13213 0001:0000386E 13216 0001:00003870 13219 0001:00003875
 13220 0001:00003877 13221 0001:0000387C 13224 0001:0000387E 13225 0001:0000387F
 13226 0001:00003880 13227 0001:00003881 13236 0001:00003898 13237 0001:00003899
 13238 0001:0000389A 13240 0001:0000389B 13241 0001:0000389D 13242 0001:0000389F
 13244 0001:000038A1 13245 0001:000038A3 13247 0001:000038A8 13248 0001:000038AA
 13250 0001:000038AC 13251 0001:000038AE 13253 0001:000038B3 13255 0001:000038B5
 13256 0001:000038B7 13258 0001:000038B9 13261 0001:000038BE 13262 0001:000038BF
 13263 0001:000038C0 13265 0001:000038C1 13289 0001:000038D4 13291 0001:000038D5
 13293 0001:000038D7 13294 0001:000038D9 13295 0001:000038DB 13296 0001:000038DD
 13297 0001:000038DF 13298 0001:000038E2 13300 0001:000038E4 13301 0001:000038E5
 13302 0001:000038EA 13304 0001:000038EB 13305 0001:000038ED 13306 0001:000038EE
 13307 0001:000038F3 13370 0001:00003904 13371 0001:00003910 13372 0001:00003917
 13399 0001:00003924 13400 0001:00003926 13401 0001:00003928 13402 0001:0000392A
 13403 0001:0000392B 13404 0001:0000392D 13405 0001:00003932 13415 0001:00003933
 13422 0001:00003940 13423 0001:00003945 13445 0001:0000394C 13446 0001:00003951
 13472 0001:00003958 13473 0001:0000395D 13496 0001:00003964 13497 0001:00003969
 13509 0001:00003970 13510 0001:00003991 13512 0001:00003995 13513 0001:0000399D
 13515 0001:0000399F 13517 0001:000039A9 13518 0001:000039BE 13520 0001:000039C2
 13521 0001:000039D0 13525 0001:000039D2 13526 0001:000039D5 13527 0001:000039DF
 13528 0001:000039F3 13529 0001:000039F9 13530 0001:00003A03 13536 0001:00003A34
 13537 0001:00003A4C 13538 0001:00003A52 13540 0001:00003A56 13541 0001:00003A5F
 13542 0001:00003A65 13545 0001:00003A75 13546 0001:00003A79 13547 0001:00003A82
 13576 0001:00003AA0 13577 0001:00003AA1 13578 0001:00003AA3 13579 0001:00003AA8
 13580 0001:00003AAD 13581 0001:00003AAE 13628 0001:00003AB8 13629 0001:00003ABA
 13630 0001:00003ABC 13631 0001:00003ABE 13632 0001:00003ABF 13633 0001:00003AC2
 13634 0001:00003AC4 13635 0001:00003AC8 13636 0001:00003ACA 13637 0001:00003ACE
 13638 0001:00003AD0 13639 0001:00003AD4 13640 0001:00003AD6 13641 0001:00003AD9
 13642 0001:00003ADB 13643 0001:00003ADE 13644 0001:00003AE1 13645 0001:00003AE4
 13646 0001:00003AE6 13647 0001:00003AE7 13648 0001:00003AE9 13649 0001:00003AEB
 13650 0001:00003AF0 13682 0001:00003AFC 13683 0001:00003AFD 13684 0001:00003AFE
 13685 0001:00003AFF 13686 0001:00003B01 13687 0001:00003B03 13688 0001:00003B06
 13689 0001:00003B08 13690 0001:00003B0A 13691 0001:00003B0B 13692 0001:00003B0D
 13693 0001:00003B0E 13694 0001:00003B0F 13695 0001:00003B14 13700 0001:00003B28
 13701 0001:00003B2A 13702 0001:00003B2C 13703 0001:00003B2E 13704 0001:00003B31
 13705 0001:00003B36 13742 0001:00003B3C 13743 0001:00003B3E 13744 0001:00003B40
 13746 0001:00003B41 13752 0001:00003B46 13767 0001:00003B50 13768 0001:00003B52
 13769 0001:00003B54 13770 0001:00003B57 13772 0001:00003B59 13779 0001:00003B60
 13780 0001:00003B78 13781 0001:00003B83 13783 0001:00003B87 13784 0001:00003B93
 13785 0001:00003B9F 13786 0001:00003BA3 13787 0001:00003BB5 13788 0001:00003BC9
 13790 0001:00003BD5 13816 0001:00003BF4 13817 0001:00003BF5 13818 0001:00003BF6
 13819 0001:00003BF7 13820 0001:00003BF8 13822 0001:00003BFA 13824 0001:00003BFC
 13825 0001:00003C00 13826 0001:00003C02 13827 0001:00003C04 13829 0001:00003C07
 13830 0001:00003C08 13832 0001:00003C0A 13833 0001:00003C0C 13834 0001:00003C11
 13835 0001:00003C12 13838 0001:00003C14 13839 0001:00003C18 13840 0001:00003C1A
 13841 0001:00003C1C 13842 0001:00003C1E 13843 0001:00003C21 13844 0001:00003C23
 13846 0001:00003C28 13847 0001:00003C29 13849 0001:00003C2B 13850 0001:00003C2C
 13851 0001:00003C2D 13853 0001:00003C32 13854 0001:00003C33 13855 0001:00003C34
 13856 0001:00003C35 13857 0001:00003C36 13858 0001:00003C39 13859 0001:00003C3B
 13866 0001:00003C58 13867 0001:00003C59 13868 0001:00003C5A 13870 0001:00003C5B
 13871 0001:00003C5D 13873 0001:00003C5F 13874 0001:00003C61 13876 0001:00003C63
 13877 0001:00003C65 13879 0001:00003C67 13880 0001:00003C69 13882 0001:00003C6B
 13883 0001:00003C6E 13885 0001:00003C71 13886 0001:00003C73 13887 0001:00003C75
 13890 0001:00003C77 13891 0001:00003C78 13892 0001:00003C7B 13894 0001:00003C7D
 13895 0001:00003C7F 13896 0001:00003C81 13897 0001:00003C83 13898 0001:00003C85
 13899 0001:00003C86 13900 0001:00003C88 13901 0001:00003C8B 13902 0001:00003C8E
 13903 0001:00003C90 13904 0001:00003C92 13905 0001:00003C95 13906 0001:00003C98
 13907 0001:00003C99 13908 0001:00003C9B 13910 0001:00003C9D 13911 0001:00003CA0
 13913 0001:00003CA3 13914 0001:00003CA4 13915 0001:00003CA7 13917 0001:00003CA9
 13918 0001:00003CAC 13919 0001:00003CAF 13920 0001:00003CB2 13923 0001:00003CB4
 13924 0001:00003CB6 13927 0001:00003CB8 13928 0001:00003CBB 13929 0001:00003CBD
 13932 0001:00003CBF 13933 0001:00003CC2 13934 0001:00003CC4 13937 0001:00003CC6
 13938 0001:00003CC7 13939 0001:00003CCA 13940 0001:00003CCC 13941 0001:00003CCF
 13942 0001:00003CD2 13945 0001:00003CD5 13946 0001:00003CD6 13947 0001:00003CD7
 13948 0001:00003CD8 13954 0001:00003CF4 13955 0001:00003D0F 13956 0001:00003D1A
 13958 0001:00003D23 13959 0001:00003D24 13961 0001:00003D2C 13963 0001:00003D36
 13964 0001:00003D3B 13966 0001:00003D43 13967 0001:00003D53 14096 0001:00003D64
 14097 0001:00003D7A 14098 0001:00003D7C 14100 0001:00003D80 14101 0001:00003D89
 14102 0001:00003D97 14104 0001:00003D9E 14105 0001:00003DA8 14108 0001:00003DBA
 14109 0001:00003DC4 14128 0001:00003DE4 14129 0001:00003DE9 14196 0001:00003DF0
 14198 0001:00003DF2 14199 0001:00003DF3 14201 0001:00003DF6 14202 0001:00003DF7
 14204 0001:00003DF8 14205 0001:00003DFA 14206 0001:00003DFE 14210 0001:00003E02
 14211 0001:00003E04 14212 0001:00003E07 14213 0001:00003E09 14214 0001:00003E0B
 14215 0001:00003E10 14216 0001:00003E15 14217 0001:00003E18 14218 0001:00003E19
 14220 0001:00003E1B 14221 0001:00003E1C 14222 0001:00003E1D 14223 0001:00003E1E
 14290 0001:00003E30 14291 0001:00003E32 14293 0001:00003E38 14294 0001:00003E39
 14295 0001:00003E3A 14296 0001:00003E3B 14297 0001:00003E3D 14298 0001:00003E3F
 14300 0001:00003E41 14301 0001:00003E43 14302 0001:00003E45 14303 0001:00003E48
 14305 0001:00003E4A 14306 0001:00003E4C 14307 0001:00003E4E 14308 0001:00003E50
 14309 0001:00003E52 14310 0001:00003E54 14311 0001:00003E56 14312 0001:00003E58
 14313 0001:00003E5A 14314 0001:00003E5C 14315 0001:00003E5E 14316 0001:00003E60
 14317 0001:00003E62 14318 0001:00003E64 14319 0001:00003E66 14320 0001:00003E68
 14321 0001:00003E69 14322 0001:00003E6A 14323 0001:00003E6B 14329 0001:00003E70
 14330 0001:00003E72 14331 0001:00003E75 14332 0001:00003E76 14333 0001:00003E78
 14336 0001:00003E7A 14337 0001:00003E7C 14338 0001:00003E7F 14339 0001:00003E82
 14340 0001:00003E85 14341 0001:00003E88 14342 0001:00003E89 14343 0001:00003E8B
 14346 0001:00003E8D 14347 0001:00003E8E 14349 0001:00003E90 14350 0001:00003E94
 14351 0001:00003E96 14352 0001:00003E9A 14353 0001:00003E9E 14354 0001:00003EA0
 14355 0001:00003EA5 14356 0001:00003EA6 14357 0001:00003EA8 14358 0001:00003EA9
 14361 0001:00003EAB 14362 0001:00003EAC 14364 0001:00003EAE 14365 0001:00003EB0
 14366 0001:00003EB4 14367 0001:00003EB6 14368 0001:00003EBB 14369 0001:00003EBC
 14370 0001:00003EBE 14374 0001:00003EBF 14375 0001:00003EC0 14376 0001:00003EC1
 14378 0001:00003EC2 14388 0001:00003EE4 14389 0001:00003EE9 14390 0001:00003EEE
 14408 0001:00003EF4 14410 0001:00003EF6 14411 0001:00003EF7 14413 0001:00003EFA
 14414 0001:00003EFB 14416 0001:00003EFC 14417 0001:00003EFE 14418 0001:00003F02
 14422 0001:00003F06 14423 0001:00003F08 14424 0001:00003F0B 14425 0001:00003F0D
 14426 0001:00003F0F 14427 0001:00003F14 14428 0001:00003F19 14429 0001:00003F1C
 14430 0001:00003F1D 14432 0001:00003F1F 14434 0001:00003F21 14435 0001:00003F22
 14436 0001:00003F23 14437 0001:00003F24 14505 0001:00003F38 14506 0001:00003F3B
 14508 0001:00003F41 14509 0001:00003F42 14510 0001:00003F43 14511 0001:00003F44
 14512 0001:00003F45 14513 0001:00003F47 14514 0001:00003F49 14516 0001:00003F4B
 14517 0001:00003F4D 14518 0001:00003F4F 14520 0001:00003F52 14521 0001:00003F54
 14523 0001:00003F56 14524 0001:00003F58 14526 0001:00003F5A 14527 0001:00003F5C
 14529 0001:00003F5E 14530 0001:00003F60 14532 0001:00003F62 14533 0001:00003F64
 14535 0001:00003F66 14536 0001:00003F68 14538 0001:00003F6E 14539 0001:00003F70
 14541 0001:00003F76 14544 0001:00003F7B 14545 0001:00003F7E 14546 0001:00003F80
 14547 0001:00003F82 14548 0001:00003F87 14550 0001:00003F8C 14551 0001:00003F8E
 14552 0001:00003F93 14555 0001:00003F98 14556 0001:00003F9B 14557 0001:00003F9D
 14558 0001:00003F9F 14559 0001:00003FA4 14561 0001:00003FA6 14562 0001:00003FA8
 14563 0001:00003FAD 14565 0001:00003FAF 14566 0001:00003FB1 14567 0001:00003FB4
 14568 0001:00003FB9 14569 0001:00003FBA 14570 0001:00003FBC 14572 0001:00003FBE
 14573 0001:00003FBF 14575 0001:00003FC1 14576 0001:00003FC5 14577 0001:00003FC7
 14578 0001:00003FCB 14579 0001:00003FCF 14580 0001:00003FD1 14581 0001:00003FD6
 14582 0001:00003FD7 14583 0001:00003FD9 14584 0001:00003FDA 14587 0001:00003FDC
 14588 0001:00003FDD 14592 0001:00003FDF 14593 0001:00003FE1 14594 0001:00003FE5
 14595 0001:00003FE7 14596 0001:00003FEC 14597 0001:00003FED 14598 0001:00003FEF
 14599 0001:00003FF0 14602 0001:00003FF2 14603 0001:00003FF4 14604 0001:00003FF7
 14605 0001:00003FFC 14606 0001:00003FFD 14607 0001:00003FFF 14610 0001:00004001
 14611 0001:00004003 14612 0001:00004005 14613 0001:00004008 14614 0001:0000400D
 14615 0001:0000400E 14616 0001:00004010 14619 0001:00004012 14620 0001:00004013
 14621 0001:00004014 14622 0001:00004015 14623 0001:00004016 14624 0001:00004018
 14627 0001:0000401D 14628 0001:0000401E 14629 0001:0000401F 14630 0001:00004020
 14632 0001:00004021 14642 0001:00004048 14643 0001:0000404D 14644 0001:00004052
 14819 0001:00004058 14820 0001:00004059 14821 0001:0000405A 14822 0001:0000405B
 14824 0001:0000405C 14825 0001:0000405E 14827 0001:00004060 14828 0001:00004062
 14830 0001:00004065 14831 0001:00004069 14832 0001:0000406C 14833 0001:0000406E
 14834 0001:00004071 14836 0001:00004072 14837 0001:00004075 14838 0001:00004077
 14839 0001:00004079 14840 0001:0000407B 14841 0001:0000407D 14842 0001:0000407F
 14844 0001:00004084 14846 0001:00004087 14847 0001:00004089 14848 0001:0000408B
 14850 0001:0000408D 14851 0001:00004090 14852 0001:00004092 14853 0001:00004095
 14854 0001:00004097 14855 0001:0000409A 14856 0001:0000409C 14857 0001:0000409F
 14858 0001:000040A1 14859 0001:000040A4 14860 0001:000040A6 14861 0001:000040A9
 14862 0001:000040AF 14863 0001:000040B2 14864 0001:000040B8 14865 0001:000040BA
 14866 0001:000040BB 14867 0001:000040BC 14868 0001:000040BD 14869 0001:000040BE
 14872 0001:000040C3 14873 0001:000040C6 14874 0001:000040C8 14875 0001:000040CD
 14876 0001:000040D2 14879 0001:000040D4 14880 0001:000040D7 14881 0001:000040D9
 14882 0001:000040DE 14883 0001:000040E3 14886 0001:000040E5 14887 0001:000040E8
 14888 0001:000040EA 14889 0001:000040EF 14890 0001:000040F4 14893 0001:000040F6
 14894 0001:000040F8 14895 0001:000040FB 14896 0001:000040FF 14897 0001:00004103
 14898 0001:00004107 14899 0001:00004109 14900 0001:0000410C 14901 0001:0000410E
 14902 0001:00004113 14903 0001:00004114 14906 0001:00004116 14907 0001:00004118
 14908 0001:0000411B 14909 0001:0000411F 14910 0001:00004120 14911 0001:00004122
 14912 0001:00004125 14913 0001:00004127 14914 0001:0000412C 14915 0001:0000412D
 14918 0001:0000412F 14919 0001:00004132 14920 0001:00004134 14921 0001:00004139
 14922 0001:0000413E 14925 0001:00004140 14926 0001:00004142 14927 0001:00004145
 14928 0001:00004147 14929 0001:0000414C 14932 0001:00004151 14933 0001:00004154
 14934 0001:00004157 14935 0001:00004158 14937 0001:0000415E 14938 0001:0000415F
 14939 0001:00004161 14940 0001:00004163 14941 0001:00004166 14942 0001:00004168
 14945 0001:0000416D 14946 0001:0000416E 14947 0001:0000416F 14948 0001:00004170
 14949 0001:00004171 14976 0001:000041A0 14977 0001:000041A1 14978 0001:000041A2
 14979 0001:000041A3 14981 0001:000041A4 14982 0001:000041A6 14983 0001:000041A8
 14984 0001:000041AA 14986 0001:000041AE 14988 0001:000041B0 14989 0001:000041B3
 14990 0001:000041B5 14991 0001:000041B8 14992 0001:000041BA 14993 0001:000041BD
 14994 0001:000041BF 14995 0001:000041C2 14996 0001:000041C4 14997 0001:000041C7
 14998 0001:000041C9 14999 0001:000041CC 15000 0001:000041D2 15001 0001:000041D5
 15002 0001:000041DB 15003 0001:000041DD 15004 0001:000041DE 15005 0001:000041DF
 15006 0001:000041E0 15007 0001:000041E1 15010 0001:000041E6 15011 0001:000041E8
 15012 0001:000041EA 15013 0001:000041EF 15014 0001:000041F2 15015 0001:000041F5
 15016 0001:000041F6 15017 0001:000041F8 15020 0001:000041FD 15021 0001:000041FF
 15022 0001:00004201 15023 0001:00004206 15024 0001:00004209 15025 0001:0000420C
 15026 0001:0000420D 15027 0001:0000420F 15030 0001:00004211 15031 0001:00004213
 15032 0001:00004215 15033 0001:0000421A 15034 0001:0000421D 15035 0001:00004220
 15036 0001:00004221 15037 0001:00004223 15040 0001:00004225 15041 0001:00004227
 15042 0001:0000422A 15044 0001:0000422E 15045 0001:00004230 15046 0001:00004232
 15047 0001:00004235 15048 0001:00004238 15049 0001:0000423D 15050 0001:0000423F
 15051 0001:00004241 15052 0001:00004242 15053 0001:00004244 15056 0001:00004246
 15057 0001:00004248 15058 0001:0000424A 15059 0001:0000424C 15060 0001:00004251
 15061 0001:00004253 15062 0001:00004256 15063 0001:0000425A 15064 0001:0000425E
 15065 0001:0000425F 15066 0001:00004261 15069 0001:00004263 15070 0001:00004265
 15071 0001:00004267 15072 0001:0000426C 15073 0001:0000426F 15074 0001:00004272
 15075 0001:00004273 15076 0001:00004275 15079 0001:00004277 15080 0001:00004279
 15081 0001:0000427B 15082 0001:0000427D 15083 0001:00004282 15084 0001:00004285
 15085 0001:00004288 15086 0001:00004289 15089 0001:0000428B 15090 0001:0000428C
 15091 0001:0000428D 15092 0001:0000428E 15093 0001:0000428F 15094 0001:00004292
 15109 0001:000042B8 15110 0001:000042B9 15111 0001:000042BE 15112 0001:000042BF
 15113 0001:000042C1 15114 0001:000042C3 15115 0001:000042C4 15116 0001:000042C9
 15118 0001:000042CA 15132 0001:000042D8 15133 0001:000042D9 15134 0001:000042DE
 15135 0001:000042DF 15136 0001:000042E4 15186 0001:000042F0 15187 0001:00004300
 15188 0001:00004305 15189 0001:0000431A 15200 0001:00004330 15201 0001:00004332
 15202 0001:00004337 15205 0001:00004340 15206 0001:0000434C 15209 0001:0000435B
 15211 0001:00004360 15219 0001:0000436C 15220 0001:00004378 15221 0001:0000437E
 15222 0001:00004380 15221 0001:0000438A 15223 0001:0000438F 15224 0001:0000439B
 15227 0001:000043A8 15228 0001:000043B6 15229 0001:000043C5 15232 0001:000043DC
 15233 0001:000043EA 15234 0001:000043F9 15271 0001:00004410 15272 0001:0000441C
 15277 0001:00004422 15281 0001:00004430 15282 0001:0000443C 15287 0001:00004442
 15311 0001:00004450 15312 0001:0000445C 15317 0001:00004462 15321 0001:00004470
 15322 0001:0000447F 15327 0001:00004493 15331 0001:000044A8 15332 0001:000044B4
 15337 0001:000044BA 15341 0001:000044C8 15342 0001:000044D7 15347 0001:000044E4
 15351 0001:000044F8 15352 0001:00004507 15357 0001:00004514 15371 0001:00004528
 15372 0001:00004534 15377 0001:0000453A 15381 0001:00004548 15382 0001:00004554
 15387 0001:0000455A 15391 0001:00004568 15392 0001:00004574 15397 0001:0000457A
 15401 0001:00004588 15402 0001:00004594 15407 0001:0000459A 15421 0001:000045A8
 15422 0001:000045B7 15427 0001:000045BF 15430 0001:000045D0 15431 0001:000045DF
 15432 0001:000045EB 15436 0001:000045F4 15437 0001:00004600 15442 0001:00004606
 15447 0001:00004614 15448 0001:00004615 15449 0001:00004616 15450 0001:0000461B
 15451 0001:0000461C 15452 0001:00004622 15453 0001:00004625 15454 0001:00004628
 15458 0001:00004629 15479 0001:00004638 15480 0001:00004639 15481 0001:0000463A
 15482 0001:0000463F 15483 0001:00004640 15484 0001:00004646 15485 0001:00004649
 15486 0001:0000464C 15490 0001:0000464D 15494 0001:0000465C 15495 0001:00004668
 15500 0001:0000466E 15504 0001:0000467C 15505 0001:00004688 15510 0001:0000468E
 15514 0001:0000469C 15515 0001:000046A8 15520 0001:000046AE 15524 0001:000046BC
 15525 0001:000046C8 15530 0001:000046CE 15534 0001:000046DC 15535 0001:000046E8
 15540 0001:000046EE 15784 0001:000046FC 15785 0001:00004708 15790 0001:0000470E
 15794 0001:0000471C 15795 0001:00004728 15800 0001:0000472E 15820 0001:0000473C
 15821 0001:0000473D 15822 0001:00004742 15823 0001:00004743 15853 0001:00004750
 15854 0001:00004752 15855 0001:00004757 15938 0001:00004760 15939 0001:00004761
 15944 0001:00004762 15945 0001:00004766 15946 0001:00004769 15948 0001:0000476B
 15949 0001:0000476F 15950 0001:00004773 15952 0001:00004775 15953 0001:00004778
 15954 0001:0000477C 15956 0001:0000477E 15957 0001:0000477F 15959 0001:00004780
 15960 0001:00004783 16014 0001:00004794 16015 0001:00004795 16016 0001:00004796
 16017 0001:00004797 16018 0001:00004798 16020 0001:0000479A 16021 0001:0000479E
 16023 0001:000047A2 16024 0001:000047A4 16026 0001:000047A6 16027 0001:000047A8
 16029 0001:000047AA 16030 0001:000047AC 16043 0001:000047AE 16044 0001:000047B0
 16045 0001:000047B2 16046 0001:000047B4 16047 0001:000047B6 16048 0001:000047B9
 16051 0001:000047BC 16052 0001:000047BE 16053 0001:000047C0 16054 0001:000047C2
 16055 0001:000047C4 16056 0001:000047C7 16059 0001:000047CA 16060 0001:000047CC
 16061 0001:000047D1 16073 0001:000047D2 16074 0001:000047D4 16077 0001:000047D6
 16078 0001:000047D8 16079 0001:000047DA 16080 0001:000047DC 16081 0001:000047DE
 16082 0001:000047E0 16083 0001:000047E2 16084 0001:000047E4 16085 0001:000047E6
 16088 0001:000047E8 16089 0001:000047EA 16090 0001:000047EC 16093 0001:000047ED
 16100 0001:000047EF 16101 0001:000047F0 16102 0001:000047F6 16103 0001:000047F8
 16104 0001:000047FA 16105 0001:000047FC 16108 0001:000047FF 16109 0001:00004800
 16110 0001:00004801 16111 0001:00004802 16112 0001:00004803 16115 0001:00004806
 16116 0001:00004808 16117 0001:0000480A 16118 0001:0000480C 16174 0001:00004828
 16175 0001:00004829 16176 0001:0000482A 16177 0001:0000482B 16193 0001:0000482C
 16194 0001:00004830 16196 0001:00004834 16197 0001:00004836 16199 0001:00004838
 16200 0001:0000483A 16202 0001:0000483C 16203 0001:0000483E 16208 0001:00004840
 16209 0001:00004842 16210 0001:00004847 16211 0001:00004849 16214 0001:0000484B
 16215 0001:0000484D 16216 0001:0000484F 16217 0001:00004851 16218 0001:00004853
 16219 0001:00004855 16220 0001:00004857 16221 0001:00004859 16222 0001:0000485B
 16225 0001:0000485D 16226 0001:0000485F 16227 0001:00004861 16230 0001:00004862
 16239 0001:00004864 16240 0001:00004865 16241 0001:00004866 16242 0001:00004867
 16243 0001:00004868 16246 0001:0000486B 16247 0001:0000486D 16248 0001:0000486F
 16249 0001:00004871 16258 0001:0000488C 16259 0001:0000488D 16260 0001:0000488E
 16261 0001:0000488F 16262 0001:00004890 16267 0001:00004892 16268 0001:00004896
 16269 0001:0000489A 16270 0001:0000489C 16272 0001:0000489E 16273 0001:000048A0
 16275 0001:000048A2 16276 0001:000048A4 16287 0001:000048A6 16288 0001:000048A8
 16289 0001:000048AA 16290 0001:000048AC 16291 0001:000048AE 16292 0001:000048B1
 16295 0001:000048B4 16296 0001:000048B6 16297 0001:000048B8 16298 0001:000048BA
 16299 0001:000048BC 16302 0001:000048BF 16303 0001:000048C1 16304 0001:000048C6
 16316 0001:000048C7 16317 0001:000048C9 16320 0001:000048CB 16321 0001:000048CD
 16322 0001:000048CF 16323 0001:000048D1 16324 0001:000048D3 16325 0001:000048D5
 16326 0001:000048D7 16327 0001:000048D9 16328 0001:000048DB 16331 0001:000048DD
 16332 0001:000048DF 16333 0001:000048E1 16336 0001:000048E2 16343 0001:000048E4
 16344 0001:000048E6 16346 0001:000048E8 16347 0001:000048E9 16348 0001:000048EF
 16349 0001:000048F1 16350 0001:000048F3 16351 0001:000048F5 16354 0001:000048F8
 16355 0001:000048F9 16356 0001:000048FA 16357 0001:000048FB 16358 0001:000048FC
 16361 0001:000048FF 16362 0001:00004901 16363 0001:00004902 16364 0001:00004904
 16365 0001:00004906 16418 0001:00004924 16419 0001:00004925 16420 0001:00004926
 16421 0001:00004927 16437 0001:00004928 16438 0001:0000492C 16439 0001:00004930
 16440 0001:00004932 16442 0001:00004934 16443 0001:00004936 16445 0001:00004938
 16446 0001:0000493A 16450 0001:0000493C 16451 0001:0000493E 16452 0001:00004943
 16453 0001:00004945 16456 0001:00004947 16457 0001:00004949 16458 0001:0000494B
 16459 0001:0000494D 16460 0001:0000494F 16461 0001:00004951 16462 0001:00004953
 16463 0001:00004955 16464 0001:00004957 16467 0001:00004959 16468 0001:0000495B
 16469 0001:0000495D 16472 0001:0000495E 16479 0001:00004960 16480 0001:00004962
 16483 0001:00004964 16484 0001:00004965 16485 0001:00004966 16486 0001:00004967
 16487 0001:00004968 16490 0001:0000496B 16491 0001:0000496D 16492 0001:0000496E
 16493 0001:00004970 16494 0001:00004972 16505 0001:0000498C 16506 0001:0000498F
 16507 0001:00004991 16508 0001:00004994 16509 0001:00004996 16510 0001:00004998
 16511 0001:0000499A 16514 0001:0000499B 16515 0001:0000499D 16516 0001:0000499F
 16517 0001:000049A1 16520 0001:000049A2 16521 0001:000049A5 16522 0001:000049A7
 16523 0001:000049A8 16559 0001:000049B4 16560 0001:000049B7 16561 0001:000049B9
 16562 0001:000049BC 16563 0001:000049BE 16564 0001:000049C0 16565 0001:000049C2
 16568 0001:000049C3 16569 0001:000049C5 16570 0001:000049C7 16571 0001:000049C9
 16574 0001:000049CA 16575 0001:000049CD 16576 0001:000049CF 16577 0001:000049D0
 16727 0001:000049DC 16728 0001:000049F3 16729 0001:000049F8 16730 0001:000049FE
 16731 0001:00004A0E 16733 0001:00004A14 16734 0001:00004A1A 16737 0001:00004A1F
 16736 0001:00004A20 16738 0001:00004A2A 16739 0001:00004A2F 16741 0001:00004A39
 16742 0001:00004A3E 16744 0001:00004A41 16745 0001:00004A4B 16746 0001:00004A4C
 16747 0001:00004A51 16750 0001:00004A8C 16751 0001:00004A96 16752 0001:00004A97
 16755 0001:00004A98 16756 0001:00004AB6 16757 0001:00004AC7 16758 0001:00004AD8
 16762 0001:00004AE7 16764 0001:00004B0E 16765 0001:00004B36 16766 0001:00004B37
 16753 0001:00004B3C 16768 0001:00004B41 16769 0001:00004B4C 16775 0001:00004B68
 16776 0001:00004B75 16780 0001:00004B84 16782 0001:00004BAE 16783 0001:00004BD8
 16784 0001:00004BD9 16773 0001:00004BDE 16786 0001:00004BE0 16787 0001:00004BE7
 16788 0001:00004BFE 16789 0001:00004C26 16791 0001:00004C27 16792 0001:00004C38
 16794 0001:00004C40 16795 0001:00004C50 16802 0001:00004C7C 16803 0001:00004C7E
 16804 0001:00004C80 16806 0001:00004C83 16813 0001:00004C8C 16814 0001:00004C91
 16815 0001:00004C92 16818 0001:00004C98 16819 0001:00004C9B 16820 0001:00004C9E
 16821 0001:00004CA3 16825 0001:00004CAC 16826 0001:00004CB1 16830 0001:00004CB8
 16831 0001:00004CBD 16840 0001:00004CC4 16841 0001:00004CE0 16844 0001:00004CE5
 16845 0001:00004CED 16847 0001:00004CF3 16848 0001:00004CF9 16849 0001:00004D00
 16850 0001:00004D0A 16853 0001:00004D0F 16854 0001:00004D14 16856 0001:00004D18
 16857 0001:00004D1B 16858 0001:00004D20 16862 0001:00004D23 16863 0001:00004D2A
 16864 0001:00004D30 16865 0001:00004D36 16867 0001:00004D3D 16868 0001:00004D3F
 16869 0001:00004D48 16870 0001:00004D54 16871 0001:00004D5B 16874 0001:00004D5F
 16876 0001:00004D68 16877 0001:00004D6B 16878 0001:00004D77 16879 0001:00004D92
 16880 0001:00004D9D 16884 0001:00004DA2 16885 0001:00004DA4 16886 0001:00004DAE
 16887 0001:00004DB4 16888 0001:00004DBC 16889 0001:00004DC2 16891 0001:00004DC6
 16892 0001:00004DD9 16895 0001:00004DF0 16899 0001:00004E06 16900 0001:00004E0C
 16901 0001:00004E0F 16902 0001:00004E14 16905 0001:00004E17 16908 0001:00004E31
 16910 0001:00004E37 16911 0001:00004E3B 16912 0001:00004E3E 16913 0001:00004E51
 16912 0001:00004E68 16915 0001:00004E6D 16916 0001:00004E72 16925 0001:00004E84
 16926 0001:00004E85 16927 0001:00004E89 16928 0001:00004E8E 16931 0001:00004E98
 16932 0001:00004EA7 16933 0001:00004EAB 16935 0001:00004EC0 16936 0001:00004EC7
 16944 0001:00004EE0 16945 0001:00004F00 16946 0001:00004F02 16948 0001:00004F0C
 16951 0001:00004F12 16953 0001:00004F18 16954 0001:00004F1B 16956 0001:00004F20
 16957 0001:00004F2B 16958 0001:00004F33 16959 0001:00004F39 16960 0001:00004F43
 16961 0001:00004F49 16962 0001:00004F4D 16964 0001:00004F4F 16967 0001:00004F57
 16968 0001:00004F61 16969 0001:00004F6A 16970 0001:00004F73 16972 0001:00004F80
 16975 0001:00004F85 16978 0001:00004F94 16979 0001:00004F9A 16980 0001:00004F9D
 16981 0001:00004F9F 16982 0001:00004FA2 16986 0001:00004FAB 16988 0001:00004FAF
 16990 0001:00004FB5 16991 0001:00004FC4 16994 0001:00004FD4 16998 0001:00004FE4
 16999 0001:00004FEF 17000 0001:00004FF4 17008 0001:00005004 17009 0001:00005006
 17010 0001:00005008 17013 0001:0000500A 17016 0001:00005010 17017 0001:00005014
 17020 0001:00005016 17021 0001:00005017 17024 0001:00005019 17025 0001:0000501B
 17026 0001:0000501E 17029 0001:00005022 17030 0001:00005024 17031 0001:00005026
 17032 0001:00005029 17033 0001:0000502B 17034 0001:0000502D 17035 0001:0000502F
 17038 0001:00005034 17039 0001:00005037 17040 0001:0000503C 17042 0001:0000503D
 17051 0001:00005048 17052 0001:00005049 17056 0001:0000504B 17057 0001:0000504D
 17058 0001:0000504F 17061 0001:00005053 17062 0001:00005055 17063 0001:00005057
 17064 0001:0000505B 17065 0001:0000505D 17066 0001:0000505E 17067 0001:0000505F
 17068 0001:00005061 17069 0001:00005064 17070 0001:00005069 17071 0001:0000506A
 17074 0001:0000506B 17076 0001:0000506D 17077 0001:0000506E 17315 0001:00005080
 17316 0001:00005092 17317 0001:000050BD 17318 0001:000050C2 17319 0001:000050E2
 17320 0001:000050E6 17321 0001:00005100 17336 0001:0000513C 17337 0001:00005156
 17338 0001:00005158 17339 0001:00005163 17356 0001:00005175 17357 0001:0000518C
 17358 0001:000051AF 17363 0001:0000521B 17364 0001:00005239 17368 0001:00005244
 17369 0001:00005270 17370 0001:00005283 17371 0001:00005289 17373 0001:0000528F
 17374 0001:0000529D 17375 0001:000052A4 17380 0001:000052A9 17381 0001:000052D3
 17383 0001:000052DC 17384 0001:000052E7 17450 0001:000052F3 17451 0001:0000530A
 17452 0001:0000532D 17455 0001:00005380 17456 0001:0000538A 17457 0001:00005390
 17458 0001:000053B2 17459 0001:000053B9 17460 0001:000053D5 17462 0001:000053DB
 17464 0001:000053E2 17465 0001:00005400 17466 0001:0000540B 17469 0001:0000541B
 17470 0001:0000541D 17474 0001:00005424 17475 0001:0000542C 17481 0001:00005510
 17482 0001:0000552A 17484 0001:00005530 17485 0001:00005541 17486 0001:00005551
 17487 0001:00005555 17489 0001:0000555B 17490 0001:00005564 17495 0001:0000558C
 17496 0001:00005599 17497 0001:000055A1 17499 0001:000055A5 17503 0001:000055B4
 17504 0001:000055BE 17506 0001:000055C0 17497 0001:000055C2 17508 0001:000055C6
 17509 0001:000055CC 17519 0001:000055E0 17520 0001:00005601 17521 0001:00005623
 17522 0001:00005629 17525 0001:0000564B 17527 0001:00005651 17526 0001:00005652
 17528 0001:00005664 17530 0001:0000566E 17533 0001:000056A2 17534 0001:000056C2
 17535 0001:000056D7 17536 0001:000056E7 17537 0001:000056F0 17538 0001:00005707
 17539 0001:00005716 17549 0001:0000571F 17554 0001:0000576F 17555 0001:00005791
 17559 0001:0000579C 17561 0001:000057A3 17560 0001:000057A4 17562 0001:000057BE
 17563 0001:000057CD 17566 0001:000057D2 17571 0001:00005822 17573 0001:00005848
 17727 0001:000058CC 17728 0001:000058D8 17729 0001:000058DD 17732 0001:000058EC
 17733 0001:000058F8 17734 0001:000058FD 17739 0001:0000590C 17740 0001:0000591B
 17741 0001:00005925 17742 0001:0000592F 17743 0001:00005932 17744 0001:0000593A
 17749 0001:0000594C 17750 0001:0000595A 17751 0001:00005965 17753 0001:00005975
 17754 0001:00005987 17757 0001:00005996 17758 0001:00005999 17760 0001:0000599D
 17762 0001:000059AA 17763 0001:000059AD 17764 0001:000059B1 17765 0001:000059BE
 17767 0001:000059C0 17758 0001:000059C2 17770 0001:000059C6 17775 0001:000059DC
 17776 0001:000059F3 17777 0001:000059FE 17780 0001:00005A04 17783 0001:00005A14
 17784 0001:00005A20 17777 0001:00005A28 17787 0001:00005A2E 17789 0001:00005A33
 17792 0001:00005A5C 17793 0001:00005A68 17794 0001:00005A72 17795 0001:00005A7A
 17800 0001:00005A88 17802 0001:00005A9B 17804 0001:00005AAE 17805 0001:00005ABB
 17808 0001:00005ACA 17809 0001:00005AD2 17811 0001:00005AD6 17813 0001:00005ADD
 17814 0001:00005AE4 17816 0001:00005AE6 17809 0001:00005AE8 17820 0001:00005AF4
 17837 0001:00005B0C 17838 0001:00005B0E 17839 0001:00005B10 17840 0001:00005B12
 17841 0001:00005B18 17842 0001:00005B19 17843 0001:00005B1A 17844 0001:00005B1C
 17845 0001:00005B1F 17847 0001:00005B20 17880 0001:00005B2C 17881 0001:00005B2E
 17882 0001:00005B30 17883 0001:00005B31 17884 0001:00005B32 17885 0001:00005B34
 17886 0001:00005B35 17887 0001:00005B38 17888 0001:00005B39 17889 0001:00005B3B
 17890 0001:00005B3D 17891 0001:00005B3F 17892 0001:00005B41 17894 0001:00005B42
 17895 0001:00005B44 17896 0001:00005B45 17897 0001:00005B48 17901 0001:00005B49
 17902 0001:00005B4B 17903 0001:00005B4D 17904 0001:00005B4F 17905 0001:00005B51
 17906 0001:00005B53 17907 0001:00005B54 17909 0001:00005B57 17931 0001:00005B70
 17932 0001:00005B72 17933 0001:00005B78 17934 0001:00005B79 17935 0001:00005B7B
 17936 0001:00005B7D 17937 0001:00005B7E 17938 0001:00005B7F 17939 0001:00005B80
 17940 0001:00005B82 17941 0001:00005B84 17942 0001:00005B86 17943 0001:00005B88
 17944 0001:00005B8A 17945 0001:00005B8F 17946 0001:00005B91 17947 0001:00005B93
 17948 0001:00005B95 17949 0001:00005B96 17950 0001:00005B98 17951 0001:00005B9B
 17952 0001:00005B9C 17953 0001:00005B9E 17954 0001:00005B9F 17958 0001:00005BB8
 17959 0001:00005BC4 17960 0001:00005BE0 17963 0001:00005BF8 17965 0001:00005C04
 17966 0001:00005C0C 17969 0001:00005C18 17970 0001:00005C24 17971 0001:00005C2A
 17972 0001:00005C31 17977 0001:00005C40 17978 0001:00005C4C 17979 0001:00005C51
 17980 0001:00005C58 17983 0001:00005C64 17984 0001:00005C77 17985 0001:00005C88
 17987 0001:00005C8C 17988 0001:00005C91 17991 0001:00005C9C 17992 0001:00005CAE
 17993 0001:00005CB6 17996 0001:00005CC0 17997 0001:00005CD4 17998 0001:00005CDE
 17999 0001:00005CE2 18000 0001:00005CED 18123 0001:00005CF8 18124 0001:00005D0B
 18125 0001:00005D0D 18127 0001:00005D13 18126 0001:00005D14 18128 0001:00005D1B
 18129 0001:00005D2F 18140 0001:00005D4C 18141 0001:00005D66 18142 0001:00005D6B
 18143 0001:00005D73 18144 0001:00005D75 18145 0001:00005D7A 18149 0001:00005D86
 18150 0001:00005D8D 18151 0001:00005D90 18153 0001:00005D95 18154 0001:00005D9B
 18156 0001:00005D9E 18158 0001:00005DA5 18160 0001:00005DAD 18161 0001:00005DBB
 18162 0001:00005DCD 18163 0001:00005DD8 18167 0001:00005DDD 18169 0001:00005DE5
 18170 0001:00005DF3 18171 0001:00005DFE 18147 0001:00005E01 18174 0001:00005E12
 18175 0001:00005E1B 18179 0001:00005E24 18181 0001:00005E2C 18182 0001:00005E33
 18183 0001:00005E36 18185 0001:00005E3B 18186 0001:00005E42 18187 0001:00005E43
 18189 0001:00005E44 18179 0001:00005E45 18192 0001:00005E4D 18193 0001:00005E54
 18211 0001:00005E64 18212 0001:00005E7E 18214 0001:00005E82 18215 0001:00005E87
 18217 0001:00005E8C 18218 0001:00005E93 18219 0001:00005E98 18220 0001:00005E9A
 18224 0001:00005EA9 18225 0001:00005EB1 18226 0001:00005EB2 18228 0001:00005EB8
 18229 0001:00005EC1 18230 0001:00005EC5 18232 0001:00005ECB 18233 0001:00005ECE
 18234 0001:00005ECF 18235 0001:00005EDD 18236 0001:00005EE6 18238 0001:00005EF8
 18239 0001:00005EFB 18240 0001:00005EFC 18242 0001:00005F0A 18245 0001:00005F27
 18246 0001:00005F35 18222 0001:00005F38 18248 0001:00005F49 18249 0001:00005F58
 18253 0001:00005F66 18255 0001:00005F6B 18256 0001:00005F6E 18257 0001:00005F6F
 18259 0001:00005F73 18260 0001:00005F78 18261 0001:00005F7A 18263 0001:00005F7E
 18264 0001:00005F81 18265 0001:00005F82 18266 0001:00005F88 18268 0001:00005F8D
 18269 0001:00005F90 18270 0001:00005F91 18272 0001:00005F97 18253 0001:00005F9A
 18275 0001:00005F9F 18276 0001:00005FA9 18282 0001:00005FBC 18283 0001:00005FD9
 18284 0001:00005FE1 18285 0001:00005FEC 18287 0001:00005FFE 18288 0001:00006027
 18289 0001:0000602B 18291 0001:00006038 18292 0001:00006040 18293 0001:00006063
 18299 0001:00006080 18300 0001:0000609D 18301 0001:000060A5 18302 0001:000060A9
 18304 0001:000060BA 18305 0001:000060E3 18306 0001:000060E7 18308 0001:000060F4
 18309 0001:000060FC 18310 0001:0000611F 18313 0001:0000613C 18314 0001:00006153
 18315 0001:0000617F 18326 0001:0000619C 18329 0001:0000619D 18330 0001:0000619E
 18331 0001:0000619F 18332 0001:000061A1 18333 0001:000061A6 18334 0001:000061A7
 18335 0001:000061A8 18336 0001:000061A9 18337 0001:000061AA 18338 0001:000061AC
 18339 0001:000061B1 18340 0001:000061B3 18341 0001:000061B4 18344 0001:000061B5
 18345 0001:000061B7 18346 0001:000061BC 18347 0001:000061BD 18348 0001:000061BE
 18349 0001:000061BF 18350 0001:000061C0 18351 0001:000061C2 18352 0001:000061C7
 18355 0001:000061C9 18356 0001:000061CB 18357 0001:000061CD 18358 0001:000061D0
 18359 0001:000061D2 18360 0001:000061D4 18361 0001:000061D5 18362 0001:000061D7
 18363 0001:000061DC 18365 0001:000061DF 18368 0001:000061E0 18369 0001:000061E1
 18398 0001:00006204 18399 0001:00006211 18401 0001:00006218 18403 0001:00006222
 18405 0001:00006227 18406 0001:00006229 18409 0001:0000622C 18410 0001:00006236
 18412 0001:0000623C 18413 0001:0000623F 18415 0001:00006241 18416 0001:00006249
 18407 0001:0000624A 18420 0001:00006251 18421 0001:00006256 18429 0001:00006268
 18430 0001:0000627A 18433 0001:0000627E 18434 0001:00006283 18435 0001:0000628D
 18437 0001:0000628F 18438 0001:00006299 18439 0001:000062A4 18440 0001:000062B5
 18431 0001:000062B8 18442 0001:000062C2 18461 0001:000062D8 18462 0001:000062EB
 18463 0001:000062F6 18465 0001:00006309 18466 0001:0000632B 18467 0001:0000634D
 18468 0001:0000636F 18469 0001:00006371 18470 0001:0000639F 18472 0001:000063A6
 18473 0001:000063AD 18475 0001:000063B8 18489 0001:0000643C 18490 0001:00006457
 18491 0001:0000645D 18492 0001:00006467 18494 0001:00006470 18495 0001:0000647D
 18498 0001:00006488 18499 0001:00006494 18501 0001:0000649F 18502 0001:000064AF
 18503 0001:000064B6 18504 0001:000064CD 18507 0001:000064DB 18508 0001:000064E4
 18509 0001:000064F0 18510 0001:00006503 18511 0001:0000650D 18512 0001:00006511
 18513 0001:00006524 18505 0001:00006527 18515 0001:0000652F 18519 0001:00006538
 18520 0001:00006545 18521 0001:0000654F 18522 0001:00006556 18525 0001:00006568
 18527 0001:0000656C 18529 0001:00006575 18530 0001:0000657F 18532 0001:00006590
 18535 0001:000065A8 18533 0001:000065AF 18537 0001:000065E4 18538 0001:000065E8
 18540 0001:000065F0 18542 0001:00006602 18547 0001:00006634 18548 0001:00006644
 18550 0001:00006648 18551 0001:00006650 18552 0001:00006653 18555 0001:0000665D
 18556 0001:0000665F 18614 0001:00006678 18615 0001:0000668E 18616 0001:00006692
 18617 0001:0000669F 18620 0001:000066BE 18621 0001:000066CD 18622 0001:000066D1
 18625 0001:000066DB 18627 0001:000066F8 18649 0001:00006718 18650 0001:00006724
 18652 0001:0000672F 18654 0001:00006738 18656 0001:0000675E 18657 0001:00006767
 18658 0001:00006770 18660 0001:0000678D 18663 0001:000067BC 18664 0001:000067C8
 18666 0001:000067D1 18667 0001:000067EF 18669 0001:000067F6 18676 0001:00006810
 18677 0001:0000681F 18678 0001:0000682A 18680 0001:0000682F 18681 0001:00006835
 18686 0001:00006848 18687 0001:0000685F 18688 0001:00006880 18689 0001:00006892
 18688 0001:000068A3 18690 0001:000068A6 18691 0001:000068B9 18707 0001:FFFFFBD0
 18751 0001:00009B18 18752 0001:00009B3A 18753 0001:00009B45 18755 0001:00009B50
 18760 0001:00009B65 18710 0001:00009B78 18712 0001:00009B91 18715 0001:00009BB1
 18723 0001:00009BBA 18724 0001:00009BC6 18725 0001:00009BD3 18726 0001:00009BDC
 18727 0001:00009BEB 18732 0001:00009BF0 18737 0001:00009BFE 18739 0001:00009C03
 18740 0001:00009C0F 18741 0001:00009C1B 18742 0001:00009C27 18748 0001:00009C2C
 18750 0001:00009C4B

Line numbers for SysInit(SysInit.pas) segment .text

   177 0001:FFFFFBE0   180 0001:FFFFFBF0   183 0001:FFFFFC00   192 0001:FFFFFC10
   195 0001:FFFFFC10   198 0001:FFFFFC20   205 0001:FFFFFC30   208 0001:FFFFFC40
   214 0001:FFFFFC50   217 0001:FFFFFC60   220 0001:00009C74   222 0001:00009C84
   223 0001:00009C8D   225 0001:00009C97   226 0001:00009CB1   227 0001:00009CB5
   228 0001:00009CC2   231 0001:00009CE4   233 0001:00009CF3   234 0001:00009CFC
   235 0001:00009D11   236 0001:00009D21   239 0001:00009D28   242 0001:00009D34
   243 0001:00009D3D   244 0001:00009D47   246 0001:00009D70   247 0001:00009D7A
   249 0001:00009D84   254 0001:00009D9C   255 0001:00009DAC   256 0001:00009DDD
   257 0001:00009DE2   258 0001:00009E02   259 0001:00009E06   260 0001:00009E20
   287 0001:00009E5C   288 0001:00009E61   300 0001:00009E68   301 0001:00009E75
   302 0001:00009E7C   304 0001:00009E80   306 0001:00009EA5   307 0001:00009EB8
   308 0001:00009EBF   309 0001:00009EC3   311 0001:00009ECF   312 0001:00009EEE
   355 0001:00009F18   356 0001:00009F24   357 0001:00009F42   359 0001:00009F46
   360 0001:00009F4B   362 0001:00009F69   410 0001:00009F8C   412 0001:00009F91
   413 0001:00009F92   414 0001:00009F97   423 0001:00009FA0   424 0001:00009FA5
   425 0001:00009FAA   429 0001:00009FB0   430 0001:00009FBC   431 0001:00009FC7
   434 0001:00009FD4   435 0001:00009FE0   436 0001:00009FEB   437 0001:00009FFD
   438 0001:0000A015   487 0001:0000A02C   488 0001:0000A038   492 0001:0000A057
   495 0001:0000A070   496 0001:0000A07C   497 0001:0000A086   590 0001:0000A094
   597 0001:0000A0AA   599 0001:0000A0AF   600 0001:0000A0B3   601 0001:0000A0BD
   602 0001:0000A0C4   603 0001:0000A0CF   604 0001:0000A0D8   605 0001:0000A0E1
   606 0001:0000A0E6   607 0001:0000A0EB   608 0001:0000A0F4   609 0001:0000A0FC
   610 0001:0000A104   611 0001:0000A109   612 0001:0000A10E   614 0001:0000A11D
   616 0001:0000A120   620 0001:0000A13C   621 0001:0000A149   622 0001:0000A14B
   624 0001:0000A154   625 0001:0000A159   628 0001:0000A160   629 0001:0000A173
   636 0001:0000A184   637 0001:0000A185   638 0001:0000A187   639 0001:0000A18C
   640 0001:0000A18E   641 0001:0000A190   642 0001:0000A191   643 0001:0000A192
   644 0001:0000A193   645 0001:0000A194   646 0001:0000A195   647 0001:0000A196
   648 0001:0000A197   649 0001:0000A198   650 0001:0000A19A   651 0001:0000A19F
   652 0001:0000A1A2   653 0001:0000A1A3   654 0001:0000A1A4   655 0001:0000A1A5
   656 0001:0000A1A6   657 0001:0000A1A8   658 0001:0000A1A9   662 0001:0000A1AC
   663 0001:0000A1AF   817 0001:0000A1B8   818 0001:0000A1C4   847 0001:0000A208
   847 0001:0000A21B

Line numbers for ShareExcept(ShareExcept.pas) segment .text

    21 0001:FFFFFC70    24 0001:FFFFFC80    27 0001:FFFFFC90    30 0001:FFFFFCA0
    33 0001:FFFFFCB0    38 0001:0000A260    39 0001:0000A275    40 0001:0000A281
    41 0001:0000A28D    42 0001:0000A299    43 0001:0000A2A5    44 0001:0000A2B1

Line numbers for Types(Types.pas) segment .text

   545 0001:0000A2F4   545 0001:0000A307

Line numbers for KernelDefs(KernelDefs.pas) segment .text

  1195 0001:0000A34C  1195 0001:0000A35F

Line numbers for KernelIoctl(KernelIoctl.pas) segment .text

   345 0001:0000A3A4   345 0001:0000A3B7

Line numbers for Libc(Libc.pas) segment .text

 23428 0001:FFFFFCC0 23445 0001:FFFFFCD0 23481 0001:FFFFFCE0 23485 0001:FFFFFCF0
 23490 0001:FFFFFD00 23591 0001:FFFFFD10 23597 0001:FFFFFD20 23601 0001:FFFFFD30
 23602 0001:FFFFFD40 23620 0001:FFFFFD50 23661 0001:FFFFFD60 23664 0001:FFFFFD70
 23886 0001:FFFFFD80 23888 0001:FFFFFD90 23897 0001:FFFFFDA0 23898 0001:FFFFFDB0
 23918 0001:FFFFFDC0 23932 0001:FFFFFDD0 23951 0001:FFFFFDE0 23967 0001:FFFFFDF0
 24037 0001:FFFFFE00 24042 0001:FFFFFE10 24047 0001:FFFFFE20 24060 0001:FFFFFE30
 24063 0001:FFFFFE40 24089 0001:FFFFFE50 24120 0001:FFFFFE60 24122 0001:FFFFFE70
 24141 0001:FFFFFE80 24202 0001:FFFFFE90 24203 0001:FFFFFEA0 24212 0001:FFFFFEB0
 24215 0001:FFFFFEC0 24216 0001:FFFFFED0 24218 0001:FFFFFEE0 24219 0001:FFFFFEF0
 24220 0001:FFFFFF00 24222 0001:FFFFFF10 24223 0001:FFFFFF20 24303 0001:FFFFFF30
 24304 0001:FFFFFF40 24337 0001:FFFFFF50 24460 0001:FFFFFF60 24926 0001:0000A3C4
 24927 0001:0000A3D0 24928 0001:0000A3E7 25036 0001:0000A3FC 25037 0001:0000A411
 25038 0001:0000A42F 25040 0001:0000A435 25041 0001:0000A455 25043 0001:0000A462
 25045 0001:0000A489 25047 0001:0000A4AF 25049 0001:FFFFFF70 25050 0001:FFFFFF80
 25051 0001:FFFFFF90 25951 0001:0000A504 25951 0001:0000A517

Line numbers for SysConst(SysConst.pas) segment .text

   183 0001:0000A55C   183 0001:0000A56F

Line numbers for SysUtils(SysUtils.pas) segment .text

  2999 0001:0000A588  3000 0001:0000A597  3001 0001:0000A5A9  3009 0001:0000A5BC
  3010 0001:0000A5CB  3011 0001:0000A5DD  3014 0001:0000A5F0  3015 0001:0000A5FC
  3016 0001:0000A607  3023 0001:0000A614  3024 0001:0000A617  3025 0001:0000A618
  3026 0001:0000A61A  3027 0001:0000A61C  3028 0001:0000A61F  3029 0001:0000A622
  3030 0001:0000A625  3031 0001:0000A628  3032 0001:0000A62B  3033 0001:0000A62C
  3037 0001:0000A634  3039 0001:0000A647  3041 0001:0000A64C  3045 0001:0000A658
  3046 0001:0000A65C  3047 0001:0000A670  3050 0001:0000A684  3051 0001:0000A68F
  3052 0001:0000A6A9  3236 0001:0000A6CC  3237 0001:0000A6DC  3238 0001:0000A6E5
  3239 0001:0000A6F2  3314 0001:0000A708  3315 0001:0000A71F  3316 0001:0000A729
  3317 0001:0000A734  3318 0001:0000A73B  3319 0001:0000A745  3321 0001:0000A749
  3322 0001:0000A74F  3323 0001:0000A759  3324 0001:0000A75F  3325 0001:0000A763
  3326 0001:0000A767  3319 0001:0000A768  3328 0001:0000A76C  3335 0001:0000A784
  3336 0001:0000A79B  3337 0001:0000A7A5  3338 0001:0000A7B0  3339 0001:0000A7B7
  3340 0001:0000A7C1  3342 0001:0000A7C5  3343 0001:0000A7CB  3344 0001:0000A7D5
  3345 0001:0000A7DB  3346 0001:0000A7DF  3347 0001:0000A7E3  3340 0001:0000A7E4
  3349 0001:0000A7E8  3353 0001:0000A800  3354 0001:0000A801  3355 0001:0000A802
  3356 0001:0000A804  3357 0001:0000A806  3358 0001:0000A808  3359 0001:0000A80A
  3360 0001:0000A80D  3361 0001:0000A80F  3362 0001:0000A811  3363 0001:0000A814
  3364 0001:0000A816  3365 0001:0000A818  3366 0001:0000A81A  3367 0001:0000A81C
  3368 0001:0000A81E  3369 0001:0000A820  3370 0001:0000A822  3371 0001:0000A826
  3372 0001:0000A82A  3373 0001:0000A82C  3374 0001:0000A82D  3375 0001:0000A82E
  3379 0001:0000A83C  3380 0001:0000A83D  3381 0001:0000A83E  3382 0001:0000A840
  3383 0001:0000A842  3384 0001:0000A844  3385 0001:0000A846  3386 0001:0000A849
  3387 0001:0000A84C  3388 0001:0000A84E  3389 0001:0000A850  3390 0001:0000A852
  3391 0001:0000A854  3392 0001:0000A856  3393 0001:0000A858  3394 0001:0000A859
  3395 0001:0000A85A  3396 0001:0000A85B  3400 0001:0000A86C  3401 0001:0000A86D
  3402 0001:0000A86E  3403 0001:0000A86F  3404 0001:0000A871  3405 0001:0000A873
  3406 0001:0000A875  3407 0001:0000A877  3408 0001:0000A87A  3409 0001:0000A87C
  3410 0001:0000A87E  3411 0001:0000A881  3412 0001:0000A883  3413 0001:0000A885
  3414 0001:0000A887  3415 0001:0000A889  3416 0001:0000A88B  3417 0001:0000A88D
  3418 0001:0000A88F  3419 0001:0000A892  3420 0001:0000A895  3421 0001:0000A897
  3422 0001:0000A89A  3423 0001:0000A89C  3424 0001:0000A89F  3425 0001:0000A8A2
  3426 0001:0000A8A5  3427 0001:0000A8A7  3428 0001:0000A8AA  3429 0001:0000A8AC
  3430 0001:0000A8AF  3431 0001:0000A8B1  3432 0001:0000A8B3  3433 0001:0000A8B6
  3434 0001:0000A8B9  3435 0001:0000A8BB  3436 0001:0000A8BC  3437 0001:0000A8BD
  3438 0001:0000A8BE  3442 0001:0000A8D0  3443 0001:0000A8D2  3444 0001:0000A8D4
  3445 0001:0000A8D6  3446 0001:0000A8D8  3447 0001:0000A8DA  3448 0001:0000A8DC
  3449 0001:0000A8DF  3450 0001:0000A8E2  3451 0001:0000A8E4  3452 0001:0000A8E9
  3453 0001:0000A8EB  3454 0001:0000A8ED  3455 0001:0000A8EF  3456 0001:0000A8F0
  3457 0001:0000A8F2  3470 0001:0000A8FC  3471 0001:0000A915  3472 0001:0000A951
  3486 0001:0000A96C  3487 0001:0000A985  3488 0001:0000A9C1  3492 0001:0000A9DC
  3502 0001:0000A9EF  3504 0001:0000AA1C  3512 0001:0000AA44  3518 0001:0000AA5F
  3520 0001:0000AAA3  3523 0001:0000AAC0  3524 0001:0000AAD3  3525 0001:0000AAE5
  3528 0001:0000AB00  3533 0001:0000AB0D  3535 0001:0000AB2C  3710 0001:0000AB4C
  3711 0001:0000AB64  3712 0001:0000AB77  3713 0001:0000AB84  3714 0001:0000AB97
  3713 0001:0000ABC2  3715 0001:0000ABC5  3732 0001:0000ABF0  3733 0001:0000AC08
  3734 0001:0000AC1B  3735 0001:0000AC28  3736 0001:0000AC3B  3735 0001:0000AC66
  3737 0001:0000AC69  3769 0001:0000AC94  3770 0001:0000ACB4  3771 0001:0000ACBF
  3776 0001:0000ACCA  3777 0001:0000ACD1  3778 0001:0000ACFD  3779 0001:0000AD06
  3780 0001:0000AD31  3789 0001:0000AD4C  3802 0001:0000AD67  3804 0001:0000ADAB
  3814 0001:0000ADC8  3815 0001:0000ADE0  3816 0001:0000ADEA  3817 0001:0000ADF1
  3818 0001:0000AE00  3820 0001:0000AE0F  3821 0001:0000AE1A  3823 0001:0000AE2F
  3828 0001:0000AE54  3829 0001:0000AE6C  3830 0001:0000AE76  3831 0001:0000AE7D
  3832 0001:0000AE8D  3833 0001:0000AE91  3836 0001:0000AE9C  3837 0001:0000AEA8
  3839 0001:0000AEBD  3854 0001:0000AEE0  3855 0001:0000AEF6  3856 0001:0000AF01
  3857 0001:0000AF08  3858 0001:0000AF17  3859 0001:0000AF29  4076 0001:0000AF4C
  4077 0001:0000AF5B  4078 0001:0000AF77  4081 0001:0000AF9C  4082 0001:0000AFAE
  4083 0001:0000AFC8  4086 0001:0000AFE4  4087 0001:0000AFF6  4088 0001:0000B01B
  4091 0001:0000B04C  4092 0001:0000B05E  4093 0001:0000B081  4098 0001:0000B0A0
  4099 0001:0000B0B3  4100 0001:0000B0BE  4101 0001:0000B0E0  4106 0001:0000B100
  4107 0001:0000B112  4108 0001:0000B11B  4109 0001:0000B125  4114 0001:0000B13C
  4115 0001:0000B151  4116 0001:0000B15E  4117 0001:0000B16A  4122 0001:0000B188
  4123 0001:0000B19A  4124 0001:0000B1AC  4125 0001:0000B1D4  4138 0001:0000B1EC
  4139 0001:0000B201  4140 0001:0000B211  4141 0001:0000B21D  4144 0001:0000B23C
  4145 0001:0000B248  4147 0001:0000B259  4148 0001:0000B274  4150 0001:0000B287
  4152 0001:0000B298  4153 0001:0000B2B3  4155 0001:0000B2C6  4158 0001:0000B2FC
  4159 0001:0000B30E  4160 0001:0000B31B  4161 0001:0000B338  4173 0001:0000B350
  4174 0001:0000B364  4175 0001:0000B368  4176 0001:0000B371  4178 0001:0000B382
  4179 0001:0000B386  4180 0001:0000B388  4175 0001:0000B38B  4181 0001:0000B391
  4184 0001:0000B3A0  4185 0001:0000B3B8  4186 0001:0000B3C5  4187 0001:0000B3C9
  4190 0001:0000B3DA  4191 0001:0000B3DF  4192 0001:0000B3FF  4193 0001:0000B403
  4196 0001:0000B408  4197 0001:0000B428  4198 0001:0000B42C  4201 0001:0000B431
  4206 0001:0000B45C  4207 0001:0000B46F  4209 0001:0000B473  4210 0001:0000B478
  4211 0001:0000B47E  4213 0001:0000B491  4216 0001:0000B4A4  4217 0001:0000B4B7
  4310 0001:0000B4D0  4311 0001:0000B4E6  4312 0001:0000B4EE  4316 0001:0000B51C
  4318 0001:0000B54E  4320 0001:0000B557  4321 0001:0000B565  4325 0001:0000B575
  4326 0001:0000B57C  4327 0001:0000B582  4328 0001:0000B588  4330 0001:0000B59B
  4331 0001:0000B5BE  4333 0001:0000B5C5  4334 0001:0000B5DD  4337 0001:0000B5DF
  4339 0001:0000B5E7  4362 0001:0000B62C  4363 0001:0000B63F  4364 0001:0000B66A
  4368 0001:0000B694  4374 0001:0000B6A4  4376 0001:0000B6C4  4379 0001:0000B6E8
  4385 0001:0000B6F8  4387 0001:0000B718  4390 0001:0000B73C  4395 0001:0000B74C
  4397 0001:0000B76C  4410 0001:0000B790  4411 0001:0000B7A9  4412 0001:0000B7AC
  4413 0001:0000B7C5  4417 0001:0000B7D8  4422 0001:0000B7E4  4424 0001:0000B7FC
  4465 0001:0000B814  4466 0001:0000B823  4467 0001:0000B849  4837 0001:0000B868
  4838 0001:0000B87E  4839 0001:0000B887  4840 0001:0000B893  4842 0001:0000B897
  4851 0001:0000B8AF  4853 0001:0000B8BC  4854 0001:0000B8BF  4857 0001:0000B8CD
  4840 0001:0000B8CE  4859 0001:0000B8D4  4873 0001:0000B8F4  4874 0001:0000B908
  4875 0001:0000B917  4876 0001:0000B929  4919 0001:0000B958  4920 0001:0000B96C
  4921 0001:0000B97B  4922 0001:0000B98E  4951 0001:0000B9BC  4952 0001:0000B9DA
  4953 0001:0000B9E4  4954 0001:0000B9F3  4955 0001:0000B9F7  4956 0001:0000BA12
  4959 0001:0000BA40  4960 0001:0000BA57  4963 0001:0000BA74  4965 0001:0000BA84
  4966 0001:0000BA8A  4967 0001:0000BAAC  4973 0001:0000BAD8  4974 0001:0000BAFC
  4975 0001:0000BB04  4977 0001:0000BB14  4978 0001:0000BB1C  4981 0001:0000BB29
  4982 0001:0000BB34  4983 0001:0000BB3C  4985 0001:0000BB54  4988 0001:0000BB75
  4989 0001:0000BB7A  4991 0001:0000BB7F  4995 0001:0000BB88  4997 0001:0000BB9B
  5000 0001:0000BBA3  5001 0001:0000BBB2  5002 0001:0000BBD2  5004 0001:0000BBD4
  5010 0001:0000BBDD  5013 0001:0000BBE7  5018 0001:0000BBF7  5022 0001:0000BC19
  5025 0001:0000BC26  5026 0001:0000BC49  5030 0001:0000BC4D  5032 0001:0000BC56
  5033 0001:0000BC6E  5034 0001:0000BC85  5036 0001:0000BC9A  5037 0001:0000BC9B
  5041 0001:0000BCA0  5045 0001:0000BCA6  5046 0001:0000BCBE  5051 0001:0000BCC3
  5053 0001:0000BCC7  5054 0001:0000BCDE  5056 0001:0000BCF3  4993 0001:0000BCF4
  5059 0001:0000BD04  5060 0001:0000BD15  5061 0001:0000BD52  5454 0001:0000BD70
  5455 0001:0000BD7C  5456 0001:0000BD85  5492 0001:0000BD94  5493 0001:0000BD96
  5494 0001:0000BD98  5495 0001:0000BD9D  5496 0001:0000BD9F  5497 0001:0000BDA1
  5498 0001:0000BDA6  5499 0001:0000BDA8  5500 0001:0000BDAA  5514 0001:0000BDB0
  5515 0001:0000BDC0  5516 0001:0000BDC3  5517 0001:0000BDCF  5521 0001:0000BDE8
  5522 0001:0000BDE9  5523 0001:0000BDEA  5524 0001:0000BDEC  5525 0001:0000BDEE
  5526 0001:0000BDF3  5527 0001:0000BDF5  5528 0001:0000BDF7  5529 0001:0000BDF9
  5530 0001:0000BDFB  5531 0001:0000BDFD  5532 0001:0000BDFF  5533 0001:0000BE01
  5534 0001:0000BE04  5535 0001:0000BE06  5536 0001:0000BE08  5537 0001:0000BE0B
  5538 0001:0000BE0D  5539 0001:0000BE0E  5540 0001:0000BE0F  5567 0001:0000BE20
  5568 0001:0000BE21  5569 0001:0000BE22  5570 0001:0000BE23  5571 0001:0000BE25
  5572 0001:0000BE27  5573 0001:0000BE29  5574 0001:0000BE2B  5575 0001:0000BE2D
  5576 0001:0000BE2F  5577 0001:0000BE31  5578 0001:0000BE33  5579 0001:0000BE34
  5580 0001:0000BE36  5581 0001:0000BE38  5582 0001:0000BE3A  5583 0001:0000BE3C
  5584 0001:0000BE3E  5585 0001:0000BE41  5586 0001:0000BE43  5587 0001:0000BE45
  5588 0001:0000BE48  5589 0001:0000BE4A  5590 0001:0000BE4B  5591 0001:0000BE4D
  5592 0001:0000BE4E  5593 0001:0000BE4F  5594 0001:0000BE50  5636 0001:0000BE64
  5637 0001:0000BE65  5638 0001:0000BE66  5639 0001:0000BE68  5640 0001:0000BE6A
  5641 0001:0000BE6F  5642 0001:0000BE71  5643 0001:0000BE73  5644 0001:0000BE75
  5645 0001:0000BE77  5646 0001:0000BE79  5647 0001:0000BE7B  5648 0001:0000BE7E
  5649 0001:0000BE81  5650 0001:0000BE83  5651 0001:0000BE84  5652 0001:0000BE85
  5656 0001:0000BE94  5657 0001:0000BE95  5658 0001:0000BE96  5659 0001:0000BE98
  5660 0001:0000BE9A  5661 0001:0000BE9F  5662 0001:0000BEA1  5663 0001:0000BEA3
  5664 0001:0000BEA5  5665 0001:0000BEA7  5666 0001:0000BEA9  5667 0001:0000BEAB
  5668 0001:0000BEAD  5669 0001:0000BEB0  5670 0001:0000BEB2  5671 0001:0000BEB4
  5672 0001:0000BEB6  5673 0001:0000BEB8  5674 0001:0000BEBA  5675 0001:0000BEBD
  5676 0001:0000BEC0  5677 0001:0000BEC2  5678 0001:0000BEC5  5679 0001:0000BEC7
  5680 0001:0000BECA  5681 0001:0000BECC  5682 0001:0000BECE  5683 0001:0000BECF
  5684 0001:0000BED0  5688 0001:0000BEE0  5689 0001:0000BEE1  5690 0001:0000BEE2
  5691 0001:0000BEE3  5692 0001:0000BEE5  5693 0001:0000BEE7  5694 0001:0000BEE9
  5695 0001:0000BEEB  5696 0001:0000BEED  5697 0001:0000BEEF  5698 0001:0000BEF1
  5699 0001:0000BEF3  5700 0001:0000BEF5  5701 0001:0000BEF7  5702 0001:0000BEF9
  5703 0001:0000BEFB  5704 0001:0000BEFE  5705 0001:0000BF01  5706 0001:0000BF03
  5707 0001:0000BF04  5708 0001:0000BF05  5709 0001:0000BF06  5713 0001:0000BF18
  5714 0001:0000BF19  5715 0001:0000BF1A  5716 0001:0000BF1B  5717 0001:0000BF1D
  5718 0001:0000BF1F  5719 0001:0000BF21  5720 0001:0000BF23  5721 0001:0000BF25
  5722 0001:0000BF27  5723 0001:0000BF29  5724 0001:0000BF2B  5725 0001:0000BF2D
  5726 0001:0000BF2F  5727 0001:0000BF31  5728 0001:0000BF33  5729 0001:0000BF35
  5730 0001:0000BF38  5731 0001:0000BF3A  5732 0001:0000BF3C  5733 0001:0000BF3E
  5734 0001:0000BF40  5735 0001:0000BF42  5736 0001:0000BF45  5737 0001:0000BF48
  5738 0001:0000BF4A  5739 0001:0000BF4D  5740 0001:0000BF4F  5741 0001:0000BF52
  5742 0001:0000BF54  5743 0001:0000BF56  5744 0001:0000BF57  5745 0001:0000BF58
  5746 0001:0000BF59  5749 0001:0000BF6C  5750 0001:0000BF7C  5753 0001:0000BF7E
  5755 0001:0000BF82  5756 0001:0000BF84  5758 0001:0000BF87  5751 0001:0000BF88
  5760 0001:0000BF8F  5789 0001:0000BFA0  5790 0001:0000BFA1  5791 0001:0000BFA2
  5792 0001:0000BFA3  5793 0001:0000BFA5  5794 0001:0000BFA7  5795 0001:0000BFA9
  5796 0001:0000BFAB  5797 0001:0000BFAD  5798 0001:0000BFAF  5799 0001:0000BFB1
  5800 0001:0000BFB6  5801 0001:0000BFB8  5802 0001:0000BFBA  5803 0001:0000BFBB
  5804 0001:0000BFBD  5805 0001:0000BFBF  5806 0001:0000BFC1  5807 0001:0000BFC6
  5808 0001:0000BFC8  5809 0001:0000BFCA  5810 0001:0000BFCC  5811 0001:0000BFCE
  5812 0001:0000BFD0  5813 0001:0000BFD3  5814 0001:0000BFD5  5815 0001:0000BFD6
  5816 0001:0000BFD8  5817 0001:0000BFDA  5818 0001:0000BFDC  5819 0001:0000BFDD
  5820 0001:0000BFDF  5821 0001:0000BFE1  5822 0001:0000BFE2  5823 0001:0000BFE4
  5824 0001:0000BFE6  5825 0001:0000BFE9  5826 0001:0000BFEB  5827 0001:0000BFED
  5828 0001:0000BFEE  5829 0001:0000BFEF  5830 0001:0000BFF0  5871 0001:0000C008
  5872 0001:0000C01A  5873 0001:0000C023  5876 0001:0000C03C  5877 0001:0000C04B
  5878 0001:0000C04E  5879 0001:0000C055  5880 0001:0000C057  5881 0001:0000C05A
  5895 0001:0000C06C  5896 0001:0000C07D  5898 0001:0000C088  5899 0001:0000C092
  5901 0001:0000C0A8  5920 0001:0000C0C4  5921 0001:0000C0DC  5922 0001:0000C0E6
  5923 0001:0000C0F5  5924 0001:0000C102  5925 0001:0000C107  5926 0001:0000C129
  5929 0001:0000C148  5930 0001:0000C15A  5931 0001:0000C163  5934 0001:0000C17C
  5935 0001:0000C18B  5936 0001:0000C192  5952 0001:0000C1A4  5953 0001:0000C1B0
  5954 0001:0000C1B1  5955 0001:0000C1B2  5956 0001:0000C1B3  5957 0001:0000C1B5
  5959 0001:0000C1B7  5960 0001:0000C1B8  5961 0001:0000C1BD  5965 0001:0000C1BE
  5966 0001:0000C1C1  5967 0001:0000C1C4  5968 0001:0000C1C7  5969 0001:0000C1C9
  5970 0001:0000C1CC  5971 0001:0000C1CF  5974 0001:0000C1D2  5975 0001:0000C1D4
  5978 0001:0000C1D6  5979 0001:0000C1D8  5980 0001:0000C1DA  5981 0001:0000C1DB
  5982 0001:0000C1DD  5985 0001:0000C1DF  5986 0001:0000C1E0  5987 0001:0000C1E1
  5990 0001:0000C1E3  5991 0001:0000C1E5  5992 0001:0000C1E8  5995 0001:0000C1ED
  5996 0001:0000C1EF  5997 0001:0000C1F1  5998 0001:0000C1F2  5999 0001:0000C1F4
  6000 0001:0000C1F6  6001 0001:0000C1F9  6002 0001:0000C1FC  6003 0001:0000C1FF
  6004 0001:0000C201  6005 0001:0000C203  6006 0001:0000C205  6007 0001:0000C207
  6008 0001:0000C208  6009 0001:0000C20D  6010 0001:0000C20F  6011 0001:0000C211
  6012 0001:0000C214  6013 0001:0000C216  6014 0001:0000C218  6015 0001:0000C219
  6017 0001:0000C21B  6018 0001:0000C21E  6019 0001:0000C223  6020 0001:0000C225
  6021 0001:0000C227  6022 0001:0000C229  6023 0001:0000C22B  6024 0001:0000C22C
  6025 0001:0000C231  6026 0001:0000C234  6027 0001:0000C237  6028 0001:0000C238
  6030 0001:0000C239  6032 0001:0000C23E  6033 0001:0000C23F  6034 0001:0000C242
  6035 0001:0000C244  6036 0001:0000C246  6038 0001:0000C248  6039 0001:0000C24C
  6040 0001:0000C24E  6041 0001:0000C250  6042 0001:0000C252  6043 0001:0000C254
  6045 0001:0000C256  6047 0001:0000C258  6048 0001:0000C25A  6049 0001:0000C25C
  6050 0001:0000C25E  6051 0001:0000C260  6052 0001:0000C262  6053 0001:0000C264
  6054 0001:0000C266  6055 0001:0000C268  6056 0001:0000C26A  6057 0001:0000C26C
  6058 0001:0000C26E  6059 0001:0000C270  6060 0001:0000C272  6061 0001:0000C276
  6062 0001:0000C278  6063 0001:0000C279  6066 0001:0000C27C  6068 0001:0000C281
  6069 0001:0000C282  6070 0001:0000C283  6071 0001:0000C286  6074 0001:0000C28B
  6075 0001:0000C28D  6076 0001:0000C28F  6077 0001:0000C291  6078 0001:0000C293
  6079 0001:0000C295  6080 0001:0000C297  6081 0001:0000C299  6082 0001:0000C29F
  6083 0001:0000C2A1  6084 0001:0000C2A4  6085 0001:0000C2A6  6086 0001:0000C2A8
  6087 0001:0000C2AA  6088 0001:0000C2AB  6089 0001:0000C2AD  6090 0001:0000C2AE
  6091 0001:0000C2B3  6092 0001:0000C2B6  6093 0001:0000C2B9  6094 0001:0000C2BB
  6095 0001:0000C2BE  6096 0001:0000C2C1  6097 0001:0000C2C6  6098 0001:0000C2C9
  6099 0001:0000C2CB  6100 0001:0000C2CD  6101 0001:0000C2CF  6102 0001:0000C2D1
  6103 0001:0000C2D2  6106 0001:0000C2D3  6107 0001:0000C2D5  6108 0001:0000C2D7
  6109 0001:0000C2DC  6110 0001:0000C2DF  6111 0001:0000C2E2  6112 0001:0000C2E4
  6113 0001:0000C2E7  6114 0001:0000C2EA  6115 0001:0000C2ED  6116 0001:0000C2EF
  6118 0001:0000C2F3  6119 0001:0000C2F6  6120 0001:0000C2FC  6121 0001:0000C2FF
  6122 0001:0000C302  6128 0001:0000C304  6129 0001:0000C308  6130 0001:0000C30C
  6131 0001:0000C310  6132 0001:0000C314  6133 0001:0000C318  6134 0001:0000C31C
  6135 0001:0000C320  6136 0001:0000C324  6137 0001:0000C328  6138 0001:0000C32C
  6139 0001:0000C330  6140 0001:0000C334  6141 0001:0000C338  6142 0001:0000C33C
  6143 0001:0000C340  6144 0001:0000C344  6152 0001:0000C348  6155 0001:0000C34A
  6156 0001:0000C34F  6157 0001:0000C352  6158 0001:0000C355  6168 0001:0000C357
  6169 0001:0000C35A  6170 0001:0000C35C  6171 0001:0000C360  6172 0001:0000C364
  6173 0001:0000C365  6174 0001:0000C368  6186 0001:0000C36D  6187 0001:0000C370
  6188 0001:0000C372  6189 0001:0000C374  6190 0001:0000C377  6194 0001:0000C37A
  6195 0001:0000C37D  6196 0001:0000C37F  6197 0001:0000C382  6198 0001:0000C384
  6199 0001:0000C387  6202 0001:0000C389  6203 0001:0000C38E  6206 0001:0000C390
  6207 0001:0000C397  6209 0001:0000C399  6210 0001:0000C39B  6211 0001:0000C39F
  6213 0001:0000C3A2  6215 0001:0000C3A7  6216 0001:0000C3A9  6217 0001:0000C3AA
  6218 0001:0000C3AB  6219 0001:0000C3AD  6222 0001:0000C3AE  6225 0001:0000C3B3
  6228 0001:0000C3B6  6229 0001:0000C3B7  6230 0001:0000C3B8  6231 0001:0000C3BA
  6232 0001:0000C3BB  6233 0001:0000C3BD  6234 0001:0000C3C0  6235 0001:0000C3C3
  6236 0001:0000C3C8  6237 0001:0000C3C9  6239 0001:0000C3CA  6240 0001:0000C3CB
  6241 0001:0000C3CE  6242 0001:0000C3D1  6244 0001:0000C3D3  6247 0001:0000C3D6
  6248 0001:0000C3D7  6250 0001:0000C3D9  6251 0001:0000C3DA  6252 0001:0000C3DB
  6253 0001:0000C3DD  6254 0001:0000C3DE  6255 0001:0000C3E0  6256 0001:0000C3E3
  6257 0001:0000C3E6  6258 0001:0000C3EB  6259 0001:0000C3EC  6260 0001:0000C3ED
  6261 0001:0000C3EF  6262 0001:0000C3F2  6263 0001:0000C3F4  6265 0001:0000C3F6
  6266 0001:0000C3F9  6267 0001:0000C3FB  6268 0001:0000C3FE  6269 0001:0000C401
  6270 0001:0000C403  6273 0001:0000C404  6274 0001:0000C406  6275 0001:0000C408
  6276 0001:0000C40A  6279 0001:0000C40C  6280 0001:0000C40D  6281 0001:0000C40F
  6282 0001:0000C410  6285 0001:0000C412  6289 0001:0000C413  6290 0001:0000C416
  6291 0001:0000C418  6292 0001:0000C41B  6293 0001:0000C41D  6294 0001:0000C420
  6295 0001:0000C426  6296 0001:0000C42B  6297 0001:0000C42D  6298 0001:0000C42F
  6299 0001:0000C431  6300 0001:0000C433  6301 0001:0000C438  6302 0001:0000C43A
  6303 0001:0000C43B  6304 0001:0000C43C  6305 0001:0000C43E  6306 0001:0000C43F
  6309 0001:0000C444  6310 0001:0000C447  6311 0001:0000C449  6312 0001:0000C44B
  6313 0001:0000C44E  6314 0001:0000C451  6315 0001:0000C453  6316 0001:0000C456
  6317 0001:0000C457  6318 0001:0000C459  6319 0001:0000C45B  6320 0001:0000C45D
  6321 0001:0000C460  6322 0001:0000C462  6323 0001:0000C465  6324 0001:0000C468
  6325 0001:0000C46A  6326 0001:0000C46B  6327 0001:0000C46D  6328 0001:0000C46F
  6329 0001:0000C471  6330 0001:0000C473  6331 0001:0000C474  6332 0001:0000C476
  6333 0001:0000C477  6334 0001:0000C479  6337 0001:0000C47A  6338 0001:0000C47D
  6339 0001:0000C483  6340 0001:0000C488  6343 0001:0000C489  6344 0001:0000C48C
  6345 0001:0000C492  6346 0001:0000C496  6347 0001:0000C498  6348 0001:0000C49A
  6351 0001:0000C49D  6353 0001:0000C4A2  6354 0001:0000C4A5  6357 0001:0000C4A7
  6358 0001:0000C4A9  6361 0001:0000C4AA  6362 0001:0000C4AD  6363 0001:0000C4B3
  6364 0001:0000C4B5  6365 0001:0000C4B6  6366 0001:0000C4B9  6369 0001:0000C4BB
  6370 0001:0000C4C0  6373 0001:0000C4C2  6376 0001:0000C4C7  6378 0001:0000C4CA
  6380 0001:0000C4CC  6381 0001:0000C4CF  6382 0001:0000C4D5  6383 0001:0000C4D7
  6384 0001:0000C4DA  6385 0001:0000C4DB  6386 0001:0000C4DE  6387 0001:0000C4E0
  6388 0001:0000C4E1  6389 0001:0000C4E4  6390 0001:0000C4E6  6393 0001:0000C4E8
  6394 0001:0000C4EB  6395 0001:0000C4F1  6398 0001:0000C4F3  6399 0001:0000C4F5
  6400 0001:0000C4F7  6403 0001:0000C4FA  6404 0001:0000C4FD  6405 0001:0000C4FF
  6406 0001:0000C500  6407 0001:0000C503  6410 0001:0000C504  6411 0001:0000C507
  6412 0001:0000C50D  6413 0001:0000C50F  6414 0001:0000C510  6415 0001:0000C512
  6416 0001:0000C514  6417 0001:0000C517  6418 0001:0000C519  6419 0001:0000C51B
  6420 0001:0000C51D  6421 0001:0000C51E  6422 0001:0000C520  6423 0001:0000C522
  6424 0001:0000C523  6427 0001:0000C524  6428 0001:0000C527  6429 0001:0000C52D
  6430 0001:0000C534  6431 0001:0000C539  6434 0001:0000C53E  6435 0001:0000C540
  6438 0001:0000C542  6441 0001:0000C544  6442 0001:0000C546  6443 0001:0000C548
  6444 0001:0000C54B  6445 0001:0000C54D  6446 0001:0000C54F  6447 0001:0000C552
  6448 0001:0000C554  6449 0001:0000C556  6450 0001:0000C559  6451 0001:0000C55B
  6452 0001:0000C55D  6453 0001:0000C560  6454 0001:0000C562  6455 0001:0000C565
  6456 0001:0000C56B  6457 0001:0000C56D  6458 0001:0000C572  6459 0001:0000C575
  6460 0001:0000C577  6461 0001:0000C579  6462 0001:0000C57E  6463 0001:0000C581
  6464 0001:0000C583  6465 0001:0000C58A  6466 0001:0000C58C  6467 0001:0000C58F
  6468 0001:0000C594  6469 0001:0000C597  6470 0001:0000C599  6471 0001:0000C59E
  6472 0001:0000C59F  6473 0001:0000C5A0  6474 0001:0000C5A1  6475 0001:0000C5A4
  6476 0001:0000C5A6  6477 0001:0000C5A9  6478 0001:0000C5AC  6479 0001:0000C5B1
  6480 0001:0000C5B3  6481 0001:0000C5B6  6484 0001:0000C5B7  6485 0001:0000C5B8
  6486 0001:0000C5B9  6487 0001:0000C5BC  6488 0001:0000C5BF  6489 0001:0000C5C4
  6490 0001:0000C5C5  6491 0001:0000C5C6  6494 0001:0000C5C7  6495 0001:0000C5CC
  6496 0001:0000C5CD  6497 0001:0000C5CE  6498 0001:0000C5CF  6513 0001:0000C5E0
  6514 0001:0000C5FB  6516 0001:0000C603  6517 0001:0000C623  6520 0001:0000C628
  6521 0001:0000C630  6524 0001:0000C640  6525 0001:0000C652  6526 0001:0000C65F
  6533 0001:0000C668  6534 0001:0000C68B  6535 0001:0000C690  6536 0001:0000C69F
  6539 0001:0000C6C8  6540 0001:0000C6D2  6542 0001:0000C6D5  6546 0001:0000C6DF
  6547 0001:0000C6E1  6548 0001:0000C6E8  6549 0001:0000C6F1  6544 0001:0000C712
  6552 0001:0000C71A  6555 0001:0000C726  6556 0001:0000C736  7196 0001:0000C748
  7198 0001:0000C749  7199 0001:0000C74A  7200 0001:0000C74B  7201 0001:0000C750
  7202 0001:0000C752  7203 0001:0000C753  7207 0001:0000C754  7208 0001:0000C755
  7209 0001:0000C757  7210 0001:0000C759  7211 0001:0000C75B  7212 0001:0000C75D
  7213 0001:0000C75F  7214 0001:0000C761  7215 0001:0000C763  7216 0001:0000C765
  7217 0001:0000C767  7218 0001:0000C769  7219 0001:0000C76B  7220 0001:0000C76D
  7221 0001:0000C76E  7222 0001:0000C76F  7223 0001:0000C770  7224 0001:0000C772
  7225 0001:0000C774  7226 0001:0000C77A  7227 0001:0000C77D  7228 0001:0000C77F
  7229 0001:0000C780  7230 0001:0000C781  7231 0001:0000C783  7232 0001:0000C785
  7233 0001:0000C787  7234 0001:0000C789  7235 0001:0000C78A  7236 0001:0000C78C
  7237 0001:0000C78D  7238 0001:0000C78F  7239 0001:0000C791  7240 0001:0000C792
  7241 0001:0000C793  7254 0001:0000C7AC  7255 0001:0000C7B2  7256 0001:0000C7B3
  7257 0001:0000C7B4  7258 0001:0000C7B5  7260 0001:0000C7B8  7261 0001:0000C7B9
  7262 0001:0000C7BE  7263 0001:0000C7C1  7264 0001:0000C7C7  7265 0001:0000C7C9
  7266 0001:0000C7CC  7267 0001:0000C7D2  7268 0001:0000C7D4  7269 0001:0000C7D7
  7270 0001:0000C7DD  7271 0001:0000C7DF  7272 0001:0000C7E2  7273 0001:0000C7E8
  7274 0001:0000C7EA  7275 0001:0000C7ED  7276 0001:0000C7F3  7277 0001:0000C7F5
  7278 0001:0000C7F8  7292 0001:0000C7F9  7293 0001:0000C7FE  7294 0001:0000C801
  7295 0001:0000C803  7296 0001:0000C806  7297 0001:0000C809  7298 0001:0000C80B
  7299 0001:0000C810  7300 0001:0000C813  7301 0001:0000C815  7302 0001:0000C81A
  7303 0001:0000C81D  7304 0001:0000C81E  7305 0001:0000C823  7306 0001:0000C827
  7307 0001:0000C829  7308 0001:0000C82C  7309 0001:0000C82D  7310 0001:0000C830
  7311 0001:0000C835  7312 0001:0000C838  7313 0001:0000C83C  7314 0001:0000C841
  7315 0001:0000C844  7316 0001:0000C846  7317 0001:0000C848  7318 0001:0000C84D
  7319 0001:0000C854  7320 0001:0000C857  7321 0001:0000C85C  7322 0001:0000C85E
  7323 0001:0000C860  7324 0001:0000C863  7325 0001:0000C867  7326 0001:0000C86A
  7327 0001:0000C86C  7328 0001:0000C86F  7329 0001:0000C871  7330 0001:0000C875
  7331 0001:0000C878  7332 0001:0000C87A  7333 0001:0000C87C  7334 0001:0000C883
  7335 0001:0000C886  7336 0001:0000C888  7337 0001:0000C88B  7338 0001:0000C88D
  7339 0001:0000C88F  7340 0001:0000C892  7341 0001:0000C893  7342 0001:0000C894
  7343 0001:0000C895  7346 0001:0000C89A  7347 0001:0000C89E  7348 0001:0000C8A2
  7349 0001:0000C8A6  7350 0001:0000C8AA  7352 0001:0000C8AE  7358 0001:0000C8B4
  7359 0001:0000C8B5  7360 0001:0000C8B7  7361 0001:0000C8B9  7362 0001:0000C8BB
  7363 0001:0000C8BC  7369 0001:0000C8BD  7370 0001:0000C8C1  7371 0001:0000C8C3
  7372 0001:0000C8C5  7373 0001:0000C8C6  7379 0001:0000C8C7  7380 0001:0000C8CC
  7381 0001:0000C8D0  7382 0001:0000C8D2  7383 0001:0000C8D5  7384 0001:0000C8D7
  7385 0001:0000C8DA  7386 0001:0000C8DC  7387 0001:0000C8DE  7388 0001:0000C8E0
  7389 0001:0000C8E2  7390 0001:0000C8E3  7391 0001:0000C8E6  7392 0001:0000C8E8
  7393 0001:0000C8EB  7394 0001:0000C8EC  7395 0001:0000C8EE  7396 0001:0000C8F0
  7397 0001:0000C8F2  7398 0001:0000C8F4  7399 0001:0000C8F9  7400 0001:0000C8FA
  7401 0001:0000C8FB  7402 0001:0000C8FD  7403 0001:0000C8FF  7404 0001:0000C900
  7405 0001:0000C902  7406 0001:0000C903  7407 0001:0000C905  7408 0001:0000C907
  7409 0001:0000C909  7410 0001:0000C90C  7411 0001:0000C90E  7412 0001:0000C90F
  7413 0001:0000C911  7414 0001:0000C913  7415 0001:0000C914  7416 0001:0000C916
  7417 0001:0000C918  7418 0001:0000C91A  7419 0001:0000C91C  7420 0001:0000C91E
  7421 0001:0000C920  7422 0001:0000C922  7428 0001:0000C923  7429 0001:0000C928
  7430 0001:0000C92D  7431 0001:0000C930  7432 0001:0000C932  7433 0001:0000C935
  7434 0001:0000C936  7435 0001:0000C93B  7436 0001:0000C93C  7437 0001:0000C93E
  7441 0001:0000C940  7442 0001:0000C943  7443 0001:0000C946  7444 0001:0000C948
  7452 0001:0000C94A  7453 0001:0000C94C  7454 0001:0000C94F  7455 0001:0000C953
  7456 0001:0000C954  7457 0001:0000C959  7464 0001:0000C95A  7470 0001:0000C95F
  7471 0001:0000C962  7472 0001:0000C965  7473 0001:0000C967  7474 0001:0000C96C
  7475 0001:0000C970  7476 0001:0000C972  7477 0001:0000C974  7478 0001:0000C976
  7479 0001:0000C977  7480 0001:0000C979  7481 0001:0000C97B  7482 0001:0000C97F
  7483 0001:0000C981  7484 0001:0000C983  7485 0001:0000C984  7486 0001:0000C986
  7487 0001:0000C988  7488 0001:0000C98A  7489 0001:0000C98B  7490 0001:0000C990
  7491 0001:0000C991  7492 0001:0000C992  7493 0001:0000C994  7494 0001:0000C995
  7495 0001:0000C997  7496 0001:0000C99A  7497 0001:0000C99C  7498 0001:0000C99E
  7499 0001:0000C99F  7500 0001:0000C9A1  7501 0001:0000C9A3  7502 0001:0000C9A5
  7503 0001:0000C9A7  7504 0001:0000C9AA  7505 0001:0000C9AC  7506 0001:0000C9AE
  7507 0001:0000C9AF  7508 0001:0000C9B1  7509 0001:0000C9B3  7510 0001:0000C9B4
  7511 0001:0000C9B5  7512 0001:0000C9B7  7513 0001:0000C9B8  7514 0001:0000C9BA
  7515 0001:0000C9BF  7516 0001:0000C9C0  7517 0001:0000C9C1  7518 0001:0000C9C3
  7524 0001:0000C9C4  7525 0001:0000C9C6  7526 0001:0000C9C9  7527 0001:0000C9CE
  7528 0001:0000C9D2  7529 0001:0000C9D4  7530 0001:0000C9D7  7531 0001:0000C9DC
  7532 0001:0000C9DE  7533 0001:0000C9E0  7534 0001:0000C9E2  7535 0001:0000C9E4
  7536 0001:0000C9EB  7537 0001:0000C9EE  7538 0001:0000C9F3  7539 0001:0000C9F5
  7540 0001:0000C9F7  7541 0001:0000C9F9  7542 0001:0000C9FA  7543 0001:0000C9FB
  7544 0001:0000C9FD  7545 0001:0000C9FF  7546 0001:0000CA01  7547 0001:0000CA03
  7548 0001:0000CA04  7549 0001:0000CA06  7550 0001:0000CA0B  7551 0001:0000CA0D
  7552 0001:0000CA12  7553 0001:0000CA13  7554 0001:0000CA14  7555 0001:0000CA15
  7556 0001:0000CA17  7562 0001:0000CA18  7563 0001:0000CA19  7564 0001:0000CA1C
  7565 0001:0000CA1E  7566 0001:0000CA20  7567 0001:0000CA23  7568 0001:0000CA25
  7569 0001:0000CA26  7574 0001:0000CA27  7575 0001:0000CA2C  7576 0001:0000CA31
  7577 0001:0000CA36  7578 0001:0000CA3B  7579 0001:0000CA40  7580 0001:0000CA45
  7581 0001:0000CA4A  7582 0001:0000CA4F  7583 0001:0000CA54  7584 0001:0000CA59
  7585 0001:0000CA5E  7586 0001:0000CA63  7587 0001:0000CA68  7588 0001:0000CA6D
  7589 0001:0000CA72  7590 0001:0000CA77  7591 0001:0000CA7C  7592 0001:0000CA81
  7593 0001:0000CA86  7596 0001:0000CA8B  7975 0001:0000CA98  7976 0001:0000CA9E
  7977 0001:0000CA9F  7978 0001:0000CAA0  7979 0001:0000CAA1  7980 0001:0000CAA3
  7982 0001:0000CAA5  7983 0001:0000CAA6  7984 0001:0000CAAB  7985 0001:0000CAAC
  7989 0001:0000CAAF  7990 0001:0000CAB2  7991 0001:0000CAB4  7992 0001:0000CAB9
  7993 0001:0000CABE  7994 0001:0000CAC3  8000 0001:0000CAC8  8001 0001:0000CACC
  8002 0001:0000CACE  8003 0001:0000CAD3  8004 0001:0000CAD5  8005 0001:0000CADA
  8007 0001:0000CADC  8008 0001:0000CAE2  8011 0001:0000CAE4  8012 0001:0000CAE7
  8013 0001:0000CAE9  8014 0001:0000CAF0  8015 0001:0000CAF2  8016 0001:0000CAF3
  8017 0001:0000CAF5  8018 0001:0000CAF9  8019 0001:0000CAFE  8020 0001:0000CB00
  8021 0001:0000CB05  8022 0001:0000CB0B  8023 0001:0000CB0E  8024 0001:0000CB0F
  8025 0001:0000CB12  8026 0001:0000CB17  8027 0001:0000CB1A  8028 0001:0000CB1C
  8029 0001:0000CB1D  8030 0001:0000CB20  8031 0001:0000CB25  8032 0001:0000CB26
  8033 0001:0000CB28  8034 0001:0000CB2B  8035 0001:0000CB31  8036 0001:0000CB33
  8037 0001:0000CB37  8038 0001:0000CB38  8039 0001:0000CB3E  8040 0001:0000CB40
  8041 0001:0000CB46  8042 0001:0000CB49  8043 0001:0000CB4C  8044 0001:0000CB4F
  8045 0001:0000CB54  8046 0001:0000CB55  8047 0001:0000CB59  8048 0001:0000CB5B
  8049 0001:0000CB5E  8050 0001:0000CB61  8051 0001:0000CB65  8052 0001:0000CB67
  8053 0001:0000CB68  8054 0001:0000CB6A  8055 0001:0000CB6C  8056 0001:0000CB6D
  8057 0001:0000CB70  8058 0001:0000CB73  8059 0001:0000CB75  8060 0001:0000CB77
  8061 0001:0000CB7C  8062 0001:0000CB7F  8063 0001:0000CB81  8064 0001:0000CB84
  8065 0001:0000CB87  8066 0001:0000CB89  8067 0001:0000CB8E  8068 0001:0000CB90
  8069 0001:0000CB95  8070 0001:0000CB96  8071 0001:0000CB98  8072 0001:0000CB9C
  8073 0001:0000CBA1  8074 0001:0000CBA3  8075 0001:0000CBA5  8076 0001:0000CBAB
  8077 0001:0000CBAE  8078 0001:0000CBB0  8079 0001:0000CBB5  8080 0001:0000CBBA
  8081 0001:0000CBBB  8082 0001:0000CBBD  8083 0001:0000CBC2  8084 0001:0000CBC4
  8086 0001:0000CBC8  8087 0001:0000CBCB  8088 0001:0000CBCF  8089 0001:0000CBD2
  8090 0001:0000CBD5  8091 0001:0000CBD6  8092 0001:0000CBD8  8095 0001:0000CBDA
  8096 0001:0000CBDE  8097 0001:0000CBE2  8098 0001:0000CBE6  8104 0001:0000CBEA
  8105 0001:0000CBEC  8106 0001:0000CBEF  8107 0001:0000CBF1  8108 0001:0000CBF3
  8109 0001:0000CBF9  8110 0001:0000CBFB  8111 0001:0000CBFD  8112 0001:0000CBFF
  8113 0001:0000CC01  8114 0001:0000CC04  8115 0001:0000CC06  8116 0001:0000CC09
  8117 0001:0000CC0B  8118 0001:0000CC0D  8119 0001:0000CC0F  8120 0001:0000CC12
  8121 0001:0000CC14  8122 0001:0000CC19  8123 0001:0000CC1A  8124 0001:0000CC1F
  8125 0001:0000CC25  8126 0001:0000CC27  8127 0001:0000CC28  8128 0001:0000CC2D
  8129 0001:0000CC33  8130 0001:0000CC36  8131 0001:0000CC39  8132 0001:0000CC3C
  8133 0001:0000CC3E  8134 0001:0000CC43  8135 0001:0000CC45  8136 0001:0000CC47
  8137 0001:0000CC4A  8138 0001:0000CC51  8139 0001:0000CC54  8140 0001:0000CC57
  8141 0001:0000CC58  8142 0001:0000CC5A  8143 0001:0000CC5C  8144 0001:0000CC61
  8145 0001:0000CC65  8146 0001:0000CC67  8147 0001:0000CC6A  8148 0001:0000CC6C
  8149 0001:0000CC6E  8150 0001:0000CC70  8151 0001:0000CC72  8152 0001:0000CC73
  8153 0001:0000CC75  8154 0001:0000CC77  8155 0001:0000CC79  8156 0001:0000CC7B
  8157 0001:0000CC7C  8158 0001:0000CC81  8159 0001:0000CC85  8160 0001:0000CC87
  8161 0001:0000CC8A  8162 0001:0000CC8C  8163 0001:0000CC8D  8164 0001:0000CC8F
  8165 0001:0000CC91  8166 0001:0000CC93  8167 0001:0000CC94  8168 0001:0000CC95
  8169 0001:0000CC97  8170 0001:0000CC99  8171 0001:0000CC9D  8172 0001:0000CC9F
  8173 0001:0000CCA2  8174 0001:0000CCA3  8175 0001:0000CCA6  8176 0001:0000CCA8
  8177 0001:0000CCAB  8178 0001:0000CCAE  8179 0001:0000CCB0  8180 0001:0000CCB2
  8181 0001:0000CCB4  8182 0001:0000CCB7  8183 0001:0000CCBA  8184 0001:0000CCBD
  8187 0001:0000CCBE  8188 0001:0000CCBF  8189 0001:0000CCC0  8190 0001:0000CCC1
  8208 0001:0000CCD0  8209 0001:0000CCD6  8210 0001:0000CCD7  8211 0001:0000CCD8
  8212 0001:0000CCD9  8213 0001:0000CCDB  8215 0001:0000CCDD  8216 0001:0000CCDE
  8217 0001:0000CCE3  8218 0001:0000CCE4  8219 0001:0000CCE7  8220 0001:0000CCED
  8221 0001:0000CCEF  8228 0001:0000CCF2  8229 0001:0000CCF6  8231 0001:0000CCF9
  8235 0001:0000CCFF  8236 0001:0000CD01  8237 0001:0000CD06  8238 0001:0000CD08
  8239 0001:0000CD0B  8240 0001:0000CD0D  8241 0001:0000CD10  8242 0001:0000CD12
  8243 0001:0000CD13  8244 0001:0000CD15  8245 0001:0000CD1A  8246 0001:0000CD1C
  8247 0001:0000CD1E  8248 0001:0000CD21  8249 0001:0000CD23  8250 0001:0000CD24
  8251 0001:0000CD29  8252 0001:0000CD2B  8253 0001:0000CD2D  8254 0001:0000CD2F
  8255 0001:0000CD31  8256 0001:0000CD33  8257 0001:0000CD35  8258 0001:0000CD37
  8259 0001:0000CD38  8260 0001:0000CD39  8261 0001:0000CD3E  8262 0001:0000CD3F
  8263 0001:0000CD41  8264 0001:0000CD46  8265 0001:0000CD49  8266 0001:0000CD4B
  8267 0001:0000CD4D  8268 0001:0000CD50  8269 0001:0000CD52  8270 0001:0000CD55
  8271 0001:0000CD56  8272 0001:0000CD59  8273 0001:0000CD5E  8274 0001:0000CD5F
  8275 0001:0000CD62  8276 0001:0000CD64  8277 0001:0000CD66  8278 0001:0000CD69
  8279 0001:0000CD6B  8280 0001:0000CD6D  8281 0001:0000CD6F  8282 0001:0000CD71
  8283 0001:0000CD74  8284 0001:0000CD78  8285 0001:0000CD7A  8286 0001:0000CD7C
  8287 0001:0000CD7E  8288 0001:0000CD80  8289 0001:0000CD82  8290 0001:0000CD85
  8291 0001:0000CD88  8292 0001:0000CD89  8296 0001:0000CD8B  8297 0001:0000CD8C
  8298 0001:0000CD8E  8299 0001:0000CD90  8300 0001:0000CD92  8301 0001:0000CD94
  8302 0001:0000CD95  8309 0001:0000CD96  8310 0001:0000CD98  8311 0001:0000CD9A
  8312 0001:0000CD9B  8313 0001:0000CD9D  8314 0001:0000CD9F  8316 0001:0000CDA1
  8317 0001:0000CDA4  8318 0001:0000CDAA  8322 0001:0000CDAD  8323 0001:0000CDB0
  8324 0001:0000CDB3  8325 0001:0000CDB4  8326 0001:0000CDB6  8327 0001:0000CDB7
  8334 0001:0000CDB8  8335 0001:0000CDBA  8336 0001:0000CDBC  8337 0001:0000CDBE
  8338 0001:0000CDC1  8339 0001:0000CDC3  8340 0001:0000CDC6  8341 0001:0000CDC8
  8342 0001:0000CDC9  8343 0001:0000CDCB  8344 0001:0000CDCD  8345 0001:0000CDCF
  8346 0001:0000CDD1  8347 0001:0000CDD2  8348 0001:0000CDD5  8349 0001:0000CDD7
  8350 0001:0000CDDD  8351 0001:0000CDDF  8352 0001:0000CDE2  8353 0001:0000CDE4
  8354 0001:0000CDE6  8357 0001:0000CDE7  8358 0001:0000CDE8  8359 0001:0000CDE9
  8360 0001:0000CDEA  8365 0001:0000CDF4  8366 0001:0000CE09  8368 0001:0000CE28
  8373 0001:0000CE38  8374 0001:0000CE4D  8376 0001:0000CE6C  8379 0001:0000CE7C
  8380 0001:0000CE8F  8381 0001:0000CEC5  8382 0001:0000CEC9  8383 0001:0000CED8
  8386 0001:0000CEF4  8387 0001:0000CF0B  8388 0001:0000CF22  8389 0001:0000CF6A
  8428 0001:0000CF88  8429 0001:0000CF9A  8430 0001:0000CFAE  8431 0001:0000CFCB
  8440 0001:0000CFE4  8441 0001:0000CFF7  8442 0001:0000D00D  8447 0001:0000D028
  8448 0001:0000D03D  8449 0001:0000D04F  8450 0001:0000D053  8451 0001:0000D05D
  8456 0001:0000D078  8457 0001:0000D08D  8458 0001:0000D09F  8459 0001:0000D0A3
  8460 0001:0000D0AD  8463 0001:0000D0C8  8464 0001:0000D0DA  8465 0001:0000D0EE
  8466 0001:0000D10B  8475 0001:0000D124  8476 0001:0000D137  8477 0001:0000D14D
  8486 0001:0000D168  8487 0001:0000D16B  8489 0001:0000D16C  8490 0001:0000D16D
  8491 0001:0000D172  8492 0001:0000D174  8496 0001:0000D175  8497 0001:0000D177
  8498 0001:0000D17A  8499 0001:0000D180  8500 0001:0000D183  8501 0001:0000D186
  8502 0001:0000D187  8503 0001:0000D188  8504 0001:0000D189  8505 0001:0000D18B
  8506 0001:0000D18D  8507 0001:0000D18F  8508 0001:0000D191  8509 0001:0000D194
  8510 0001:0000D19A  8511 0001:0000D19C  8512 0001:0000D19E  8513 0001:0000D1A4
  8514 0001:0000D1A9  8515 0001:0000D1AB  8516 0001:0000D1AE  8517 0001:0000D1AF
  8520 0001:0000D1B8  8521 0001:0000D1C8  8522 0001:0000D1D4  8523 0001:0000D1FD
  8527 0001:0000D218  8529 0001:0000D219  8530 0001:0000D21A  8531 0001:0000D21F
  8532 0001:0000D221  8536 0001:0000D222  8537 0001:0000D223  8538 0001:0000D228
  8539 0001:0000D229  8540 0001:0000D22B  8541 0001:0000D22E  8542 0001:0000D233
  8543 0001:0000D239  8544 0001:0000D23B  8545 0001:0000D23D  8546 0001:0000D23F
  8547 0001:0000D242  8548 0001:0000D244  8549 0001:0000D246  8550 0001:0000D249
  8551 0001:0000D24A  8552 0001:0000D24B  8553 0001:0000D24E  8554 0001:0000D254
  8555 0001:0000D257  8556 0001:0000D258  8559 0001:0000D270  8560 0001:0000D273
  8562 0001:0000D274  8563 0001:0000D275  8564 0001:0000D27A  8565 0001:0000D27C
  8569 0001:0000D27D  8570 0001:0000D27F  8571 0001:0000D282  8572 0001:0000D285
  8573 0001:0000D28B  8574 0001:0000D28D  8575 0001:0000D290  8576 0001:0000D291
  8580 0001:0000D298  8582 0001:0000D299  8583 0001:0000D29A  8584 0001:0000D29F
  8585 0001:0000D2A1  8589 0001:0000D2A2  8590 0001:0000D2A3  8591 0001:0000D2A8
  8592 0001:0000D2A9  8593 0001:0000D2AC  8594 0001:0000D2B2  8595 0001:0000D2B4
  8596 0001:0000D2B5  8601 0001:0000D2C8  8602 0001:0000D2DD  8603 0001:0000D2E1
  8605 0001:0000D2FB  8609 0001:0000D332  8611 0001:0000D339  8614 0001:0000D350
  8615 0001:0000D36C  8616 0001:0000D386  8617 0001:0000D394  8622 0001:0000D3A4
  8623 0001:0000D3BF  8624 0001:0000D3E0  8625 0001:0000D3F3  8626 0001:0000D407
  8631 0001:0000D418  8632 0001:0000D429  8633 0001:0000D460  8639 0001:0000D47C
  8640 0001:0000D49B  8641 0001:0000D49F  8642 0001:0000D4BA  8645 0001:0000D500
  8646 0001:0000D51E  8647 0001:0000D523  8648 0001:0000D567  8650 0001:0000D56E
  8653 0001:0000D580  8654 0001:0000D599  8655 0001:0000D5B0  8656 0001:0000D5BF
  8668 0001:0000D5E0  8669 0001:0000D5FC  8670 0001:0000D60D  8672 0001:0000D611
  8673 0001:0000D619  8674 0001:0000D621  8675 0001:0000D629  8676 0001:0000D631
  8679 0001:0000D63A  8680 0001:0000D64B  8681 0001:0000D64C  8682 0001:0000D650
  8684 0001:0000D658  8685 0001:0000D65E  8682 0001:0000D663  8687 0001:0000D66B
  8688 0001:0000D67C  8690 0001:0000D683  8691 0001:0000D687  8693 0001:0000D68D
  8694 0001:0000D695  8695 0001:0000D6A9  8696 0001:0000D6B3  8697 0001:0000D6C7
  8699 0001:0000D6CE  8700 0001:0000D6D2  8702 0001:0000D6D8  8703 0001:0000D6DC
  8704 0001:0000D6E6  8705 0001:0000D6FA  8708 0001:0000D700  8709 0001:0000D710
  8710 0001:0000D71A  8711 0001:0000D722  8706 0001:0000D726  8713 0001:0000D728
  8714 0001:0000D72E  8715 0001:0000D738  8717 0001:0000D746  8728 0001:0000D758
  8729 0001:0000D770  8730 0001:0000D784  8757 0001:0000D794  8758 0001:0000D7A6
  8759 0001:0000D7C2  8893 0001:0000D7D0  8894 0001:0000D7DF  8895 0001:0000D7FB
  8896 0001:0000D81C  8897 0001:0000D825  8911 0001:0000D850  8912 0001:0000D864
  8913 0001:0000D872  8914 0001:0000D878  8915 0001:0000D899  8916 0001:0000D8A2
  8919 0001:0000D8B0  8920 0001:0000D8C2  8921 0001:0000D8D7  8928 0001:0000D8DC
  8929 0001:0000D8F4  8931 0001:0000D92C  8945 0001:0000D93C  8946 0001:0000D952
  8947 0001:0000D956  8948 0001:0000D964  8949 0001:0000D96F  8952 0001:0000D974
  8953 0001:0000D983  8955 0001:0000D98C  8956 0001:0000D9AF  8958 0001:0000D9B6
  8961 0001:0000D9BC  8962 0001:0000D9CB  8964 0001:0000D9D4  8965 0001:0000D9FE
  8967 0001:0000DA05  9040 0001:0000DA0C  9041 0001:0000DA21  9042 0001:0000DA25
  9044 0001:0000DA3B  9047 0001:0000DA4A  9048 0001:0000DA50  9050 0001:0000DA52
  9042 0001:0000DA58  9051 0001:0000DA5F  9056 0001:0000DA6C  9057 0001:0000DA7F
  9058 0001:0000DA86  9059 0001:0000DA9C  9060 0001:0000DAA2  9061 0001:0000DAB8
  9067 0001:0000DAC4  9068 0001:0000DAE1  9069 0001:0000DAF7  9070 0001:0000DAFD
  9072 0001:0000DB20  9074 0001:0000DB31  9073 0001:0000DB42  9075 0001:0000DB4E
  9076 0001:0000DB5A  9077 0001:0000DB77  9078 0001:0000DB9A  9081 0001:0000DBC4
  9082 0001:0000DBE1  9084 0001:0000DBFB  9085 0001:0000DC04  9086 0001:0000DC08
  9087 0001:0000DC0C  9088 0001:0000DC10  9091 0001:0000DC19  9092 0001:0000DC1C
  9094 0001:0000DC30  9095 0001:0000DC47  9096 0001:0000DC52  9097 0001:0000DC56
  9099 0001:0000DC5B  9100 0001:0000DC66  9101 0001:0000DC69  9102 0001:0000DC75
  9104 0001:0000DC7F  9105 0001:0000DC8B  9107 0001:0000DC8E  9110 0001:0000DD30
  9111 0001:0000DD37  9112 0001:0000DD3E  9113 0001:0000DD44  9114 0001:0000DD67
  9118 0001:0000DD7F  9119 0001:0000DD86  9120 0001:0000DD8D  9124 0001:0000DDAC
  9125 0001:0000DDB3  9126 0001:0000DDBA  9130 0001:0000DDD9  9131 0001:0000DDE0
  9132 0001:0000DDE7  9133 0001:0000DDF4  9134 0001:0000DE0A  9136 0001:0000DE27
  9141 0001:0000DE44  9142 0001:0000DE4B  9145 0001:0000DE61  9146 0001:0000DE68
  9148 0001:0000DE7E  9149 0001:0000DEA8  9150 0001:0000DED2  9152 0001:0000DEE9
  9157 0001:0000DF00  9158 0001:0000DF07  9159 0001:0000DF0E  9160 0001:0000DF12
  9163 0001:0000DF1D  9165 0001:0000DF32  9166 0001:0000DF3D  9168 0001:0000DF42
  9170 0001:0000DF70  9172 0001:0000DF76  9175 0001:0000DFBB  9176 0001:0000DFBF
  9180 0001:0000DFC1  9182 0001:0000DFC9  9161 0001:0000DFCC  9184 0001:0000DFD8
  9185 0001:0000DFE0  9186 0001:0000DFE6  9187 0001:0000E001  9188 0001:0000E00E
  9192 0001:0000E024  9193 0001:0000E02B  9194 0001:0000E032  9195 0001:0000E03F
  9199 0001:0000E055  9200 0001:0000E05C  9201 0001:0000E063  9202 0001:0000E070
  9206 0001:0000E086  9207 0001:0000E08D  9208 0001:0000E093  9209 0001:0000E0AA
  9213 0001:0000E0C1  9214 0001:0000E0C8  9215 0001:0000E0CF  9216 0001:0000E0DC
  9220 0001:0000E0F2  9221 0001:0000E0F9  9222 0001:0000E100  9224 0001:0000E117
  9225 0001:0000E122  9226 0001:0000E134  9227 0001:0000E138  9229 0001:0000E141
  9231 0001:0000E158  9232 0001:0000E163  9233 0001:0000E175  9234 0001:0000E179
  9236 0001:0000E182  9238 0001:0000E199  9239 0001:0000E1A0  9240 0001:0000E1B4
  9241 0001:0000E1C6  9242 0001:0000E1CA  9244 0001:0000E1D3  9246 0001:0000E1EA
  9247 0001:0000E1F1  9248 0001:0000E216  9250 0001:0000E21F  9252 0001:0000E236
  9253 0001:0000E23D  9254 0001:0000E262  9256 0001:0000E26B  9260 0001:0000E282
  9261 0001:0000E289  9262 0001:0000E29B  9263 0001:0000E2A2  9265 0001:0000E2BB
  9266 0001:0000E2D0  9270 0001:0000E2E7  9271 0001:0000E2F6  9273 0001:0000E310
  9274 0001:0000E31F  9277 0001:0000E336  9280 0001:0000E33E  9281 0001:0000E353
  9283 0001:0000E360  9278 0001:0000E363  9285 0001:0000E375  9286 0001:0000E388
  9289 0001:0000E395  9089 0001:0000E3A7  9292 0001:0000E3B4  9294 0001:0000E3DA
  9296 0001:0000E41C  9297 0001:0000E437  9298 0001:0000E43F  9299 0001:0000E447
  9300 0001:0000E463  9301 0001:0000E476  9304 0001:0000E48C  9305 0001:0000E49F
  9306 0001:0000E4D2  9307 0001:0000E4D6  9308 0001:0000E4DF  9311 0001:0000E4F4
  9312 0001:0000E506  9313 0001:0000E51D  9314 0001:0000E53A  9322 0001:0000E548
  9323 0001:0000E557  9324 0001:0000E56A  9327 0001:0000E574  9328 0001:0000E583
  9329 0001:0000E590  9344 0001:0000E598  9345 0001:0000E5AC  9346 0001:0000E5B3
  9347 0001:0000E5C6  9348 0001:0000E5CB  9353 0001:0000E5E8  9354 0001:0000E5FE
  9355 0001:0000E605  9356 0001:0000E622  9357 0001:0000E627  9358 0001:0000E635
  9365 0001:0000E654  9366 0001:0000E671  9367 0001:0000E675  9368 0001:0000E67B
  9369 0001:0000E686  9370 0001:0000E68B  9373 0001:0000E68F  9374 0001:0000E6A7
  9371 0001:0000E6A8  9376 0001:0000E6C8  9378 0001:0000E6CF  9379 0001:0000E6DD
  9380 0001:0000E6E2  9381 0001:0000E6E8  9383 0001:0000E6EF  9387 0001:0000E700
  9388 0001:0000E720  9389 0001:0000E724  9391 0001:0000E728  9392 0001:0000E732
  9394 0001:0000E757  9395 0001:0000E760  9398 0001:0000E77F  9404 0001:0000E79C
  9405 0001:0000E7BD  9406 0001:0000E7C1  9408 0001:0000E7C5  9409 0001:0000E7E7
  9411 0001:0000E7EB  9412 0001:0000E7FA  9415 0001:0000E819  9420 0001:0000E838
  9421 0001:0000E84E  9423 0001:0000E858  9424 0001:0000E85F  9425 0001:0000E87F
  9426 0001:0000E884  9427 0001:0000E897  9430 0001:0000E8B8  9431 0001:0000E8D0
  9432 0001:0000E8D5  9433 0001:0000E8DE  9435 0001:0000E8F4  9436 0001:0000E8F6
  9438 0001:0000E8FF  9443 0001:0000E920  9444 0001:0000E931  9445 0001:0000E935
  9448 0001:0000E93C  9449 0001:0000E954  9450 0001:0000E95A  9451 0001:0000E960
  9452 0001:0000E966  9454 0001:0000E96C  9446 0001:0000E96D  9459 0001:0000E978
  9460 0001:0000E97F  9463 0001:0000E99C  9466 0001:0000E9B0  9467 0001:0000E9C6
  9469 0001:0000E9D3  9464 0001:0000E9D5  9471 0001:0000E9EC  9476 0001:0000EA04
  9477 0001:0000EA18  9478 0001:0000EA1E  9480 0001:0000EA32  9481 0001:0000EA37
  9483 0001:0000EA51  9484 0001:0000EA57  9486 0001:0000EA59  9478 0001:0000EA5F
  9487 0001:0000EA69  9501 0001:0000EA8C  9513 0001:0000EA9B  9514 0001:0000EAA1
  9516 0001:0000EAA8  9517 0001:0000EAD4  9518 0001:0000EADA  9519 0001:0000EAE0
  9520 0001:0000EAE6  9521 0001:0000EAEA  9522 0001:0000EAEE  9523 0001:0000EAFE
  9524 0001:0000EB24  9525 0001:0000EB29  9527 0001:0000EB36  9528 0001:0000EB3F
  9529 0001:0000EB5D  9532 0001:0000EB6A  9533 0001:0000EB81  9534 0001:0000EB8C
  9536 0001:0000EB92  9537 0001:0000EBDB  9541 0001:0000EBDD  9542 0001:0000EBED
  9543 0001:0000EBF6  9545 0001:0000EC06  9547 0001:0000EC3C  9548 0001:0000EC54
  9549 0001:0000EC63  9550 0001:0000EC83  9551 0001:0000ECA3  9553 0001:0000ECC1
  9554 0001:0000ECC7  9556 0001:0000ECD8  9558 0001:0000ECDE  9559 0001:0000ECF4
  9560 0001:0000ED07  9561 0001:0000ED1C  9565 0001:0000ED23  9566 0001:0000ED2C
  9568 0001:0000ED32  9571 0001:0000ED44  9574 0001:0000ED54  9575 0001:0000ED65
  9576 0001:0000ED6B  9577 0001:0000ED74  9578 0001:0000ED7D  9580 0001:0000EDA8
  9581 0001:0000EDB8  9584 0001:0000EDC8  9585 0001:0000EDDE  9586 0001:0000EDE7
  9590 0001:0000EE56  9591 0001:0000EE96  9600 0001:0000EED0  9601 0001:0000EEF0
  9602 0001:0000EEF4  9603 0001:0000EF1A  9604 0001:0000EF21  9605 0001:0000EF49
  9606 0001:0000EF50  9607 0001:0000EF78  9608 0001:0000EF7F  9609 0001:0000EF8E
  9610 0001:0000EFA6  9612 0001:0000EFCB  9613 0001:0000EFD1  9614 0001:0000EFD7
  9615 0001:0000EFDD  9617 0001:0000EFE3  9618 0001:0000EFFB  9620 0001:0000F014
  9621 0001:0000F02C  9622 0001:0000F041  9627 0001:0000F05B  9628 0001:0000F064
  9629 0001:0000F07C  9630 0001:0000F085  9632 0001:0000F095  9633 0001:0000F09F
  9635 0001:0000F0A5  9636 0001:0000F0CD  9638 0001:0000F0D7  9639 0001:0000F0FF
  9643 0001:0000F108  9644 0001:0000F130  9646 0001:0000F137  9647 0001:0000F15F
  9649 0001:0000F166  9651 0001:0000F16C  9652 0001:0000F17A  9653 0001:0000F187
  9655 0001:0000F18F  9656 0001:0000F195  9657 0001:0000F19E  9658 0001:0000F1A7
  9660 0001:0000F1DF  9677 0001:0000F218  9678 0001:0000F22D  9679 0001:0000F235
  9680 0001:0000F25F  9697 0001:0000F280  9698 0001:0000F295  9699 0001:0000F29D
  9700 0001:0000F2C7  9703 0001:0000F2E8  9704 0001:0000F2FA  9705 0001:0000F307
  9706 0001:0000F324  9718 0001:0000F33C  9719 0001:0000F351  9720 0001:0000F356
  9721 0001:0000F35E  9722 0001:0000F368  9726 0001:0000F39B  9728 0001:0000F3AB
  9729 0001:0000F3BA  9731 0001:0000F3CA  9732 0001:0000F3DC  9751 0001:0000F3FC
  9753 0001:0000F414  9754 0001:0000F43F  9849 0001:0000F470  9850 0001:0000F48D
  9851 0001:0000F4A7  9852 0001:0000F4B0  9854 0001:0000F4C2  9855 0001:0000F4CB
  9859 0001:0000F4DC  9860 0001:0000F4F6  9862 0001:0000F50A  9864 0001:0000F52F
  9866 0001:0000F555  9860 0001:0000F55D  9867 0001:0000F562  9869 0001:0000F579
  9871 0001:0000F59F  9873 0001:0000F5C5  9867 0001:0000F5CE  9874 0001:0000F5F0
 10010 0001:0000F60C 10011 0001:0000F62B 10012 0001:0000F634 10013 0001:0000F65A
 10014 0001:0000F660 10016 0001:0000F66E 10017 0001:0000F675 10019 0001:0000F69D
 10020 0001:0000F6AE 10026 0001:0000F6D4 10027 0001:0000F6E9 10028 0001:0000F6FA
 10030 0001:0000F6FF 10031 0001:0000F704 10032 0001:0000F71E 10035 0001:0000F726
 10036 0001:0000F73B 10037 0001:0000F755 10038 0001:0000F76A 10039 0001:0000F784
 10040 0001:0000F799 10041 0001:0000F7B3 10042 0001:0000F7CE 10045 0001:0000F7D6
 10046 0001:0000F7EB 10047 0001:0000F800 10048 0001:0000F80F 10049 0001:0000F824
 10050 0001:0000F833 10054 0001:0000F84D 10055 0001:0000F862 10056 0001:0000F87C
 10057 0001:0000F891 10058 0001:0000F8AB 10062 0001:0000F8C7 10063 0001:0000F8DC
 10064 0001:0000F909 10065 0001:0000F911 10066 0001:0000F923 10069 0001:0000F927
 10070 0001:0000F93C 10071 0001:0000F969 10072 0001:0000F96D 10074 0001:0000F97C
 10075 0001:0000F98E 10076 0001:0000F992 10077 0001:0000F99A 10078 0001:0000F9B8
 10017 0001:0000F9C7 10081 0001:0000F9D0 10083 0001:0000FA26 10084 0001:0000FA2E
 10085 0001:0000FA37 10086 0001:0000FA40 10087 0001:0000FA4A 10088 0001:0000FA52
 10081 0001:0000FA65 10089 0001:0000FA90 10158 0001:0000FAE0 10159 0001:0000FB0E
 10160 0001:0000FB14 10161 0001:0000FB1D 10163 0001:0000FB2E 10164 0001:0000FB38
 10165 0001:0000FB42 10167 0001:0000FB5B 10168 0001:0000FB8A 10170 0001:0000FBAC
 10171 0001:0000FBC2 10173 0001:0000FC54 10174 0001:0000FC7D 10205 0001:0000FCB4
 10206 0001:0000FCC6 10207 0001:0000FCD4 10208 0001:0000FCE2 10209 0001:0000FCF2
 10210 0001:0000FD1A 10236 0001:0000FD44 10237 0001:0000FD6E 10238 0001:0000FD94
 10242 0001:0000FDB0 10243 0001:0000FDDF 10244 0001:0000FE2F 10252 0001:0000FE68
 10253 0001:0000FE92 10254 0001:0000FEB8 10264 0001:0000FED4 10265 0001:0000FF06
 10266 0001:0000FF66 10313 0001:0000FFA0 10314 0001:0000FFAC 10315 0001:0000FFB2
 10316 0001:0000FFB7 10338 0001:0000FFC4 10339 0001:0000FFD5 10340 0001:0000FFD7
 10341 0001:0000FFE0 10342 0001:0000FFEF 10343 0001:0000FFF4 10344 0001:0001000D
 10345 0001:00010033 10346 0001:0001003C 10390 0001:00010060 10391 0001:00010072
 10393 0001:00010084 10395 0001:0001008C 10398 0001:00010094 10399 0001:000100A4
 10402 0001:000100BC 10404 0001:000100C3 10405 0001:000100CE 10421 0001:000100E8
 10422 0001:0001010B 10423 0001:00010129 10425 0001:0001018E 10433 0001:000101AC
 10434 0001:000101AE 10435 0001:000101B1 10436 0001:000101B4 10437 0001:000101B9
 10446 0001:000101C0 10447 0001:000101D2 10449 0001:000101D9 10455 0001:000101E7
 10492 0001:000101F0 10493 0001:000101FC 10494 0001:0001020A 10495 0001:00010218
 10496 0001:00010226 10497 0001:00010234 10498 0001:00010242 10499 0001:0001024E
 10500 0001:00010250 10503 0001:0001025C 10504 0001:00010268 10506 0001:0001027C
 10508 0001:00010280 10510 0001:00010284 10512 0001:00010291 10514 0001:00010293
 10517 0001:000102A0 10518 0001:000102AC 10520 0001:000102EE 10522 0001:000102F2
 10524 0001:000102F6 10527 0001:000102FA 10530 0001:000102FE 10532 0001:00010302
 10534 0001:00010306 10536 0001:00010308 10541 0001:00010314 10542 0001:00010324
 10544 0001:00010366 10546 0001:0001036A 10548 0001:0001036E 10550 0001:00010377
 10552 0001:00010380 10554 0001:00010389 10556 0001:00010392 10558 0001:00010394
 10559 0001:000103A2 10653 0001:000103BC 10654 0001:000103E0 10657 0001:000103FD
 10658 0001:0001040F 10661 0001:00010425 10665 0001:00010461 10668 0001:00010496
 10669 0001:0001049E 10670 0001:000104A4 10671 0001:000104CF 10677 0001:000104EC
 10678 0001:000104F8 10679 0001:000104FD 10680 0001:00010507 10717 0001:00010514
 10718 0001:0001052A 10719 0001:0001053B 10749 0001:00010558 10750 0001:0001055A
 10751 0001:0001055D 10752 0001:0001055F 10753 0001:00010562 10756 0001:00010565
 10757 0001:00010567 10759 0001:00010568 10760 0001:00010569 10761 0001:0001056A
 10762 0001:0001056F 10763 0001:00010575 10764 0001:00010577 10765 0001:00010578
 10769 0001:00010579 10770 0001:0001057A 10771 0001:0001057C 10772 0001:00010581
 10775 0001:FFFFFFA0 10789 0001:00010584 10804 0001:00010598 10806 0001:000105BA
 10808 0001:000105C4 10817 0001:000105CE 10827 0001:000105E1 10829 0001:000105EC
 10831 0001:000105F1 10832 0001:000105FA 10834 0001:000105FC 10836 0001:00010601
 10837 0001:0001060A 10841 0001:0001060C 10843 0001:00010611 10845 0001:00010617
 10846 0001:0001061D 10847 0001:00010626 10849 0001:00010632 10850 0001:0001063B
 10872 0001:00010644 10873 0001:00010659 10874 0001:00010685 10875 0001:0001069D
 10877 0001:000106A8 10878 0001:000106B5 10880 0001:000106B9 10883 0001:000106BD
 10884 0001:000106BF 10903 0001:000106EC 10904 0001:00010701 10906 0001:00010706
 10907 0001:00010708 10906 0001:00010710 10908 0001:00010715 10911 0001:0001071A
 10912 0001:00010728 10913 0001:00010731 10914 0001:0001073C 10915 0001:0001075A
 10916 0001:00010778 10917 0001:000107AD 10918 0001:000107C5 10919 0001:000107D0
 10924 0001:00010814 10925 0001:00010827 10927 0001:0001082C 10928 0001:0001082E
 10927 0001:00010839 10929 0001:0001083E 10931 0001:00010840 10933 0001:0001084D
 10935 0001:0001085E 10936 0001:00010890 10937 0001:000108A8 10939 0001:000108B3
 10942 0001:000108D8 10943 0001:000108E4 10944 0001:000108EF 10945 0001:000108F9
 10948 0001:00010908 10949 0001:00010915 10950 0001:00010920 10953 0001:0001092D
 10955 0001:00010935 10958 0001:00010948 10959 0001:0001095D 10960 0001:00010980
 10961 0001:00010983 10962 0001:00010989 10965 0001:000109A8 10966 0001:000109BB
 10967 0001:000109BF 10969 0001:000109D0 10970 0001:000109D6 10971 0001:000109DC
 10972 0001:000109E2 10974 0001:000109E9 10979 0001:00010A04 10980 0001:00010A10
 10981 0001:00010A29 10982 0001:00010A42 10983 0001:00010A50 10984 0001:00010A5E
 10991 0001:00010A6C 10992 0001:00010A7A 10995 0001:00010A88 11010 0001:00010A96
 11011 0001:00010AA1 11013 0001:00010AA6 11016 0001:00010AB4 11017 0001:00010AC0
 11019 0001:00010AC9 11020 0001:00010AD3 11021 0001:00010ADE 11023 0001:00010AE6
 11025 0001:00010AEF 11026 0001:00010AF9 11027 0001:00010B04 11029 0001:00010B0C
 11030 0001:00010B16 11031 0001:00010B20 11037 0001:00010B2A 11038 0001:00010B34
 11040 0001:00010B3E 11042 0001:00010B48 11043 0001:00010B53 11045 0001:00010B58
 11128 0001:00010B68 11129 0001:00010B7F 11130 0001:00010B84 11132 0001:00010B97
 11134 0001:00010B99 11135 0001:00010BAF 11137 0001:00010BBB 11138 0001:00010BC0
 11139 0001:00010BC2 11141 0001:00010BC8 11142 0001:00010BCD 11143 0001:00010BD5
 11145 0001:00010BDC 11146 0001:00010BE5 11150 0001:00010C00 11151 0001:00010C13
 11152 0001:00010C15 11153 0001:00010C21 11154 0001:00010C31 11157 0001:00010C48
 11158 0001:00010C55 11159 0001:00010C57 11160 0001:00010C63 11161 0001:00010C6C
 11248 0001:00010C80 11250 0001:00010C8F 11251 0001:00010CBF 11259 0001:00010CC9
 11262 0001:00010CF0 11264 0001:00010CFF 11269 0001:00010D08 11272 0001:00010D1C
 11273 0001:00010D2F 11274 0001:00010D36 11275 0001:00010D5B 11276 0001:00010D7C
 11277 0001:00010D91 11280 0001:00010E10 11281 0001:00010E23 11282 0001:00010E29
 11283 0001:00010E4E 11284 0001:00010E6F 11285 0001:00010E86 11288 0001:00010F04
 11289 0001:00010F17 11291 0001:00010F46 11306 0001:00010F64 11307 0001:00010F76
 11308 0001:00010F7F 11309 0001:00010F93 11310 0001:00010FA0 11318 0001:00010FC4
 11319 0001:00010FD6 11320 0001:00010FDF 11321 0001:00010FF3 11322 0001:00011004
 11327 0001:0001101C 11328 0001:00011032 11329 0001:00011038 11330 0001:00011050
 11331 0001:00011054 11332 0001:00011066 11419 0001:00011088 11420 0001:0001109E
 11421 0001:000110A0 11422 0001:000110C7 11423 0001:000110D2 11424 0001:000110DE
 11427 0001:000110EC 11434 0001:000110FB 11437 0001:00011128 11438 0001:00011129
 11425 0001:00011135 11440 0001:00011149 11441 0001:0001114D 11444 0001:0001117C
 11445 0001:0001118E 11446 0001:00011196 11447 0001:0001119A 11449 0001:000111A0
 11451 0001:000111A4 11452 0001:000111A8 11453 0001:000111A9 11449 0001:000111B1
 11456 0001:000111B9 11459 0001:000111D0 11460 0001:000111E4 11461 0001:000111F0
 11470 0001:000111F4 11472 0001:00011203 11473 0001:00011204 11461 0001:00011210
 11475 0001:00011216 11613 0001:00011234 11614 0001:00011242 11615 0001:00011254
 11616 0001:0001127A 11618 0001:00011286 11619 0001:0001128B 11621 0001:00011290
 11622 0001:00011295 11623 0001:000112C6 11619 0001:000112C7 11624 0001:000112CF
 11673 0001:000112FC 11674 0001:0001131E 11677 0001:0001132A 11679 0001:00011333
 11680 0001:00011334 11681 0001:00011429 11682 0001:0001143B 11683 0001:0001144D
 11684 0001:0001145F 11685 0001:00011471 11687 0001:00011483 11688 0001:00011495
 11689 0001:000114A7 11691 0001:000114B9 11692 0001:000114CB 11693 0001:000114DD
 11694 0001:000114EF 11695 0001:00011501 11697 0001:00011513 11698 0001:00011525
 11699 0001:00011537 11700 0001:00011549 11701 0001:0001155B 11704 0001:0001156D
 11705 0001:0001157F 11706 0001:000115B9 11708 0001:000115CB 11709 0001:000115DD
 11710 0001:000115EF 11716 0001:00011601 11717 0001:00011638 11718 0001:0001166F
 11719 0001:0001167E 11721 0001:0001168D 11725 0001:0001169C 11726 0001:000116B0
 11675 0001:000116B1 11728 0001:000116BA 11729 0001:000116BF 11730 0001:000116E6
 11735 0001:00011840 11736 0001:0001185E 11737 0001:00011866 11738 0001:0001187B
 11739 0001:00011898 11741 0001:0001189C 11742 0001:000118A6 11744 0001:000118A8
 11737 0001:000118AB 11745 0001:000118C9 11749 0001:000118E4 11750 0001:00011915
 11751 0001:0001191A 11752 0001:0001191F 11754 0001:00011930 11755 0001:0001193B
 11756 0001:00011944 11757 0001:0001194D 11758 0001:00011956 11759 0001:0001195F
 11761 0001:00011968 11762 0001:00011981 11764 0001:00011989 11765 0001:00011990
 11767 0001:0001199D 11770 0001:000119AB 11771 0001:000119C7 11772 0001:000119CE
 11777 0001:000119F8 11780 0001:00011A05 11781 0001:00011A2A 11782 0001:00011A36
 11785 0001:00011A41 11786 0001:00011A81 11787 0001:00011AC3 11788 0001:00011B03
 11790 0001:00011B45 11791 0001:00011B60 11793 0001:00011B7B 11794 0001:00011BA4
 11795 0001:00011BCD 11796 0001:00011BF6 11831 0001:00011C58 11832 0001:00011C83
 11834 0001:00011C89 11835 0001:00011C94 11838 0001:00011CA1 11839 0001:00011CAC
 11841 0001:00011CB7 11842 0001:00011CC2 11845 0001:00011CCE 11846 0001:00011CDB
 11848 0001:00011CDF 11849 0001:00011CE9 11851 0001:00011CEB 11852 0001:00011D13
 11853 0001:00011D30 11855 0001:00011D36 11856 0001:00011D40 11858 0001:00011D42
 11843 0001:00011D5F 11860 0001:00011D86 12198 0001:00011DA8 12199 0001:00011DB7
 12200 0001:00011DD1 12203 0001:00011DF0 12204 0001:00011DFF 12205 0001:00011E17
 12212 0001:00011E34 12214 0001:00011E4B 12215 0001:00011E62 12216 0001:00011E85
 12217 0001:00011E9C 12218 0001:00011EA0 12219 0001:00011EA7 12230 0001:00011EC8
 12231 0001:00011ED2 12233 0001:00011ED8 12234 0001:00011EFA 12236 0001:00011F01
 12237 0001:00011F1D 12238 0001:00011F26 12240 0001:00011F2A 12241 0001:00011F2E
 12573 0001:00011F88 12574 0001:00011FA0 12575 0001:00011FA7 12576 0001:00011FAB
 12579 0001:00011FE3 12580 0001:00011FF8 12581 0001:00011FFB 12582 0001:0001201A
 12637 0001:00012038 12640 0001:0001204D 12641 0001:0001204F 12642 0001:00012053
 12638 0001:0001205D 12644 0001:00012062 12797 0001:00012074 12798 0001:0001209B
 12799 0001:000120A4 12800 0001:000120C8 12803 0001:000120E4 12804 0001:000120FC
 12805 0001:00012109 12806 0001:00012131 12809 0001:00012154 12810 0001:00012160
 12811 0001:0001217B 12812 0001:0001217D 12815 0001:00012194 12816 0001:000121A0
 12817 0001:000121BB 12820 0001:000121D4 12821 0001:000121E0 12822 0001:000121FB
 12825 0001:00012214 12826 0001:00012220 12827 0001:0001223B 13147 0001:00012254
 13148 0001:00012260 13149 0001:00012262 13150 0001:00012266 13151 0001:0001226D
 13344 0001:0001227C 13346 0001:00012291 13349 0001:00012294 13352 0001:000122AB
 13353 0001:000122AD 13356 0001:000122BB 13384 0001:000122D8 13385 0001:000122E6
 13386 0001:000122FF 13387 0001:0001231F 13388 0001:00012328 13391 0001:00012348
 13399 0001:00012397 13404 0001:000123B9 13413 0001:000123D9 13414 0001:00012401
 13415 0001:00012421 13420 0001:000124E4 13427 0001:000124F1 13428 0001:000124F8
 13429 0001:0001250D 13430 0001:00012540 13439 0001:00012568 13440 0001:00012579
 13441 0001:00012581 13442 0001:00012588 13444 0001:0001258E 13447 0001:000125AC
 13448 0001:000125DC 13473 0001:000129F4 13474 0001:00012A18 13476 0001:00012A36
 13477 0001:00012A3B 13479 0001:00012BA6 13451 0001:00012BBC 13452 0001:00012BED
 13453 0001:00012C07 13456 0001:00012C0C 13457 0001:00012C1A 13459 0001:00012C28
 13466 0001:00012C2D 13468 0001:00012C42

Line numbers for VarUtils(VarUtils.pas) segment .text

   270 0001:00012C64   278 0001:00012C73   279 0001:00012C84   282 0001:00012C8C
   283 0001:00012C9D   284 0001:00012CA4   285 0001:00012CB5   288 0001:00012CBC
   289 0001:00012CCD   292 0001:00012CD4   293 0001:00012CE5   296 0001:00012CEC
   297 0001:00012CFD   301 0001:00012D04   302 0001:00012D09   318 0001:00012D1C
   319 0001:00012D2E   320 0001:00012D33   321 0001:00012D42   324 0001:00012D4C
   325 0001:00012D60   328 0001:00012D62   329 0001:00012D68   334 0001:00012D87
   335 0001:00012D8D   341 0001:00012DD7   343 0001:00012DE1   347 0001:00012DEB
   349 0001:00012DF5   354 0001:00012DFA   355 0001:00012E09   356 0001:00012E18
   359 0001:00012E24   361 0001:00012E3A   362 0001:00012E41   367 0001:00012E48
   368 0001:00012E62   372 0001:00012E6A   373 0001:00012E73   376 0001:00012E9C
   377 0001:00012EA5   379 0001:00012EB3   384 0001:00012F0F   386 0001:00012F24
   388 0001:00012F4A   392 0001:00012F5A   394 0001:00012F6A   399 0001:00012F6F
   400 0001:00012F73   403 0001:00012F96   406 0001:00012FB4   407 0001:00012FCA
   408 0001:00012FD0   409 0001:00012FF3   410 0001:00012FF9   413 0001:00013003
   414 0001:00013005   418 0001:00013078   420 0001:0001308A   422 0001:0001309A
   424 0001:000130AA   426 0001:000130C0   428 0001:000130D6   430 0001:000130EC
   432 0001:00013117   434 0001:00013129   436 0001:00013136   438 0001:00013145
   440 0001:00013152   442 0001:00013164   444 0001:00013171   446 0001:0001317E
   448 0001:0001318D   450 0001:0001319A   452 0001:0001319F   453 0001:000131A3
   455 0001:000131CA   464 0001:000131E8   465 0001:00013205   468 0001:0001320A
   469 0001:00013225   470 0001:0001322A   473 0001:00013230   477 0001:00013252
   478 0001:00013270   482 0001:0001327A   483 0001:0001329C   487 0001:000132A2
   489 0001:000132BB   494 0001:000132E9   495 0001:000132EF   497 0001:0001330F
   502 0001:0001333A   503 0001:00013340   506 0001:0001335D   507 0001:00013365
   510 0001:00013391   518 0001:000133F4   522 0001:00013409   523 0001:0001340F
   524 0001:00013428   529 0001:00013434   530 0001:00013452   534 0001:0001345C
   535 0001:0001347E   539 0001:00013484   542 0001:0001348D   546 0001:000134A6
   549 0001:000134AE   551 0001:000134C7   556 0001:000134F5   557 0001:000134FB
   559 0001:0001351B   562 0001:00013541   568 0001:00013574   571 0001:00013598
   572 0001:000135B7   574 0001:000135C1   577 0001:000135DC   579 0001:000135E6
   581 0001:0001364E   587 0001:00013673   590 0001:0001367F   594 0001:0001368C
   597 0001:00013698   600 0001:00013705   602 0001:00013712   604 0001:0001371E
   606 0001:0001372A   608 0001:00013736   610 0001:00013748   612 0001:00013760
   614 0001:0001377C   616 0001:00013791   618 0001:000137B1   620 0001:000137C9
   622 0001:000137E2   624 0001:000137F7   627 0001:00013803   630 0001:00013870
   632 0001:00013892   634 0001:0001389D   636 0001:000138A9   638 0001:000138B5
   640 0001:000138C7   642 0001:000138DF   644 0001:000138FA   646 0001:0001390E
   648 0001:0001392D   650 0001:00013944   652 0001:0001395C   654 0001:00013970
   657 0001:0001397C   660 0001:000139E9   662 0001:00013A1B   664 0001:00013A39
   666 0001:00013A44   668 0001:00013A50   670 0001:00013A68   672 0001:00013A80
   674 0001:00013AA2   676 0001:00013ABE   678 0001:00013AED   680 0001:00013B0E
   682 0001:00013B30   684 0001:00013B49   687 0001:00013B55   690 0001:00013BC2
   692 0001:00013BF4   694 0001:00013C12   696 0001:00013C1E   698 0001:00013C2F
   700 0001:00013C47   702 0001:00013C5F   704 0001:00013C81   706 0001:00013C9D
   708 0001:00013CCC   710 0001:00013CED   712 0001:00013D0F   714 0001:00013D28
   717 0001:00013D34   720 0001:00013DA1   722 0001:00013DD9   724 0001:00013DFD
   726 0001:00013E0F   728 0001:00013E21   730 0001:00013E32   732 0001:00013E50
   734 0001:00013E6E   736 0001:00013E8A   738 0001:00013EBF   740 0001:00013EE6
   742 0001:00013F0E   744 0001:00013F2D   747 0001:00013F39   750 0001:00013FA6
   752 0001:00013FD8   754 0001:00013FF6   756 0001:00014002   758 0001:00014013
   760 0001:0001402B   763 0001:0001403C   764 0001:0001404E   766 0001:0001406C
   769 0001:0001408A   771 0001:000140A6   773 0001:000140D5   775 0001:000140F6
   777 0001:00014118   779 0001:00014131   782 0001:0001413D   785 0001:000141AA
   787 0001:000141E7   789 0001:0001420D   791 0001:00014234   793 0001:0001425B
   795 0001:00014282   797 0001:000142A9   799 0001:000142CF   801 0001:000142FA
   803 0001:00014334   805 0001:00014366   807 0001:000143A5   809 0001:000143E0
   812 0001:000143EC   814 0001:000143F8   816 0001:00014404   819 0001:00014471
   821 0001:0001447E   823 0001:0001448A   825 0001:000144A3   827 0001:000144BC
   829 0001:000144DB   831 0001:000144F4   833 0001:00014529   835 0001:00014536
   837 0001:00014541   839 0001:0001454C   841 0001:00014559   843 0001:00014565
   846 0001:00014571   849 0001:000145DE   851 0001:000145EF   853 0001:000145FF
   855 0001:00014610   857 0001:00014621   859 0001:00014632   861 0001:00014643
   863 0001:00014653   865 0001:00014664   867 0001:00014674   869 0001:00014684
   871 0001:00014695   873 0001:000146A5   876 0001:000146B1   879 0001:000146BF
   882 0001:000146CB   885 0001:00014738   887 0001:00014745   889 0001:00014751
   891 0001:0001475D   893 0001:00014769   895 0001:0001477B   897 0001:00014787
   899 0001:000147A9   901 0001:000147BE   903 0001:000147DE   905 0001:000147F6
   907 0001:0001480F   909 0001:00014824   912 0001:00014830   915 0001:0001489D
   917 0001:000148AB   919 0001:000148B8   921 0001:000148D2   923 0001:000148EC
   925 0001:0001490C   927 0001:00014926   929 0001:00014949   931 0001:0001495D
   933 0001:0001497E   935 0001:00014989   937 0001:00014997   939 0001:000149A4
   942 0001:000149B0   945 0001:00014A1D   947 0001:00014A40   949 0001:00014A4C
   951 0001:00014A65   953 0001:00014A7E   955 0001:00014A9D   957 0001:00014AB6
   959 0001:00014AD8   961 0001:00014AED   963 0001:00014B0D   965 0001:00014B25
   967 0001:00014B32   969 0001:00014B3E   972 0001:00014B4A   975 0001:00014BB7
   977 0001:00014BDD   979 0001:00014BF1   981 0001:00014C11   983 0001:00014C31
   985 0001:00014C57   987 0001:00014C77   989 0001:00014C99   991 0001:00014CAA
   993 0001:00014CCA   995 0001:00014CDE   997 0001:00014CF3   999 0001:00014CFB
  1002 0001:00014D04  1005 0001:00014D0B  1006 0001:00014D11  1008 0001:00014D2B
  1009 0001:00014D2E  1017 0001:00014D4D  1019 0001:00014E67  1029 0001:00014EDC
  1031 0001:00014EF2  1034 0001:00014EF8  1035 0001:00014EFF  1039 0001:00014F0E
  1042 0001:00014F21  1045 0001:00014F28  1046 0001:00014F2E  1050 0001:00014F3D
  1053 0001:00014F46  1054 0001:00014F4B  1058 0001:00014F6C  1059 0001:00014F80
  1071 0001:00014F90  1072 0001:00014F9F  1073 0001:00014FA8  1075 0001:00014FAF
  1076 0001:00014FD8  1080 0001:00014FE0  1081 0001:00014FEF  1082 0001:00014FF4
  1085 0001:00014FFC  1086 0001:0001500B  1087 0001:00015010  1090 0001:00015018
  1091 0001:00015027  1092 0001:0001502C  1102 0001:00015034  1103 0001:00015046
  1104 0001:0001504F  1106 0001:00015056  1107 0001:00015090  1111 0001:000150AC
  1112 0001:000150BE  1113 0001:000150C7  1115 0001:000150CE  1116 0001:00015108
  1120 0001:00015124  1121 0001:00015136  1122 0001:0001513F  1124 0001:00015146
  1125 0001:00015180  1129 0001:0001519C  1130 0001:000151AE  1131 0001:000151B7
  1133 0001:000151BE  1134 0001:000151F8  1138 0001:00015214  1139 0001:00015226
  1140 0001:0001522F  1142 0001:00015236  1143 0001:00015270  1149 0001:0001528C
  1150 0001:000152A4  1151 0001:000152AD  1154 0001:000152B4  1155 0001:000152D4
  1157 0001:000152FB  1162 0001:00015318  1163 0001:00015335  1164 0001:0001533E
  1167 0001:00015345  1168 0001:0001535E  1170 0001:0001537A  1174 0001:00015398
  1175 0001:000153B5  1176 0001:000153BE  1179 0001:000153C5  1180 0001:000153DE
  1182 0001:000153FA  1186 0001:00015418  1187 0001:00015435  1188 0001:0001543E
  1191 0001:00015445  1192 0001:00015462  1194 0001:0001547E  1233 0001:0001549C
  1234 0001:000154AD  1235 0001:000154BC  1237 0001:000154C6  1238 0001:000154D9
  1241 0001:000154F0  1242 0001:000154FD  1243 0001:0001550A  1248 0001:0001551C
  1249 0001:0001552E  1250 0001:00015533  1251 0001:00015540  1252 0001:00015557
  1257 0001:0001555C  1259 0001:00015579  1260 0001:0001558A  1261 0001:00015591
  1264 0001:00015596  1268 0001:000155A0  1270 0001:000155B2  1271 0001:000155B9
  1272 0001:000155C5  1276 0001:000155DF  1277 0001:000155E6  1281 0001:000155E8
  1282 0001:00015600  1268 0001:00015601  1285 0001:00015606  1287 0001:0001560C
  1290 0001:0001561C  1291 0001:00015622  1294 0001:00015643  1299 0001:00015658
  1300 0001:00015666  1301 0001:0001566B  1302 0001:0001567B  1301 0001:0001568A
  1303 0001:0001568F  1309 0001:000156A8  1311 0001:000156B5  1313 0001:000156C3
  1316 0001:000156C9  1317 0001:000156CE  1320 0001:000156D4  1321 0001:000156D9
  1325 0001:000156DF  1326 0001:000156E6  1333 0001:000156F8  1334 0001:00015712
  1340 0001:00015714  1341 0001:0001571F  1345 0001:0001572F  1346 0001:00015739
  1351 0001:0001575C  1353 0001:00015777  1356 0001:00015785  1358 0001:00015796
  1360 0001:000157A0  1362 0001:000157AA  1364 0001:000157C9  1366 0001:000157CE
  1351 0001:000157D1  1373 0001:000157EF  1377 0001:000157F6  1379 0001:00015809
  1386 0001:00015834  1387 0001:00015852  1393 0001:00015857  1394 0001:00015861
  1398 0001:00015871  1403 0001:00015891  1405 0001:000158A7  1406 0001:000158B3
  1409 0001:000158C0  1411 0001:000158D1  1413 0001:000158E0  1415 0001:00015905
  1417 0001:00015929  1419 0001:00015930  1403 0001:00015931  1426 0001:00015955
  1430 0001:0001595E  1432 0001:0001598C  1435 0001:000159D8  1437 0001:000159E4
  1441 0001:000159FE  1444 0001:00015A18  1446 0001:00015A2F  1450 0001:00015A3C
  1455 0001:00015A54  1456 0001:00015A6C  1458 0001:00015A71  1460 0001:00015A75
  1461 0001:00015A80  1462 0001:00015A8E  1463 0001:00015A95  1467 0001:00015A9D
  1468 0001:00015AA4  1471 0001:00015AAA  1472 0001:00015AB3  1478 0001:00015AD4
  1479 0001:00015AEA  1482 0001:00015AEF  1487 0001:00015B11  1488 0001:00015B30
  1492 0001:00015B3A  1493 0001:00015B40  1494 0001:00015B58  1497 0001:00015B6E
  1499 0001:00015B7F  1500 0001:00015B91  1501 0001:00015BA3  1497 0001:00015BA4
  1504 0001:00015BA9  1507 0001:00015BC7  1509 0001:00015BCD  1510 0001:00015BE8
  1514 0001:00015BF0  1517 0001:00015C00  1518 0001:00015C11  1522 0001:00015C13
  1526 0001:00015C42  1530 0001:00015C49  1532 0001:00015C5C  1535 0001:00015C80
  1536 0001:00015C94  1540 0001:00015C96  1545 0001:00015CC3  1549 0001:00015CCA
  1551 0001:00015CDD  1554 0001:00015D00  1556 0001:00015D13  1557 0001:00015D20
  1561 0001:00015D24  1562 0001:00015D3C  1563 0001:00015D40  1565 0001:00015D58
  1568 0001:00015D60  1570 0001:00015D74  1571 0001:00015D83  1575 0001:00015D87
  1577 0001:00015D95  1579 0001:00015DA8  1582 0001:00015DCC  1584 0001:00015DE0
  1585 0001:00015DEF  1589 0001:00015DF3  1592 0001:00015DFE  1595 0001:00015E08
  1596 0001:00015E10  1599 0001:00015E1C  1601 0001:00015E2F  1609 0001:00015E54
  1611 0001:00015E68  1612 0001:00015E79  1614 0001:00015E83  1615 0001:00015E8C
  1618 0001:00015E93  1620 0001:00015E9D  1621 0001:00015EBB  1626 0001:00015EC5
  1627 0001:00015ED3  1628 0001:00015EE8  1627 0001:00015EFB  1631 0001:00015F00
  1635 0001:00015F0A  1638 0001:00015F15  1642 0001:00015F1F  1645 0001:00015F2A
  1647 0001:00015F3F  1650 0001:00015F4D  1652 0001:00015F5E  1654 0001:00015F68
  1656 0001:00015F72  1658 0001:00015F92  1660 0001:00015F99  1645 0001:00015F9C
  1664 0001:00015FA1  1665 0001:00015FA7  1668 0001:00015FB1  1674 0001:00015FD3
  1675 0001:00015FDE  1682 0001:00016005  1686 0001:0001600E  1691 0001:00016029
  1692 0001:0001602F  1694 0001:0001604F  1698 0001:00016075  1703 0001:000160E4
  1705 0001:000160F8  1706 0001:00016109  1708 0001:00016113  1709 0001:00016131
  1714 0001:0001613B  1715 0001:00016160  1719 0001:0001616A  1720 0001:00016178
  1721 0001:00016188  1724 0001:00016196  1726 0001:000161AE  1727 0001:000161C4
  1728 0001:000161DA  1724 0001:000161DD  1731 0001:000161E2  1734 0001:00016202
  1735 0001:00016208  1739 0001:00016220  1741 0001:00016226  1742 0001:00016243
  1751 0001:0001626B  1755 0001:00016274  1760 0001:0001628F  1761 0001:00016295
  1763 0001:000162B5  1766 0001:000162DB  1836 0001:00016348  1837 0001:0001635B
  1838 0001:00016368  1839 0001:0001636C  1840 0001:0001637A  1842 0001:00016381
  1843 0001:0001638D  1846 0001:0001639C  1847 0001:000163AF  1848 0001:000163BC
  1849 0001:000163C0  1850 0001:000163CE  1852 0001:000163D5  1854 0001:000163E9
  1864 0001:000163F8  1865 0001:0001640B  1866 0001:00016423  1867 0001:00016427
  1868 0001:0001642F  1871 0001:00016438  1872 0001:00016447  1873 0001:00016462
  1876 0001:0001646C  1877 0001:0001647F  1878 0001:0001648C  1879 0001:00016490
  1880 0001:00016493  1883 0001:000164A4  1884 0001:000164B7  1885 0001:000164C4
  1887 0001:000164CE  1888 0001:000164D1  1894 0001:000164E0  1895 0001:000164F9
  1896 0001:0001650C  1901 0001:00016516  1903 0001:00016531  1905 0001:00016547
  1907 0001:00016556  1909 0001:0001657B  1917 0001:000165B5  1921 0001:000165BE
  1926 0001:000165D9  1927 0001:000165DF  1929 0001:000165FF  1931 0001:0001663D
  1937 0001:000166A4  1938 0001:000166BD  1939 0001:000166D0  1944 0001:000166DA
  1946 0001:000166F5  1948 0001:0001670B  1950 0001:0001671A  1952 0001:0001673D
  1959 0001:00016777  1963 0001:00016780  1968 0001:0001679B  1969 0001:000167A1
  1971 0001:000167C1  1973 0001:000167FF  1977 0001:00016868  1979 0001:00016878
  1980 0001:0001688E  2107 0001:0001689C  2108 0001:000168A8  2110 0001:000168B6
  2111 0001:000168C4  2113 0001:000168D2  2114 0001:000168E0  2115 0001:000168EE
  2116 0001:000168FC  2117 0001:0001690A  2118 0001:00016918  2119 0001:00016926
  2120 0001:00016934  2121 0001:00016942  2123 0001:00016950  2125 0001:0001695E
  2126 0001:0001696C  2127 0001:0001697A  2128 0001:00016988  2129 0001:00016996
  2130 0001:000169A4  2132 0001:000169B2  2133 0001:000169C0  2134 0001:000169CE
  2135 0001:000169DC  2138 0001:00016A24  2139 0001:00016A39  2140 0001:00016A3E

Line numbers for Variants(Variants.pas) segment .text

   459 0001:00016A4C   460 0001:00016A5D   461 0001:00016A98   464 0001:00016AB0
   465 0001:00016AD3   467 0001:00016B41   470 0001:00016B60   471 0001:00016B71
   472 0001:00016BAC   475 0001:00016BC4   476 0001:00016BD5   477 0001:00016C10
   480 0001:00016C28   481 0001:00016C4B   483 0001:00016CB9   496 0001:00016CD8
   497 0001:00016CE9   498 0001:00016D24   501 0001:00016D3C   502 0001:00016D5A
   503 0001:00016DC9   504 0001:00016DD3   505 0001:00016DFB   506 0001:00016E05
   507 0001:00016E2D   508 0001:00016E55   509 0001:00016E7D   510 0001:00016EA5
   511 0001:00016ECD   512 0001:00016EF2   514 0001:00016F17   517 0001:00016F94
   520 0001:00016FB0   521 0001:00016FBC   522 0001:00016FC0   523 0001:00016FC5
   526 0001:00016FD4   527 0001:00016FE3   528 0001:00016FE7   529 0001:00016FF7
   530 0001:00017002   532 0001:0001700D   534 0001:00017014   539 0001:00017028
   540 0001:0001703B   541 0001:0001704F   542 0001:0001705F   543 0001:00017073
   544 0001:00017083   545 0001:00017097   548 0001:000170A7   549 0001:000170AF
   551 0001:000170B7   554 0001:000170D4   555 0001:000170E5   556 0001:00017120
   561 0001:00017138   562 0001:00017147   563 0001:0001714E   564 0001:00017153
   576 0001:00017164   578 0001:00017173   579 0001:00017194   580 0001:00017195
   581 0001:0001719F   586 0001:000171A4   587 0001:000171B4   588 0001:000171B6
   589 0001:000171C0   590 0001:000171E0   591 0001:000171E4   594 0001:000171E8
   595 0001:000171FC   597 0001:0001720B   598 0001:00017210   600 0001:0001722D
   601 0001:00017239   604 0001:00017243   608 0001:0001725A   609 0001:00017266
   611 0001:00017279   614 0001:00017288   615 0001:00017297   616 0001:000172B7
   618 0001:000172BF   619 0001:000172F4   621 0001:00017326   622 0001:0001733E
   615 0001:00017347   625 0001:0001734E   626 0001:00017372   625 0001:00017390
   630 0001:00017393   632 0001:000173A5   635 0001:000173D6   637 0001:000173E1
   641 0001:000173F3   642 0001:00017416   647 0001:00017424   649 0001:00017435
   650 0001:0001743E   653 0001:0001745D   655 0001:00017464   656 0001:00017469
   660 0001:00017473   661 0001:0001747A   664 0001:00017488   665 0001:0001748F
   668 0001:00017498   669 0001:000174A5   673 0001:000174B1   674 0001:000174CE
   677 0001:00017504   679 0001:00017510   680 0001:00017517   682 0001:0001751E
   683 0001:00017523   691 0001:00017530   693 0001:00017546   694 0001:00017558
   699 0001:00017579   700 0001:0001757F   703 0001:00017591   704 0001:000175A1
   711 0001:000175A7   717 0001:000175CB   718 0001:000175E1   721 0001:00017601
   722 0001:00017610   724 0001:00017627   729 0001:00017634   731 0001:0001763A
   732 0001:00017647   736 0001:00017657   751 0001:00017674   753 0001:00017683
   754 0001:000176A4   755 0001:000176A5   756 0001:000176AF   761 0001:000176B4
   762 0001:000176C4   763 0001:000176C6   764 0001:000176D0   765 0001:000176F0
   766 0001:000176F4   769 0001:000176F8   770 0001:0001770C   772 0001:0001771B
   773 0001:00017720   775 0001:00017749   776 0001:00017755   779 0001:0001775F
   783 0001:00017776   784 0001:00017782   786 0001:00017795   789 0001:000177A4
   790 0001:000177B3   791 0001:000177D3   793 0001:000177DB   794 0001:00017810
   795 0001:00017842   796 0001:0001785A   790 0001:00017863   799 0001:0001786A
   800 0001:00017897   801 0001:000178A0   804 0001:000178A5   805 0001:000178B0
   806 0001:000178BB   809 0001:000178CA   810 0001:000178EE   809 0001:0001790C
   814 0001:0001790F   816 0001:00017921   817 0001:00017952   820 0001:00017983
   822 0001:00017997   827 0001:000179AF   828 0001:000179D9   831 0001:000179E8
   832 0001:000179F4   833 0001:000179F9   838 0001:00017A08   840 0001:00017A1B
   841 0001:00017A22   844 0001:00017A29   845 0001:00017A2F   848 0001:00017A52
   850 0001:00017A59   851 0001:00017A5E   852 0001:00017A63   856 0001:00017A70
   858 0001:00017A77   859 0001:00017A7D   860 0001:00017A83   864 0001:00017A91
   865 0001:00017A97   868 0001:00017AAA   869 0001:00017AB8   873 0001:00017AC9
   874 0001:00017AE7   877 0001:00017B24   879 0001:00017B36   883 0001:00017B3A
   887 0001:00017B41   888 0001:00017B48   891 0001:00017B4F   892 0001:00017B53
   893 0001:00017B59   894 0001:00017B5F   897 0001:00017B67   898 0001:00017B70
   901 0001:00017B88   902 0001:00017B9A   903 0001:00017B9E   904 0001:00017BA5
   905 0001:00017BC3   908 0001:00017BE8   909 0001:00017BF4   910 0001:00017BFA
   913 0001:00017C08   914 0001:00017C14   915 0001:00017C19   920 0001:00017C28
   922 0001:00017C3B   923 0001:00017C49   927 0001:00017C5A   928 0001:00017C63
   931 0001:00017C84   932 0001:00017C9B   933 0001:00017D0B   934 0001:00017D1F
   935 0001:00017D32   936 0001:00017D43   937 0001:00017D54   938 0001:00017D65
   939 0001:00017D76   940 0001:00017D8F   941 0001:00017DA8   942 0001:00017DBC
   943 0001:00017DCD   944 0001:00017DDE   945 0001:00017DEE   947 0001:00017E01
   950 0001:00017E0F   952 0001:00017E1A   953 0001:00017E20   955 0001:00017E33
   957 0001:00017E54   960 0001:00017E70   961 0001:00017E7C   962 0001:00017E82
   964 0001:00017E89   965 0001:00017E8E   999 0001:00017E9C  1000 0001:00017EAC
  1001 0001:00017EB6  1002 0001:00017EBD  1003 0001:00017EC2  1004 0001:00017EC5
  1008 0001:00017EDC  1009 0001:00017EE1  1014 0001:00017EE8  1015 0001:00017F0F
  1017 0001:00017F1F  1018 0001:00017F29  1019 0001:00017F36  1021 0001:00017F4C
  1023 0001:00017F5C  1028 0001:00017F78  1029 0001:00017F8C  1030 0001:00017F94
  1031 0001:00017FB6  1036 0001:00017FD0  1037 0001:00017FE4  1038 0001:00017FEC
  1039 0001:0001800E  1044 0001:00018028  1045 0001:0001803C  1046 0001:00018044
  1047 0001:00018066  1052 0001:00018080  1053 0001:00018094  1054 0001:0001809C
  1055 0001:000180BE  1058 0001:000180D8  1060 0001:000180EE  1062 0001:000180FB
  1063 0001:0001810A  1068 0001:00018144  1069 0001:00018150  1074 0001:00018186
  1075 0001:00018190  1080 0001:000181D4  1081 0001:000181EC  1082 0001:000181F3
  1083 0001:00018201  1084 0001:00018211  1085 0001:00018223  1086 0001:00018232
  1088 0001:00018242  1089 0001:0001824E  1092 0001:00018274  1093 0001:00018287
  1094 0001:0001828E  1095 0001:0001829D  1096 0001:000182A4  1098 0001:000182B6
  1100 0001:00018320  1101 0001:00018331  1103 0001:00018341  1104 0001:0001834E
  1105 0001:0001835B  1106 0001:00018371  1107 0001:00018387  1108 0001:000183A3
  1109 0001:000183BF  1110 0001:000183DB  1111 0001:000183F7  1112 0001:00018406
  1113 0001:0001841C  1114 0001:00018432  1115 0001:00018448  1116 0001:0001845B
  1117 0001:0001846E  1119 0001:00018482  1120 0001:0001848E  1122 0001:0001849A
  1123 0001:000184A8  1124 0001:000184B4  1126 0001:000184C2  1129 0001:000184CC
  1135 0001:000184FC  1136 0001:00018514  1137 0001:0001851B  1139 0001:0001852C
  1140 0001:0001853C  1141 0001:00018548  1142 0001:00018558  1144 0001:0001856A
  1145 0001:00018576  1155 0001:0001859C  1156 0001:000185B4  1157 0001:000185BE
  1158 0001:000185E9  1161 0001:000185FD  1162 0001:00018617  1164 0001:00018626
  1166 0001:00018655  1171 0001:00018670  1172 0001:0001868D  1173 0001:0001869E
  1175 0001:000186D5  1176 0001:000186D9  1181 0001:00018714  1182 0001:00018734
  1184 0001:00018744  1185 0001:0001874E  1186 0001:0001875B  1188 0001:0001876E
  1190 0001:00018781  1196 0001:0001879C  1197 0001:000187B1  1198 0001:000187C1
  1200 0001:000187D3  1201 0001:000187E4  1202 0001:000187F5  1204 0001:00018802
  1207 0001:0001882C  1209 0001:00018843  1210 0001:000188B4  1213 0001:000188BE
  1214 0001:000188C9  1215 0001:000188D6  1217 0001:000188E0  1218 0001:000188EF
  1219 0001:000188FD  1220 0001:00018910  1221 0001:00018923  1222 0001:0001893C
  1223 0001:0001894F  1224 0001:0001895F  1225 0001:0001896E  1226 0001:0001897D
  1227 0001:0001898C  1228 0001:0001899B  1229 0001:000189A9  1231 0001:000189B7
  1234 0001:000189CA  1236 0001:000189DA  1237 0001:000189ED  1238 0001:000189FD
  1240 0001:00018A0D  1241 0001:00018A19  1242 0001:00018A8C  1243 0001:00018A9D
  1244 0001:00018AAD  1245 0001:00018AC2  1246 0001:00018AD7  1247 0001:00018AF2
  1248 0001:00018B07  1249 0001:00018B17  1250 0001:00018B28  1251 0001:00018B39
  1252 0001:00018B4A  1253 0001:00018B58  1254 0001:00018B65  1256 0001:00018B72
  1258 0001:00018B82  1261 0001:00018B8F  1262 0001:00018B9E  1266 0001:00018BB0
  1267 0001:00018BBF  1269 0001:00018BD3  1272 0001:00018C04  1273 0001:00018C1B
  1274 0001:00018C37  1277 0001:00018C3D  1278 0001:00018C48  1279 0001:00018C55
  1281 0001:00018C5B  1282 0001:00018C66  1286 0001:00018C71  1291 0001:00018C97
  1292 0001:00018CA6  1295 0001:00018CB9  1298 0001:00018CE4  1299 0001:00018CFB
  1300 0001:00018D17  1303 0001:00018D1D  1304 0001:00018D28  1305 0001:00018D35
  1307 0001:00018D3B  1308 0001:00018D46  1312 0001:00018D51  1317 0001:00018D6F
  1318 0001:00018D7E  1321 0001:00018D91  1324 0001:00018DBC  1325 0001:00018DD1
  1326 0001:00018E26  1329 0001:00018E2D  1330 0001:00018E38  1331 0001:00018E45
  1333 0001:00018E49  1334 0001:00018E52  1335 0001:00018E5B  1336 0001:00018E64
  1340 0001:00018E6D  1345 0001:00018E97  1346 0001:00018EA6  1349 0001:00018EB6
  1352 0001:00018EE0  1353 0001:00018EF5  1354 0001:00018F43  1357 0001:00018F47
  1358 0001:00018F52  1359 0001:00018F5F  1361 0001:00018F63  1362 0001:00018F6C
  1363 0001:00018F75  1367 0001:00018F7E  1372 0001:00018F9C  1373 0001:00018FAB
  1376 0001:00018FBB  1379 0001:00018FE4  1380 0001:00018FF9  1381 0001:00019050
  1384 0001:00019054  1385 0001:0001905F  1386 0001:0001906C  1388 0001:00019070
  1389 0001:00019079  1390 0001:00019082  1391 0001:0001908B  1395 0001:00019093
  1400 0001:000190AD  1401 0001:000190BC  1404 0001:000190CC  1414 0001:000190F4
  1415 0001:00019111  1416 0001:00019122  1417 0001:0001914D  1418 0001:00019151
  1421 0001:0001915F  1422 0001:0001918A  1423 0001:0001918E  1424 0001:000191A0
  1425 0001:000191A7  1428 0001:000191BC  1429 0001:000191C8  1432 0001:000191DE
  1440 0001:0001922C  1441 0001:00019249  1442 0001:00019253  1444 0001:00019271
  1445 0001:0001929C  1446 0001:000192A0  1449 0001:000192AC  1450 0001:000192D7
  1451 0001:000192DB  1452 0001:000192EB  1453 0001:000192F2  1456 0001:00019306
  1457 0001:00019312  1461 0001:00019346  1466 0001:00019364  1467 0001:00019384
  1469 0001:00019394  1470 0001:0001939E  1471 0001:000193AB  1473 0001:000193C1
  1475 0001:000193D7  1481 0001:000193F4  1482 0001:00019409  1483 0001:00019419
  1485 0001:0001942B  1486 0001:0001943C  1487 0001:0001944D  1489 0001:00019461
  1492 0001:0001948C  1494 0001:000194A3  1495 0001:00019514  1498 0001:00019527
  1499 0001:00019532  1500 0001:0001953F  1502 0001:00019552  1503 0001:00019565
  1504 0001:00019577  1505 0001:0001958D  1506 0001:000195A3  1507 0001:000195BF
  1508 0001:000195D5  1509 0001:000195E8  1510 0001:000195FB  1511 0001:0001960E
  1512 0001:00019622  1513 0001:00019636  1514 0001:00019649  1516 0001:0001965D
  1519 0001:00019673  1521 0001:00019686  1522 0001:00019699  1523 0001:000196AC
  1525 0001:000196BF  1526 0001:000196CB  1527 0001:0001973E  1528 0001:00019753
  1529 0001:00019767  1530 0001:0001977F  1531 0001:00019797  1532 0001:000197B5
  1533 0001:000197CD  1534 0001:000197E0  1535 0001:000197F5  1536 0001:0001980A
  1537 0001:00019820  1538 0001:00019836  1539 0001:0001984B  1541 0001:0001985E
  1543 0001:00019871  1546 0001:00019881  1547 0001:00019890  1551 0001:000198A5
  1552 0001:000198B4  1554 0001:000198D4  1565 0001:00019908  1566 0001:00019925
  1567 0001:0001992F  1568 0001:0001995A  1570 0001:0001996C  1572 0001:00019979
  1573 0001:00019993  1575 0001:000199A6  1577 0001:000199D5  1582 0001:000199F0
  1583 0001:00019A0D  1584 0001:00019A1E  1586 0001:00019A55  1587 0001:00019A5E
  1592 0001:00019A98  1593 0001:00019AB8  1595 0001:00019AC8  1596 0001:00019AD2
  1597 0001:00019ADF  1599 0001:00019AF2  1601 0001:00019B05  1607 0001:00019B20
  1608 0001:00019B35  1609 0001:00019B45  1611 0001:00019B57  1612 0001:00019B68
  1613 0001:00019B79  1615 0001:00019B8B  1618 0001:00019BB4  1619 0001:00019BC4
  1620 0001:00019C32  1623 0001:00019C3B  1624 0001:00019C46  1625 0001:00019C53
  1627 0001:00019C5C  1628 0001:00019C6A  1629 0001:00019C77  1630 0001:00019C8C
  1631 0001:00019CA1  1632 0001:00019CB6  1633 0001:00019CCB  1634 0001:00019CDA
  1635 0001:00019CEA  1636 0001:00019CF7  1637 0001:00019D04  1638 0001:00019D12
  1639 0001:00019D1F  1641 0001:00019D34  1644 0001:00019D44  1646 0001:00019D53
  1647 0001:00019D63  1648 0001:00019D72  1650 0001:00019D81  1651 0001:00019D8A
  1652 0001:00019DFA  1653 0001:00019E0A  1654 0001:00019E19  1655 0001:00019E30
  1656 0001:00019E47  1657 0001:00019E5E  1658 0001:00019E75  1659 0001:00019E84
  1660 0001:00019E93  1661 0001:00019E9F  1662 0001:00019EAB  1663 0001:00019EB8
  1664 0001:00019EC4  1666 0001:00019ED8  1668 0001:00019EE5  1671 0001:00019EF1
  1672 0001:00019EFE  1675 0001:00019F0B  1680 0001:00019F28  1681 0001:00019F2D
  1682 0001:00019F2F  1683 0001:00019F31  1684 0001:00019F33  1695 0001:00019F3C
  1696 0001:00019F59  1697 0001:00019F63  1698 0001:00019F8E  1701 0001:00019FA2
  1702 0001:00019FBC  1704 0001:00019FC5  1706 0001:00019FD8  1708 0001:0001A007
  1713 0001:0001A024  1714 0001:0001A041  1715 0001:0001A052  1717 0001:0001A089
  1718 0001:0001A09B  1723 0001:0001A0D4  1724 0001:0001A0F4  1726 0001:0001A104
  1727 0001:0001A10E  1728 0001:0001A11B  1730 0001:0001A12F  1732 0001:0001A142
  1738 0001:0001A15C  1739 0001:0001A171  1740 0001:0001A181  1742 0001:0001A193
  1743 0001:0001A1A4  1744 0001:0001A1B5  1746 0001:0001A1C9  1749 0001:0001A1F4
  1750 0001:0001A206  1751 0001:0001A274  1754 0001:0001A282  1755 0001:0001A28D
  1756 0001:0001A29A  1758 0001:0001A2A8  1759 0001:0001A2B4  1760 0001:0001A2C0
  1761 0001:0001A2CC  1762 0001:0001A2DE  1763 0001:0001A2F0  1764 0001:0001A302
  1765 0001:0001A312  1766 0001:0001A327  1767 0001:0001A33C  1768 0001:0001A352
  1769 0001:0001A367  1770 0001:0001A381  1772 0001:0001A38D  1775 0001:0001A39E
  1777 0001:0001A3AE  1778 0001:0001A3BE  1779 0001:0001A3CE  1781 0001:0001A3DE
  1782 0001:0001A3E7  1783 0001:0001A457  1784 0001:0001A465  1785 0001:0001A473
  1786 0001:0001A481  1787 0001:0001A495  1788 0001:0001A4A9  1789 0001:0001A4BD
  1790 0001:0001A4CD  1791 0001:0001A4E4  1792 0001:0001A4F8  1793 0001:0001A50C
  1794 0001:0001A520  1795 0001:0001A539  1797 0001:0001A544  1799 0001:0001A552
  1802 0001:0001A55F  1803 0001:0001A56C  1806 0001:0001A57A  1809 0001:0001A59C
  1810 0001:0001A5AE  1811 0001:0001A5BC  1814 0001:0001A5D4  1815 0001:0001A5EB
  1816 0001:0001A659  1819 0001:0001A663  1820 0001:0001A66E  1821 0001:0001A67B
  1823 0001:0001A685  1824 0001:0001A694  1825 0001:0001A6A3  1826 0001:0001A6B1
  1827 0001:0001A6C7  1828 0001:0001A6DA  1829 0001:0001A6ED  1830 0001:0001A700
  1831 0001:0001A717  1835 0001:0001A723  1840 0001:0001A736  1841 0001:0001A745
  1844 0001:0001A759  1855 0001:0001A784  1856 0001:0001A7A4  1857 0001:0001A7AE
  1858 0001:0001A7D9  1861 0001:0001A7ED  1862 0001:0001A807  1863 0001:0001A821
  1865 0001:0001A82F  1867 0001:0001A842  1869 0001:0001A876  1874 0001:0001A894
  1875 0001:0001A8B4  1876 0001:0001A8C4  1877 0001:0001A8CA  1878 0001:0001A8D6
  1880 0001:0001A90F  1881 0001:0001A91E  1886 0001:0001A930  1887 0001:0001A94D
  1888 0001:0001A95E  1890 0001:0001A995  1891 0001:0001A9A7  1896 0001:0001A9E0
  1897 0001:0001AA00  1899 0001:0001AA10  1900 0001:0001AA1A  1901 0001:0001AA27
  1903 0001:0001AA3B  1905 0001:0001AA4E  1911 0001:0001AA68  1912 0001:0001AA7D
  1913 0001:0001AA8D  1915 0001:0001AA9F  1916 0001:0001AAB0  1917 0001:0001AAC1
  1919 0001:0001AAD5  1922 0001:0001AB00  1923 0001:0001AB12  1924 0001:0001AB80
  1927 0001:0001AB8E  1928 0001:0001AB99  1929 0001:0001ABA6  1931 0001:0001ABB4
  1932 0001:0001ABC0  1935 0001:0001ABCC  1936 0001:0001ABDC  1937 0001:0001ABEE
  1938 0001:0001ABFE  1939 0001:0001AC13  1940 0001:0001AC28  1941 0001:0001AC3E
  1942 0001:0001AC53  1943 0001:0001AC6D  1945 0001:0001AC87  1948 0001:0001AC98
  1950 0001:0001ACA8  1951 0001:0001ACB8  1952 0001:0001ACC8  1954 0001:0001ACD8
  1955 0001:0001ACE1  1956 0001:0001AD51  1957 0001:0001AD5F  1960 0001:0001AD6D
  1961 0001:0001AD7D  1962 0001:0001AD91  1963 0001:0001ADA1  1964 0001:0001ADB8
  1965 0001:0001ADCF  1966 0001:0001ADE3  1967 0001:0001ADF7  1968 0001:0001AE10
  1970 0001:0001AE29  1972 0001:0001AE37  1976 0001:0001AE44  1977 0001:0001AE51
  1981 0001:0001AE5F  1991 0001:0001AE84  1992 0001:0001AEA1  1993 0001:0001AEAB
  1994 0001:0001AED6  1997 0001:0001AEEA  1998 0001:0001AF04  2000 0001:0001AF17
  2002 0001:0001AF46  2007 0001:0001AF64  2008 0001:0001AF84  2009 0001:0001AF94
  2010 0001:0001AF9A  2011 0001:0001AFA6  2013 0001:0001AFDF  2014 0001:0001AFEE
  2019 0001:0001B000  2020 0001:0001B01D  2021 0001:0001B02E  2023 0001:0001B065
  2024 0001:0001B077  2029 0001:0001B0B0  2030 0001:0001B0D0  2032 0001:0001B0E0
  2033 0001:0001B0EA  2034 0001:0001B0F7  2036 0001:0001B10B  2038 0001:0001B11E
  2044 0001:0001B138  2045 0001:0001B14D  2046 0001:0001B15D  2048 0001:0001B16F
  2049 0001:0001B180  2050 0001:0001B191  2052 0001:0001B1A5  2055 0001:0001B1D0
  2056 0001:0001B1E2  2057 0001:0001B250  2060 0001:0001B25E  2061 0001:0001B269
  2062 0001:0001B276  2064 0001:0001B284  2065 0001:0001B296  2067 0001:0001B2A8
  2068 0001:0001B2B8  2069 0001:0001B2CA  2070 0001:0001B2DA  2071 0001:0001B2EA
  2072 0001:0001B305  2073 0001:0001B320  2074 0001:0001B33C  2075 0001:0001B357
  2076 0001:0001B377  2078 0001:0001B391  2081 0001:0001B3A2  2083 0001:0001B3B2
  2084 0001:0001B3C2  2085 0001:0001B3D2  2087 0001:0001B3E2  2088 0001:0001B3EB
  2089 0001:0001B45B  2090 0001:0001B46F  2092 0001:0001B483  2093 0001:0001B493
  2094 0001:0001B4A7  2095 0001:0001B4B7  2096 0001:0001B4C7  2097 0001:0001B4E4
  2098 0001:0001B501  2099 0001:0001B51E  2100 0001:0001B538  2101 0001:0001B557
  2103 0001:0001B570  2105 0001:0001B57E  2109 0001:0001B58B  2110 0001:0001B598
  2114 0001:0001B5A6  2121 0001:0001B5D8  2122 0001:0001B5EA  2124 0001:0001B628
  2127 0001:0001B630  2128 0001:0001B642  2130 0001:0001B680  2133 0001:0001B688
  2134 0001:0001B6A3  2136 0001:0001B6DC  2138 0001:0001B6F0  2139 0001:0001B711
  2141 0001:0001B732  2143 0001:0001B754  2148 0001:0001B770  2149 0001:0001B79B
  2151 0001:0001B7AB  2153 0001:0001B7E1  2155 0001:0001B814  2157 0001:0001B841
  2162 0001:0001B878  2163 0001:0001B89B  2165 0001:0001B8AB  2166 0001:0001B8B5
  2167 0001:0001B8C2  2169 0001:0001B8D4  2171 0001:0001B8E4  2177 0001:0001B900
  2178 0001:0001B923  2179 0001:0001B931  2181 0001:0001B942  2183 0001:0001B952
  2184 0001:0001B964  2186 0001:0001B977  2189 0001:0001B98A  2192 0001:0001B9A8
  2193 0001:0001B9C9  2194 0001:0001BA34  2197 0001:0001BA40  2198 0001:0001BA4B
  2199 0001:0001BA58  2201 0001:0001BA6C  2202 0001:0001BA87  2203 0001:0001BAA1
  2204 0001:0001BAC2  2205 0001:0001BAE3  2206 0001:0001BB00  2207 0001:0001BB1D
  2208 0001:0001BB4D  2209 0001:0001BB68  2210 0001:0001BB83  2211 0001:0001BB9F
  2212 0001:0001BBBA  2213 0001:0001BBD8  2215 0001:0001BBF5  2218 0001:0001BC06
  2220 0001:0001BC1F  2221 0001:0001BC2F  2222 0001:0001BC3E  2224 0001:0001BC57
  2225 0001:0001BC61  2226 0001:0001BCD1  2227 0001:0001BCEE  2228 0001:0001BD0A
  2229 0001:0001BD2D  2230 0001:0001BD50  2231 0001:0001BD6F  2232 0001:0001BD8E
  2233 0001:0001BD9F  2234 0001:0001BDBC  2235 0001:0001BDD9  2236 0001:0001BDF6
  2237 0001:0001BE13  2238 0001:0001BE30  2240 0001:0001BE4C  2242 0001:0001BE5A
  2245 0001:0001BE70  2246 0001:0001BE84  2249 0001:0001BEE9  2254 0001:0001BF08
  2255 0001:0001BF1C  2256 0001:0001BF24  2257 0001:0001BF4B  2262 0001:0001BF64
  2263 0001:0001BF8C  2265 0001:0001BF9C  2267 0001:0001BFD2  2269 0001:0001BFF8
  2271 0001:0001C020  2276 0001:0001C054  2277 0001:0001C077  2279 0001:0001C087
  2280 0001:0001C091  2281 0001:0001C09E  2283 0001:0001C0B0  2285 0001:0001C0C0
  2291 0001:0001C0DC  2292 0001:0001C104  2293 0001:0001C112  2295 0001:0001C123
  2297 0001:0001C133  2298 0001:0001C142  2300 0001:0001C16B  2303 0001:0001C196
  2306 0001:0001C1CC  2307 0001:0001C1EE  2308 0001:0001C259  2311 0001:0001C265
  2312 0001:0001C270  2313 0001:0001C27D  2315 0001:0001C291  2316 0001:0001C2AC
  2317 0001:0001C2C6  2318 0001:0001C2E7  2319 0001:0001C308  2320 0001:0001C325
  2321 0001:0001C342  2322 0001:0001C365  2323 0001:0001C380  2324 0001:0001C39B
  2325 0001:0001C3B7  2326 0001:0001C3D2  2327 0001:0001C3F0  2329 0001:0001C40D
  2332 0001:0001C41E  2334 0001:0001C437  2335 0001:0001C447  2336 0001:0001C456
  2338 0001:0001C46F  2339 0001:0001C479  2340 0001:0001C4E9  2341 0001:0001C506
  2342 0001:0001C522  2343 0001:0001C545  2344 0001:0001C568  2345 0001:0001C587
  2346 0001:0001C5A6  2347 0001:0001C5B7  2348 0001:0001C5D4  2349 0001:0001C5F1
  2350 0001:0001C60E  2351 0001:0001C62B  2352 0001:0001C648  2354 0001:0001C664
  2356 0001:0001C672  2359 0001:0001C688  2360 0001:0001C69C  2363 0001:0001C728
  2368 0001:0001C744  2369 0001:0001C767  2371 0001:0001C777  2372 0001:0001C781
  2373 0001:0001C78E  2374 0001:0001C795  2375 0001:0001C7A2  2377 0001:0001C7B4
  2379 0001:0001C7C4  2384 0001:0001C7E0  2385 0001:0001C7F3  2386 0001:0001C820
  2389 0001:0001C829  2390 0001:0001C834  2391 0001:0001C841  2394 0001:0001C84A
  2396 0001:0001C856  2397 0001:0001C864  2399 0001:0001C86F  2401 0001:0001C898
  2403 0001:0001C8A4  2408 0001:0001C8D4  2409 0001:0001C8E7  2410 0001:0001C900
  2413 0001:0001C909  2414 0001:0001C914  2415 0001:0001C921  2417 0001:0001C92A
  2418 0001:0001C936  2420 0001:0001C944  2422 0001:0001C96D  2424 0001:0001C979
  2428 0001:0001C9A8  2429 0001:0001C9AD  2430 0001:0001C9AF  2431 0001:0001C9B1
  2433 0001:0001C9B6  2440 0001:0001C9BC  2441 0001:0001C9D2  2442 0001:0001C9D9
  2443 0001:0001C9E0  2444 0001:0001C9EB  2446 0001:0001C9FC  2447 0001:0001CA01
  2448 0001:0001CA04  2451 0001:0001CA20  2452 0001:0001CA32  2453 0001:0001CA39
  2454 0001:0001CA40  2455 0001:0001CA45  2456 0001:0001CA48  2459 0001:0001CA60
  2460 0001:0001CA72  2461 0001:0001CA79  2462 0001:0001CA80  2463 0001:0001CA85
  2464 0001:0001CA88  2467 0001:0001CAA0  2468 0001:0001CAB3  2469 0001:0001CABA
  2470 0001:0001CAC1  2471 0001:0001CAC6  2472 0001:0001CACC  2475 0001:0001CAE4
  2476 0001:0001CAF6  2477 0001:0001CAFD  2478 0001:0001CB04  2479 0001:0001CB09
  2480 0001:0001CB0D  2483 0001:0001CB24  2484 0001:0001CB36  2485 0001:0001CB3D
  2486 0001:0001CB44  2487 0001:0001CB49  2488 0001:0001CB4C  2491 0001:0001CB64
  2492 0001:0001CB77  2493 0001:0001CB7E  2494 0001:0001CB85  2495 0001:0001CB8A
  2496 0001:0001CB90  2499 0001:0001CBA8  2500 0001:0001CBBA  2501 0001:0001CBC1
  2502 0001:0001CBC8  2503 0001:0001CBCD  2504 0001:0001CBD1  2507 0001:0001CBE8
  2508 0001:0001CBFA  2509 0001:0001CC01  2510 0001:0001CC08  2511 0001:0001CC0D
  2512 0001:0001CC19  2515 0001:0001CC24  2516 0001:0001CC36  2517 0001:0001CC3D
  2518 0001:0001CC44  2519 0001:0001CC4A  2520 0001:0001CC4F  2523 0001:0001CC58
  2524 0001:0001CC6A  2525 0001:0001CC71  2526 0001:0001CC78  2527 0001:0001CC84
  2528 0001:0001CC89  2531 0001:0001CC94  2532 0001:0001CCA6  2533 0001:0001CCAD
  2534 0001:0001CCB4  2535 0001:0001CCC0  2536 0001:0001CCC5  2539 0001:0001CCD0
  2540 0001:0001CCE2  2541 0001:0001CCE9  2542 0001:0001CCF0  2543 0001:0001CCFC
  2544 0001:0001CD01  2547 0001:0001CD0C  2548 0001:0001CD1F  2549 0001:0001CD26
  2550 0001:0001CD2D  2551 0001:0001CD32  2552 0001:0001CD3D  2556 0001:0001CD54
  2557 0001:0001CD55  2558 0001:0001CD5A  2559 0001:0001CD5B  2560 0001:0001CD60
  2561 0001:0001CD63  2562 0001:0001CD64  2566 0001:0001CD70  2567 0001:0001CD71
  2568 0001:0001CD76  2569 0001:0001CD77  2570 0001:0001CD7C  2571 0001:0001CD7F
  2572 0001:0001CD80  2576 0001:0001CD8C  2577 0001:0001CD8D  2578 0001:0001CD92
  2579 0001:0001CD93  2580 0001:0001CD98  2581 0001:0001CD9B  2582 0001:0001CD9C
  2585 0001:0001CDA8  2586 0001:0001CDBA  2587 0001:0001CDC1  2588 0001:0001CDC8
  2589 0001:0001CDCD  2590 0001:0001CDD2  2591 0001:0001CDDC  2594 0001:0001CDF4
  2595 0001:0001CE0B  2596 0001:0001CE37  2599 0001:0001CE54  2600 0001:0001CE66
  2601 0001:0001CE6D  2602 0001:0001CE74  2603 0001:0001CE79  2604 0001:0001CE7E
  2605 0001:0001CE93  2608 0001:0001CEB0  2609 0001:0001CEC2  2610 0001:0001CEC9
  2611 0001:0001CED0  2612 0001:0001CED5  2613 0001:0001CEDA  2614 0001:0001CEE4
  2617 0001:0001CEFC  2618 0001:0001CF0E  2619 0001:0001CF15  2620 0001:0001CF1C
  2621 0001:0001CF21  2622 0001:0001CF26  2623 0001:0001CF30  2627 0001:0001CF48
  2628 0001:0001CF49  2629 0001:0001CF4E  2630 0001:0001CF4F  2631 0001:0001CF53
  2632 0001:0001CF55  2634 0001:0001CF5A  2637 0001:0001CF64  2638 0001:0001CF7B
  2639 0001:0001CFA7  2642 0001:0001CFC4  2643 0001:0001CFDB  2644 0001:0001D007
  2651 0001:0001D024  2652 0001:0001D047  2654 0001:0001D057  2655 0001:0001D061
  2656 0001:0001D06E  2658 0001:0001D080  2660 0001:0001D090  2663 0001:0001D0AC
  2664 0001:0001D0B8  2665 0001:0001D0BD  2670 0001:0001D0CC  2672 0001:0001D0DF
  2673 0001:0001D0E6  2678 0001:0001D0F7  2679 0001:0001D0FE  2682 0001:0001D105
  2684 0001:0001D135  2686 0001:0001D148  2687 0001:0001D14E  2689 0001:0001D161
  2691 0001:0001D174  2692 0001:0001D19A  2694 0001:0001D1AA  2696 0001:0001D1BA
  2698 0001:0001D1C6  2702 0001:0001D1D1  2703 0001:0001D1D7  2706 0001:0001D1EA
  2707 0001:0001D1F7  2710 0001:0001D202  2711 0001:0001D210  2715 0001:0001D21E
  2718 0001:0001D223  2721 0001:0001D240  2722 0001:0001D25B  2723 0001:0001D262
  2725 0001:0001D28F  2726 0001:0001D2E4  2735 0001:0001D300  2737 0001:0001D31C
  2741 0001:0001D330  2742 0001:0001D342  2745 0001:0001D34C  2749 0001:0001D366
  2751 0001:0001D37D  2753 0001:0001D38D  2754 0001:0001D39C  2755 0001:0001D3A7
  2756 0001:0001D3B3  2758 0001:0001D3C0  2761 0001:0001D3D0  2767 0001:0001D3F2
  2770 0001:0001D402  2771 0001:0001D413  2772 0001:0001D41F  2773 0001:0001D424
  2775 0001:0001D43A  2783 0001:0001D44A  2784 0001:0001D45C  2787 0001:0001D461
  2791 0001:0001D47B  2793 0001:0001D492  2795 0001:0001D4A2  2796 0001:0001D4B1
  2797 0001:0001D4BB  2798 0001:0001D4C0  2800 0001:0001D4DA  2806 0001:0001D4EA
  2810 0001:0001D501  2814 0001:0001D515  2816 0001:0001D52E  2818 0001:0001D53E
  2819 0001:0001D54F  2820 0001:0001D55A  2821 0001:0001D568  2823 0001:0001D575
  2826 0001:0001D585  2830 0001:0001D598  2831 0001:0001D5AA  2834 0001:0001D5B4
  2838 0001:0001D5CA  2840 0001:0001D5E1  2842 0001:0001D5F1  2843 0001:0001D600
  2844 0001:0001D60B  2845 0001:0001D617  2847 0001:0001D624  2850 0001:0001D634
  2855 0001:0001D648  2857 0001:0001D64D  2860 0001:0001D698  2861 0001:0001D6A5
  2862 0001:0001D6AC  2863 0001:0001D6B2  2864 0001:0001D6B9  2866 0001:0001D6BF
  2867 0001:0001D6C6  2872 0001:0001D6D8  2873 0001:0001D6F3  2874 0001:0001D6FA
  2875 0001:0001D706  2877 0001:0001D718  2879 0001:0001D728  2880 0001:0001D732
  2881 0001:0001D73F  2883 0001:0001D754  2887 0001:0001D764  2888 0001:0001D770
  2893 0001:0001D78C  2894 0001:0001D7A5  2895 0001:0001D7B1  2896 0001:0001D7BE
  2897 0001:0001D7D1  2898 0001:0001D7E0  2899 0001:0001D7EF  2900 0001:0001D7FE
  2902 0001:0001D80D  2904 0001:0001D812  2905 0001:0001D819  2906 0001:0001D820
  2907 0001:0001D82E  2908 0001:0001D833  2913 0001:0001D850  2914 0001:0001D869
  2915 0001:0001D875  2916 0001:0001D882  2917 0001:0001D88F  2918 0001:0001D89E
  2920 0001:0001D8AD  2922 0001:0001D8B2  2923 0001:0001D8B9  2924 0001:0001D8C0
  2925 0001:0001D8CE  2926 0001:0001D8D3  2932 0001:0001D8F0  2933 0001:0001D90B
  2934 0001:0001D90F  2935 0001:0001D919  2936 0001:0001D923  2938 0001:0001D966
  2939 0001:0001D969  2940 0001:0001D96C  2941 0001:0001D96E  2942 0001:0001D972
  2945 0001:0001D977  2946 0001:0001D97A  2947 0001:0001D97D  2948 0001:0001D97F
  2949 0001:0001D983  2952 0001:0001D988  2953 0001:0001D98B  2954 0001:0001D98E
  2955 0001:0001D990  2956 0001:0001D994  2958 0001:0001D999  2959 0001:0001D99F
  2960 0001:0001D9AB  2961 0001:0001D9B7  2962 0001:0001D9BF  2963 0001:0001D9C7
  2964 0001:0001D9CF  2965 0001:0001D9D7  2967 0001:0001D9DF  2970 0001:0001D9E4
  2971 0001:0001D9EA  2974 0001:0001D9F8  2975 0001:0001D9FF  2976 0001:0001DA06
  2977 0001:0001DA0C  2979 0001:0001DA11  2985 0001:0001DA20  2986 0001:0001DA3D
  2987 0001:0001DA41  2988 0001:0001DA4F  2989 0001:0001DA5D  2993 0001:0001DAA0
  2994 0001:0001DAB2  2995 0001:0001DAC9  2996 0001:0001DAE0  3000 0001:0001DB15
  3002 0001:0001DB1B  3008 0001:0001DB34  3009 0001:0001DB3D  3010 0001:0001DB59
  3011 0001:0001DB72  3012 0001:0001DB8A  3013 0001:0001DBA2  3014 0001:0001DBB6
  3015 0001:0001DBCA  3017 0001:0001DBDE  3020 0001:0001DBE3  3021 0001:0001DBE9
  3024 0001:0001DBF9  3025 0001:0001DC03  3026 0001:0001DC0B  3027 0001:0001DC1A
  3029 0001:0001DC22  3032 0001:0001DC4C  3033 0001:0001DC5E  3035 0001:0001DC6B
  3036 0001:0001DC71  3037 0001:0001DC82  3040 0001:0001DC8B  3042 0001:0001DC96
  3043 0001:0001DCA7  3046 0001:0001DCB0  3047 0001:0001DCB6  3048 0001:0001DCC7
  3050 0001:0001DCD0  3052 0001:0001DCDB  3053 0001:0001DCEC  3057 0001:0001DCF5
  3059 0001:0001DCFC  3062 0001:0001DD14  3063 0001:0001DD28  3064 0001:0001DD35
  3066 0001:0001DD5A  3068 0001:0001DD7F  3070 0001:0001DDA1  3076 0001:0001DDBC
  3077 0001:0001DDD4  3078 0001:0001DDE8  3079 0001:0001DE09  3083 0001:0001DE2A
  3085 0001:0001DE36  3086 0001:0001DE3B  3088 0001:0001DE62  3090 0001:0001DE89
  3092 0001:0001DE8F  3093 0001:0001DE94  3096 0001:0001DEB0  3097 0001:0001DEB7
  3098 0001:0001DEBE  3099 0001:0001DEDA  3100 0001:0001DEDF  3105 0001:0001DEE1
  3106 0001:0001DEE6  3108 0001:0001DF04  3112 0001:0001DF22  3113 0001:0001DF2C
  3116 0001:0001DF2E  3117 0001:0001DF35  3118 0001:0001DF3C  3119 0001:0001DF48
  3120 0001:0001DF4D  3141 0001:0001DF68  3142 0001:0001DF82  3143 0001:0001DF9B
  3144 0001:0001DFB5  3146 0001:0001E00F  3149 0001:0001E019  3152 0001:0001E02E
  3155 0001:0001E043  3156 0001:0001E04A  3158 0001:0001E05F  3161 0001:0001E074
  3162 0001:0001E07B  3164 0001:0001E090  3167 0001:0001E0A5  3170 0001:0001E0C5
  3171 0001:0001E0CC  3173 0001:0001E0DD  3174 0001:0001E0E4  3176 0001:0001E0F9
  3179 0001:0001E10E  3180 0001:0001E115  3181 0001:0001E11C  3183 0001:0001E131
  3186 0001:0001E146  3187 0001:0001E15A  3188 0001:0001E186  3189 0001:0001E1B2
  3194 0001:0001E1D4  3196 0001:0001E1E7  3199 0001:0001E1FC  3200 0001:0001E20C
  3201 0001:0001E21A  3205 0001:0001E224  3207 0001:0001E236  3211 0001:0001E248
  3212 0001:0001E24F  3214 0001:0001E261  3217 0001:0001E273  3219 0001:0001E285
  3221 0001:0001E28A  3226 0001:0001E2AC  3227 0001:0001E2C5  3228 0001:0001E2C8
  3231 0001:0001E2D3  3232 0001:0001E2E2  3235 0001:0001E2F2  3237 0001:0001E2F8
  3238 0001:0001E301  3242 0001:0001E311  3243 0001:0001E31A  3246 0001:0001E32F
  3248 0001:0001E348  3252 0001:0001E358  3253 0001:0001E366  3261 0001:0001E380
  3262 0001:0001E3A6  3266 0001:0001E3B6  3267 0001:0001E3C0  3268 0001:0001E3C7
  3271 0001:0001E3D4  3273 0001:0001E3E6  3275 0001:0001E3F6  3276 0001:0001E400
  3277 0001:0001E40D  3279 0001:0001E426  3285 0001:0001E436  3287 0001:0001E44E
  3289 0001:0001E461  3302 0001:0001E498  3303 0001:0001E4A4  3304 0001:0001E4A8
  3305 0001:0001E4AD  3307 0001:0001E4B1  3309 0001:0001E4B5  3310 0001:0001E4B7
  3313 0001:0001E4C4  3314 0001:0001E4D6  3315 0001:0001E4DB  3317 0001:0001E4F4
  3318 0001:0001E50B  3319 0001:0001E515  3320 0001:0001E524  3323 0001:0001E548
  3324 0001:0001E55F  3325 0001:0001E566  3326 0001:0001E572  3329 0001:0001E593
  3330 0001:0001E5A7  3331 0001:0001E5AE  3332 0001:0001E5BB  3333 0001:0001E5C1
  3334 0001:0001E5C6  3336 0001:0001E5CD  3338 0001:0001E5D4  3341 0001:0001E5DB
  3343 0001:0001E5E4  3346 0001:0001E5FC  3347 0001:0001E609  3348 0001:0001E60D
  3349 0001:0001E613  3350 0001:0001E617  3352 0001:0001E61D  3353 0001:0001E624
  3356 0001:0001E638  3357 0001:0001E648  3358 0001:0001E65C  3359 0001:0001E662
  3360 0001:0001E676  3362 0001:0001E67C  3363 0001:0001E683  3366 0001:0001E690
  3367 0001:0001E6A0  3368 0001:0001E6AB  3369 0001:0001E6B1  3370 0001:0001E6BC
  3372 0001:0001E6C2  3373 0001:0001E6C9  3376 0001:0001E6D8  3377 0001:0001E6E8
  3378 0001:0001E6F3  3379 0001:0001E6F9  3380 0001:0001E704  3382 0001:0001E70A
  3383 0001:0001E711  3386 0001:0001E720  3387 0001:0001E730  3388 0001:0001E73D
  3389 0001:0001E743  3390 0001:0001E750  3392 0001:0001E756  3393 0001:0001E75D
  3399 0001:0001E76C  3400 0001:0001E784  3401 0001:0001E78E  3402 0001:0001E798
  3403 0001:0001E7CD  3423 0001:0001E7E8  3424 0001:0001E802  3425 0001:0001E81B
  3426 0001:0001E831  3429 0001:0001E889  3430 0001:0001E88E  3432 0001:0001E898
  3433 0001:0001E8AC  3434 0001:0001E8C4  3435 0001:0001E8E6  3436 0001:0001E909
  3437 0001:0001E936  3438 0001:0001E963  3439 0001:0001E98D  3440 0001:0001E99F
  3441 0001:0001E9C4  3443 0001:0001E9DA  3444 0001:0001E9DF  3446 0001:0001E9E8
  3453 0001:0001EA24  3455 0001:0001EA40  3458 0001:0001EA44  3461 0001:0001EA55
  3462 0001:0001EA5B  3465 0001:0001EA6C  3466 0001:0001EA72  3469 0001:0001EA86
  3470 0001:0001EA98  3473 0001:0001EAA2  3477 0001:0001EABD  3479 0001:0001EAD1
  3481 0001:0001EAE1  3482 0001:0001EAEF  3483 0001:0001EAFD  3484 0001:0001EB02
  3486 0001:0001EB30  3492 0001:0001EB40  3498 0001:0001EB75  3500 0001:0001EB85
  3501 0001:0001EB93  3502 0001:0001EBA0  3503 0001:0001EBA5  3505 0001:0001EBBD
  3515 0001:0001EBCD  3516 0001:0001EBD6  3519 0001:0001EBE7  3520 0001:0001EBF0
  3523 0001:0001EC04  3524 0001:0001EC13  3527 0001:0001EC1D  3531 0001:0001EC39
  3533 0001:0001EC50  3535 0001:0001EC60  3536 0001:0001EC6F  3537 0001:0001EC79
  3538 0001:0001EC7E  3540 0001:0001ECAB  3546 0001:0001ECBB  3550 0001:0001ECE5
  3552 0001:0001ED00  3555 0001:0001ED10  3556 0001:0001ED20  3557 0001:0001ED2C
  3558 0001:0001ED31  3560 0001:0001ED4A  3565 0001:0001ED5A  3566 0001:0001ED6C
  3569 0001:0001ED76  3573 0001:0001ED91  3575 0001:0001EDA5  3577 0001:0001EDB5
  3578 0001:0001EDC3  3579 0001:0001EDCD  3580 0001:0001EDD2  3582 0001:0001EE00
  3588 0001:0001EE10  3593 0001:0001EE37  3595 0001:0001EE3F  3600 0001:0001EE8C
  3601 0001:0001EEA0  3602 0001:0001EEA6  3605 0001:0001EEA9  3606 0001:0001EEB7
  3609 0001:0001EEC5  3610 0001:0001EECC  3611 0001:0001EEDD  3612 0001:0001EEE4
  3615 0001:0001EEF5  3617 0001:0001EF0D  3621 0001:0001EF1B  3622 0001:0001EF2B
  3629 0001:0001EF4C  3630 0001:0001EF51  3631 0001:0001EF53  3640 0001:0001EF5C
  3641 0001:0001EF6B  3642 0001:0001EF7B  3645 0001:0001EF8C  3646 0001:0001EF9B
  3647 0001:0001EFBE  3650 0001:0001EFE0  3651 0001:0001EFF8  3652 0001:0001F011
  3655 0001:0001F034  3656 0001:0001F040  3657 0001:0001F04C  3658 0001:0001F051
  3661 0001:0001F060  3662 0001:0001F06C  3663 0001:0001F074  3664 0001:0001F079
  3667 0001:0001F088  3668 0001:0001F099  3670 0001:0001F0A1  3671 0001:0001F0B2
  3675 0001:0001F0BA  3676 0001:0001F0BF  3678 0001:0001F0C4  3681 0001:0001F0D8
  3682 0001:0001F0E8  3683 0001:0001F0F4  3684 0001:0001F0FB  3689 0001:0001F114
  3690 0001:0001F126  3691 0001:0001F135  3692 0001:0001F13B  3693 0001:0001F14E
  3698 0001:0001F168  3699 0001:0001F177  3700 0001:0001F1E5  3702 0001:0001F1F1
  3703 0001:0001F1F8  3704 0001:0001F1FE  3705 0001:0001F20A  3706 0001:0001F216
  3707 0001:0001F222  3708 0001:0001F22E  3709 0001:0001F238  3710 0001:0001F259
  3711 0001:0001F25F  3712 0001:0001F26C  3713 0001:0001F27A  3714 0001:0001F287
  3716 0001:0001F29D  3719 0001:0001F2AA  3721 0001:0001F2B4  3722 0001:0001F2C4
  3723 0001:0001F2D0  3725 0001:0001F2DC  3726 0001:0001F2E5  3727 0001:0001F355
  3728 0001:0001F36B  3729 0001:0001F380  3730 0001:0001F393  3731 0001:0001F3A6
  3732 0001:0001F3B9  3733 0001:0001F3CC  3734 0001:0001F3D8  3735 0001:0001F3FA
  3736 0001:0001F40D  3737 0001:0001F41B  3738 0001:0001F42A  3739 0001:0001F438
  3741 0001:0001F452  3743 0001:0001F45E  3746 0001:0001F467  3747 0001:0001F472
  3750 0001:0001F479  3763 0001:0001F490  3764 0001:0001F4A8  3765 0001:0001F4B2
  3766 0001:0001F4DD  3768 0001:0001F4EF  3770 0001:0001F4FF  3771 0001:0001F519
  3773 0001:0001F529  3775 0001:0001F53E  3777 0001:0001F56A  3782 0001:0001F588
  3783 0001:0001F59A  3786 0001:0001F5A8  3787 0001:0001F5D0  3789 0001:0001F5E2
  3790 0001:0001F5F6  3793 0001:0001F614  3794 0001:0001F623  3795 0001:0001F646
  3798 0001:0001F668  3799 0001:0001F680  3800 0001:0001F699  3803 0001:0001F6BC
  3804 0001:0001F6CC  3805 0001:0001F6D8  3806 0001:0001F6DF  3811 0001:0001F6F8
  3812 0001:0001F70A  3813 0001:0001F719  3814 0001:0001F71F  3815 0001:0001F732
  3818 0001:0001F74C  3819 0001:0001F75B  3820 0001:0001F7C9  3822 0001:0001F7DA
  3823 0001:0001F7E1  3827 0001:0001F7E7  3828 0001:0001F7F1  3829 0001:0001F7FB
  3830 0001:0001F812  3831 0001:0001F818  3832 0001:0001F81E  3833 0001:0001F825
  3834 0001:0001F82B  3836 0001:0001F83E  3839 0001:0001F84B  3841 0001:0001F855
  3842 0001:0001F865  3843 0001:0001F871  3845 0001:0001F87D  3846 0001:0001F886
  3847 0001:0001F8F6  3848 0001:0001F910  3852 0001:0001F925  3853 0001:0001F931
  3854 0001:0001F93D  3855 0001:0001F957  3856 0001:0001F96C  3857 0001:0001F984
  3858 0001:0001F99B  3859 0001:0001F9AD  3861 0001:0001F9C4  3863 0001:0001F9D0
  3866 0001:0001F9D9  3867 0001:0001F9E4  3870 0001:0001F9EB  3874 0001:0001FA04
  3875 0001:0001FA08  3876 0001:0001FA0A  3877 0001:0001FA0D  3878 0001:0001FA10
  3879 0001:0001FA13  3880 0001:0001FA15  3881 0001:0001FA1A  3882 0001:0001FA1C
  3883 0001:0001FA21  3885 0001:0001FA24  3895 0001:0001FB94  3896 0001:0001FBB7
  3897 0001:0001FBC3  3898 0001:0001FBE0  3899 0001:0001FBE7  3900 0001:0001FBF9
  3901 0001:0001FC00  3902 0001:0001FC0F  3903 0001:0001FC1D  3905 0001:0001FC58
  3907 0001:0001FC86  3908 0001:0001FC8D  3909 0001:0001FC9C  3910 0001:0001FCA3
  3911 0001:0001FCCD  3914 0001:0001FD28  3915 0001:0001FD34  3916 0001:0001FD37
  3919 0001:0001FD44  3920 0001:0001FD50  3922 0001:0001FD52  3921 0001:0001FD55
  3923 0001:0001FD5C  3969 0001:0001FD68  3970 0001:0001FD75  3971 0001:0001FD7C
  4010 0001:0001FD90  4011 0001:0001FD9C  4012 0001:0001FDAE  4031 0001:0001FDBC
  4032 0001:0001FDCB  4033 0001:0001FDD9  4036 0001:0001FDEC  4037 0001:0001FDFE
  4038 0001:0001FE0F  4041 0001:0001FE28  4042 0001:0001FE3E  4043 0001:0001FE49
  4045 0001:0001FE54  4046 0001:0001FE5E  4049 0001:0001FE7C  4050 0001:0001FE93
  4051 0001:0001FEC7  4054 0001:0001FEE4  4055 0001:0001FEFA  4056 0001:0001FF05
  4058 0001:0001FF10  4059 0001:0001FF1A  4126 0001:0001FF38  4127 0001:0001FF4A
  4128 0001:0001FF51  4129 0001:0001FF56  4130 0001:0001FF59  4141 0001:0001FF70
  4142 0001:0001FF7C  4143 0001:0001FF86  4195 0001:0001FF94  4196 0001:0001FFB4
  4197 0001:0001FFBE  4198 0001:0001FFD5  4199 0001:0001FFF3  4202 0001:00020010
  4203 0001:0002001D  4204 0001:0002002A  4212 0001:0002003C  4214 0001:0002004C
  4215 0001:00020053  4220 0001:00020060  4221 0001:00020066  4224 0001:0002006E
  4225 0001:00020074  4226 0001:0002007A  4228 0001:00020083  4230 0001:0002008A
  4232 0001:00020091  4243 0001:000200A8  4244 0001:000200C8  4246 0001:000200E1
  4248 0001:000200E6  4249 0001:000200F4  4250 0001:00020109  4252 0001:0002010E
  4253 0001:00020116  4254 0001:00020125  4249 0001:0002012B  4256 0001:00020130
  4257 0001:0002015A  4258 0001:00020160  4260 0001:00020165  4262 0001:0002016D
  4263 0001:0002017B  4264 0001:00020184  4280 0001:00020194  4281 0001:000201AA
  4282 0001:000201BE  4284 0001:000201C8  4285 0001:000201CC  4287 0001:000201D7
  4289 0001:000201E2  4290 0001:00020207  4291 0001:0002020C  4296 0001:00020230
  4297 0001:00020242  4298 0001:00020253  4299 0001:00020260  4305 0001:0002027C
  4306 0001:0002028E  4307 0001:0002029F  4309 0001:000202A8  4310 0001:000202AA
  4313 0001:000202C4  4314 0001:000202D7  4315 0001:00020304  4318 0001:00020330
  4319 0001:00020343  4320 0001:00020370  4363 0001:0002039C  4364 0001:000203A8
  4366 0001:000203C8  4369 0001:000203D4  4370 0001:000203E5  4373 0001:0002041C
  4383 0001:00020438  4384 0001:0002044B  4385 0001:0002045D  4387 0001:00020467
  4388 0001:00020472  4391 0001:00020487  4393 0001:00020497  4394 0001:000204A3
  4396 0001:000204A8  4397 0001:000204D0  4401 0001:000204DF  4402 0001:00020507
  4406 0001:0002050B  4408 0001:0002051E  4410 0001:0002052E  4413 0001:0002054C
  4420 0001:0002054F  4421 0001:00020550  4423 0001:00020552  4425 0001:00020553
  4426 0001:00020555  4427 0001:00020556  4429 0001:00020558  4430 0001:0002055B
  4431 0001:0002055C  4433 0001:0002055E  4434 0001:0002055F  4436 0001:00020560
  4440 0001:00020563  4441 0001:00020564  4442 0001:00020569  4444 0001:0002056D
  4446 0001:0002056E  4448 0001:0002056F  4462 0001:00020578  4463 0001:0002058F
  4464 0001:000205A1  4466 0001:000205AB  4469 0001:000205D1  4471 0001:000205DB
  4472 0001:000205E6  4474 0001:000205F0  4476 0001:000205FC  4480 0001:00020616
  4481 0001:0002063E  4484 0001:00020658  4486 0001:00020668  4488 0001:0002066D
  4489 0001:00020677  4492 0001:0002067F  4493 0001:0002068B  4495 0001:00020698
  4497 0001:000206A0  4500 0001:000206A6  4502 0001:000206D6  4505 0001:000206E6
  4508 0001:00020704  4515 0001:00020707  4516 0001:00020708  4518 0001:0002070A
  4521 0001:0002070B  4526 0001:0002070E  4527 0001:00020710  4529 0001:00020712
  4530 0001:00020715  4531 0001:00020716  4534 0001:00020718  4538 0001:0002071B
  4539 0001:0002071C  4540 0001:0002071D  4541 0001:0002071E  4542 0001:0002071F
  4543 0001:00020724  4545 0001:00020728  4547 0001:00020729  4549 0001:0002072A
  4553 0001:00020730  4559 0001:00020733  4560 0001:00020734  4561 0001:00020735
  4562 0001:00020736  4564 0001:00020737  4565 0001:00020739  4566 0001:0002073C
  4568 0001:0002073E  4569 0001:00020740  4570 0001:00020742  4572 0001:00020744
  4574 0001:00020747  4575 0001:00020749  4576 0001:0002074C  4577 0001:0002074E
  4578 0001:00020751  4579 0001:00020754  4580 0001:00020757  4581 0001:00020759
  4582 0001:0002075B  4584 0001:0002075D  4585 0001:0002075F  4586 0001:00020760
  4587 0001:00020762  4591 0001:00020764  4593 0001:00020766  4594 0001:00020767
  4595 0001:00020768  4596 0001:00020769  4597 0001:0002076A  4601 0001:00020770
  4602 0001:0002077C  4603 0001:0002077E  4605 0001:00020782  4606 0001:00020789
  4607 0001:0002078F  4609 0001:00020796  4613 0001:000207A4  4614 0001:000207B1
  4617 0001:000207B5  4618 0001:000207B6  4615 0001:000207BB  4620 0001:000207C6
  4625 0001:000207D8  4626 0001:000207DA  4627 0001:000207DC  4629 0001:000207DF
  4636 0001:000207E8  4638 0001:000207F9  4640 0001:000207FD  4641 0001:000207FF
  4644 0001:0002080A  4646 0001:00020817  4649 0001:0002081B  4652 0001:00020826
  4655 0001:00020831  4656 0001:00020842  4658 0001:00020854  4659 0001:00020858
  4660 0001:0002085A  4655 0001:0002085E  4663 0001:00020861  4644 0001:00020863
  4666 0001:0002086C  4673 0001:0002088C  4674 0001:000208A0  4676 0001:000208A2
  4677 0001:000208AD  4679 0001:000208C9  4680 0001:000208DB  4682 0001:000208DF
  4683 0001:000208F3  4684 0001:000208F5  4679 0001:000208F9  4685 0001:000208FC
  4693 0001:00020920  4695 0001:00020936  4696 0001:0002093B  4697 0001:00020953
  4699 0001:0002095F  4700 0001:00020964  4701 0001:00020966  4696 0001:0002096A
  4702 0001:00020970  4706 0001:0002097B  4709 0001:000209A6  4712 0001:000209B6
  4714 0001:000209C2  4715 0001:000209CB  4719 0001:000209CD  4723 0001:000209D3
  4725 0001:000209DE  4726 0001:000209DF  4720 0001:000209F9  4728 0001:00020A01
  4729 0001:00020A06  4731 0001:00020A08  4709 0001:00020A0C  4732 0001:00020A17
  4741 0001:00020A98  4742 0001:00020AAC  4744 0001:00020AAE  4745 0001:00020AB9
  4747 0001:00020AD7  4750 0001:00020ADB  4751 0001:00020AE5  4752 0001:00020AE6
  4754 0001:00020AEA  4755 0001:00020AFA  4757 0001:00020AFC  4748 0001:00020AFD
  4759 0001:00020B07  4764 0001:00020B2C  4765 0001:00020B39  4766 0001:00020B3E
  4768 0001:00020B47  4769 0001:00020B4E  4772 0001:00020B51  4773 0001:00020B56
  4777 0001:00020B5B  4781 0001:00020B77  4782 0001:00020B7E  4794 0001:00020B90
  4795 0001:00020BBA  4796 0001:00020BC8  4799 0001:00020BD6  4802 0001:00020BDE
  4805 0001:00020BE8  4806 0001:00020BF1  4808 0001:00020BFA  4811 0001:00020C00
  4814 0001:00020C0A  4815 0001:00020C10  4819 0001:00020C22  4822 0001:00020C2F
  4823 0001:00020C3C  4826 0001:00020C4D  4827 0001:00020C72  4830 0001:00020C95
  4831 0001:00020CAD  4833 0001:00020CB5  4834 0001:00020D53  4835 0001:00020D65
  4836 0001:00020D76  4837 0001:00020D85  4838 0001:00020D94  4839 0001:00020DA3
  4840 0001:00020DB2  4841 0001:00020DC1  4842 0001:00020DD0  4843 0001:00020DE1
  4844 0001:00020DF5  4845 0001:00020E01  4846 0001:00020E0D  4847 0001:00020E1C
  4848 0001:00020E2C  4849 0001:00020E3B  4850 0001:00020E49  4851 0001:00020E5A
  4853 0001:00020E66  4855 0001:00020E6E  4857 0001:00020E85  4858 0001:00020ECE
  4869 0001:00020F50  4871 0001:00020F80  4874 0001:00020F8A  4877 0001:00020F98
  4878 0001:00020FA6  4877 0001:00020FC6  4881 0001:00020FCB  4884 0001:00020FDD
  4885 0001:00020FE8  4886 0001:00020FF3  4889 0001:00021011  4890 0001:00021021
  4894 0001:00021032  4895 0001:0002104A  4896 0001:00021068  4897 0001:00021106
  4898 0001:00021119  4899 0001:0002112B  4900 0001:0002113E  4901 0001:00021151
  4902 0001:00021164  4903 0001:00021177  4904 0001:00021187  4905 0001:00021197
  4906 0001:000211A9  4907 0001:000211B9  4908 0001:000211C6  4909 0001:000211D3
  4910 0001:000211E2  4911 0001:000211F1  4912 0001:00021201  4913 0001:00021210
  4914 0001:00021222  4916 0001:0002122D  4919 0001:00021240  4920 0001:00021273
  4932 0001:000212F4  4933 0001:00021304  4935 0001:00021322  4936 0001:00021335
  4937 0001:00021346  4935 0001:0002134C  4939 0001:00021359  4941 0001:0002137F
  4947 0001:00021394  4948 0001:000213A3  4949 0001:000213A8  4954 0001:000213B0
  4955 0001:000213C8  4956 0001:000213D8  4958 0001:000213EE  4959 0001:000213F5
  4965 0001:00021418  4966 0001:00021433  4968 0001:0002144C  4970 0001:00021460
  4971 0001:00021467  4975 0001:00021478  4976 0001:00021487  4977 0001:0002148C
  4992 0001:00021494  4993 0001:000214AF  4994 0001:000214BF  4995 0001:000214DB
  5001 0001:000214EC  5002 0001:00021505  5003 0001:00021516  5005 0001:0002152B
  5006 0001:00021532  5009 0001:0002155C  5010 0001:00021583  5011 0001:00021593
  5012 0001:000215B5  5017 0001:000215D0  5018 0001:00021611  5019 0001:0002161B
  5021 0001:00021639  5022 0001:00021643  5023 0001:0002164F  5024 0001:00021692
  5025 0001:000216A0  5027 0001:000216A9  5028 0001:000216BE  5029 0001:000216C7
  5030 0001:000216EA  5031 0001:00021707  5032 0001:00021720  5031 0001:00021731
  5034 0001:00021734  5035 0001:00021744  5036 0001:00021755  5038 0001:0002179A
  5039 0001:00021806  5040 0001:00021812  5042 0001:00021825  5044 0001:00021891
  5047 0001:000218E0  5048 0001:000218FD  5050 0001:0002191B  5051 0001:00021927
  5053 0001:00021945  5056 0001:0002196B  5057 0001:00021987  5060 0001:000219A4
  5061 0001:000219B0  5062 0001:000219B2  5066 0001:000219C0  5067 0001:000219D0
  5068 0001:000219DA  5069 0001:000219E1  5073 0001:000219F0  5074 0001:000219FD
  5075 0001:00021A02  5076 0001:00021A09  5079 0001:00021A1C  5080 0001:00021A28
  5081 0001:00021A2D  5084 0001:00021A3C  5085 0001:00021A48  5086 0001:00021A4D
  5089 0001:00021A5C  5090 0001:00021A68  5091 0001:00021A6D  5095 0001:00021A7C
  5096 0001:00021A8C  5097 0001:00021A96  5098 0001:00021A9D  5115 0001:00021AAC
  5116 0001:00021AB8  5117 0001:00021ABD  5120 0001:00021ACC  5121 0001:00021AE3
  5122 0001:00021AF0  5125 0001:00021B08  5126 0001:00021B14  5127 0001:00021B1B
  5135 0001:00021B28  5136 0001:00021B34  5137 0001:00021B3D  5147 0001:00021B4C
  5148 0001:00021B5B  5149 0001:00021B68  5171 0001:00021B70  5172 0001:00021B7D
  5173 0001:00021B88  5177 0001:00021B9C  5178 0001:00021BAB  5179 0001:00021BB0
  5187 0001:00021BB8  5188 0001:00021BC4  5189 0001:00021BCD  5192 0001:00021BDC
  5193 0001:00021BE8  5194 0001:00021BF1  5197 0001:00021C00  5198 0001:00021C0F
  5199 0001:00021C12  5202 0001:00021C1C  5203 0001:00021C2B  5204 0001:00021C2E
  5209 0001:00021C38  5210 0001:00021C4B  5211 0001:00021C5C  5213 0001:00021C60
  5214 0001:00021C65  5227 0001:00021C70  5228 0001:00021C7D  5229 0001:00021C8B
  5237 0001:00021C9C  5238 0001:00021CAF  5239 0001:00021CB9  5244 0001:00021CD0
  5245 0001:00021CE3  5246 0001:00021CED  5274 0001:00021D04  5275 0001:00021D25
  5276 0001:00021D39  5279 0001:00021D48  5280 0001:00021D4D  5283 0001:00021D64
  5285 0001:00021D6D  5286 0001:00021D7F  5289 0001:00021D85  5290 0001:00021DAD
  5291 0001:00021DBB  5292 0001:00021DCB  5297 0001:00021DDE  5298 0001:00021E04
  5299 0001:00021E0C  5300 0001:00021E1C  5302 0001:00021E34  5306 0001:00021E3F
  5308 0001:00021E45  5311 0001:00021E59  5312 0001:00021E78  5313 0001:00021E8B
  5317 0001:00021EA6  5318 0001:00021EAF  5320 0001:00021EBC  5323 0001:00021ECE
  5324 0001:00021EF5  5325 0001:00021EFD  5326 0001:00021F0D  5328 0001:00021F25
  5332 0001:00021F30  5333 0001:00021F49  5337 0001:00021F55  5338 0001:00021F63
  5341 0001:00021F80  5345 0001:00021F98  5346 0001:00021FAE  5347 0001:00021FC5
  5350 0001:00021FCE  5353 0001:00021FD9  5354 0001:00021FFD  5360 0001:0002201C
  5362 0001:0002204A  5363 0001:00022054  5366 0001:00022074  5367 0001:0002207A
  5368 0001:00022094  5369 0001:00022099  5370 0001:000220B3  5371 0001:000220C1
  5370 0001:000220CB  5374 0001:000220D0  5377 0001:000220EE  5379 0001:000220F4
  5383 0001:0002210E  5389 0001:00022119  5392 0001:00022121  5393 0001:0002213B
  5395 0001:0002214B  5401 0001:0002215E  5403 0001:00022164  5405 0001:0002219C
  5409 0001:000221A9  5410 0001:000221C3  5413 0001:000221CD  5416 0001:000221EF
  5419 0001:000221F9  5422 0001:0002221B  5424 0001:00022225  5428 0001:0002222D
  5429 0001:00022230  5431 0001:00022234  5432 0001:00022235  5433 0001:0002223B
  5434 0001:00022241  5429 0001:00022261  5436 0001:000222A9  5440 0001:000222E0
  5441 0001:000222EF  5442 0001:000222F1  5446 0001:000222F8  5447 0001:00022307
  5448 0001:00022309  5452 0001:00022310  5453 0001:0002231F  5454 0001:00022321
  5458 0001:00022328  5459 0001:00022337  5460 0001:00022339  5465 0001:00022340
  5467 0001:00022358  5469 0001:00022378  5471 0001:00022382  5473 0001:000223A0
  5474 0001:000223BA  5476 0001:000223C0  5477 0001:000223D5  5481 0001:000223FB
  5484 0001:00022424  5516 0001:00022440  5517 0001:0002244C  5518 0001:00022451
  5583 0001:00022460  5584 0001:0002247C  5586 0001:0002249A  5587 0001:000224F2
  5520 0001:00022508  5521 0001:0002252B  5523 0001:00022536  5524 0001:00022544
  5525 0001:00022552  5526 0001:00022560  5528 0001:00022568  5529 0001:00022570
  5530 0001:00022579  5531 0001:00022582  5532 0001:0002258B  5534 0001:00022594
  5535 0001:0002259D  5536 0001:000225A6  5537 0001:000225AF  5538 0001:000225B8
  5539 0001:000225C1  5540 0001:000225CA  5541 0001:000225D3  5542 0001:000225DC
  5543 0001:000225E5  5544 0001:000225EE  5546 0001:000225F7  5547 0001:00022600
  5548 0001:00022609  5549 0001:00022612  5550 0001:0002261B  5551 0001:00022624
  5552 0001:0002262D  5553 0001:00022636  5554 0001:0002263F  5555 0001:00022648
  5556 0001:00022651  5557 0001:0002265A  5558 0001:00022663  5559 0001:0002266C
  5560 0001:00022675  5561 0001:0002267E  5563 0001:00022687  5564 0001:00022693
  5565 0001:0002269F  5566 0001:000226AB  5568 0001:000226B7  5569 0001:000226C3
  5571 0001:000226CF  5572 0001:000226DB  5573 0001:000226E7  5575 0001:000226F3
  5576 0001:000226FF  5578 0001:0002270B  5579 0001:00022716  5581 0001:0002271D
  5582 0001:00022738

Line numbers for RTLConsts(RTLConsts.pas) segment .text

   319 0001:00022784   319 0001:00022797

Line numbers for TypInfo(TypInfo.pas) segment .text

   340 0001:000227D0   341 0001:000227E2   342 0001:00022805   355 0001:00022824
   356 0001:0002283C   357 0001:00022855   360 0001:00022874   361 0001:0002288C
   362 0001:000228A5   524 0001:000228C4   526 0001:000228EE   529 0001:000228F6
   530 0001:00022908   531 0001:0002290C   535 0001:00022918   537 0001:0002297B
   539 0001:00022996   540 0001:0002299C   541 0001:000229B9   542 0001:000229CF
   544 0001:000229E8   546 0001:00022A03   547 0001:00022A09   549 0001:00022A29
   551 0001:00022A44   553 0001:00022A5B   555 0001:00022A6D   557 0001:00022A8A
   559 0001:00022AA4   561 0001:00022AB3   563 0001:00022AC9   565 0001:00022AE3
   569 0001:00022B32   575 0001:00022B58   576 0001:00022B6A   577 0001:00022B80
   578 0001:00022BA8   579 0001:00022BC6   585 0001:00022BD4   587 0001:00022BFE
   588 0001:00022C10   589 0001:00022C14   592 0001:00022C20   595 0001:00022C2C
   597 0001:00022C8F   598 0001:00022C9D   602 0001:00022CC7   606 0001:00022CF3
   607 0001:00022D01   608 0001:00022D1E   610 0001:00022D2C   612 0001:00022D55
   615 0001:00022D7F   616 0001:00022D8D   618 0001:00022DA6   620 0001:00022DC3
   622 0001:00022DE1   624 0001:00022DFE   626 0001:00022E18   628 0001:00022E27
   632 0001:00022E4D   633 0001:00022E5C   636 0001:00022E6B   640 0001:00022EBA
   676 0001:00022EE0   677 0001:00022F04   678 0001:00022F26   679 0001:00022F45
   683 0001:00022F64   684 0001:00022F7F   685 0001:00022F93   686 0001:00022F9A
   693 0001:00022FAC   694 0001:00022FAE   695 0001:00022FB1   696 0001:00022FB5
   702 0001:00022FBC   703 0001:00022FDD   705 0001:00022FE5   706 0001:00022FEF
   708 0001:00022FF4   709 0001:00023009   713 0001:0002301D   714 0001:00023036
   715 0001:0002304D   719 0001:00023067   720 0001:0002306D   722 0001:00023071
   723 0001:00023078   720 0001:00023079   725 0001:0002307D   727 0001:0002309F
   736 0001:000230CC   737 0001:000230CD   738 0001:000230CE   740 0001:000230CF
   741 0001:000230D1   744 0001:000230D3   745 0001:000230D5   746 0001:000230D8
   747 0001:000230DC   748 0001:000230DE   749 0001:000230E1   752 0001:000230E5
   755 0001:000230E9   760 0001:000230EB   761 0001:000230ED   762 0001:000230F0
   766 0001:000230F2   767 0001:000230F6   768 0001:000230F9   769 0001:000230FC
   770 0001:000230FE   771 0001:000230FF   774 0001:00023101   777 0001:00023103
   779 0001:00023105   780 0001:00023106   781 0001:0002310A   782 0001:0002310C
   786 0001:0002310E   789 0001:00023111   790 0001:00023112   791 0001:00023113
   792 0001:00023114   795 0001:00023128   796 0001:0002313B   797 0001:00023140
   800 0001:0002314C   801 0001:00023167   803 0001:00023174   804 0001:00023187
   805 0001:0002318E   806 0001:000231A2   808 0001:000231AB   811 0001:000231B7
   813 0001:000231C6   821 0001:00023248   822 0001:00023249   823 0001:0002324A
   825 0001:0002324B   826 0001:0002324D   828 0001:0002324F   829 0001:00023251
   830 0001:00023253   831 0001:00023255   832 0001:00023258   833 0001:0002325A
   836 0001:00023260   837 0001:00023262   838 0001:00023265   839 0001:00023269
   840 0001:0002326C   841 0001:00023271   842 0001:00023273   843 0001:00023275
   846 0001:00023279   847 0001:0002327D   848 0001:00023280   849 0001:00023282
   852 0001:00023284   853 0001:00023286   854 0001:00023287   855 0001:0002328B
   858 0001:0002328D   859 0001:00023290   860 0001:00023292   861 0001:00023294
   862 0001:00023296   865 0001:00023298   866 0001:0002329A   867 0001:0002329D
   868 0001:000232A0   871 0001:000232A2   874 0001:000232A4   875 0001:000232A8
   876 0001:000232AC   877 0001:000232AF   878 0001:000232B1   879 0001:000232B2
   882 0001:000232B4   883 0001:000232B5   884 0001:000232B6   885 0001:000232B7
   888 0001:000232CC   889 0001:000232DD   890 0001:000232E4   893 0001:00023306
   894 0001:0002330A  1158 0001:00023328  1159 0001:00023329  1160 0001:0002332A
  1161 0001:0002332C  1162 0001:0002332E  1163 0001:00023330  1164 0001:00023333
  1165 0001:00023335  1166 0001:00023337  1167 0001:0002333A  1169 0001:0002333E
  1170 0001:00023341  1171 0001:00023345  1172 0001:00023348  1173 0001:0002334A
  1176 0001:0002334C  1177 0001:0002334F  1178 0001:00023351  1179 0001:00023353
  1182 0001:00023355  1183 0001:00023357  1186 0001:00023359  1187 0001:0002335F
  1188 0001:00023361  1189 0001:00023363  1190 0001:00023366  1191 0001:00023368
  1192 0001:0002336B  1193 0001:0002336E  1194 0001:00023370  1196 0001:00023372
  1197 0001:00023375  1198 0001:00023377  1199 0001:0002337A  1200 0001:0002337C
  1201 0001:0002337F  1202 0001:00023382  1203 0001:00023384  1204 0001:00023389
  1206 0001:0002338C  1207 0001:0002338F  1208 0001:00023391  1210 0001:00023396
  1211 0001:00023397  1212 0001:00023398  1221 0001:000233A8  1222 0001:000233A9
  1223 0001:000233AA  1224 0001:000233AB  1226 0001:000233AD  1227 0001:000233AF
  1228 0001:000233B1  1229 0001:000233B3  1230 0001:000233B6  1231 0001:000233B8
  1232 0001:000233BA  1233 0001:000233BD  1235 0001:000233C1  1236 0001:000233C4
  1237 0001:000233CA  1238 0001:000233CC  1240 0001:000233CE  1241 0001:000233D1
  1242 0001:000233D5  1243 0001:000233D7  1246 0001:000233D9  1247 0001:000233DC
  1248 0001:000233DE  1249 0001:000233E0  1252 0001:000233E2  1253 0001:000233E4
  1256 0001:000233E6  1257 0001:000233EC  1258 0001:000233EE  1259 0001:000233F0
  1260 0001:000233F3  1261 0001:000233F5  1262 0001:000233F8  1263 0001:000233FB
  1264 0001:000233FD  1266 0001:000233FF  1267 0001:00023400  1268 0001:00023401
  1269 0001:00023402  1272 0001:00023414  1273 0001:0002342A  1274 0001:00023441
  1280 0001:0002345C  1281 0001:00023475  1282 0001:00023482  1283 0001:00023486
  1284 0001:000234B2  1285 0001:000234BE  1289 0001:000234DC  1290 0001:000234F5
  1291 0001:0002350E  1298 0001:00023520  1299 0001:00023545  1300 0001:0002354C
  1301 0001:00023552  1302 0001:00023566  1303 0001:00023568  1305 0001:00023575
  1306 0001:0002357A  1307 0001:00023587  1308 0001:0002359E  1302 0001:0002359F
  1309 0001:000235A4  1310 0001:000235AA  1311 0001:000235E0  1324 0001:00023628
  1325 0001:0002363F  1329 0001:00023643  1328 0001:00023644  1331 0001:00023659
  1335 0001:00023667  1334 0001:00023668  1337 0001:00023679  1338 0001:0002367B
  1340 0001:00023688  1341 0001:000236A7  1342 0001:000236A9  1343 0001:000236B3
  1347 0001:000236C0  1346 0001:000236C3  1349 0001:000236D0  1350 0001:000236E4
  1353 0001:000236F1  1354 0001:000236FE  1355 0001:00023702  1356 0001:0002372A
  1357 0001:00023734  1351 0001:0002373F  1359 0001:0002375F  1363 0001:0002377C
  1364 0001:00023792  1365 0001:000237A7  1401 0001:000237C4  1406 0001:000237C7
  1407 0001:000237C8  1408 0001:000237C9  1410 0001:000237CB  1411 0001:000237CE
  1412 0001:000237D4  1413 0001:000237D6  1415 0001:000237D8  1416 0001:000237DB
  1417 0001:000237DF  1418 0001:000237E1  1421 0001:000237E3  1422 0001:000237E6
  1423 0001:000237E8  1424 0001:000237EA  1427 0001:000237EC  1428 0001:000237EE
  1431 0001:000237F0  1432 0001:000237F6  1433 0001:000237F8  1434 0001:000237FA
  1435 0001:000237FC  1436 0001:000237FE  1437 0001:000237FF  1440 0001:00023801
  1441 0001:00023802  1442 0001:00023803  1451 0001:0002380C  1452 0001:0002380D
  1453 0001:0002380E  1455 0001:00023810  1456 0001:00023813  1457 0001:00023819
  1458 0001:0002381B  1460 0001:0002381D  1461 0001:00023820  1462 0001:00023824
  1463 0001:00023826  1466 0001:00023828  1467 0001:0002382B  1468 0001:0002382D
  1469 0001:0002382F  1472 0001:00023832  1473 0001:00023834  1476 0001:00023837
  1477 0001:0002383D  1478 0001:0002383F  1479 0001:00023841  1480 0001:00023843
  1481 0001:00023845  1482 0001:00023847  1483 0001:0002384A  1485 0001:0002384E
  1486 0001:0002384F  1487 0001:00023851  1488 0001:00023853  1490 0001:00023855
  1491 0001:00023856  1492 0001:00023858  1494 0001:0002385A  1495 0001:0002385B
  1496 0001:0002385C  1502 0001:0002386C  1503 0001:00023881  1504 0001:0002388F
  1505 0001:0002389B  1511 0001:000238B8  1512 0001:000238D3  1513 0001:000238E4
  1514 0001:000238F1  1517 0001:00023914  1518 0001:00023926  1519 0001:0002392F
  1528 0001:00023948  1529 0001:00023949  1530 0001:0002394A  1532 0001:0002394C
  1533 0001:0002394F  1534 0001:00023955  1535 0001:00023957  1537 0001:00023959
  1538 0001:0002395C  1539 0001:00023960  1540 0001:00023962  1543 0001:00023964
  1544 0001:00023967  1545 0001:00023969  1546 0001:0002396B  1549 0001:0002396E
  1550 0001:00023970  1553 0001:00023973  1554 0001:00023979  1555 0001:0002397C
  1556 0001:0002397E  1559 0001:00023983  1560 0001:00023984  1561 0001:00023985
  1570 0001:00023994  1571 0001:00023995  1572 0001:00023996  1574 0001:00023998
  1575 0001:0002399B  1576 0001:000239A1  1577 0001:000239A3  1579 0001:000239A5
  1580 0001:000239A8  1581 0001:000239AC  1582 0001:000239AE  1585 0001:000239B0
  1586 0001:000239B3  1587 0001:000239B5  1588 0001:000239B7  1591 0001:000239BA
  1592 0001:000239BC  1595 0001:000239BF  1596 0001:000239C5  1597 0001:000239C7
  1598 0001:000239C9  1601 0001:000239CE  1602 0001:000239CF  1603 0001:000239D0
  1607 0001:000239E0  1608 0001:00023A00  1609 0001:00023A2F  1615 0001:00023A4C
  1616 0001:00023A6C  1617 0001:00023A77  1618 0001:00023A9B  1621 0001:00023AB8
  1622 0001:00023AC7  1623 0001:00023ADD  1624 0001:00023AE7  1625 0001:00023AF1
  1627 0001:00023AFB  1629 0001:00023B02  1633 0001:00023B14  1634 0001:00023B23
  1635 0001:00023B37  1636 0001:00023B41  1637 0001:00023B4B  1639 0001:00023B52
  1649 0001:00023B64  1650 0001:00023B84  1652 0001:00023B9B  1655 0001:00023BB8
  1656 0001:00023BBB  1658 0001:00023BCB  1659 0001:00023BD6  1663 0001:00023BE5
  1665 0001:00023BF5  1668 0001:00023C06  1670 0001:00023C09  1671 0001:00023C0F
  1672 0001:00023C18  1674 0001:00023C23  1678 0001:00023C31  1680 0001:00023C51
  1692 0001:00023C6C  1693 0001:00023C8C  1695 0001:00023CA3  1698 0001:00023CBD
  1699 0001:00023CC0  1701 0001:00023CD0  1702 0001:00023CDB  1706 0001:00023CE8
  1708 0001:00023CF8  1711 0001:00023D09  1713 0001:00023D0C  1714 0001:00023D12
  1715 0001:00023D1B  1717 0001:00023D26  1721 0001:00023D4A  1731 0001:00023D68
  1732 0001:00023D7A  1733 0001:00023D7D  1735 0001:00023D91  1736 0001:00023D9D
  1737 0001:00023DCD  1738 0001:00023DDC  1739 0001:00023DEB  1740 0001:00023E09
  1741 0001:00023E18  1743 0001:00023E2A  1748 0001:00023E3A  1750 0001:00023E4A
  1753 0001:00023E59  1755 0001:00023E5D  1756 0001:00023E61  1757 0001:00023E6A
  1759 0001:00023E78  1761 0001:00023E87  1762 0001:00023E95  1764 0001:00023EA5
  1789 0001:00023EC8  1790 0001:00023EE1  1791 0001:00023EE4  1793 0001:00023EF2
  1795 0001:00023F04  1796 0001:00023F10  1797 0001:00023F3D  1798 0001:00023F4B
  1799 0001:00023F59  1800 0001:00023F74  1801 0001:00023F82  1806 0001:00023F96
  1808 0001:00023FA4  1811 0001:00023FB5  1813 0001:00023FB8  1814 0001:00023FBE
  1816 0001:00023FCB  1817 0001:00023FF8  1818 0001:0002400D  1819 0001:00024022
  1820 0001:00024038  1821 0001:0002404D  1826 0001:00024068  1827 0001:00024095
  1828 0001:000240AA  1829 0001:000240BF  1830 0001:000240D5  1831 0001:000240EA
  1835 0001:00024103  1838 0001:00024120  1839 0001:00024132  1840 0001:0002413B
  1848 0001:00024154  1849 0001:00024155  1850 0001:00024156  1852 0001:00024158
  1853 0001:0002415B  1854 0001:00024161  1855 0001:00024163  1857 0001:00024165
  1858 0001:00024168  1859 0001:0002416C  1860 0001:0002416E  1863 0001:00024170
  1864 0001:00024173  1865 0001:00024175  1866 0001:00024177  1869 0001:0002417A
  1870 0001:0002417C  1873 0001:0002417F  1874 0001:00024185  1875 0001:00024188
  1876 0001:0002418A  1879 0001:0002418F  1880 0001:00024190  1881 0001:00024191
  1890 0001:000241A0  1891 0001:000241A1  1892 0001:000241A2  1894 0001:000241A4
  1895 0001:000241A7  1896 0001:000241AD  1897 0001:000241AF  1899 0001:000241B1
  1900 0001:000241B4  1901 0001:000241B8  1902 0001:000241BA  1905 0001:000241BC
  1906 0001:000241BF  1907 0001:000241C1  1908 0001:000241C3  1911 0001:000241C6
  1912 0001:000241C8  1915 0001:000241CB  1916 0001:000241D1  1917 0001:000241D3
  1918 0001:000241D5  1921 0001:000241DA  1922 0001:000241DB  1923 0001:000241DC
  2014 0001:000241EC  2016 0001:000241F0  2017 0001:000241F3  2019 0001:000241F6
  2020 0001:000241F8  2023 0001:000241FA  2024 0001:000241FD  2025 0001:000241FF
  2026 0001:00024201  2029 0001:00024202  2030 0001:00024204  2033 0001:00024205
  2034 0001:0002420B  2035 0001:0002420D  2036 0001:00024210  2039 0001:00024212
  2043 0001:00024218  2047 0001:0002421B  2048 0001:0002421F  2049 0001:00024222
  2050 0001:00024224  2051 0001:00024227  2052 0001:0002422A  2053 0001:0002422D
  2056 0001:0002422F  2057 0001:00024232  2058 0001:00024234  2059 0001:00024236
  2062 0001:00024238  2063 0001:0002423A  2066 0001:0002423C  2067 0001:00024242
  2068 0001:00024244  2069 0001:00024247  2070 0001:0002424A  2071 0001:0002424C
  2074 0001:0002424F  2154 0001:000242B4  2154 0001:000242C7

Line numbers for Classes(Classes.pas) segment .text

  1773 0001:000242D4  1774 0001:000242FF  1775 0001:00024308  1776 0001:00024318
  1777 0001:00024328  1778 0001:0002433A  1779 0001:00024360  1782 0001:0002437C
  1783 0001:00024394  1784 0001:000243A1  1785 0001:000243A9  1786 0001:000243B1
  1787 0001:000243C6  1858 0001:000243DC  1859 0001:000243EF  1860 0001:0002440A
  1865 0001:00024428  1873 0001:0002443C  1874 0001:00024448  1875 0001:0002445E
  1873 0001:00024469  1876 0001:0002446E  1877 0001:0002447A  1878 0001:00024490
  1876 0001:0002449B  1879 0001:000244A0  1880 0001:000244B0  1881 0001:000244C6
  1879 0001:000244D1  1882 0001:000244D6  1907 0001:000244F4  1908 0001:0002451C
  1909 0001:00024525  1910 0001:00024535  1912 0001:0002453D  1913 0001:00024552
  1914 0001:0002455C  1915 0001:0002457C  1920 0001:00024598  1921 0001:000245B3
  1922 0001:000245CE  1923 0001:000245E2  1922 0001:000245F7  1924 0001:000245FA
  1925 0001:00024602  1926 0001:0002461C  2009 0001:00024648  2010 0001:00024654
  2011 0001:0002466F  2053 0001:00024688  2054 0001:00024694  2055 0001:000246AF
  2068 0001:000246C8  2069 0001:000246DC  2070 0001:000246E8  2069 0001:000246FB
  2071 0001:00024700  2230 0001:0002471C  2231 0001:0002472E  2233 0001:00024739
  2235 0001:0002474E  2237 0001:00024761  2727 0001:00024774  2728 0001:0002478C
  2729 0001:000247A0  2732 0001:000247B8  2733 0001:000247CC  2734 0001:000247CF
  2735 0001:000247D4  2736 0001:000247DA  2737 0001:000247E3  2738 0001:000247E6
  2739 0001:000247EC  2740 0001:000247FA  2743 0001:00024818  2744 0001:00024827
  2745 0001:00024830  2746 0001:00024839  2751 0001:0002484C  2752 0001:0002485F
  2753 0001:00024868  2754 0001:00024877  2755 0001:00024883  2756 0001:00024886
  2757 0001:0002488B  2759 0001:000248A7  2760 0001:000248AD  2761 0001:000248B9
  2767 0001:000248D4  2768 0001:000248D7  2770 0001:000248E0  2771 0001:000248F5
  2772 0001:00024924  2775 0001:00024948  2776 0001:00024965  2777 0001:00024998
  2805 0001:000249B4  2806 0001:000249C7  2807 0001:000249D0  2808 0001:000249DF
  2809 0001:000249EB  2814 0001:00024A08  2815 0001:00024A15  2816 0001:00024A1D
  2818 0001:00024A2E  2819 0001:00024A33  2821 0001:00024A3C  2822 0001:00024A43
  2823 0001:00024A4B  2826 0001:00024A5C  2827 0001:00024A69  2829 0001:00024A6D
  2828 0001:00024A6E  2830 0001:00024A7B  2831 0001:00024A80  2832 0001:00024A85
  2873 0001:00024A98  2874 0001:00024AB0  2875 0001:00024AB9  2876 0001:00024AC8
  2878 0001:00024AD3  2879 0001:00024ADD  2880 0001:00024AE6  2881 0001:00024AED
  2882 0001:00024AFA  2883 0001:00024B00  2885 0001:00024B0C  2888 0001:00024B2C
  2889 0001:00024B3C  2890 0001:00024B45  2891 0001:00024B49  2892 0001:00024B54
  2904 0001:00024B6C  2905 0001:00024B7E  2906 0001:00024B8B  2907 0001:00024B9A
  2909 0001:00024B9F  2910 0001:00024BAC  2912 0001:00024BAF  2917 0001:00024BC8
  2918 0001:00024BDD  2919 0001:00024BE9  2920 0001:00024BF8  2921 0001:00024BFD
  2922 0001:00024C06  2923 0001:00024C0B  2925 0001:00024C25  2926 0001:00024C37
  2925 0001:00024C44  2927 0001:00024C4A  2928 0001:00024C4D  2982 0001:00024C70
  2983 0001:00024C7C  3071 0001:00024C88  3072 0001:00024CAF  3073 0001:00024CB8
  3074 0001:00024CC0  3075 0001:00024CD0  3076 0001:00024CF0  3079 0001:00024D0C
  3080 0001:00024D29  3082 0001:00024D31  3083 0001:00024D3C  3085 0001:00024D52
  3086 0001:00024D5A  3088 0001:00024D8E  3115 0001:00024DA8  3116 0001:00024DB7
  3117 0001:00024DD2  3118 0001:00024DD5  3131 0001:00024DF0  3132 0001:00024DFC
  3133 0001:00024E17  3459 0001:00024E30  3460 0001:00024E48  3461 0001:00024E4F
  3462 0001:00024E69  3465 0001:00024E80  3466 0001:00024E8C  3467 0001:00024E9E
  3472 0001:00024EAC  3473 0001:00024ECC  3474 0001:00024ED0  3475 0001:00024EED
  3476 0001:00024EFB  3477 0001:00024F64  3480 0001:00024F90  3481 0001:00024F9C
  3482 0001:00024FA2  3485 0001:00024FB0  3486 0001:00024FBC  3491 0001:00024FC8
  3492 0001:00024FE9  3493 0001:00025004  3495 0001:00025013  3496 0001:0002502A
  3497 0001:00025030  3499 0001:00025065  3502 0001:00025090  3503 0001:0002509C
  3504 0001:0002509E  3958 0001:000250AC  3959 0001:000250C4  3960 0001:000250CD
  3961 0001:000250E7  3964 0001:00025100  3965 0001:00025114  3966 0001:0002511D
  3967 0001:0002512B  3970 0001:00025148  3971 0001:0002515C  3972 0001:00025165
  3973 0001:00025173  3983 0001:00025190  3984 0001:000251AF  3986 0001:000251B7
  3987 0001:000251CA  3986 0001:000251F1  3989 0001:000251FE  3991 0001:00025226
  3994 0001:0002525C  3995 0001:00025272  3997 0001:00025283  3999 0001:0002528B
  4000 0001:00025293  4001 0001:0002529C  4002 0001:000252A5  4003 0001:000252AE
  4004 0001:000252B7  4006 0001:000252C9  4010 0001:000252D9  4011 0001:000252E3
  4014 0001:00025300  4015 0001:0002530F  4016 0001:0002531E  4017 0001:00025321
  4022 0001:00025334  4023 0001:00025345  4025 0001:00025352  4026 0001:00025356
  4027 0001:0002536A  4029 0001:00025381  4030 0001:00025395  4032 0001:000253A0
  4033 0001:000253B9  4034 0001:000253E6  4037 0001:00025404  4038 0001:00025410
  4039 0001:00025413  4040 0001:00025420  4045 0001:0002542C  4046 0001:0002544E
  4047 0001:00025452  4048 0001:0002545D  4049 0001:0002546A  4050 0001:000254A7
  4051 0001:000254CB  4057 0001:000254E8  4058 0001:000254EB  4060 0001:000254F4
  4061 0001:00025509  4062 0001:00025538  4065 0001:0002555C  4066 0001:0002557C
  4067 0001:000255AB  4073 0001:000255C8  4074 0001:000255EC  4076 0001:000255F4
  4077 0001:00025601  4078 0001:0002560E  4079 0001:00025629  4080 0001:00025640
  4081 0001:0002564E  4083 0001:00025664  4085 0001:00025691  4099 0001:000256C8
  4100 0001:000256D4  4101 0001:000256D9  4158 0001:000256E8  4159 0001:000256F4
  4160 0001:000256F6  4163 0001:00025704  4164 0001:00025718  4165 0001:0002574B
  4172 0001:00025764  4173 0001:00025788  4174 0001:00025793  4175 0001:00025798
  4176 0001:000257A6  4177 0001:000257E6  4178 0001:000257F3  4179 0001:000257FB
  4181 0001:0002580E  4182 0001:0002581C  4183 0001:00025826  4185 0001:0002582A
  4186 0001:00025837  4188 0001:0002583A  4189 0001:00025844  4191 0001:00025848
  4192 0001:00025855  4194 0001:00025858  4179 0001:0002585B  4195 0001:00025885
  4208 0001:000258B0  4209 0001:000258CE  4210 0001:000258E5  4209 0001:00025906
  4211 0001:0002590B  4212 0001:0002592D  4218 0001:0002594C  4219 0001:00025970
  4221 0001:00025987  4222 0001:00025994  4223 0001:000259B3  4224 0001:000259DF
  4219 0001:000259E2  4225 0001:000259E7  4226 0001:00025A16  4229 0001:00025A34
  4230 0001:00025A4C  4231 0001:00025A5E  4230 0001:00025A6F  4232 0001:00025A72
  4233 0001:00025A77  4237 0001:00025A98  4238 0001:00025AB4  4239 0001:00025AC1
  4240 0001:00025ACE  4245 0001:00025AE0  4246 0001:00025AF3  4248 0001:00025B07
  4250 0001:00025B19  4252 0001:00025B29  4258 0001:00025B44  4259 0001:00025B62
  4261 0001:00025B6A  4262 0001:00025B7E  4263 0001:00025B8B  4264 0001:00025B98
  4266 0001:00025BAB  4268 0001:00025BD3  4274 0001:00025C08  4275 0001:00025C29
  4277 0001:00025C2E  4279 0001:00025C36  4280 0001:00025C43  4281 0001:00025C50
  4282 0001:00025C5A  4284 0001:00025C74  4287 0001:00025C9C  4292 0001:00025CD0
  4293 0001:00025CE8  4294 0001:00025CF5  4295 0001:00025CFE  4296 0001:00025D10
  4299 0001:00025D34  4300 0001:00025D40  4303 0001:00025D4C  4304 0001:00025D69
  4305 0001:00025D71  4307 0001:00025D79  4308 0001:00025D83  4310 0001:00025DAD
  4312 0001:00025DBD  4313 0001:00025DDD  4318 0001:00025E10  4319 0001:00025E23
  4321 0001:00025E3A  4323 0001:00025E4C  4325 0001:00025E5C  4330 0001:00025E78
  4331 0001:00025E8F  4332 0001:00025E99  4333 0001:00025EC5  4336 0001:00025EE0
  4338 0001:00025EEC  4348 0001:00025EF8  4349 0001:00025F0A  4350 0001:00025F18
  4351 0001:00025F22  4352 0001:00025F32  4355 0001:00025F48  4356 0001:00025F5F
  4357 0001:00025F8B  4363 0001:00025FA8  4364 0001:00025FC6  4366 0001:00025FCE
  4367 0001:00025FD6  4368 0001:00025FD9  4371 0001:00025FDF  4372 0001:00025FE3
  4373 0001:00025FF4  4374 0001:00026001  4375 0001:0002600C  4376 0001:00026012
  4369 0001:00026018  4379 0001:00026025  4381 0001:0002604D  4384 0001:00026080
  4385 0001:0002608C  4405 0001:00026098  4406 0001:000260B7  4407 0001:000260BF
  4408 0001:000260F5  4409 0001:00026115  4505 0001:00026134  4506 0001:00026141
  4507 0001:00026150  4510 0001:00026164  4511 0001:00026173  4512 0001:00026179
  4513 0001:00026182  4514 0001:00026185  4517 0001:00026198  4518 0001:000261AB
  4520 0001:000261B9  4521 0001:000261BD  4523 0001:000261C3  4546 0001:000261DC
  4547 0001:000261F4  4548 0001:000261FC  4549 0001:00026204  4550 0001:00026211
  4551 0001:00026228  4552 0001:0002622D  4553 0001:00026243  4556 0001:0002625C
  4557 0001:0002626A  4558 0001:00026277  4561 0001:00026290  4562 0001:000262A9
  4563 0001:000262AF  4565 0001:000262B8  4566 0001:000262CC  4568 0001:000262D9
  4570 0001:000262E8  4571 0001:00026300  4574 0001:00026328  4575 0001:00026335
  4576 0001:00026342  4577 0001:0002634C  4580 0001:00026360  4581 0001:0002636D
  4582 0001:0002637A  4583 0001:00026384  4586 0001:00026398  4587 0001:000263A7
  4589 0001:000263AD  4590 0001:000263B7  4591 0001:000263C8  4592 0001:000263CD
  4593 0001:000263D6  4595 0001:000263E0  4598 0001:000263F4  4599 0001:00026406
  4600 0001:0002641E  4601 0001:00026428  4602 0001:00026439  4603 0001:0002643C
  4604 0001:00026441  4606 0001:0002645D  4607 0001:00026467  4610 0001:00026480
  4611 0001:00026496  4612 0001:000264AE  4613 0001:000264CC  4614 0001:000264D6
  4615 0001:000264E2  4616 0001:000264EC  4622 0001:00026508  4623 0001:00026516
  4624 0001:0002651C  4625 0001:00026522  4626 0001:00026527  4627 0001:0002652B
  4628 0001:00026530  4629 0001:00026536  4630 0001:0002653C  4631 0001:00026542
  4636 0001:00026558  4637 0001:00026575  4638 0001:0002657A  4639 0001:0002657C
  4640 0001:00026587  4642 0001:0002658D  4643 0001:00026595  4644 0001:000265AE
  4646 0001:000265BA  4647 0001:000265C1  4649 0001:000265C8  4650 0001:000265CD
  4640 0001:000265D8  4654 0001:000265DE  4655 0001:000265E8  4658 0001:0002660C
  4659 0001:00026622  4660 0001:0002663A  4661 0001:00026648  4664 0001:00026664
  4665 0001:00026670  4666 0001:00026673  4669 0001:00026680  4670 0001:0002668C
  4671 0001:0002668F  4674 0001:0002669C  4675 0001:000266AF  4676 0001:000266C7
  4677 0001:000266D4  4682 0001:000266F0  4683 0001:000266FE  4684 0001:00026717
  4685 0001:00026725  4686 0001:0002672C  4687 0001:00026736  4690 0001:0002674C
  4691 0001:0002675F  4692 0001:00026773  4693 0001:0002678F  4696 0001:000267AC
  4697 0001:000267BE  4698 0001:000267C9  4702 0001:000267E4  4703 0001:000267FD
  4704 0001:00026812  4705 0001:0002682A  4706 0001:0002683D  4709 0001:0002684C
  4710 0001:00026868  4711 0001:00026872  4712 0001:00026881  4713 0001:00026889
  4715 0001:000268AA  4717 0001:000268B3  4718 0001:000268B7  4719 0001:000268BD
  4721 0001:000268C7  4722 0001:000268CA  4723 0001:000268D4  4726 0001:000268E4
  4727 0001:000268FA  4728 0001:0002690F  4729 0001:00026927  4730 0001:00026931
  4731 0001:0002693F  4732 0001:00026949  4735 0001:00026964  4736 0001:0002697A
  4737 0001:00026992  4738 0001:0002699C  4739 0001:000269A6  4740 0001:000269B0
  4745 0001:000269CC  4747 0001:000269E8  4748 0001:000269EB  4749 0001:000269F1
  4751 0001:000269FE  4752 0001:00026A10  4753 0001:00026A23  4755 0001:00026A28
  4756 0001:00026A35  4757 0001:00026A3A  4758 0001:00026A42  4759 0001:00026A4A
  4760 0001:00026A4D  4761 0001:00026A4E  4763 0001:00026A51  4764 0001:00026A56
  4765 0001:00026A70  4766 0001:00026A73  4767 0001:00026A7C  4770 0001:00026A8C
  4771 0001:00026A9E  4772 0001:00026AAB  4773 0001:00026AAE  4776 0001:00026AC4
  4777 0001:00026AD7  4779 0001:00026ADF  4780 0001:00026AEF  4782 0001:00026AF5
  4785 0001:00026B0C  4786 0001:00026B1B  4787 0001:00026B36  4790 0001:00026B48
  4791 0001:00026B58  4793 0001:00026B71  4796 0001:00026B88  4797 0001:00026B94
  4798 0001:00026BA2  4801 0001:00026BB0  4802 0001:00026BC2  4804 0001:00026BCE
  4805 0001:00026BD8  4806 0001:00026BE6  4808 0001:00026BF0  4811 0001:00026C0C
  4812 0001:00026C19  4813 0001:00026C1F  4815 0001:00026C2D  4816 0001:00026C3C
  4830 0001:00026C50  4831 0001:00026C5F  4832 0001:00026C78  4842 0001:00026C94
  4843 0001:00026CA6  4844 0001:00026CBB  4845 0001:00026CCF  4846 0001:00026CE7
  4849 0001:00026D14  4852 0001:00026D20  4860 0001:00026D2C  4866 0001:00026D3D
  4867 0001:00026D63  4868 0001:00026D7B  4869 0001:00026D87  4874 0001:00026D90
  4875 0001:00026DA5  4876 0001:00026DE3  4884 0001:00026DF0  4890 0001:00026E10
  4891 0001:00026E1E  4893 0001:00026E2A  4892 0001:00026E33  4894 0001:00026E42
  4895 0001:00026E4E  4896 0001:00026E59  4897 0001:00026E61  4898 0001:00026E68
  4899 0001:00026E7F  4902 0001:00026E8C  4905 0001:00026EA4  4906 0001:00026ECA
  4907 0001:00026EE2  4908 0001:00026F00  4917 0001:00026F10  4918 0001:00026F26
  4919 0001:00026F3A  4920 0001:00026F52  5040 0001:00026F70  5041 0001:00026F9A
  5042 0001:00026FA3  5043 0001:00026FC2  5046 0001:00026FE0  5047 0001:00026FEF
  5048 0001:00026FF7  5049 0001:00026FFE  5052 0001:00027010  5053 0001:0002701F
  5054 0001:00027027  5055 0001:0002702E  5058 0001:00027040  5059 0001:00027052
  5060 0001:0002706F  5063 0001:00027080  5064 0001:00027091  5065 0001:0002709D
  5068 0001:000270B4  5069 0001:000270C8  5073 0001:000270D7  5074 0001:000270FD
  5076 0001:0002712B  5081 0001:00027148  5085 0001:0002716F  5087 0001:000271A2
  5090 0001:000271C0  5091 0001:000271F8  5093 0001:00027200  5094 0001:00027215
  5095 0001:0002721F  5099 0001:0002726A  5100 0001:00027280  5101 0001:00027286
  5103 0001:00027308  5106 0001:00027340  5107 0001:00027358  5108 0001:00027364
  5109 0001:0002737E  5622 0001:00027394  5623 0001:000273AE  5624 0001:000273B7
  5626 0001:000273C5  5628 0001:000273D1  5629 0001:000273DD  5632 0001:00027400
  5633 0001:0002740A  5635 0001:00027411  5626 0001:00027412  5637 0001:0002741F
  5639 0001:00027432  5645 0001:00027450  5646 0001:00027467  5647 0001:00027470
  5649 0001:0002747E  5651 0001:0002748A  5652 0001:00027496  5654 0001:0002749E
  5655 0001:000274A8  5657 0001:000274AF  5649 0001:000274B0  5659 0001:000274BD
  5661 0001:000274D0  5687 0001:000274EC  5688 0001:000274FB  5689 0001:0002750F
  5692 0001:00027520  5693 0001:0002752C  5694 0001:00027537  5725 0001:00027544
  5726 0001:00027557  5728 0001:00027563  5729 0001:00027566  5730 0001:0002756D
  5732 0001:00027572  5774 0001:00027588  5775 0001:00027597  5776 0001:000275A3
  5777 0001:000275A6  5912 0001:000275B8  5913 0001:000275C7  5914 0001:000275CE
  5915 0001:000275D1  5925 0001:000275E4  5926 0001:000275E5  5927 0001:000275E6
  5928 0001:000275E7  5929 0001:000275E9  5930 0001:000275EB  5931 0001:000275ED
  5932 0001:000275EF  5933 0001:000275F2  5934 0001:000275F5  5935 0001:000275F7
  5936 0001:000275F9  5937 0001:000275FE  5938 0001:00027601  5939 0001:00027603
  5940 0001:00027605  5941 0001:00027607  5942 0001:00027608  5943 0001:0002760A
  5944 0001:0002760D  5945 0001:00027610  5946 0001:00027613  5947 0001:00027615
  5948 0001:00027617  5949 0001:0002761A  5950 0001:0002761B  5951 0001:0002761D
  5952 0001:0002761F  5953 0001:00027622  5954 0001:00027624  5955 0001:00027625
  5956 0001:00027627  5957 0001:00027629  5958 0001:0002762A  5959 0001:0002762B
  5960 0001:0002762C  5963 0001:00027644  5964 0001:00027654  5965 0001:00027667
  5966 0001:00027683  5967 0001:00027688  6251 0001:000276A0  6252 0001:000276AC
  6253 0001:000276B3  6256 0001:000276C0  6257 0001:000276CC  6258 0001:000276D3
  6595 0001:000276E0  6596 0001:000276F3  6597 0001:00027701  6598 0001:0002770F
  6599 0001:00027724  6604 0001:00027740  6605 0001:0002775D  6606 0001:0002776C
  6609 0001:00027782  6610 0001:00027787  6612 0001:00027798  6614 0001:000277A9
  6616 0001:000277BA  6618 0001:000277BF  6619 0001:000277C9  6621 0001:000277ED
  6627 0001:0002780C  6628 0001:00027827  6629 0001:00027836  6632 0001:0002784C
  6633 0001:00027851  6636 0001:00027862  6637 0001:00027871  6638 0001:0002787B
  6642 0001:0002788B  6643 0001:0002789A  6644 0001:000278A5  6645 0001:000278B2
  6648 0001:000278BE  6651 0001:000278E3  6654 0001:00027900  6655 0001:0002790D
  6656 0001:0002791C  6666 0001:00027930  6667 0001:00027944  6668 0001:0002796C
  6673 0001:00027988  6674 0001:000279A0  6675 0001:000279B2  6676 0001:000279B9
  6681 0001:000279C0  6682 0001:000279D3  6683 0001:000279E6  6684 0001:000279F7
  6687 0001:00027A04  6690 0001:00027A1C  6691 0001:00027A30  6692 0001:00027A3E
  6693 0001:00027A50  6688 0001:00027A57  6695 0001:00027A62  6696 0001:00027A69
  6698 0001:00027A70  6699 0001:00027A8A  6701 0001:00027B02  6702 0001:00027B0E
  6703 0001:00027B20  6704 0001:00027B32  6705 0001:00027B44  6706 0001:00027B56
  6708 0001:00027B66  6709 0001:00027B74  6710 0001:00027B7E  6711 0001:00027B8C
  6712 0001:00027B95  6713 0001:00027BA4  6714 0001:00027BB3  6715 0001:00027BC2
  6716 0001:00027BD0  6717 0001:00027BDF  6719 0001:00027C03  6802 0001:00027C20
  6803 0001:00027C34  6804 0001:00027C3E  6805 0001:00027C5D  6867 0001:00027C78
  6868 0001:00027C90  6869 0001:00027C94  6871 0001:00027C9C  6872 0001:00027CAA
  6876 0001:00027CB2  6877 0001:00027CBD  6868 0001:00027CBF  6879 0001:00027CC3
  7013 0001:00027CE8  7014 0001:00027CE9  7015 0001:00027CEA  7016 0001:00027CEB
  7017 0001:00027CED  7018 0001:00027CEF  7019 0001:00027CF1  7020 0001:00027CF3
  7021 0001:00027CF6  7022 0001:00027CF9  7023 0001:00027CFB  7024 0001:00027CFD
  7025 0001:00027D02  7026 0001:00027D05  7027 0001:00027D07  7028 0001:00027D09
  7029 0001:00027D0B  7030 0001:00027D0D  7031 0001:00027D0E  7032 0001:00027D11
  7033 0001:00027D14  7034 0001:00027D17  7035 0001:00027D19  7036 0001:00027D1B
  7037 0001:00027D1E  7038 0001:00027D1F  7039 0001:00027D21  7040 0001:00027D23
  7041 0001:00027D26  7042 0001:00027D28  7043 0001:00027D29  7044 0001:00027D2B
  7045 0001:00027D2D  7046 0001:00027D2E  7047 0001:00027D2F  7048 0001:00027D30
  7068 0001:00027D48  7069 0001:00027D57  7070 0001:00027D65  7071 0001:00027D6A
  7302 0001:00027D7C  7303 0001:00027D88  7304 0001:00027D8F  7307 0001:00027D9C
  7308 0001:00027DA8  7309 0001:00027DAF  7831 0001:00027DBC  7832 0001:00027DD4
  7834 0001:00027DE0  7835 0001:00027DEC  7836 0001:00027DF5  7837 0001:00027E05
  7841 0001:00027E15  7842 0001:00027E20  7844 0001:00027E2A  7845 0001:00027E33
  7848 0001:00027E45  7849 0001:00027E4E  7851 0001:00027E5E  7853 0001:00027E6B
  7856 0001:00027E8C  7857 0001:00027EA3  7858 0001:00027ED1  7878 0001:00027EEC
  7879 0001:00027EFC  7880 0001:00027F08  9049 0001:00027F1C  9050 0001:00027F28
  9056 0001:00027F33  9057 0001:00027F55  9059 0001:00027F5A  9062 0001:00027F70
  9063 0001:00027F7C  9067 0001:00027F9A  9068 0001:00027FBA  9070 0001:00027FDB
 10532 0001:00028008 10533 0001:0002801A 10535 0001:00028028 10536 0001:00028036
 10535 0001:00028046 10538 0001:00028051 10540 0001:00028064 10541 0001:0002806F
 10544 0001:0002808C 10545 0001:00028098 10546 0001:0002809D 10902 0001:000280AC
 10903 0001:000280D2 10904 0001:000280DF 10905 0001:000280E4 10906 0001:000280ED
 10907 0001:000280F8 10908 0001:00028108 10909 0001:00028113 10910 0001:0002811E
 10911 0001:00028129 10912 0001:00028134 10913 0001:00028139 10915 0001:0002815F
 10888 0001:00028174 10889 0001:0002818C 10890 0001:00028191 10895 0001:0002819C
 10897 0001:000281BD 10898 0001:000281D0 10899 0001:000281E3 10901 0001:00028206

Line numbers for Math(Math.pas) segment .text

  1159 0001:0002821C  1160 0001:00028229  1161 0001:0002822D  1163 0001:00028232
  1164 0001:00028238  2166 0001:00028284  2166 0001:00028297

Line numbers for DateUtils(DateUtils.pas) segment .text

   465 0001:000282A4   466 0001:000282B7   467 0001:000282ED  1029 0001:00028308
  1030 0001:00028324  1032 0001:0002834D  1034 0001:00028375  1161 0001:00028388
  1162 0001:0002839E  1163 0001:000283AB  1165 0001:000283AF  1166 0001:000283C9
  1167 0001:000283CD  1169 0001:000283DB  1475 0001:000283EC  1476 0001:00028406
  1477 0001:0002840D  1478 0001:0002841E  1480 0001:0002842D  1482 0001:0002843A
  1483 0001:00028444  1486 0001:00028458  1487 0001:00028481  1488 0001:00028495
  1489 0001:000284AD  1497 0001:00028600  1523 0001:00028668  1523 0001:0002867B

Line numbers for DBConsts(DBConsts.pas) segment .text

   113 0001:000286C0   113 0001:000286D3

Line numbers for SqlTimSt(SqlTimSt.pas) segment .text

   167 0001:000286E0   168 0001:000286EC   175 0001:00028721   180 0001:00028730
   181 0001:0002873C   182 0001:00028744   188 0001:00028750   191 0001:0002875E
   192 0001:0002876E   189 0001:0002877E   194 0001:0002878C   200 0001:00028798
   201 0001:000287AB   204 0001:000287B4   205 0001:000287C5   206 0001:000287CB
   208 0001:000287D1   209 0001:000287D5   210 0001:000287DF   202 0001:000287E6
   212 0001:000287F5   218 0001:0002880C   221 0001:00028821   222 0001:00028832
   223 0001:00028843   219 0001:0002884D   225 0001:0002885C   231 0001:00028874
   234 0001:00028889   235 0001:0002889A   236 0001:000288AB   232 0001:000288B5
   238 0001:000288C4   244 0001:000288DC   247 0001:000288F1   248 0001:00028902
   249 0001:00028913   245 0001:0002891D   251 0001:0002892C   254 0001:00028944
   255 0001:00028957   257 0001:0002895D   258 0001:00028967   259 0001:00028971
   260 0001:0002897B   261 0001:00028985   264 0001:00028991   265 0001:0002899B
   266 0001:000289A5   267 0001:000289AF   268 0001:000289B9   270 0001:000289C3
   273 0001:000289DC   274 0001:000289EB   275 0001:000289FB   278 0001:00028A0C
   279 0001:00028A18   280 0001:00028A20   281 0001:00028A28   282 0001:00028A30
   283 0001:00028A38   284 0001:00028A40   285 0001:00028A48   286 0001:00028A4E
   287 0001:00028A55   290 0001:00028A64   291 0001:00028A76   293 0001:00028A81
   294 0001:00028A89   295 0001:00028A91   296 0001:00028A99   297 0001:00028AA1
   298 0001:00028AA9   299 0001:00028AB1   300 0001:00028AB7   302 0001:00028AC0
   307 0001:00028AD8   308 0001:00028AE6   309 0001:00028AF0   310 0001:00028AF4
   311 0001:00028AFE   312 0001:00028B02   313 0001:00028B0C   314 0001:00028B10
   315 0001:00028B1A   316 0001:00028B1E   317 0001:00028B28   318 0001:00028B2C
   319 0001:00028B36   320 0001:00028B3A   321 0001:00028B44   322 0001:00028B48
   323 0001:00028B4E   324 0001:00028B52   326 0001:00028B58   327 0001:00028B5C
   329 0001:00028B62   330 0001:00028B69   333 0001:00028B84   334 0001:00028B96
   335 0001:00028BA2   338 0001:00028BB8   339 0001:00028BC7   340 0001:00028BD6
   343 0001:00028BEC   344 0001:00028C01   345 0001:00028C13   348 0001:00028C30
   349 0001:00028C46   350 0001:00028C5E   367 0001:00028C70   368 0001:00028C98
   369 0001:00028CA1   370 0001:00028CD7   375 0001:00028CF8   376 0001:00028D22
   377 0001:00028D2C   378 0001:00028D35   379 0001:00028D5D   382 0001:00028D78
   383 0001:00028DA2   384 0001:00028DA9   385 0001:00028DB2   386 0001:00028DDD
   389 0001:00028DF8   390 0001:00028E1F   391 0001:00028E49   394 0001:00028E64
   395 0001:00028E76   396 0001:00028EA4   397 0001:00028EA8   400 0001:00028F1C
   401 0001:00028F28   402 0001:00028F2B   405 0001:00028F38   406 0001:00028F4A
   407 0001:00028F66   408 0001:00028F6A   411 0001:00028FE0   412 0001:00028FF2
   413 0001:0002900E   414 0001:00029012   417 0001:00029088   418 0001:0002909A
   419 0001:000290BC   420 0001:000290C0   423 0001:00029134   424 0001:00029146
   425 0001:00029162   426 0001:00029166   429 0001:000291DC   430 0001:000291E8
   431 0001:000291EC   436 0001:000291F8   437 0001:00029204   438 0001:00029209
   439 0001:00029211   445 0001:00029220   446 0001:00029241   448 0001:0002924C
   449 0001:0002925A   450 0001:00029269   453 0001:0002928F   455 0001:0002929A
   456 0001:000292AA   458 0001:000292CB   461 0001:000292DE   463 0001:000292F3
   465 0001:0002931E   471 0001:0002936C   472 0001:00029392   473 0001:000293A2
   475 0001:000293B4   477 0001:000293DA   479 0001:000293F5   481 0001:00029400
   482 0001:00029406   483 0001:00029412   485 0001:0002942D   489 0001:00029440
   490 0001:00029477   493 0001:000294B0   494 0001:000294C9   495 0001:000294DC
   499 0001:000294EA   500 0001:000294F4   502 0001:0002950A   505 0001:0002951C
   506 0001:00029529   507 0001:00029532   510 0001:00029544   511 0001:00029556
   513 0001:00029562   515 0001:0002956F   517 0001:0002957C   519 0001:00029583
   522 0001:0002958C   523 0001:000295A2   524 0001:000295B5   591 0001:000295C4
   592 0001:000295E4   593 0001:000295F2   594 0001:00029605   597 0001:00029628
   598 0001:00029639   600 0001:00029668   602 0001:0002966E   603 0001:00029675
   608 0001:00029690   609 0001:000296A3   610 0001:000296AA   612 0001:000296AE
   613 0001:000296CB   615 0001:000296D2   616 0001:000296D6   617 0001:000296E4
   620 0001:0002970C   621 0001:00029723   622 0001:00029730   623 0001:0002976B
   628 0001:00029788   631 0001:0002979B   632 0001:000297AF   633 0001:000297B6
   634 0001:000297CE   636 0001:000297D5   639 0001:000297E4   640 0001:000297F6
   641 0001:00029801   644 0001:0002980C   645 0001:00029820   646 0001:0002982E
   648 0001:0002984D   650 0001:0002986D   661 0001:00029898   662 0001:000298AE
   665 0001:000298D9   666 0001:000298DD   669 0001:0002990A   670 0001:0002992D
   671 0001:00029941   673 0001:00029956   675 0001:00029996   680 0001:000299B4
   681 0001:000299E6   677 0001:000299F8   678 0001:00029A0D   679 0001:00029A20

Line numbers for FMTBcd(FMTBcd.pas) segment .text

   184 0001:00029A2C   185 0001:00029A49   186 0001:00029A8D   189 0001:00029AA8
   190 0001:00029AB7   191 0001:00029ACB   194 0001:00029ADC   195 0001:00029AEB
   196 0001:00029AFF   203 0001:00029B10   204 0001:00029B23   205 0001:00029B2D
   206 0001:00029B3B   209 0001:00029B58   210 0001:00029B64   211 0001:00029B6C
   216 0001:00029B78   217 0001:00029B8B   218 0001:00029B95   219 0001:00029BA3
   222 0001:00029BC0   223 0001:00029BCC   224 0001:00029BD4   229 0001:00029BE0
   230 0001:00029BF3   231 0001:00029C00   232 0001:00029C0E   237 0001:00029C2C
   238 0001:00029C3F   239 0001:00029C4C   240 0001:00029C5A   243 0001:00029C78
   244 0001:00029C8B   245 0001:00029C9D   248 0001:00029CB8   249 0001:00029CCA
   250 0001:00029CD4   253 0001:00029CEC   254 0001:00029D06   255 0001:00029D38
   258 0001:00029D54   259 0001:00029D68   260 0001:00029D97   263 0001:00029DB0
   264 0001:00029DBF   265 0001:00029DC6   268 0001:00029DD8   269 0001:00029DE7
   270 0001:00029DF4   273 0001:00029E08   274 0001:00029E1D   275 0001:00029E34
   278 0001:00029E54   279 0001:00029E6F   280 0001:00029EB3   283 0001:00029ED4
   284 0001:00029EF1   285 0001:00029F2D   288 0001:00029F48   289 0001:00029F54
   290 0001:00029F5C   293 0001:00029F68   294 0001:00029F77   295 0001:00029F8F
   298 0001:00029F98   299 0001:00029FC2   300 0001:00029FCB   301 0001:00029FF6
   311 0001:0002A014   312 0001:0002A047   313 0001:0002A064   314 0001:0002A07C
   315 0001:0002A092   316 0001:0002A0D7   329 0001:0002A110   330 0001:0002A13F
   331 0001:0002A149   332 0001:0002A161   333 0001:0002A177   334 0001:0002A1B7
   337 0001:0002A1F0   338 0001:0002A217   339 0001:0002A241   344 0001:0002A25C
   345 0001:0002A268   346 0001:0002A26D   347 0001:0002A275   353 0001:0002A284
   354 0001:0002A2A5   356 0001:0002A2B0   357 0001:0002A2BE   358 0001:0002A2CD
   361 0001:0002A2F7   363 0001:0002A302   364 0001:0002A312   366 0001:0002A339
   369 0001:0002A34C   371 0001:0002A361   373 0001:0002A38C   379 0001:0002A3D8
   380 0001:0002A3FE   381 0001:0002A40E   383 0001:0002A420   385 0001:0002A446
   387 0001:0002A461   389 0001:0002A46C   390 0001:0002A472   391 0001:0002A481
   393 0001:0002A49C   397 0001:0002A4AF   398 0001:0002A4E6   401 0001:0002A51C
   402 0001:0002A535   403 0001:0002A548   407 0001:0002A556   408 0001:0002A560
   410 0001:0002A576   413 0001:0002A588   414 0001:0002A59A   416 0001:0002A5AC
   418 0001:0002A5B9   420 0001:0002A5C6   422 0001:0002A5D3   424 0001:0002A5E0
   426 0001:0002A5E7   429 0001:0002A5F0   430 0001:0002A5FD   431 0001:0002A606
   434 0001:0002A618   435 0001:0002A62E   436 0001:0002A641   484 0001:0002A650
   485 0001:0002A664   486 0001:0002A66B   487 0001:0002A66F   488 0001:0002A69F
   513 0001:0002A6B8   514 0001:0002A6D2   515 0001:0002A703   535 0001:0002A720
   536 0001:0002A745   537 0001:0002A750   538 0001:0002A76A   539 0001:0002A77F
   540 0001:0002A787   542 0001:0002A7A9   543 0001:0002A7B8   544 0001:0002A7BE
   545 0001:0002A7C6   548 0001:0002A7CD   549 0001:0002A7D4   550 0001:0002A7D7
   551 0001:0002A7DB   552 0001:0002A7DC   553 0001:0002A7E3   546 0001:0002A7E8
   555 0001:0002A7FB   557 0001:0002A800   558 0001:0002A803   560 0001:0002A82C
   562 0001:0002A843   563 0001:0002A86B   566 0001:0002A898   567 0001:0002A8AA
   569 0001:0002A8B5   568 0001:0002A8CC   570 0001:0002A8DD   573 0001:0002A8F8
   574 0001:0002A926   575 0001:0002A93C   576 0001:0002A952   577 0001:0002A959
   578 0001:0002A96F   580 0001:0002A974   581 0001:0002A9A0   587 0001:0002A9BC
   588 0001:0002A9F5   589 0001:0002AA00   590 0001:0002AA07   592 0001:0002AA15
   593 0001:0002AA20   594 0001:0002AA2B   595 0001:0002AA33   598 0001:0002AA3D
   599 0001:0002AA48   600 0001:0002AA53   601 0001:0002AA5B   604 0001:0002AA63
   605 0001:0002AA7D   606 0001:0002AA98   607 0001:0002AAA2   610 0001:0002AAB0
   612 0001:0002AAB4   613 0001:0002AAE4   614 0001:0002AAF0   616 0001:0002AAF5
   618 0001:0002AAFB   619 0001:0002AB2B   620 0001:0002AB38   623 0001:0002AB67
   628 0001:0002AB8C   629 0001:0002ABA8   630 0001:0002ABBA   632 0001:0002ABC0
   633 0001:0002ABD0   636 0001:0002ABD8   637 0001:0002ABE5   639 0001:0002ABEB
   640 0001:0002ABFD   645 0001:0002AC1C   646 0001:0002AC34   647 0001:0002AC43
   649 0001:0002AC49   650 0001:0002AC5A   653 0001:0002AC5F   654 0001:0002AC6D
   656 0001:0002AC70   665 0001:0002AC80   666 0001:0002ACA1   668 0001:0002ACB7
   669 0001:0002ACC1   671 0001:0002ACC6   673 0001:0002ACDC   674 0001:0002ACE6
   676 0001:0002ACEB   677 0001:0002ACEF   678 0001:0002ACFA   679 0001:0002AD05
   680 0001:0002AD10   681 0001:0002AD1B   682 0001:0002AD29   683 0001:0002AD30
   685 0001:0002AD3F   686 0001:0002AD47   687 0001:0002AD4F   688 0001:0002AD66
   689 0001:0002AD7D   690 0001:0002AD8F   691 0001:0002AD9B   683 0001:0002AD9C
   692 0001:0002ADA1   693 0001:0002ADA7   694 0001:0002ADCE   703 0001:0002AE08
   704 0001:0002AE2F   706 0001:0002AE3E   707 0001:0002AE49   708 0001:0002AE54
   711 0001:0002AE5D   712 0001:0002AE68   713 0001:0002AE73   715 0001:0002AE80
   717 0001:0002AE8C   719 0001:0002AEAE   721 0001:0002AECE   722 0001:0002AEDE
   723 0001:0002AEED   724 0001:0002AEFD   726 0001:0002AF0F   727 0001:0002AF19
   729 0001:0002AF1E   730 0001:0002AF22   731 0001:0002AF2D   732 0001:0002AF38
   733 0001:0002AF43   734 0001:0002AF4E   735 0001:0002AF5C   736 0001:0002AF63
   738 0001:0002AF72   739 0001:0002AF7A   740 0001:0002AF82   741 0001:0002AF99
   742 0001:0002AFB0   743 0001:0002AFC2   744 0001:0002AFCE   736 0001:0002AFCF
   745 0001:0002AFD4   746 0001:0002B003   755 0001:0002B03C   756 0001:0002B073
   757 0001:0002B07E   758 0001:0002B0AE   759 0001:0002B0B9   760 0001:0002B0BE
   761 0001:0002B0C3   763 0001:0002B0CC   764 0001:0002B0E5   765 0001:0002B0EB
   766 0001:0002B0F4   761 0001:0002B0F5   767 0001:0002B0FA   768 0001:0002B109
   770 0001:0002B116   771 0001:0002B125   772 0001:0002B129   773 0001:0002B170
   774 0001:0002B174   775 0001:0002B1C0   776 0001:0002B1C4   778 0001:0002B227
   784 0001:0002B24C   785 0001:0002B266   786 0001:0002B271   787 0001:0002B282
   788 0001:0002B28E   790 0001:0002B29E   791 0001:0002B29F   792 0001:0002B2A0
   793 0001:0002B2A1   794 0001:0002B2A2   795 0001:0002B2A4   796 0001:0002B2A7
   797 0001:0002B2AA   798 0001:0002B2AE   799 0001:0002B2B2   800 0001:0002B2B6
   801 0001:0002B2B8   802 0001:0002B2BA   803 0001:0002B2BD   804 0001:0002B2BF
   805 0001:0002B2C2   806 0001:0002B2C5   807 0001:0002B2C9   808 0001:0002B2CB
   809 0001:0002B2CD   810 0001:0002B2D0   811 0001:0002B2D2   812 0001:0002B2D5
   813 0001:0002B2D9   814 0001:0002B2DB   815 0001:0002B2DE   816 0001:0002B2E0
   817 0001:0002B2E1   818 0001:0002B2E2   819 0001:0002B2E3   821 0001:0002B2E4
   822 0001:0002B2EB   823 0001:0002B302   835 0001:0002B314   836 0001:0002B33D
   837 0001:0002B348   838 0001:0002B378   839 0001:0002B383   840 0001:0002B38E
   841 0001:0002B399   842 0001:0002B3A1   844 0001:0002B3AE   845 0001:0002B3B4
   847 0001:0002B3E4   848 0001:0002B408   849 0001:0002B421   850 0001:0002B42F
   842 0001:0002B430   851 0001:0002B439   853 0001:0002B445   852 0001:0002B45C
   854 0001:0002B463   856 0001:0002B470   857 0001:0002B47C   858 0001:0002B480
   859 0001:0002B4C0   860 0001:0002B4C4   861 0001:0002B509   862 0001:0002B50D
   863 0001:0002B53A   865 0001:0002B592   871 0001:0002B5C4   872 0001:0002B5D4
   874 0001:0002B5DF   875 0001:0002B5E0   876 0001:0002B5E1   877 0001:0002B5E2
   878 0001:0002B5E3   879 0001:0002B5E4   880 0001:0002B5E7   881 0001:0002B5EB
   882 0001:0002B5ED   883 0001:0002B5EF   884 0001:0002B5F2   885 0001:0002B5F4
   886 0001:0002B5F6   887 0001:0002B5F8   888 0001:0002B5FB   889 0001:0002B5FE
   890 0001:0002B600   891 0001:0002B602   892 0001:0002B604   893 0001:0002B606
   894 0001:0002B608   895 0001:0002B60B   896 0001:0002B60D   897 0001:0002B610
   898 0001:0002B612   899 0001:0002B615   900 0001:0002B617   901 0001:0002B619
   902 0001:0002B61B   903 0001:0002B61E   904 0001:0002B620   905 0001:0002B623
   906 0001:0002B625   907 0001:0002B628   908 0001:0002B62A   909 0001:0002B62C
   910 0001:0002B630   911 0001:0002B631   912 0001:0002B632   913 0001:0002B633
   914 0001:0002B634   916 0001:0002B638   922 0001:0002B648   923 0001:0002B65B
   924 0001:0002B660   925 0001:0002B671   927 0001:0002B682   928 0001:0002B687
   929 0001:0002B689   924 0001:0002B68A   930 0001:0002B691   933 0001:0002B6AC
   934 0001:0002B6C2   935 0001:0002B6D8   936 0001:0002B6E8   937 0001:0002B703
   939 0001:0002B711   940 0001:0002B71D   943 0001:0002B750   944 0001:0002B776
   945 0001:0002B780   948 0001:0002B78F   949 0001:0002B7A9   946 0001:0002B7CB
   951 0001:0002B7F6   956 0001:0002B824   957 0001:0002B84D   958 0001:0002B858
   960 0001:0002B864   959 0001:0002B87B   961 0001:0002B882   962 0001:0002B887
   963 0001:0002B89B   964 0001:0002B8A0   967 0001:0002B8F8   968 0001:0002B908
   969 0001:0002B92C   971 0001:0002B93C   974 0001:0002B9B0   982 0001:0002B9E0
   983 0001:0002BA0B   984 0001:0002BA16   985 0001:0002BA2E   987 0001:0002BA37
   988 0001:0002BA44   989 0001:0002BA48   991 0001:0002BA57   994 0001:0002BA75
   995 0001:0002BA82   996 0001:0002BA9E   992 0001:0002BA9F   999 0001:0002BAAE
  1002 0001:0002BADE  1003 0001:0002BAE9  1005 0001:0002BAF6  1006 0001:0002BB39
  1009 0001:0002BB55  1010 0001:0002BB63  1011 0001:0002BB6E  1012 0001:0002BB7B
  1013 0001:0002BB94  1014 0001:0002BBA3  1015 0001:0002BBB1  1018 0001:0002BBBA
  1019 0001:0002BBD6  1016 0001:0002BBE7  1021 0001:0002BC09  1023 0001:0002BC49
  1028 0001:0002BC90  1030 0001:0002BCC0  1032 0001:0002BCFB  1033 0001:0002BD24
  1034 0001:0002BD4F  1035 0001:0002BD7A  1036 0001:0002BDA3  1037 0001:0002BDAD
  1038 0001:0002BDC4  1039 0001:0002BDCA  1040 0001:0002BDFE  1043 0001:0002BE28
  1044 0001:0002BE48  1046 0001:0002BE5E  1047 0001:0002BE71  1049 0001:0002BE81
  1051 0001:0002BE99  1052 0001:0002BEA8  1053 0001:0002BEB4  1054 0001:0002BEC3
  1055 0001:0002BED5  1056 0001:0002BEE2  1058 0001:0002BEF2  1059 0001:0002BF16
  1063 0001:0002BF68  1064 0001:0002BF6A  1065 0001:0002BF6D  1066 0001:0002BF6F
  1067 0001:0002BF71  1068 0001:0002BF74  1069 0001:0002BF75  1071 0001:0002BF77
  1075 0001:0002BF80  1076 0001:0002BF82  1077 0001:0002BF85  1078 0001:0002BF87
  1079 0001:0002BF89  1080 0001:0002BF8C  1081 0001:0002BF8D  1083 0001:0002BF8F
  1087 0001:0002BF98  1088 0001:0002BF9B  1089 0001:0002BF9D  1090 0001:0002BF9E
  1091 0001:0002BFA1  1092 0001:0002BFA2  1093 0001:0002BFA5  1096 0001:0002BFA7
  1100 0001:0002BFB0  1101 0001:0002BFB2  1102 0001:0002BFB4  1103 0001:0002BFB6
  1104 0001:0002BFB9  1105 0001:0002BFBB  1106 0001:0002BFBD  1107 0001:0002BFBF
  1108 0001:0002BFC1  1109 0001:0002BFC2  1110 0001:0002BFC4  1111 0001:0002BFC7
  1112 0001:0002BFCA  1113 0001:0002BFCD  1114 0001:0002BFCF  1115 0001:0002BFD1
  1116 0001:0002BFD2  1117 0001:0002BFD5  1119 0001:0002BFD7  1123 0001:0002BFE0
  1124 0001:0002BFE3  1125 0001:0002BFE5  1126 0001:0002BFE7  1127 0001:0002BFE8
  1128 0001:0002BFEB  1130 0001:0002BFED  1133 0001:0002BFF4  1135 0001:0002BFF7
  1136 0001:0002BFF8  1137 0001:0002BFF9  1138 0001:0002BFFA  1139 0001:0002BFFB
  1140 0001:0002BFFC  1141 0001:0002BFFF  1142 0001:0002C002  1143 0001:0002C005
  1144 0001:0002C008  1145 0001:0002C00B  1146 0001:0002C00D  1147 0001:0002C010
  1148 0001:0002C012  1149 0001:0002C015  1150 0001:0002C018  1152 0001:0002C01B
  1153 0001:0002C01E  1154 0001:0002C024  1155 0001:0002C025  1156 0001:0002C027
  1157 0001:0002C029  1158 0001:0002C02B  1159 0001:0002C02E  1160 0001:0002C031
  1161 0001:0002C034  1162 0001:0002C036  1163 0001:0002C039  1164 0001:0002C03C
  1165 0001:0002C03E  1166 0001:0002C040  1167 0001:0002C043  1168 0001:0002C045
  1169 0001:0002C048  1170 0001:0002C04B  1171 0001:0002C04D  1172 0001:0002C052
  1173 0001:0002C055  1174 0001:0002C058  1175 0001:0002C05A  1176 0001:0002C05D
  1177 0001:0002C062  1178 0001:0002C064  1179 0001:0002C067  1180 0001:0002C06C
  1181 0001:0002C06F  1182 0001:0002C071  1183 0001:0002C073  1184 0001:0002C078
  1186 0001:0002C07A  1187 0001:0002C07D  1188 0001:0002C080  1189 0001:0002C082
  1190 0001:0002C085  1191 0001:0002C088  1192 0001:0002C08A  1193 0001:0002C08C
  1194 0001:0002C08D  1195 0001:0002C090  1196 0001:0002C092  1197 0001:0002C093
  1198 0001:0002C095  1199 0001:0002C098  1200 0001:0002C09A  1201 0001:0002C09B
  1202 0001:0002C09D  1203 0001:0002C0A0  1204 0001:0002C0A3  1205 0001:0002C0A5
  1207 0001:0002C0A7  1208 0001:0002C0AA  1209 0001:0002C0AD  1210 0001:0002C0B0
  1211 0001:0002C0B2  1212 0001:0002C0B4  1213 0001:0002C0B6  1214 0001:0002C0B9
  1215 0001:0002C0BE  1216 0001:0002C0C1  1217 0001:0002C0C4  1218 0001:0002C0C6
  1219 0001:0002C0C9  1220 0001:0002C0CE  1221 0001:0002C0CF  1222 0001:0002C0D0
  1223 0001:0002C0D1  1224 0001:0002C0D2  1225 0001:0002C0D3  1230 0001:0002C0DC
  1231 0001:0002C0EC  1234 0001:0002C0F7  1235 0001:0002C0F8  1236 0001:0002C0F9
  1237 0001:0002C0FA  1238 0001:0002C0FD  1239 0001:0002C100  1240 0001:0002C102
  1241 0001:0002C106  1242 0001:0002C108  1243 0001:0002C109  1244 0001:0002C10A
  1245 0001:0002C10D  1246 0001:0002C10F  1247 0001:0002C111  1248 0001:0002C114
  1249 0001:0002C116  1250 0001:0002C119  1251 0001:0002C11B  1252 0001:0002C11D
  1253 0001:0002C11F  1254 0001:0002C120  1255 0001:0002C122  1256 0001:0002C124
  1257 0001:0002C127  1258 0001:0002C129  1259 0001:0002C12B  1260 0001:0002C12C
  1261 0001:0002C12D  1262 0001:0002C12E  1264 0001:0002C12F  1270 0001:0002C13C
  1271 0001:0002C14D  1272 0001:0002C159  1273 0001:0002C15B  1276 0001:0002C161
  1278 0001:0002C190  1279 0001:0002C194  1281 0001:0002C196  1274 0001:0002C197
  1283 0001:0002C19F  1294 0001:0002C1E4  1295 0001:0002C203  1296 0001:0002C20E
  1298 0001:0002C21F  1299 0001:0002C223  1301 0001:0002C228  1303 0001:0002C23E
  1304 0001:0002C242  1305 0001:0002C248  1306 0001:0002C24F  1307 0001:0002C255
  1308 0001:0002C263  1310 0001:0002C268  1311 0001:0002C26C  1312 0001:0002C270
  1314 0001:0002C28A  1318 0001:0002C296  1319 0001:0002C297  1316 0001:0002C2A2
  1323 0001:0002C2B7  1326 0001:0002C2C4  1327 0001:0002C2C7  1324 0001:0002C2C8
  1331 0001:0002C2D8  1333 0001:0002C2DD  1334 0001:0002C2E1  1336 0001:0002C2EC
  1337 0001:0002C2F6  1340 0001:0002C2F7  1341 0001:0002C2FD  1342 0001:0002C30B
  1344 0001:0002C310  1345 0001:0002C311  1347 0001:0002C31C  1348 0001:0002C327
  1350 0001:0002C32E  1351 0001:0002C33C  1353 0001:0002C344  1354 0001:0002C34C
  1358 0001:0002C34E  1359 0001:0002C355  1361 0001:0002C363  1362 0001:0002C369
  1365 0001:0002C370  1367 0001:0002C377  1368 0001:0002C380  1369 0001:0002C386
  1371 0001:0002C396  1374 0001:0002C3A4  1375 0001:0002C3AC  1376 0001:0002C3B2
  1378 0001:0002C3BB  1380 0001:0002C3DD  1383 0001:0002C408  1384 0001:0002C40C
  1385 0001:0002C40D  1386 0001:0002C40E  1387 0001:0002C411  1388 0001:0002C415
  1389 0001:0002C416  1390 0001:0002C41A  1391 0001:0002C41C  1392 0001:0002C41D
  1393 0001:0002C41F  1394 0001:0002C421  1395 0001:0002C425  1396 0001:0002C429
  1397 0001:0002C42B  1398 0001:0002C42F  1399 0001:0002C431  1400 0001:0002C434
  1401 0001:0002C436  1402 0001:0002C438  1403 0001:0002C43C  1404 0001:0002C440
  1405 0001:0002C441  1406 0001:0002C446  1411 0001:0002C454  1413 0001:0002C464
  1414 0001:0002C465  1415 0001:0002C466  1416 0001:0002C467  1417 0001:0002C468
  1418 0001:0002C469  1419 0001:0002C46F  1420 0001:0002C473  1421 0001:0002C475
  1422 0001:0002C478  1423 0001:0002C47B  1424 0001:0002C47E  1425 0001:0002C482
  1426 0001:0002C484  1427 0001:0002C487  1428 0001:0002C48A  1429 0001:0002C48D
  1430 0001:0002C491  1431 0001:0002C495  1432 0001:0002C497  1433 0001:0002C49D
  1434 0001:0002C49F  1435 0001:0002C4A3  1436 0001:0002C4A5  1437 0001:0002C4A9
  1438 0001:0002C4AD  1439 0001:0002C4AF  1440 0001:0002C4B4  1441 0001:0002C4B6
  1442 0001:0002C4B8  1443 0001:0002C4BE  1444 0001:0002C4C0  1445 0001:0002C4C2
  1446 0001:0002C4C4  1447 0001:0002C4C6  1448 0001:0002C4C9  1449 0001:0002C4CB
  1450 0001:0002C4CD  1451 0001:0002C4D2  1452 0001:0002C4D4  1453 0001:0002C4D8
  1454 0001:0002C4DC  1455 0001:0002C4DE  1456 0001:0002C4E0  1457 0001:0002C4E2
  1458 0001:0002C4E5  1459 0001:0002C4E8  1460 0001:0002C4EA  1461 0001:0002C4EF
  1462 0001:0002C4F2  1463 0001:0002C4F4  1464 0001:0002C4F6  1465 0001:0002C4F9
  1466 0001:0002C4FC  1467 0001:0002C4FF  1468 0001:0002C503  1469 0001:0002C505
  1470 0001:0002C507  1471 0001:0002C509  1472 0001:0002C50B  1473 0001:0002C50C
  1474 0001:0002C50D  1475 0001:0002C50E  1476 0001:0002C50F  1478 0001:0002C510
  1483 0001:0002C520  1485 0001:0002C530  1486 0001:0002C531  1487 0001:0002C532
  1488 0001:0002C533  1489 0001:0002C534  1490 0001:0002C535  1491 0001:0002C539
  1492 0001:0002C53B  1493 0001:0002C53E  1494 0001:0002C541  1495 0001:0002C544
  1496 0001:0002C54A  1497 0001:0002C54E  1498 0001:0002C550  1499 0001:0002C553
  1500 0001:0002C556  1501 0001:0002C559  1502 0001:0002C55D  1503 0001:0002C561
  1504 0001:0002C563  1505 0001:0002C569  1506 0001:0002C56B  1507 0001:0002C56F
  1508 0001:0002C571  1509 0001:0002C575  1510 0001:0002C579  1511 0001:0002C57B
  1512 0001:0002C580  1513 0001:0002C582  1514 0001:0002C584  1515 0001:0002C58A
  1516 0001:0002C58C  1517 0001:0002C58E  1518 0001:0002C590  1519 0001:0002C592
  1520 0001:0002C595  1521 0001:0002C597  1522 0001:0002C599  1523 0001:0002C59E
  1524 0001:0002C5A0  1525 0001:0002C5A4  1526 0001:0002C5A8  1527 0001:0002C5AA
  1528 0001:0002C5AC  1529 0001:0002C5AE  1530 0001:0002C5B1  1531 0001:0002C5B4
  1532 0001:0002C5B6  1533 0001:0002C5BB  1534 0001:0002C5BE  1535 0001:0002C5C0
  1536 0001:0002C5C2  1537 0001:0002C5C5  1538 0001:0002C5C8  1539 0001:0002C5CB
  1540 0001:0002C5CF  1541 0001:0002C5D1  1542 0001:0002C5D3  1543 0001:0002C5D5
  1544 0001:0002C5D7  1545 0001:0002C5D8  1546 0001:0002C5D9  1547 0001:0002C5DA
  1548 0001:0002C5DB  1550 0001:0002C5DC  1554 0001:0002C5EC  1555 0001:0002C5F0
  1556 0001:0002C5F1  1557 0001:0002C5F2  1558 0001:0002C5F3  1559 0001:0002C5F4
  1560 0001:0002C5F8  1561 0001:0002C5FC  1562 0001:0002C5FF  1563 0001:0002C602
  1564 0001:0002C609  1565 0001:0002C60A  1566 0001:0002C60E  1567 0001:0002C610
  1568 0001:0002C611  1569 0001:0002C613  1570 0001:0002C614  1571 0001:0002C616
  1572 0001:0002C618  1573 0001:0002C61C  1574 0001:0002C620  1575 0001:0002C624
  1576 0001:0002C626  1577 0001:0002C62A  1578 0001:0002C62E  1579 0001:0002C630
  1580 0001:0002C632  1581 0001:0002C634  1582 0001:0002C637  1583 0001:0002C639
  1584 0001:0002C63C  1585 0001:0002C63E  1586 0001:0002C640  1587 0001:0002C644
  1588 0001:0002C646  1589 0001:0002C648  1590 0001:0002C64A  1591 0001:0002C64D
  1592 0001:0002C650  1593 0001:0002C652  1594 0001:0002C654  1595 0001:0002C65B
  1596 0001:0002C65D  1597 0001:0002C664  1598 0001:0002C666  1599 0001:0002C66A
  1600 0001:0002C66C  1601 0001:0002C66E  1602 0001:0002C66F  1603 0001:0002C673
  1604 0001:0002C676  1605 0001:0002C678  1606 0001:0002C67C  1607 0001:0002C67E
  1608 0001:0002C685  1609 0001:0002C686  1610 0001:0002C687  1611 0001:0002C688
  1612 0001:0002C68C  1615 0001:0002C698  1616 0001:0002C6A4  1617 0001:0002C6A8
  1619 0001:0002C6AC  1620 0001:0002C6B0  1628 0001:0002C6BC  1629 0001:0002C6D1
  1630 0001:0002C6D7  1631 0001:0002C6DB  1634 0001:0002C6E5  1635 0001:0002C6EB
  1636 0001:0002C702  1637 0001:0002C706  1638 0001:0002C708  1639 0001:0002C70C
  1632 0001:0002C711  1641 0001:0002C71C  1649 0001:0002C734  1650 0001:0002C752
  1651 0001:0002C756  1652 0001:0002C775  1655 0001:0002C78D  1656 0001:0002C798
  1657 0001:0002C7A9  1658 0001:0002C7B1  1659 0001:0002C7BA  1660 0001:0002C7C3
  1661 0001:0002C7C9  1662 0001:0002C7D7  1663 0001:0002C7F9  1667 0001:0002C7FF
  1669 0001:0002C828  1670 0001:0002C837  1674 0001:0002C848  1675 0001:0002C84E
  1676 0001:0002C85A  1677 0001:0002C86C  1678 0001:0002C875  1677 0001:0002C87A
  1679 0001:0002C882  1684 0001:0002C894  1685 0001:0002C8A0  1686 0001:0002C8A4
  1689 0001:0002C8A9  1690 0001:0002C8AC  1687 0001:0002C8AD  1692 0001:0002C8B9
  1698 0001:0002C8C8  1699 0001:0002C8E2  1701 0001:0002C8EE  1702 0001:0002C8FE
  1704 0001:0002C900  1705 0001:0002C907  1706 0001:0002C910  1707 0001:0002C917
  1708 0001:0002C927  1711 0001:0002C92F  1712 0001:0002C932  1709 0001:0002C933
  1714 0001:0002C942  1715 0001:0002C95B  1716 0001:0002C96A  1717 0001:0002C979
  1729 0001:0002C998  1730 0001:0002C9BC  1731 0001:0002C9CC  1733 0001:0002C9D8
  1734 0001:0002C9DE  1735 0001:0002C9E4  1736 0001:0002C9EA  1737 0001:0002C9F0
  1740 0001:0002C9FE  1741 0001:0002CA04  1742 0001:0002CA0D  1743 0001:0002CA15
  1742 0001:0002CA1D  1744 0001:0002CA22  1746 0001:0002CA30  1747 0001:0002CA4D
  1748 0001:0002CA58  1749 0001:0002CA63  1751 0001:0002CA6F  1752 0001:0002CA88
  1753 0001:0002CA96  1754 0001:0002CAA4  1755 0001:0002CAC3  1757 0001:0002CAE0
  1758 0001:0002CAF1  1764 0001:0002CB12  1761 0001:0002CB16  1765 0001:0002CB58
  1766 0001:0002CB66  1767 0001:0002CB74  1775 0001:0002CB84  1776 0001:0002CB99
  1778 0001:0002CBA8  1779 0001:0002CBB1  1781 0001:0002CBBD  1784 0001:0002CBC9
  1785 0001:0002CBD5  1786 0001:0002CBDC  1787 0001:0002CBE3  1788 0001:0002CC03
  1789 0001:0002CC23  1791 0001:0002CC2D  1792 0001:0002CC37  1794 0001:0002CC40
  1797 0001:0002CC49  1798 0001:0002CC5D  1799 0001:0002CC65  1800 0001:0002CC6D
  1802 0001:0002CC8D  1804 0001:0002CC9A  1809 0001:0002CCD8  1810 0001:0002CCEE
  1811 0001:0002CCFF  1812 0001:0002CD0C  1813 0001:0002CD1A  1819 0001:0002CD3C
  1820 0001:0002CD6D  1821 0001:0002CD6F  1823 0001:0002CD7C  1824 0001:0002CD7D
  1826 0001:0002CD99  1828 0001:0002CDA6  1829 0001:0002CDA7  1831 0001:0002CDC3
  1832 0001:0002CDD1  1833 0001:0002CDEC  1834 0001:0002CDFD  1835 0001:0002CE24
  1838 0001:0002CE40  1839 0001:0002CE5E  1840 0001:0002CE9F  1857 0001:0002CEBC
  1858 0001:0002CEF3  1859 0001:0002CF09  1860 0001:0002CF1F  1861 0001:0002CF24
  1862 0001:0002CF2C  1863 0001:0002CF36  1865 0001:0002CF43  1866 0001:0002CF46
  1868 0001:0002CF62  1870 0001:0002CF6F  1871 0001:0002CF72  1873 0001:0002CF8E
  1874 0001:0002CFAC  1875 0001:0002CFC7  1876 0001:0002CFDA  1877 0001:0002D00E
  1880 0001:0002D03C  1881 0001:0002D05A  1882 0001:0002D09B  1901 0001:0002D0B8
  1902 0001:0002D0D2  1903 0001:0002D0EA  1904 0001:0002D0EF  1905 0001:0002D0FA
  1906 0001:0002D106  1907 0001:0002D113  1908 0001:0002D117  1909 0001:0002D132
  1911 0001:0002D13B  1912 0001:0002D147  1913 0001:0002D14F  1914 0001:0002D157
  1915 0001:0002D15E  1916 0001:0002D16E  1917 0001:0002D178  1920 0001:0002D192
  1921 0001:0002D1A4  1922 0001:0002D1B6  1923 0001:0002D1C0  1924 0001:0002D1D7
  1926 0001:0002D1E1  1927 0001:0002D1F6  1929 0001:0002D203  1930 0001:0002D218
  1933 0001:0002D22F  1934 0001:0002D244  1937 0001:0002D24F  1948 0001:0002D2C0
  1949 0001:0002D2CF  1950 0001:0002D2D7  1951 0001:0002D2DD  1952 0001:0002D2E3
  1954 0001:0002D2E8  1955 0001:0002D2FB  1958 0001:0002D327  1959 0001:0002D33C
  1961 0001:0002D34C  1962 0001:0002D35B  1963 0001:0002D36A  1964 0001:0002D370
  1966 0001:0002D37C  1967 0001:0002D399  1969 0001:0002D3A8  1970 0001:0002D3B3
  1971 0001:0002D3B9  1972 0001:0002D3BE  1973 0001:0002D3C0  1976 0001:0002D3C7
  1977 0001:0002D3D8  1978 0001:0002D3E1  1979 0001:0002D3F0  1974 0001:0002D3F1
  1983 0001:0002D3FC  1985 0001:0002D409  1986 0001:0002D40C  1981 0001:0002D416
  1990 0001:0002D42B  1991 0001:0002D43A  1992 0001:0002D43D  1993 0001:0002D447
  1995 0001:0002D45D  1997 0001:0002D474  1998 0001:0002D48C  1999 0001:0002D4A5
  2007 0001:0002D4E0  2008 0001:0002D4FD  2009 0001:0002D507  2012 0001:0002D522
  2013 0001:0002D52A  2014 0001:0002D532  2016 0001:0002D538  2018 0001:0002D541
  2020 0001:0002D555  2021 0001:0002D55E  2023 0001:0002D586  2024 0001:0002D595
  2026 0001:0002D5F1  2034 0001:0002D644  2035 0001:0002D650  2036 0001:0002D65A
  2068 0001:0002D668  2070 0001:0002D67B  2072 0001:0002D680  2081 0001:0002D68C
  2082 0001:0002D692  2083 0001:0002D693  2084 0001:0002D694  2085 0001:0002D695
  2086 0001:0002D697  2088 0001:0002D699  2089 0001:0002D69A  2090 0001:0002D69B
  2091 0001:0002D6A0  2092 0001:0002D6A2  2093 0001:0002D6A3  2095 0001:0002D6A4
  2096 0001:0002D6A6  2097 0001:0002D6A9  2098 0001:0002D6AC  2099 0001:0002D6AE
  2100 0001:0002D6B0  2102 0001:0002D6B3  2106 0001:0002D6BA  2107 0001:0002D6BD
  2108 0001:0002D6BF  2109 0001:0002D6C0  2110 0001:0002D6C5  2111 0001:0002D6C6
  2112 0001:0002D6C8  2113 0001:0002D6CB  2114 0001:0002D6CE  2115 0001:0002D6D0
  2116 0001:0002D6D2  2117 0001:0002D6D4  2118 0001:0002D6D6  2119 0001:0002D6D9
  2120 0001:0002D6DD  2121 0001:0002D6E2  2122 0001:0002D6E4  2123 0001:0002D6E6
  2124 0001:0002D6E8  2125 0001:0002D6EA  2126 0001:0002D6EC  2127 0001:0002D6EE
  2128 0001:0002D6EF  2129 0001:0002D6F1  2130 0001:0002D6F2  2131 0001:0002D6F4
  2132 0001:0002D6F8  2133 0001:0002D6F9  2134 0001:0002D6FB  2135 0001:0002D6FD
  2136 0001:0002D6FF  2137 0001:0002D701  2138 0001:0002D703  2139 0001:0002D704
  2140 0001:0002D706  2141 0001:0002D70B  2142 0001:0002D70E  2143 0001:0002D710
  2144 0001:0002D714  2145 0001:0002D715  2146 0001:0002D717  2147 0001:0002D719
  2148 0001:0002D71A  2149 0001:0002D71B  2150 0001:0002D71C  2160 0001:0002D72C
  2161 0001:0002D732  2162 0001:0002D733  2163 0001:0002D734  2165 0001:0002D735
  2166 0001:0002D736  2167 0001:0002D737  2168 0001:0002D738  2169 0001:0002D73D
  2170 0001:0002D73F  2171 0001:0002D740  2172 0001:0002D741  2176 0001:0002D742
  2177 0001:0002D744  2178 0001:0002D746  2179 0001:0002D748  2180 0001:0002D74B
  2181 0001:0002D74D  2182 0001:0002D74F  2183 0001:0002D752  2184 0001:0002D754
  2185 0001:0002D758  2186 0001:0002D75A  2187 0001:0002D75D  2188 0001:0002D760
  2189 0001:0002D765  2190 0001:0002D766  2191 0001:0002D768  2192 0001:0002D76A
  2193 0001:0002D76E  2194 0001:0002D770  2195 0001:0002D772  2196 0001:0002D773
  2197 0001:0002D775  2198 0001:0002D777  2199 0001:0002D779  2200 0001:0002D77B
  2201 0001:0002D77E  2202 0001:0002D781  2203 0001:0002D782  2204 0001:0002D784
  2205 0001:0002D786  2206 0001:0002D78C  2207 0001:0002D790  2208 0001:0002D793
  2209 0001:0002D796  2210 0001:0002D798  2211 0001:0002D79B  2212 0001:0002D79D
  2213 0001:0002D79F  2214 0001:0002D7A1  2215 0001:0002D7A4  2216 0001:0002D7A7
  2217 0001:0002D7A9  2218 0001:0002D7AE  2219 0001:0002D7B2  2220 0001:0002D7B8
  2221 0001:0002D7BA  2222 0001:0002D7BD  2223 0001:0002D7BF  2224 0001:0002D7C1
  2225 0001:0002D7C4  2226 0001:0002D7C7  2228 0001:0002D7C8  2229 0001:0002D7C9
  2230 0001:0002D7CA  2231 0001:0002D7CB  2672 0001:0002D7D8  2673 0001:0002D80A
  2669 0001:0002D81C  2670 0001:0002D831  2671 0001:0002D844

Line numbers for MaskUtils(MaskUtils.pas) segment .text

   443 0001:0002D888   443 0001:0002D89B

Line numbers for DB(DB.pas) segment .text

 10951 0001:0002DB48 10952 0001:0002DB54 10953 0001:0002DB57 10956 0001:0002DB64
 10957 0001:0002DB76 10958 0001:0002DB80 10961 0001:0002DB98 10963 0001:0002DBA4
 10966 0001:0002DBB0 10967 0001:0002DBBC 10968 0001:0002DBBF 10971 0001:0002DBCC
 10972 0001:0002DBDE 10973 0001:0002DBE8 10975 0001:0002DC68 10976 0001:0002DC80
 10977 0001:0002DCA7 10978 0001:0002DCD0

Line numbers for DBCommon(DBCommon.pas) segment .text

  2000 0001:0002DD3C  2000 0001:0002DD4F

Line numbers for MidConst(MidConst.pas) segment .text

   118 0001:0002DD94   118 0001:0002DDA7

Line numbers for DSIntf(DSIntf.pas) segment .text

  1276 0001:0002DDB4  1278 0001:0002DDF2  1279 0001:0002DE20  1269 0001:0002DE34
  1270 0001:0002DE49  1271 0001:0002DE54

Line numbers for DbxOpenOdbcTypes(DbxOpenOdbcTypes.pas) segment .text

   124 0001:0002DE98   124 0001:0002DEAB

Line numbers for DbxOpenOdbcInterface(DbxOpenOdbcInterface.pas) segment .text

   579 0001:0002E808   580 0001:0002E820   581 0001:0002E82F   583 0001:0002E8B8
   583 0001:0002E8CB

Line numbers for SyncObjs(SyncObjs.pas) segment .text

    93 0001:0002E8D8    94 0001:0002E8E4    97 0001:0002E8F0    98 0001:0002E8FC
   222 0001:0002E908   223 0001:0002E92F   224 0001:0002E938   225 0001:0002E95C
   228 0001:0002E978   229 0001:0002E990   230 0001:0002E9AB   231 0001:0002E9C5
   234 0001:0002E9E8   235 0001:0002E9F4   236 0001:0002EA0F   239 0001:0002EA28
   240 0001:0002EA34   241 0001:0002EA4F   253 0001:0002EAA0   253 0001:0002EAB3

Line numbers for DbxOpenOdbcFuncs(DbxOpenOdbcFuncs.pas) segment .text

   234 0001:0002EAC0   235 0001:0002EACD   236 0001:0002EAD1   238 0001:0002EAD6
   239 0001:0002EADC   242 0001:0002EAF0   243 0001:0002EAFD   244 0001:0002EB01
   246 0001:0002EB06   247 0001:0002EB0C   364 0001:0002EB20   365 0001:0002EB22
   367 0001:0002EB24   368 0001:0002EB26   370 0001:0002EB28   371 0001:0002EB29
   372 0001:0002EB2A   374 0001:0002EB2B   375 0001:0002EB2D   377 0001:0002EB2F
   378 0001:0002EB32   380 0001:0002EB34   382 0001:0002EB35   383 0001:0002EB38
   385 0001:0002EB3A   386 0001:0002EB3B   387 0001:0002EB3D   388 0001:0002EB40
   390 0001:0002EB43   392 0001:0002EB45   394 0001:0002EB47   395 0001:0002EB4A
   396 0001:0002EB4C   397 0001:0002EB4E   398 0001:0002EB4F   400 0001:0002EB50
   401 0001:0002EB52   402 0001:0002EB55   403 0001:0002EB56   404 0001:0002EB57
   405 0001:0002EB59   406 0001:0002EB5B   409 0001:0002EB5D   410 0001:0002EB5E
   411 0001:0002EB60   414 0001:0002EB62   415 0001:0002EB64   418 0001:0002EB65
   419 0001:0002EB66   420 0001:0002EB68   421 0001:0002EB6A   423 0001:0002EB6C
   424 0001:0002EB6D   425 0001:0002EB6E   427 0001:0002EB6F   638 0001:0002EB90
   639 0001:0002EBCE   640 0001:0002EBDC   642 0001:0002EC02   643 0001:0002EC18
   645 0001:0002EC25   646 0001:0002EC3F   648 0001:0002EC49   649 0001:0002EC62
   650 0001:0002EC6B   654 0001:0002EC6F   655 0001:0002EC72   656 0001:0002EC7C
   657 0001:0002EC85   661 0001:0002EC87   663 0001:0002EC8B   664 0001:0002EC8E
   665 0001:0002EC92   668 0001:0002EC94   669 0001:0002ECA2   659 0001:0002ECA3
   673 0001:0002ECA9   676 0001:0002ECAF   679 0001:0002ECB8   682 0001:0002ECC0
   683 0001:0002ECD3   686 0001:0002ECD8   687 0001:0002ECDC   677 0001:0002ECDE
   690 0001:0002ECEB   694 0001:0002ECF1   696 0001:0002ED05   697 0001:0002ED0F
   699 0001:0002ED19   700 0001:0002ED29   701 0001:0002ED40   702 0001:0002ED4F
   703 0001:0002ED5F   705 0001:0002ED65   706 0001:0002ED71   710 0001:0002ED79
   712 0001:0002ED7E   711 0001:0002ED81   713 0001:0002ED91   714 0001:0002ED97
   716 0001:0002EDA8   717 0001:0002EDBF   719 0001:0002EDC9   722 0001:0002EDD9
   723 0001:0002EDE1   724 0001:0002EDE4   725 0001:0002EDF5   726 0001:0002EE13
   727 0001:0002EE21   732 0001:0002EE45   738 0001:0002EE93   739 0001:0002EE99
   741 0001:0002EEA6   742 0001:0002EEB1   743 0001:0002EEB7   745 0001:0002EF09
   748 0001:0002EF58   752 0001:0002EF65   754 0001:0002EF6D  1610 0001:0002EFAC
  1611 0001:0002EFAE  1612 0001:0002EFB0  1613 0001:0002EFB1  1614 0001:0002EFB3
  1615 0001:0002EFB5  1616 0001:0002EFB7  1617 0001:0002EFB9  1618 0001:0002EFBB
  1619 0001:0002EFBC  1620 0001:0002EFBD  1621 0001:0002EFBE  1622 0001:0002EFBF
  1623 0001:0002EFC4  1640 0001:0002EFD4  1641 0001:0002EFD6  1642 0001:0002EFD8
  1643 0001:0002EFD9  1644 0001:0002EFDB  1645 0001:0002EFDE  1646 0001:0002EFE0
  1647 0001:0002EFE2  1648 0001:0002EFE4  1649 0001:0002EFE5  1650 0001:0002EFE7
  1651 0001:0002EFE8  1652 0001:0002EFE9  1653 0001:0002EFEA  1654 0001:0002EFEF
  1785 0001:0002F000  1786 0001:0002F013  1787 0001:0002F030  1788 0001:0002F034
  1789 0001:0002F035  1806 0001:0002F050  1807 0001:0002F064  1808 0001:0002F080
  1809 0001:0002F084  1810 0001:0002F085  1813 0001:0002F0A0  1814 0001:0002F0B9
  1815 0001:0002F0BD  1816 0001:0002F0C4  1818 0001:0002F0D1  1819 0001:0002F0D3
  1821 0001:0002F0D5  1822 0001:0002F0F5  1823 0001:0002F0F9  1824 0001:0002F0FB
  1856 0001:0002F114  1857 0001:0002F12D  1858 0001:0002F131  1859 0001:0002F138
  1860 0001:0002F143  1862 0001:0002F14E  1863 0001:0002F154  1865 0001:0002F156
  1866 0001:0002F173  1867 0001:0002F17A  1868 0001:0002F182  2243 0001:0002F1A0
  2244 0001:0002F1BC  2245 0001:0002F1C8  2247 0001:0002F1CC  2248 0001:0002F1D6
  2250 0001:0002F1DC  2252 0001:0002F1E0  2253 0001:0002F1EE  2254 0001:0002F1F3
  2255 0001:0002F1F4  2250 0001:0002F1F5  2260 0001:0002F1FB  2262 0001:0002F1FF
  2264 0001:0002F20D  2265 0001:0002F212  2267 0001:0002F214  2268 0001:0002F215
  2260 0001:0002F216  2272 0001:0002F21A  2373 0001:0002F22C  2374 0001:0002F24A
  2375 0001:0002F256  2377 0001:0002F25A  2378 0001:0002F264  2380 0001:0002F26A
  2382 0001:0002F26E  2383 0001:0002F280  2384 0001:0002F287  2385 0001:0002F28A
  2380 0001:0002F28B  2390 0001:0002F291  2392 0001:0002F295  2394 0001:0002F2A7
  2395 0001:0002F2AE  2397 0001:0002F2B0  2398 0001:0002F2B3  2390 0001:0002F2B4
  2402 0001:0002F2B8  2504 0001:0002F2C8  2505 0001:0002F2D7  2515 0001:0002F2DE
  2549 0001:0002F2EB  2551 0001:0002F2FA  2554 0001:0002F378  2566 0001:0002F38B

Line numbers for OdbcApi(OdbcApi.pas) segment .text

  6438 0001:0002F3AC  6439 0001:0002F3D6  6440 0001:0002F3E0  6441 0001:0002F3FD
  6442 0001:0002F42E  6445 0001:0002F448  6446 0001:0002F465  6447 0001:0002F46F
  6448 0001:0002F47A  6449 0001:0002F496  6455 0001:0002F4A4  6456 0001:0002F4BC
  6458 0001:0002F4D7  6459 0001:0002F4E6  6461 0001:0002F4EC  6462 0001:0002F4F4
  6463 0001:0002F503  6464 0001:0002F50E  6465 0001:0002F51C  6459 0001:0002F522
  6467 0001:0002F528  6468 0001:0002F536  6456 0001:0002F539  6469 0001:0002F53E
  6474 0001:0002F54C  6475 0001:0002F564  6476 0001:0002F569  6477 0001:0002F57F
  6478 0001:0002F59D  6476 0001:0002F5A0  6479 0001:0002F5A8  6485 0001:0002F5B4
  6486 0001:0002F5CF  6487 0001:0002F5F0  6488 0001:0002F603  6489 0001:0002F611
  6490 0001:0002F61A  6491 0001:0002F62B  6493 0001:0002F63A  6494 0001:0002F643
  6500 0001:0002F650  6501 0001:0002F66B  6502 0001:0002F679  6503 0001:0002F681
  6505 0001:0002F687  6506 0001:0002F691  6507 0001:0002F6A0  6508 0001:0002F6AB
  6510 0001:0002F6B9  6515 0001:0002F6C4  6516 0001:0002F6DC  6517 0001:0002F6EC
  6518 0001:0002F6F2  6520 0001:0002F6FD  6521 0001:0002F705  6526 0001:0002F710
  6527 0001:0002F728  6528 0001:0002F749  6531 0001:0002F75A  6534 0001:0002F76C
  6529 0001:0002F774  6536 0001:0002F77F  6539 0001:0002F78C  6540 0001:0002F79F
  6541 0001:0002F7A9  6544 0001:0002F7B4  6545 0001:0002F7C7  6546 0001:0002F7D2
  6581 0001:0002F7DC  6582 0001:0002F7F9  6584 0001:0002F804  6583 0001:0002F807
  6585 0001:0002F827  6586 0001:0002F85B  6587 0001:0002F87B  6588 0001:0002F87E
  6589 0001:0002F8A4  6592 0001:0002F8C0  6594 0001:0002F8D8  6598 0001:0002F8F0
  6602 0001:0002F8FC  6603 0001:0002F91D  6604 0001:0002F932  6606 0001:0002F938
  6607 0001:0002F95E  6608 0001:0002F977  6610 0001:0002F97E  6611 0001:0002F9B8
  6613 0001:0002F9E4  6614 0001:0002FA07  6615 0001:0002FA0C  6616 0001:0002FA22
  6617 0001:0002FA2D  6619 0001:0002FA33  6620 0001:0002FA43  6622 0001:0002FA48
  6623 0001:0002FA4F  6630 0001:0002FA5A  6631 0001:0002FA65  6632 0001:0002FA6A
  6634 0001:0002FA71  6635 0001:0002FA86  6640 0001:0002FA90  6641 0001:0002FAA1
  6643 0001:0002FAB4  6644 0001:0002FAD7  6645 0001:0002FADD  6647 0001:0002FAFC
  6650 0001:0002FB05  6653 0001:0002FB0C  6657 0001:0002FB4A  6658 0001:0002FB5B
  6660 0001:0002FB61  6661 0001:0002FB67  6666 0001:0002FB71  6667 0001:0002FB82
  6669 0001:0002FB95  6670 0001:0002FBB8  6671 0001:0002FBBE  6673 0001:0002FBDD
  6676 0001:0002FBE6  6735 0001:0002FBED  6736 0001:0002FBFA  6750 0001:0002FC00
  6762 0001:0002FC0C  6765 0001:0002FC12  6768 0001:0002FC1C  6771 0001:0002FC2C
  6773 0001:0002FC3D  6774 0001:0002FC46  6775 0001:0002FC4B  6776 0001:0002FC55
  6777 0001:0002FC63  6783 0001:0002FC71  6784 0001:0002FC8C  6786 0001:0002FC95
  6787 0001:0002FCB0  6788 0001:0002FCCB  6790 0001:0002FCE6  6791 0001:0002FD01
  6792 0001:0002FD1C  6793 0001:0002FD37  6794 0001:0002FD52  6795 0001:0002FD74
  6796 0001:0002FD96  6797 0001:0002FDB8  6798 0001:0002FDD3  6799 0001:0002FDF5
  6800 0001:0002FE17  6801 0001:0002FE32  6802 0001:0002FE4D  6803 0001:0002FE6F
  6804 0001:0002FE91  6805 0001:0002FEAC  6806 0001:0002FECA  6807 0001:0002FEE8
  6808 0001:0002FF06  6809 0001:0002FF24  6810 0001:0002FF42  6811 0001:0002FF60
  6812 0001:0002FF85  6813 0001:0002FFAA  6814 0001:0002FFCF  6815 0001:0002FFED
  6816 0001:00030012  6817 0001:00030037  6818 0001:0003005C  6819 0001:00030081
  6820 0001:0003009F  6821 0001:000300BD  6822 0001:000300E2  6823 0001:00030107
  6824 0001:00030125  6825 0001:0003014A  6826 0001:00030168  6827 0001:00030186
  6828 0001:000301AB  6829 0001:000301C9  6830 0001:000301EE  6831 0001:00030213
  6832 0001:00030238  6833 0001:0003025D  6834 0001:00030282  6835 0001:000302A0
  6836 0001:000302BE  6837 0001:000302DC  6838 0001:00030301  6839 0001:0003031F
  6840 0001:00030344  6841 0001:00030369  6842 0001:0003038E  6844 0001:000303AC
  6845 0001:000303D1  6846 0001:000303F6  6847 0001:00030414  6848 0001:00030439
  6849 0001:0003045E  6850 0001:0003047C  6851 0001:0003049A  6852 0001:000304BF
  6853 0001:000304DD  6854 0001:00030502  6855 0001:00030520  6856 0001:0003053E
  6857 0001:00030563  6858 0001:00030588  6859 0001:000305AD  6860 0001:000305CB
  6861 0001:000305F0  6862 0001:00030615  6863 0001:00030633  6864 0001:00030651
  6866 0001:00030676  6868 0001:00030694  6870 0001:000306A1  6872 0001:000306A8
  6873 0001:000306BB  6874 0001:000306CC  6876 0001:000306D9  6877 0001:000306F7
  6878 0001:00030715  6879 0001:00030733  6880 0001:00030751  6881 0001:0003076F
  6884 0001:0003078D  6885 0001:000307A0  6886 0001:000307B1  6888 0001:000307BA
  6889 0001:000307D8  6915 0001:000307F6  6929 0001:0003083D  6933 0001:00030845
  6934 0001:0003085A  6936 0001:00030866  6937 0001:0003086F  6939 0001:0003087B
  6941 0001:00030885  6944 0001:0003089F  6947 0001:000308BB  6949 0001:000308BE
  6950 0001:000308C6  6954 0001:000308DF  6955 0001:000308EA  6956 0001:000308F0
  6958 0001:00030935  6961 0001:000312EC  6962 0001:000312FF  6964 0001:00031305
  6967 0001:00031310  6970 0001:00031316  6971 0001:00031328  6974 0001:00031343
  6976 0001:00031356  6981 0001:00031370  6983 0001:0003138D  6985 0001:00031396
  6986 0001:000313A1  6987 0001:000313A9  6990 0001:000313B4  6991 0001:000313BD
  6992 0001:000313C8  6993 0001:000313D1  6994 0001:000313DC  6995 0001:000313E5
  6996 0001:000313F0  6997 0001:0003140C  7003 0001:00031418  7004 0001:0003143C
  7006 0001:0003144B  7008 0001:0003145B  7010 0001:0003146B  7012 0001:0003147B
  7014 0001:00031483  7016 0001:000314E0  7019 0001:00031554  7020 0001:00031567
  7021 0001:00031572  7024 0001:0003157C  7025 0001:0003158F  7026 0001:0003159A
  7030 0001:000315A4  7031 0001:000315BF  7032 0001:000315C8  7034 0001:000315EE
  7035 0001:00031609  7039 0001:00031614  7040 0001:0003162C  7041 0001:00031633
  7042 0001:0003163C  7044 0001:0003165E  7045 0001:00031678  7049 0001:00031684
  7050 0001:000316A0  7051 0001:000316A6  7052 0001:000316B2  7054 0001:000316E0
  7055 0001:000316F4  7059 0001:00031720  7060 0001:0003173C  7061 0001:00031742
  7062 0001:0003174B  7065 0001:00031779  7067 0001:00031791  7069 0001:0003179E
  7070 0001:000317BE  7073 0001:000317C0  7075 0001:000317C9  7076 0001:000317ED
  7079 0001:000317EF  7081 0001:000317F8  7082 0001:0003181C  7089 0001:0003181E
  7091 0001:00031832  7095 0001:0003185C  7096 0001:00031877  7097 0001:00031880
  7099 0001:000318A6  7100 0001:000318C1  7106 0001:000318CC  7107 0001:000318E8
  7108 0001:000318EE  7109 0001:000318F7  7112 0001:0003192F  7113 0001:00031943
  7119 0001:00031968  7120 0001:00031984  7121 0001:0003198A  7122 0001:00031993
  7125 0001:000319D5  7126 0001:000319E9  7132 0001:00031A10  7133 0001:00031A2C
  7134 0001:00031A32  7135 0001:00031A3E  7138 0001:00031A8C  7139 0001:00031AA0
  7148 0001:00031ACC  7149 0001:00031AF6  7150 0001:00031AFC  7151 0001:00031B08
  7154 0001:00031B46  7157 0001:00031B56  7158 0001:00031B6C  7159 0001:00031B79
  7160 0001:00031B8A  7162 0001:00031B92  7164 0001:00031BD5  7166 0001:00031BDE
  7167 0001:00031BEC  7168 0001:00031BF7  7169 0001:00031C07  7170 0001:00031C14
  7174 0001:00031C28  7175 0001:00031C66  7179 0001:00031CA4  7180 0001:00031CC0
  7181 0001:00031CC6  7182 0001:00031CD2  7184 0001:00031CFC  7185 0001:00031D10
  7189 0001:00031D3C  7190 0001:00031D54  7191 0001:00031D5A  7192 0001:00031D63
  7194 0001:00031D85  7195 0001:00031D99  7199 0001:00031DBC  7200 0001:00031DD4
  7201 0001:00031DDA  7202 0001:00031DE3  7204 0001:00031E05  7205 0001:00031E11
  7207 0001:00031E24  7208 0001:00031E38  7222 0001:00031E60  7223 0001:00031E85
  7224 0001:00031E8B  7225 0001:00031E94  7228 0001:00031ED4  7231 0001:00031EE4
  7232 0001:00031F00  7234 0001:00031F06  7235 0001:00031F17  7236 0001:00031F22
  7239 0001:00031F2C  7241 0001:00031F32  7244 0001:00031F70  7246 0001:00031F87
  7247 0001:00031F95  7248 0001:00031FA0  7249 0001:00031FB0  7250 0001:00031FBD
  7254 0001:00031FD4  7256 0001:00031FEC  7257 0001:00031FF2  7258 0001:00031FF7
  7261 0001:00032020  7262 0001:00032026  7263 0001:00032030  7264 0001:00032036
  7267 0001:00032047  7268 0001:0003207B  7274 0001:000320B4  7275 0001:000320D0
  7279 0001:000320FD  7285 0001:0003210C  7286 0001:00032128  7290 0001:00032155
  7300 0001:00032164  7301 0001:00032189  7302 0001:0003218F  7303 0001:0003219B
  7305 0001:000321DE  7308 0001:000321EE  7309 0001:00032204  7311 0001:0003220A
  7312 0001:0003221A  7313 0001:00032230  7314 0001:0003223B  7317 0001:00032245
  7318 0001:0003224B  7319 0001:00032289  7321 0001:00032298  7322 0001:000322A6
  7323 0001:000322B1  7324 0001:000322C1  7325 0001:000322CE  7329 0001:000322E2
  7330 0001:00032316  7339 0001:00032350  7340 0001:0003237A  7341 0001:00032380
  7342 0001:0003238C  7348 0001:000323D8  7351 0001:000323E8  7353 0001:000323FE
  7355 0001:00032414  7357 0001:0003242A  7360 0001:00032440  7367 0001:0003249D
  7368 0001:000324DB  7376 0001:00032518  7377 0001:00032542  7378 0001:00032548
  7379 0001:00032551  7385 0001:0003259A  7388 0001:000325AA  7390 0001:000325B0
  7392 0001:000325C6  7395 0001:000325D3  7396 0001:000325D9  7398 0001:000325DF
  7400 0001:000325F5  7403 0001:00032602  7404 0001:00032608  7406 0001:0003260E
  7408 0001:00032624  7411 0001:00032631  7412 0001:00032637  7414 0001:0003263D
  7416 0001:00032653  7419 0001:00032660  7420 0001:00032666  7427 0001:000326AF
  7428 0001:000326ED  7436 0001:00032724  7437 0001:0003274E  7438 0001:00032754
  7439 0001:0003275D  7444 0001:0003279D  7447 0001:000327AD  7449 0001:000327B3
  7451 0001:000327C9  7454 0001:000327D6  7455 0001:000327DC  7457 0001:000327E2
  7459 0001:000327F8  7462 0001:00032805  7463 0001:0003280B  7465 0001:00032811
  7467 0001:00032827  7470 0001:00032834  7472 0001:0003283A  7478 0001:0003287A
  7479 0001:000328B8  7483 0001:000328EC  7484 0001:00032907  7485 0001:0003290D
  7486 0001:00032916  7488 0001:0003293C  7489 0001:00032950  7499 0001:00032974
  7500 0001:0003299F  7501 0001:000329A5  7502 0001:000329AE  7506 0001:000329F2
  7509 0001:00032A02  7511 0001:00032A09  7512 0001:00032A15  7514 0001:00032A1D
  7516 0001:00032A24  7517 0001:00032A30  7520 0001:00032A38  7526 0001:00032A7A
  7528 0001:00032A81  7529 0001:00032A8F  7530 0001:00032A9A  7531 0001:00032AAA
  7532 0001:00032AB7  7534 0001:00032AC9  7536 0001:00032AD0  7537 0001:00032ADE
  7538 0001:00032AE9  7539 0001:00032AF9  7540 0001:00032B06  7545 0001:00032B1A
  7546 0001:00032B58  7557 0001:00032B90  7558 0001:00032BB5  7559 0001:00032BBB
  7560 0001:00032BC4  7564 0001:00032C0B  7567 0001:00032C1B  7568 0001:00032C22
  7569 0001:00032C28  7570 0001:00032C34  7571 0001:00032C3B  7572 0001:00032C50
  7573 0001:00032C58  7577 0001:00032CA2  7579 0001:00032CAB  7580 0001:00032CB9
  7581 0001:00032CC4  7582 0001:00032CD4  7583 0001:00032CE1  7587 0001:00032CF5
  7588 0001:00032D29  7594 0001:00032D64  7595 0001:00032D80  7596 0001:00032D86
  7597 0001:00032D92  7599 0001:00032DCC  7600 0001:00032DE0  7604 0001:00032E0C
  7605 0001:00032E24  7606 0001:00032E2A  7607 0001:00032E33  7609 0001:00032E55
  7610 0001:00032E69  7620 0001:00032E90  7621 0001:00032EBA  7622 0001:00032EC0
  7623 0001:00032ECC  7626 0001:00032F13  7629 0001:00032F23  7631 0001:00032F29
  7632 0001:00032F3F  7636 0001:00032F4D  7637 0001:00032F55  7639 0001:00032F5B
  7640 0001:00032F63  7641 0001:00032F69  7642 0001:00032F7A  7644 0001:00032F95
  7647 0001:00032FE1  7649 0001:00032FF0  7650 0001:00032FFE  7651 0001:00033009
  7652 0001:00033019  7653 0001:00033026  7657 0001:0003303A  7658 0001:00033078
  7668 0001:000330B4  7669 0001:000330DF  7670 0001:000330E5  7671 0001:000330F1
  7675 0001:00033138  7678 0001:00033148  7679 0001:0003314F  7680 0001:00033155
  7681 0001:00033161  7682 0001:00033168  7683 0001:0003317D  7685 0001:00033185
  7686 0001:0003318C  7687 0001:00033192  7688 0001:0003319E  7689 0001:000331A5
  7690 0001:000331BA  7692 0001:000331C2  7698 0001:0003320E  7700 0001:0003321D
  7701 0001:0003322B  7702 0001:00033236  7703 0001:00033246  7704 0001:00033253
  7707 0001:00033265  7709 0001:00033274  7710 0001:00033282  7711 0001:0003328D
  7712 0001:0003329D  7713 0001:000332AA  7717 0001:000332BE  7718 0001:000332FC
  7722 0001:00033330  7723 0001:0003334C  7724 0001:00033352  7725 0001:0003335B
  7727 0001:00033387  7729 0001:00033393  7730 0001:0003339A  7732 0001:000333B2
  7733 0001:000333B9  7735 0001:000333D1  7738 0001:000333E3  7739 0001:000333F7
  7749 0001:0003341C  7750 0001:00033446  7751 0001:0003344C  7752 0001:00033455
  7756 0001:00033497  7759 0001:000334A7  7760 0001:000334B4  7761 0001:000334D2
  7762 0001:000334D9  7763 0001:000334DF  7764 0001:000334F0  7765 0001:000334F7
  7766 0001:00033510  7768 0001:00033518  7772 0001:00033562  7774 0001:0003356B
  7775 0001:00033576  7776 0001:00033581  7777 0001:00033593  7781 0001:000335A7
  7782 0001:000335E5  7788 0001:0003361C  7789 0001:00033640  7790 0001:00033646
  7791 0001:0003364F  7793 0001:00033679  7796 0001:00033685  7797 0001:0003369B
  7800 0001:000336CD  7801 0001:00033701  7805 0001:0003373C  7806 0001:00033754
  7807 0001:0003375A  7808 0001:00033763  7810 0001:00033785  7811 0001:00033799
  7816 0001:000337BC  7817 0001:000337D8  7818 0001:000337DE  7819 0001:000337EA
  7821 0001:00033820  7822 0001:00033834  7826 0001:00033860  7827 0001:00033878
  7828 0001:0003387E  7829 0001:0003388A  7831 0001:000338AF  7832 0001:000338C3
  7836 0001:000338E4  7837 0001:00033900  7838 0001:00033906  7839 0001:00033912
  7841 0001:0003392B  7842 0001:0003393F  7854 0001:00033968  7855 0001:00033992
  7856 0001:00033998  7857 0001:000339A4  7865 0001:00033A02  7868 0001:00033A12
  7869 0001:00033A28  7870 0001:00033A3E  7871 0001:00033A54  7872 0001:00033A6A
  7873 0001:00033A80  7875 0001:00033A96  7884 0001:00033B0F  7885 0001:00033B4D
  7889 0001:00033B88  7890 0001:00033BA0  7891 0001:00033BA6  7892 0001:00033BB2
  7894 0001:00033BD7  7895 0001:00033BEB  7899 0001:00033C10  7900 0001:00033C28
  7901 0001:00033C2E  7902 0001:00033C3A  7904 0001:00033C5F  7905 0001:00033C73
  7911 0001:00033C94  7912 0001:00033CA3  7913 0001:00033CB2  7916 0001:00033CE9
  7918 0001:00033D01  7920 0001:00033D1B  7922 0001:00033D35  7924 0001:00033D53
  7927 0001:00033D66  7929 0001:00033D88  7930 0001:00033DA4  7931 0001:00033DAA
  7933 0001:00033DC3  7935 0001:00033DCB  7936 0001:00033DD4  7939 0001:00033DDB
  7941 0001:00033DE9  7945 0001:00033DF9  7946 0001:00033E04  7950 0001:00033E20
  7951 0001:00033E3C  7952 0001:00033E42  7953 0001:00033E4E  7955 0001:00033E78
  7956 0001:00033E8C  7966 0001:00033EB0  7967 0001:00033ED4  7968 0001:00033EDA
  7969 0001:00033EE6  7972 0001:00033F1E  7975 0001:00033F2E  7976 0001:00033F49
  7978 0001:00033F4F  7979 0001:00033F5A  7980 0001:00033F6E  7981 0001:00033F79
  7984 0001:00033F82  7986 0001:00033F88  7989 0001:00033FBB  7991 0001:00033FC5
  7992 0001:00033FD2  7993 0001:00033FDD  7994 0001:00033FEA  7995 0001:00033FF6
  7999 0001:0003400D  8001 0001:00034029  8004 0001:00034057  8006 0001:0003405D
  8007 0001:0003406A  8008 0001:00034083  8011 0001:00034090  8012 0001:00034096
  8013 0001:000340AD  8014 0001:000340B3  8017 0001:000340C3  8018 0001:000340F7
  8023 0001:00034134  8024 0001:00034150  8025 0001:00034156  8026 0001:00034162
  8028 0001:00034193  8030 0001:0003419F  8032 0001:000341D0  8034 0001:000341E8
  8044 0001:0003420A  8046 0001:0003422A  8050 0001:00034247  8051 0001:0003425B
  8060 0001:00034288  8061 0001:000342AC  8062 0001:000342B2  8063 0001:000342BE
  8066 0001:000342F3  8069 0001:00034303  8070 0001:00034319  8072 0001:0003431F
  8073 0001:0003432B  8074 0001:00034340  8077 0001:0003434A  8079 0001:00034352
  8082 0001:00034387  8084 0001:0003438D  8085 0001:0003439B  8086 0001:000343A6
  8090 0001:000343BA  8091 0001:000343EE  8097 0001:0003442C  8098 0001:00034448
  8099 0001:0003444E  8100 0001:0003445A  8103 0001:00034495  8104 0001:000344A9
  8114 0001:000344CC  8115 0001:000344F1  8116 0001:000344F7  8117 0001:00034503
  8120 0001:00034541  8123 0001:00034551  8124 0001:00034566  8126 0001:0003456C
  8127 0001:00034577  8128 0001:0003458B  8129 0001:00034592  8132 0001:0003459F
  8134 0001:000345A5  8137 0001:000345DE  8139 0001:000345EC  8140 0001:000345F9
  8141 0001:00034604  8142 0001:00034611  8143 0001:0003461C  8147 0001:00034630
  8148 0001:00034664  8157 0001:0003469C  8158 0001:000346C1  8159 0001:000346C7
  8160 0001:000346D3  8165 0001:00034725  8168 0001:00034735  8170 0001:0003473C
  8171 0001:00034748  8175 0001:0003475F  8176 0001:00034767  8178 0001:0003476D
  8180 0001:00034775  8185 0001:000347C7  8187 0001:000347D0  8188 0001:000347DE
  8189 0001:000347E9  8193 0001:000347FD  8194 0001:00034831  8203 0001:0003486C
  8204 0001:00034891  8205 0001:00034897  8206 0001:000348A3  8209 0001:000348E7
  8212 0001:000348F7  8214 0001:000348FE  8215 0001:0003490A  8219 0001:00034921
  8220 0001:00034929  8222 0001:0003492F  8224 0001:00034937  8227 0001:00034976
  8229 0001:0003497F  8230 0001:0003498D  8231 0001:00034998  8235 0001:000349AC
  8236 0001:000349E0  8245 0001:00034A18  8246 0001:00034A43  8247 0001:00034A49
  8248 0001:00034A55  8252 0001:00034A9C  8255 0001:00034AAC  8256 0001:00034AB9
  8257 0001:00034AD4  8258 0001:00034ADB  8259 0001:00034AE1  8260 0001:00034AF2
  8261 0001:00034AF9  8262 0001:00034B14  8264 0001:00034B1C  8268 0001:00034B6B
  8270 0001:00034B74  8271 0001:00034B7F  8272 0001:00034B8A  8273 0001:00034B9C
  8277 0001:00034BB0  8278 0001:00034BEE  8283 0001:00034C28  8284 0001:00034C43
  8285 0001:00034C49  8286 0001:00034C55  8288 0001:00034C8A  8289 0001:00034C9E
  8294 0001:00034CC8  8295 0001:00034CE4  8296 0001:00034CFC  8298 0001:00034D07
  8299 0001:00034D0E  8303 0001:00034D1C  8304 0001:00034D38  8305 0001:00034D44
  8307 0001:00034D72  8311 0001:00034D78  8316 0001:00034D8C  8317 0001:00034D92
  8318 0001:00034D9A  8321 0001:00034F72  8322 0001:00034F7F  8326 0001:00034F8C
  8327 0001:00034F99  8331 0001:00034FA6  8332 0001:00034FB3  8336 0001:00034FC0
  8337 0001:00034FCD  8341 0001:00034FDA  8342 0001:00034FE7  8346 0001:00034FF4
  8347 0001:00035001  8351 0001:0003500E  8352 0001:0003501B  8356 0001:00035028
  8357 0001:00035035  8361 0001:00035042  8362 0001:0003505B  8366 0001:00035068
  8367 0001:00035081  8371 0001:0003508E  8372 0001:000350A7  8376 0001:000350B4
  8377 0001:000350C1  8381 0001:000350CE  8382 0001:000350E7  8386 0001:000350F4
  8387 0001:0003510D  8391 0001:0003511A  8392 0001:00035127  8396 0001:00035134
  8397 0001:00035141  8401 0001:0003514E  8402 0001:00035167  8406 0001:00035174
  8407 0001:0003518D  8411 0001:0003519A  8412 0001:000351A7  8416 0001:000351B4
  8417 0001:000351C4  8421 0001:000351D1  8422 0001:000351E1  8426 0001:000351EE
  8427 0001:000351FE  8431 0001:0003520B  8432 0001:0003521B  8436 0001:00035228
  8437 0001:00035238  8441 0001:00035245  8442 0001:00035255  8446 0001:00035262
  8447 0001:0003527E  8451 0001:0003528B  8452 0001:000352A7  8456 0001:000352B4
  8457 0001:000352D0  8461 0001:000352DD  8462 0001:000352ED  8466 0001:000352FA
  8467 0001:00035316  8471 0001:00035323  8472 0001:0003533F  8476 0001:0003534C
  8477 0001:00035368  8481 0001:00035375  8482 0001:00035391  8486 0001:0003539E
  8487 0001:000353AE  8491 0001:000353BB  8492 0001:000353CB  8496 0001:000353D8
  8497 0001:000353F4  8501 0001:00035401  8502 0001:0003541D  8506 0001:0003542A
  8507 0001:0003543A  8511 0001:00035447  8512 0001:00035463  8516 0001:00035470
  8517 0001:00035480  8521 0001:0003548D  8522 0001:0003549D  8526 0001:000354AA
  8527 0001:000354C6  8531 0001:000354D3  8532 0001:000354E3  8536 0001:000354F0
  8537 0001:0003550C  8541 0001:00035519  8542 0001:00035535  8546 0001:00035542
  8547 0001:0003555E  8551 0001:0003556B  8552 0001:00035587  8556 0001:00035594
  8557 0001:000355B0  8561 0001:000355BD  8562 0001:000355CD  8566 0001:000355DA
  8567 0001:000355EA  8571 0001:000355F7  8572 0001:00035607  8576 0001:00035614
  8577 0001:00035630  8581 0001:0003563D  8582 0001:0003564D  8586 0001:0003565A
  8587 0001:00035676  8591 0001:00035683  8592 0001:0003569F  8596 0001:000356AC
  8597 0001:000356C8  8601 0001:000356D5  8602 0001:000356E5  8607 0001:000356F2
  8608 0001:00035702  8612 0001:0003570F  8613 0001:0003571F  8617 0001:0003572C
  8618 0001:0003573C  8622 0001:00035749  8623 0001:00035765  8628 0001:00035772
  8629 0001:0003578E  8633 0001:0003579B  8634 0001:000357AB  8638 0001:000357B8
  8639 0001:000357D4  8643 0001:000357E1  8644 0001:000357FD  8648 0001:0003580A
  8649 0001:0003581A  8653 0001:00035827  8654 0001:00035843  8658 0001:00035850
  8659 0001:00035860  8663 0001:0003586D  8664 0001:00035889  8668 0001:00035896
  8669 0001:000358A6  8673 0001:000358B3  8674 0001:000358C3  8678 0001:000358D0
  8679 0001:000358EC  8683 0001:000358F9  8684 0001:00035915  8688 0001:0003591F
  8689 0001:00035937  8693 0001:00035941  8694 0001:0003594D  8698 0001:00035957
  8699 0001:0003596F  8703 0001:00035979  8704 0001:00035991  8708 0001:0003599D
  8718 0001:000359AC  8719 0001:000359D1  8720 0001:000359D7  8721 0001:000359E3
  8723 0001:00035A1D  8726 0001:00035A2D  8727 0001:00035A42  8729 0001:00035A48
  8730 0001:00035A4F  8732 0001:00035A57  8733 0001:00035A61  8734 0001:00035A6D
  8735 0001:00035A74  8737 0001:00035A87  8738 0001:00035A8F  8741 0001:00035A9C
  8743 0001:00035AA2  8747 0001:00035AD7  8749 0001:00035AE6  8750 0001:00035AFB
  8751 0001:00035B06  8752 0001:00035B16  8753 0001:00035B23  8757 0001:00035B37
  8758 0001:00035B6B  8763 0001:00035BA0  8764 0001:00035BBC  8767 0001:00035BDB
  8772 0001:00035BEC  8773 0001:00035C08  8776 0001:00035C27  8781 0001:00035C38
  8782 0001:00035C54  8785 0001:00035C78  8795 0001:00035C88  8796 0001:00035CAC
  8797 0001:00035CB2  8798 0001:00035CBE  8801 0001:00035CF6  8804 0001:00035D06
  8805 0001:00035D21  8807 0001:00035D27  8808 0001:00035D32  8809 0001:00035D46
  8810 0001:00035D4D  8813 0001:00035D5A  8815 0001:00035D60  8819 0001:00035D93
  8821 0001:00035DA1  8822 0001:00035DAE  8823 0001:00035DB9  8824 0001:00035DC6
  8825 0001:00035DD2  8829 0001:00035DE6  8832 0001:00035DEE  8833 0001:00035DF5
  8836 0001:00035DFD  8838 0001:00035E31  8842 0001:00035E6C  8843 0001:00035E88
  8844 0001:00035E8E  8845 0001:00035E9A  8847 0001:00035EC8  8848 0001:00035EDC
  8852 0001:00035F08  8853 0001:00035F24  8854 0001:00035F2A  8855 0001:00035F36
  8857 0001:00035F60  8859 0001:00035F6C  8861 0001:00035F96  8862 0001:00035FAA
  8865 0001:00035FD0  8867 0001:00035FE8  8868 0001:00035FF4  8871 0001:00036019
  8872 0001:00036023  8880 0001:00036030  8881 0001:0003605A  8882 0001:00036060
  8883 0001:0003606C  8887 0001:000360A8  8890 0001:000360B8  8891 0001:000360CE
  8893 0001:000360D4  8894 0001:000360DF  8897 0001:000360F5  8898 0001:000360FD
  8900 0001:00036104  8904 0001:00036145  8906 0001:0003614D  8907 0001:0003615A
  8908 0001:00036165  8912 0001:00036179  8913 0001:000361B7  8917 0001:000361F0
  8918 0001:0003620B  8919 0001:00036211  8920 0001:0003621D  8922 0001:00036246
  8923 0001:0003625A  8927 0001:00036280  8928 0001:0003629B  8929 0001:000362A1
  8930 0001:000362AD  8932 0001:000362D6  8933 0001:000362EA  8937 0001:00036314
  8938 0001:0003632F  8939 0001:00036335  8940 0001:00036341  8942 0001:0003636A
  8943 0001:0003637E  8947 0001:000363A4  8948 0001:000363BF  8949 0001:000363C5
  8950 0001:000363D1  8952 0001:000363FE  8953 0001:00036412  8959 0001:0003643C
  8960 0001:00036460  8961 0001:00036466  8962 0001:00036472  8964 0001:0003649F
  8967 0001:000364AB  8968 0001:000364C1  8971 0001:000364F3  8972 0001:00036527
  8980 0001:0003655C  8981 0001:00036586  8982 0001:0003658C  8983 0001:00036598
  8988 0001:000365DB  8991 0001:000365EB  8993 0001:000365F1  8994 0001:00036607
  8996 0001:00036612  8998 0001:00036618  8999 0001:0003662E  9001 0001:00036639
  9003 0001:0003663F  9004 0001:00036655  9007 0001:00036660  9013 0001:000366A0
  9014 0001:000366DE  9023 0001:00036718  9024 0001:00036742  9025 0001:00036748
  9026 0001:00036754  9032 0001:000367A0  9035 0001:000367B0  9037 0001:000367B6
  9038 0001:000367CC  9041 0001:000367D7  9043 0001:000367DD  9044 0001:000367F3
  9047 0001:000367FE  9049 0001:00036804  9050 0001:0003681A  9053 0001:00036825
  9055 0001:0003682B  9056 0001:00036841  9059 0001:0003684C  9066 0001:00036895
  9067 0001:000368D3  9075 0001:00036910  9076 0001:0003693A  9077 0001:00036940
  9078 0001:0003694C  9083 0001:0003698F  9086 0001:0003699F  9088 0001:000369A5
  9089 0001:000369BB  9091 0001:000369C6  9093 0001:000369CC  9094 0001:000369E2
  9096 0001:000369ED  9098 0001:000369F3  9099 0001:00036A09  9102 0001:00036A14
  9108 0001:00036A54  9109 0001:00036A92  9113 0001:00036ACC  9114 0001:00036AE7
  9115 0001:00036AED  9116 0001:00036AF9  9118 0001:00036B26  9119 0001:00036B3A
  9123 0001:00036B60  9124 0001:00036B7B  9125 0001:00036B81  9126 0001:00036B8D
  9128 0001:00036BB6  9129 0001:00036BCA  9137 0001:00036BEC  9138 0001:00036C10
  9139 0001:00036C16  9140 0001:00036C22  9142 0001:00036C56  9145 0001:00036C62
  9146 0001:00036C7D  9148 0001:00036C83  9149 0001:00036C99  9150 0001:00036CA4
  9152 0001:00036CAB  9155 0001:00036CDC  9157 0001:00036CF4  9160 0001:00036D0D
  9161 0001:00036D41  9166 0001:00036D80  9167 0001:00036D9C  9168 0001:00036DA2
  9169 0001:00036DAE  9171 0001:00036DDC  9173 0001:00036DE8  9175 0001:00036E16
  9176 0001:00036E2A  9182 0001:00036E58  9183 0001:00036E7C  9184 0001:00036E82
  9185 0001:00036E8E  9187 0001:00036EBC  9190 0001:00036EC8  9192 0001:00036ECE
  9193 0001:00036EE4  9195 0001:00036EEF  9198 0001:00036F1D  9199 0001:00036F51
  9206 0001:00036F90  9207 0001:00036FB5  9208 0001:00036FBB  9209 0001:00036FC7
  9211 0001:00036FFE  9214 0001:0003700A  9216 0001:00037010  9217 0001:00037026
  9219 0001:00037031  9222 0001:00037068  9223 0001:0003709C  9229 0001:000370D4
  9230 0001:000370F0  9231 0001:000370F6  9232 0001:00037102  9235 0001:00037150
  9236 0001:00037164  9241 0001:0003718C  9242 0001:000371A7  9243 0001:000371AD
  9244 0001:000371B9  9246 0001:000371EA  9247 0001:000371FE  9253 0001:00037228
  9254 0001:00037244  9255 0001:0003724A  9256 0001:00037256  9259 0001:0003729B
  9260 0001:000372AF  9264 0001:000372D4  9265 0001:000372F0  9266 0001:000372F6
  9267 0001:00037302  9269 0001:00037336  9270 0001:0003734A  9275 0001:00037370
  9276 0001:0003738C  9277 0001:00037392  9278 0001:0003739E  9280 0001:000373D1
  9281 0001:000373E5  9290 0001:00037410  9291 0001:00037434  9292 0001:0003743A
  9293 0001:00037446  9295 0001:0003747A  9298 0001:00037486  9299 0001:0003749B
  9301 0001:000374A1  9302 0001:000374B7  9305 0001:000374C4  9306 0001:000374CA
  9309 0001:000374FB  9318 0001:00037507  9321 0001:0003750F  9324 0001:00037516
  9328 0001:0003752F  9329 0001:00037563  9333 0001:0003759C  9334 0001:000375B8
  9335 0001:000375BE  9336 0001:000375CA  9338 0001:000375F8  9339 0001:0003760C
  9348 0001:00037638  9349 0001:00037663  9350 0001:00037669  9351 0001:00037675
  9357 0001:000376C7  9360 0001:000376D7  9362 0001:000376DD  9364 0001:000376F3
  9366 0001:000376FE  9368 0001:00037704  9370 0001:0003771A  9372 0001:00037725
  9374 0001:0003772B  9376 0001:00037741  9379 0001:0003774C  9386 0001:0003779B
  9387 0001:000377D9  9395 0001:00037818  9396 0001:00037842  9397 0001:00037848
  9398 0001:00037854  9404 0001:000378A1  9407 0001:000378B1  9409 0001:000378B7
  9410 0001:000378CD  9411 0001:000378D3  9414 0001:000378E0  9415 0001:000378E6
  9417 0001:000378EC  9418 0001:00037902  9419 0001:00037908  9422 0001:00037915
  9423 0001:0003791B  9425 0001:00037921  9426 0001:00037937  9427 0001:0003793D
  9430 0001:0003794A  9432 0001:00037950  9439 0001:0003799A  9440 0001:000379D8
  9448 0001:00037A10  9449 0001:00037A3A  9450 0001:00037A40  9451 0001:00037A4C
  9456 0001:00037A8F  9459 0001:00037A9F  9461 0001:00037AB5  9463 0001:00037AC4
  9465 0001:00037ADA  9467 0001:00037AE9  9469 0001:00037AFF  9471 0001:00037B0E
  9477 0001:00037B4E  9478 0001:00037B8C  9486 0001:00037BC8  9487 0001:00037BF2
  9488 0001:00037BF8  9489 0001:00037C04  9495 0001:00037C50  9498 0001:00037C60
  9500 0001:00037C66  9501 0001:00037C7C  9502 0001:00037C82  9505 0001:00037C8F
  9506 0001:00037C95  9508 0001:00037C9B  9509 0001:00037CB1  9510 0001:00037CB7
  9513 0001:00037CC4  9514 0001:00037CCA  9516 0001:00037CD0  9517 0001:00037CE6
  9518 0001:00037CEC  9521 0001:00037CF9  9522 0001:00037CFF  9524 0001:00037D05
  9525 0001:00037D1B  9526 0001:00037D21  9529 0001:00037D2E  9531 0001:00037D34
  9538 0001:00037D7D  9539 0001:00037DBB  9543 0001:00037DF0  9544 0001:00037E0B
  9545 0001:00037E11  9546 0001:00037E1D  9548 0001:00037E4B  9549 0001:00037E5F
  9554 0001:00037E84  9555 0001:00037E99  9556 0001:00037E9F  9557 0001:00037EAB
  9559 0001:00037ECC  9560 0001:00037EE3  9563 0001:00037F0C  9564 0001:00037F27
  9565 0001:00037F2D  9566 0001:00037F39  9568 0001:00037F66  9569 0001:00037F7D
  9572 0001:00037FA8  9573 0001:00037FC5  9574 0001:00037FDC  9576 0001:00037FF8
  9577 0001:0003800B  9580 0001:0003802C  9581 0001:00038041  9582 0001:00038048
  9583 0001:00038054  9585 0001:00038074  9586 0001:0003808A  9589 0001:000380B0
  9590 0001:000380C8  9591 0001:000380CE  9592 0001:000380DA  9594 0001:000380FF
  9595 0001:00038116  9598 0001:0003813C  9599 0001:00038154  9600 0001:0003816B
  9602 0001:00038181  9603 0001:00038194  9608 0001:000381C0  9609 0001:000381D5
  9610 0001:000381DC  9611 0001:000381E8  9613 0001:00038208  9614 0001:0003821E
  9617 0001:00038248  9618 0001:00038260  9619 0001:00038264  9620 0001:00038270
  9622 0001:0003829A  9623 0001:000382B0  9628 0001:000382DC  9629 0001:000382F8
  9630 0001:00038313  9633 0001:00038320  9634 0001:0003833C  9635 0001:00038357
  9638 0001:00038364  9639 0001:00038380  9640 0001:0003838C  9641 0001:000383A5
  9643 0001:000383AE  9644 0001:000383B6  9647 0001:000383C4  9648 0001:000383DC
  9649 0001:000383EA  9652 0001:000383F8  9653 0001:00038410  9654 0001:0003841E
  9657 0001:0003842C  9658 0001:00038448  9659 0001:00038466  9662 0001:00038474
  9663 0001:00038490  9664 0001:000384AB  9667 0001:000384B8  9668 0001:000384D4
  9669 0001:000384F2  9672 0001:00038500  9673 0001:0003851C  9674 0001:00038537
  9679 0001:00038544  9680 0001:0003855C  9682 0001:00038565  9689 0001:00038582
  9691 0001:0003858A  9693 0001:0003859B  9699 0001:000385AB  9701 0001:000385B4
  9703 0001:000385BC  9705 0001:000385CD  9709 0001:000385DD  9712 0001:00038604
  9714 0001:0003861C  9716 0001:00038625  9717 0001:00038638  9719 0001:00038644
  9721 0001:0003865C  9725 0001:0003866A  9733 0001:00038678  9735 0001:0003868B
  9736 0001:00038694  9738 0001:000386AC  9742 0001:000386E8  9744 0001:00038700
  9745 0001:00038708  9749 0001:00038716  9752 0001:00038724  9754 0001:00038739
  9755 0001:00038741  9759 0001:00038752  9762 0001:00038760  9764 0001:00038778
  9765 0001:00038780  9769 0001:00038794  9772 0001:000387A0  9774 0001:000387BC
  9775 0001:000387C4  9779 0001:000387DE  9782 0001:000387EC  9784 0001:00038808
  9785 0001:00038810  9789 0001:0003882A  9792 0001:00038838  9794 0001:00038854
  9795 0001:0003885C  9799 0001:00038876  9802 0001:00038884  9804 0001:0003889C
  9805 0001:000388A4  9809 0001:000388BA  9812 0001:000388C8  9814 0001:000388E0
  9815 0001:000388E8  9819 0001:000388FE  9822 0001:0003890C  9824 0001:00038928
  9825 0001:00038930  9829 0001:0003894F  9832 0001:00038960  9834 0001:0003897C
  9835 0001:00038984  9839 0001:0003899E  9842 0001:000389AC  9844 0001:000389C8
  9845 0001:000389D0  9849 0001:000389EF  9852 0001:00038A00  9854 0001:00038A1C
  9855 0001:00038A24  9859 0001:00038A3E  9863 0001:00038A4C  9865 0001:00038A67
  9866 0001:00038A6F  9870 0001:00038A88  9873 0001:00038A94  9875 0001:00038AAC
  9876 0001:00038AB4  9880 0001:00038ACA  9884 0001:00038AD8  9886 0001:00038AF4
  9887 0001:00038AFC  9891 0001:00038B1A  9895 0001:00038B28  9897 0001:00038B44
  9898 0001:00038B4C  9902 0001:00038B6A  9906 0001:00038B78  9908 0001:00038B93
  9909 0001:00038B9B  9913 0001:00038BB4  9919 0001:00038BC0  9921 0001:00038BDC
  9922 0001:00038BE4  9928 0001:00038C0F  9934 0001:00038C20  9936 0001:00038C3C
  9937 0001:00038C44  9943 0001:00038C79  9949 0001:00038C88  9951 0001:00038CA4
  9952 0001:00038CAC  9958 0001:00038CEA  9964 0001:00038CF8  9966 0001:00038D13
  9967 0001:00038D1B  9973 0001:00038D46  9977 0001:00038D54  9979 0001:00038D70
  9980 0001:00038D78  9984 0001:00038D92  9987 0001:00038DA0  9989 0001:00038DB8
  9990 0001:00038DC0  9994 0001:00038DD6  9997 0001:00038DE4  9999 0001:00038DFC
 10000 0001:00038E04 10004 0001:00038E1A 10010 0001:00038E28 10012 0001:00038E44
 10013 0001:00038E4C 10019 0001:00038E7C 10025 0001:00038E8C 10027 0001:00038EA8
 10028 0001:00038EB0 10034 0001:00038EE0 10039 0001:00038EF0 10041 0001:00038F0C
 10042 0001:00038F14 10048 0001:00038F44 10054 0001:00038F54 10056 0001:00038F70
 10057 0001:00038F78 10063 0001:00038FA8 10070 0001:00038FB8 10072 0001:00038FD3
 10073 0001:00038FDB 10079 0001:00039014 10085 0001:00039024 10087 0001:0003903F
 10088 0001:00039047 10094 0001:00039080 10100 0001:00039090 10102 0001:000390AB
 10103 0001:000390B3 10109 0001:000390E3 10112 0001:000390F4 10114 0001:0003910F
 10115 0001:00039117 10119 0001:00039130 10126 0001:0003913C 10128 0001:00039158
 10129 0001:00039160 10135 0001:00039194 10142 0001:000391A4 10144 0001:000391C0
 10145 0001:000391C8 10151 0001:000391FF 10157 0001:00039210 10159 0001:0003922C
 10160 0001:00039234 10166 0001:0003925E 10169 0001:0003926C 10171 0001:00039284
 10172 0001:0003928C 10176 0001:000392A2 10183 0001:000392B0 10185 0001:000392CB
 10186 0001:000392D3 10192 0001:00039307 10199 0001:00039318 10201 0001:00039334
 10202 0001:0003933C 10208 0001:00039370 10212 0001:00039380 10214 0001:0003939C
 10215 0001:000393A4 10219 0001:000393C3 10226 0001:000393D4 10228 0001:000393EF
 10229 0001:000393F7 10235 0001:00039429 10239 0001:00039438 10241 0001:00039453
 10242 0001:0003945B 10246 0001:00039478 10249 0001:00039488 10251 0001:000394A0
 10252 0001:000394A8 10256 0001:000394BE 10261 0001:000394CC 10263 0001:000394E8
 10264 0001:000394F0 10268 0001:00039516 10271 0001:00039524 10273 0001:0003953C
 10274 0001:00039544 10278 0001:0003955A 10282 0001:00039568 10284 0001:00039584
 10285 0001:0003958C 10289 0001:000395AA 10298 0001:000395B8 10300 0001:000395D3
 10301 0001:000395DB 10309 0001:00039626 10312 0001:00039634 10314 0001:0003964C
 10315 0001:00039654 10319 0001:0003966A 10322 0001:00039678 10324 0001:00039690
 10325 0001:00039698 10329 0001:000396AE 10332 0001:000396BC 10334 0001:000396D8
 10335 0001:000396E0 10339 0001:000396FA 10342 0001:00039708 10344 0001:00039724
 10345 0001:0003972C 10349 0001:00039746 10353 0001:00039754 10355 0001:00039770
 10356 0001:00039778 10360 0001:00039790 10365 0001:0003979C 10367 0001:000397B7
 10368 0001:000397BF 10374 0001:000397E4 10378 0001:000397F4 10380 0001:00039810
 10381 0001:00039818 10385 0001:00039836 10390 0001:00039844 10392 0001:0003985F
 10393 0001:00039867 10397 0001:00039889 10403 0001:00039898 10405 0001:000398B4
 10406 0001:000398BC 10412 0001:000398E7 10417 0001:000398F8 10419 0001:00039914
 10420 0001:0003991C 10426 0001:00039947 10432 0001:00039958 10434 0001:00039974
 10435 0001:0003997C 10441 0001:000399BB 10447 0001:000399CC 10449 0001:000399E8
 10450 0001:000399F0 10456 0001:00039A21 10462 0001:00039A30 10464 0001:00039A4C
 10465 0001:00039A54 10471 0001:00039A88 10476 0001:00039A98 10478 0001:00039AB3
 10479 0001:00039ABB 10485 0001:00039AE0 10489 0001:00039AF0 10491 0001:00039B0C
 10492 0001:00039B14 10496 0001:00039B32 10501 0001:00039B40 10503 0001:00039B5C
 10504 0001:00039B64 10510 0001:00039B8B 10515 0001:00039B9C 10517 0001:00039BB8
 10518 0001:00039BC0 10524 0001:00039BE7 10529 0001:00039BF8 10531 0001:00039C14
 10532 0001:00039C1C 10538 0001:00039C43 10543 0001:00039C54 10545 0001:00039C70
 10546 0001:00039C78 10552 0001:00039C9F 10557 0001:00039CB0 10559 0001:00039CCB
 10560 0001:00039CD3 10566 0001:00039CF8 10570 0001:00039D08 10572 0001:00039D24
 10573 0001:00039D2C 10577 0001:00039D4A 10581 0001:00039D58 10583 0001:00039D74
 10584 0001:00039D7C 10588 0001:00039D96 10591 0001:00039DA4 10593 0001:00039DBC
 10594 0001:00039DC4 10598 0001:00039DDA 10603 0001:00039DE8 10605 0001:00039E03
 10606 0001:00039E0B 10612 0001:00039E34 10615 0001:00039E44 10617 0001:00039E5F
 10618 0001:00039E67 10622 0001:00039E80 10626 0001:00039E8C 10628 0001:00039EA7
 10629 0001:00039EAF 10633 0001:00039EC8 10636 0001:00039ED4 10638 0001:00039EEF
 10639 0001:00039EF7 10643 0001:00039F10 10647 0001:00039F1C 10649 0001:00039F37
 10650 0001:00039F3F 10654 0001:00039F5C 10658 0001:00039F6C 10660 0001:00039F87
 10661 0001:00039F8F 10665 0001:00039FAC 10671 0001:00039FBC 10673 0001:00039FD7
 10674 0001:00039FDF 10680 0001:0003A00F 10687 0001:0003A020 10689 0001:0003A03B
 10690 0001:0003A043 10696 0001:0003A07C 10702 0001:0003A08C 10704 0001:0003A0A7
 10705 0001:0003A0AF 10711 0001:0003A0DF 10715 0001:0003A0F0 10717 0001:0003A10B
 10718 0001:0003A113 10722 0001:0003A130 10726 0001:0003A140 10728 0001:0003A15B
 10729 0001:0003A163 10733 0001:0003A17C 10738 0001:0003A188 10740 0001:0003A1A3
 10741 0001:0003A1AB 10745 0001:0003A1CC 10749 0001:0003A1DC 10751 0001:0003A1F8
 10752 0001:0003A200 10756 0001:0003A21E 10760 0001:0003A22C 10762 0001:0003A247
 10763 0001:0003A24F 10767 0001:0003A26D 10772 0001:0003A27C 10774 0001:0003A298
 10775 0001:0003A2A0 10781 0001:0003A2C7 10787 0001:0003A2D8 10789 0001:0003A2F4
 10790 0001:0003A2FC 10796 0001:0003A33A 10801 0001:0003A348 10803 0001:0003A363
 10804 0001:0003A36B 10808 0001:0003A38C 10814 0001:0003A39C 10816 0001:0003A3B8
 10817 0001:0003A3C0 10823 0001:0003A3F5 10827 0001:0003A404 10829 0001:0003A420
 10830 0001:0003A428 10834 0001:0003A44C 10839 0001:0003A45C 10841 0001:0003A478
 10842 0001:0003A480 10846 0001:0003A4A3 10851 0001:0003A4B4 10853 0001:0003A4CF
 10854 0001:0003A4D7 10858 0001:0003A4F8 10862 0001:0003A508 10864 0001:0003A524
 10865 0001:0003A52C 10869 0001:0003A54A 10876 0001:0003A558 10878 0001:0003A574
 10879 0001:0003A57C 10885 0001:0003A5BB 10891 0001:0003A5CC 10893 0001:0003A5E7
 10894 0001:0003A5EF 10900 0001:0003A629 10906 0001:0003A638 10908 0001:0003A653
 10909 0001:0003A65B 10915 0001:0003A68B 10921 0001:0003A69C 10923 0001:0003A6B7
 10924 0001:0003A6BF 10930 0001:0003A6F8 10934 0001:0003A708 10936 0001:0003A723
 10937 0001:0003A72B 10941 0001:0003A749 10944 0001:0003A758 10946 0001:0003A76D
 10947 0001:0003A775 10951 0001:0003A788 10954 0001:0003A794 10956 0001:0003A7AF
 10957 0001:0003A7B7 10961 0001:0003A7D4 10964 0001:0003A7E4 10966 0001:0003A801
 10967 0001:0003A809 10971 0001:0003A81C 10974 0001:0003A828 10976 0001:0003A83D
 10977 0001:0003A845 10981 0001:0003A856 10984 0001:0003A864 10986 0001:0003A87C
 10987 0001:0003A884 10991 0001:0003A89A 11003 0001:0003A8A8 11007 0001:0003A8E5
 10995 0001:0003A8F8 10997 0001:0003A90D 11001 0001:0003A925

Line numbers for DbxOpenOdbcDbx3Types(DbxOpenOdbcDbx3Types.pas) segment .text

  1284 0001:0003A930  1288 0001:0003A943  1292 0001:0003A988  1292 0001:0003A99B

Line numbers for StrUtils(StrUtils.pas) segment .text

   715 0001:0003A9E0   715 0001:0003A9F3

Line numbers for DBXpress(DBXpress.pas) segment .text

   469 0001:0003AA38   469 0001:0003AA4B

Line numbers for DbxOpenOdbcTrace(DbxOpenOdbcTrace.pas) segment .text

   214 0001:0003BB68   215 0001:0003BB82   216 0001:0003BBA9   217 0001:0003BBB7
   219 0001:0003BBC7   224 0001:0003BC1E   262 0001:0003BC74   264 0001:0003BC8C
   265 0001:0003BC9F   266 0001:0003BCCE   268 0001:0003BCFD   275 0001:0003BD3D
   310 0001:0003BDA8   311 0001:0003BDC0   312 0001:0003BDC6   314 0001:0003BDD6
   315 0001:0003BDE4   403 0001:0003BE14   404 0001:0003BE3F   405 0001:0003BE47
   406 0001:0003BE4E   408 0001:0003BE58   410 0001:0003BE6F   411 0001:0003BE89
   413 0001:0003BEE8   415 0001:0003BF05   417 0001:0003BF1F   419 0001:0003BF31
   420 0001:0003BF39   422 0001:0003BF60   424 0001:0003BF6D   427 0001:0003BF9D
   428 0001:0003BFA5   430 0001:0003BFB7   432 0001:0003BFC4   433 0001:0003BFCC
   435 0001:0003C01C   437 0001:0003C029   438 0001:0003C031   440 0001:0003C078
   442 0001:0003C085   444 0001:0003C098   445 0001:0003C0A0   447 0001:0003C0C3
   449 0001:0003C0D0   450 0001:0003C0D8   452 0001:0003C10A   454 0001:0003C117
   455 0001:0003C11F   457 0001:0003C132   459 0001:0003C13F   460 0001:0003C147
   462 0001:0003C17A   464 0001:0003C184   465 0001:0003C18C   467 0001:0003C19B
   469 0001:0003C1A5   480 0001:0003C1C8   481 0001:0003C1E0   482 0001:0003C200
   483 0001:0003C218   484 0001:0003C222   486 0001:0003C24D   488 0001:0003C250
   490 0001:0003C27E   408 0001:0003C281   491 0001:0003C2DD   497 0001:0003C41C
   498 0001:0003C43C   500 0001:0003C447   501 0001:0003C44D   503 0001:0003C477
   504 0001:0003C4C7   507 0001:0003C510   508 0001:0003C531   509 0001:0003C56B
   512 0001:0003C594   513 0001:0003C5AE   514 0001:0003C5B4   515 0001:0003C5F4
   518 0001:0003C634   519 0001:0003C651   520 0001:0003C688   523 0001:0003C6B0
   524 0001:0003C6D0   525 0001:0003C6DE   527 0001:0003C6E9   528 0001:0003C6EF
   530 0001:0003C719   531 0001:0003C769   534 0001:0003C7B8   535 0001:0003C7D9
   536 0001:0003C813   543 0001:0003C83C   544 0001:0003C865   545 0001:0003C8BC
   546 0001:0003C8C4   547 0001:0003C8CA   549 0001:0003C928   553 0001:0003C984
   554 0001:0003C9AB   556 0001:0003C9BD   557 0001:0003C9CA   559 0001:0003C9DC
   562 0001:0003C9EC   563 0001:0003C9F2   565 0001:0003CA0C   567 0001:0003CA14
   568 0001:0003CA1A   570 0001:0003CA47   571 0001:0003CA9A   579 0001:0003CAFC
   580 0001:0003CB19   581 0001:0003CB1F   584 0001:0003CB2C   587 0001:0003CB41
   590 0001:0003CB54   593 0001:0003CB64   596 0001:0003CB74   598 0001:0003CBB3
   601 0001:0003CBFA   607 0001:0003CCF0   609 0001:0003CE3A   604 0001:0003CE80
   605 0001:0003CE9C   606 0001:0003CEEB

Line numbers for DbxOpenOdbcUtils(DbxOpenOdbcUtils.pas) segment .text

   268 0001:0003CF30   269 0001:0003CF4F   271 0001:0003CF57   282 0001:0003CF5F
   283 0001:0003CF66   286 0001:0003CF81   288 0001:0003CF84   289 0001:0003CFC5
   295 0001:0003CFF3   301 0001:0003D068   302 0001:0003D080   303 0001:0003D08A
   304 0001:0003D092   307 0001:0003D0A0   308 0001:0003D0BB   310 0001:0003D0C5
   311 0001:0003D0CF   312 0001:0003D0D5   315 0001:0003D0DF   316 0001:0003D0E6
   319 0001:0003D0F4   320 0001:0003D10C   321 0001:0003D11E   324 0001:0003D12C
   325 0001:0003D147   326 0001:0003D162   329 0001:0003D170   330 0001:0003D188
   331 0001:0003D19A   358 0001:0003D1A8   360 0001:0003D1CA   366 0001:0003D1D0
   367 0001:0003D1D9   369 0001:0003D1DF   370 0001:0003D1EC   371 0001:0003D1F4
   372 0001:0003D1FA   375 0001:0003D217   378 0001:0003D21C   380 0001:0003D222
   381 0001:0003D228   386 0001:0003D22B   387 0001:0003D230   388 0001:0003D245
   390 0001:0003D25C   392 0001:0003D26F   395 0001:0003D2A6   400 0001:0003D2D7
   402 0001:0003D2E3   403 0001:0003D2EB   404 0001:0003D2EE   406 0001:0003D2F1
   388 0001:0003D2F4   409 0001:0003D2FD   410 0001:0003D303   411 0001:0003D309
   412 0001:0003D30C   415 0001:0003D311   418 0001:0003D31B   419 0001:0003D323
   421 0001:0003D326   422 0001:0003D32B   423 0001:0003D340   425 0001:0003D353
   428 0001:0003D380   429 0001:0003D3A7   430 0001:0003D3AA   431 0001:0003D3AD
   422 0001:0003D3B0   435 0001:0003D3B5   437 0001:0003D3C0   444 0001:0003D3C5
   445 0001:0003D3C8   442 0001:0003D3CB   456 0001:0003D3DC   457 0001:0003D3DF
   458 0001:0003D3E2   454 0001:0003D3E5   461 0001:0003D3F4   464 0001:0003D3FA
   465 0001:0003D400   466 0001:0003D403   467 0001:0003D409   469 0001:0003D40C
   470 0001:0003D429   471 0001:0003D42F   473 0001:0003D434   477 0001:0003D438
   480 0001:0003D43E   484 0001:0003D45A   486 0001:0003D45D   487 0001:0003D46D
   491 0001:0003D499   665 0001:0003D4FC   667 0001:0003D519   668 0001:0003D52B
   671 0001:0003D54A   672 0001:0003D550   673 0001:0003D557   680 0001:0003D55C
   681 0001:0003D561   682 0001:0003D565   686 0001:0003D56D   689 0001:0003D591
   690 0001:0003D5A6   691 0001:0003D5AA   693 0001:0003D5AC   682 0001:0003D5AF
   695 0001:0003D5B7   696 0001:0003D5BF   700 0001:0003D5C6   701 0001:0003D5C9
   702 0001:0003D5CC   703 0001:0003D5D2   699 0001:0003D5D5   707 0001:0003D5E5
   709 0001:0003D5F1   710 0001:0003D5F7   708 0001:0003D5FA   714 0001:0003D602
   715 0001:0003D60A   716 0001:0003D60E   717 0001:0003D614   718 0001:0003D617
   719 0001:0003D61A   722 0001:0003D61F   723 0001:0003D623   724 0001:0003D62B
   725 0001:0003D631   726 0001:0003D634   727 0001:0003D637   732 0001:0003D63A
   733 0001:0003D642   734 0001:0003D645   735 0001:0003D648   736 0001:0003D64E
   739 0001:0003D651   740 0001:0003D657   741 0001:0003D65D   742 0001:0003D664
   747 0001:0003D669   748 0001:0003D66A   749 0001:0003D66B   750 0001:0003D66C
   751 0001:0003D66F   752 0001:0003D672   753 0001:0003D675   754 0001:0003D678
   755 0001:0003D67A   756 0001:0003D67B   757 0001:0003D67C   758 0001:0003D67F
   759 0001:0003D681   760 0001:0003D683   761 0001:0003D686   762 0001:0003D688
   763 0001:0003D68B   764 0001:0003D68D   765 0001:0003D68F   766 0001:0003D691
   767 0001:0003D692   768 0001:0003D694   769 0001:0003D695   770 0001:0003D697
   771 0001:0003D69A   772 0001:0003D69C   773 0001:0003D69E   774 0001:0003D69F
   775 0001:0003D6A0   776 0001:0003D6A1   779 0001:0003D6A2   780 0001:0003D6A8
   781 0001:0003D6B1   782 0001:0003D6B7   784 0001:0003D6DC   787 0001:0003D6FC
   788 0001:0003D704   789 0001:0003D70A   791 0001:0003D713   795 0001:0003D72D
   797 0001:0003D730   798 0001:0003D740   802 0001:0003D751   818 0001:0003D790
   819 0001:0003D7AD   820 0001:0003D7B9   822 0001:0003D7DC   823 0001:0003D804
   834 0001:FFFFFFB0   837 0001:FFFFFFC0   840 0001:FFFFFFD0   843 0001:FFFFFFE0
   846 0001:FFFFFFF0   850 0001:0003D820   851 0001:0003D83B   853 0001:0003D847
   854 0001:0003D84F   855 0001:0003D855   856 0001:0003D85D   858 0001:0003D863
   859 0001:0003D86F   860 0001:0003D873   861 0001:0003D876   856 0001:0003D879
   866 0001:0003D881   867 0001:0003D88D   869 0001:0003D894   871 0001:0003D89E
   889 0001:0003D8AC   890 0001:0003D8C7   893 0001:0003D8CE   894 0001:0003D8D4
   895 0001:0003D8DA   896 0001:0003D8E2   900 0001:0003D8EA   901 0001:0003D918
   905 0001:0003D922   906 0001:0003D92A   909 0001:0003D93C   911 0001:0003D948
   912 0001:0003D960   913 0001:0003D965   914 0001:0003D96A   921 0001:0003D995
   922 0001:0003D9A1   923 0001:0003D9A7   926 0001:0003D9AD   929 0001:0003D9BB
   930 0001:0003D9C1   931 0001:0003D9C4   935 0001:0003D9CC   936 0001:0003D9D4
   937 0001:0003D9D8   898 0001:0003D9DC   942 0001:0003D9E1   943 0001:0003D9E7
   944 0001:0003D9F3   947 0001:0003DA24   949 0001:0003DA3C   950 0001:0003DA67
   952 0001:0003DA6D   953 0001:0003DA88   955 0001:0003DA92   962 0001:0003DAA0
   969 0001:0003DABB   971 0001:0003DAC7   972 0001:0003DAD0   976 0001:0003DAF9
   977 0001:0003DB0E   978 0001:0003DB14   981 0001:0003DB23   984 0001:0003DB2B
   987 0001:0003DB3C   995 0001:0003DB57   998 0001:0003DB78   999 0001:0003DB7E
  1001 0001:0003DB8C  1002 0001:0003DB97  1005 0001:0003DBA4  1006 0001:0003DBBC
  1007 0001:0003DBC7  1009 0001:0003DBCD  1010 0001:0003DBEB  1014 0001:0003DBFB
  1015 0001:0003DC05  1017 0001:0003DC0D  1025 0001:0003DC18  1026 0001:0003DC35
  1027 0001:0003DC41  1030 0001:0003DC5C  1031 0001:0003DC66  1033 0001:0003DC86
  1036 0001:0003DCA0  1037 0001:0003DCB5  1038 0001:0003DCBB  1040 0001:0003DCC2
  1041 0001:0003DCD9  1073 0001:0003DCE4  1074 0001:0003DCE8  1076 0001:0003DCEA
  1077 0001:0003DCEC  1079 0001:0003DCEE  1080 0001:0003DCF1  1081 0001:0003DCF4
  1082 0001:0003DCF7  1083 0001:0003DCF9  1084 0001:0003DCFD  1085 0001:0003DCFF
  1087 0001:0003DD00  1088 0001:0003DD02  1155 0001:0003DD0C  1156 0001:0003DD27
  1157 0001:0003DD2D  1158 0001:0003DD33  1159 0001:0003DD38  1161 0001:0003DD40
  1162 0001:0003DD4A  1164 0001:0003DD54  1166 0001:0003DD65  1167 0001:0003DD72
  1170 0001:0003DD74  1171 0001:0003DD78  1172 0001:0003DD7C  1159 0001:0003DD7F
  1174 0001:0003DD87  1175 0001:0003DD8F  1253 0001:0003DD9C  1254 0001:0003DDB7
  1256 0001:0003DDCB  1257 0001:0003DDD6  1258 0001:0003DDE4  1261 0001:0003DDEB
  1262 0001:0003DDF0  1264 0001:0003DDF6  1265 0001:0003DE0B  1267 0001:0003DE19
  1268 0001:0003DE21  1269 0001:0003DE2C  1272 0001:0003DE38  1273 0001:0003DE53
  1275 0001:0003DE67  1276 0001:0003DE72  1277 0001:0003DE80  1280 0001:0003DE87
  1281 0001:0003DE8C  1283 0001:0003DE92  1284 0001:0003DEA9  1286 0001:0003DEB9
  1287 0001:0003DEC1  1288 0001:0003DECE  1438 0001:0003DEDC  1439 0001:0003DEFD
  1441 0001:0003DF0B  1442 0001:0003DF21  1443 0001:0003DF36  1444 0001:0003DF41
  1448 0001:0003DF50  1449 0001:0003DF5A  1451 0001:0003DF7A  1483 0001:0003DF98
  1484 0001:0003DFB3  1486 0001:0003DFC2  1487 0001:0003DFCD  1488 0001:0003DFE2
  1491 0001:0003DFEF  1492 0001:0003DFF9  1493 0001:0003E009  1496 0001:0003E014
  1497 0001:0003E02F  1498 0001:0003E035  1500 0001:0003E042  1501 0001:0003E056
  1502 0001:0003E066  1514 0001:0003E074  1515 0001:0003E095  1516 0001:0003E09B
  1518 0001:0003E0A8  1519 0001:0003E0C7  1520 0001:0003E0EF  1523 0001:0003E10C
  1524 0001:0003E127  1525 0001:0003E12D  1527 0001:0003E13A  1528 0001:0003E14E
  1529 0001:0003E15E  1532 0001:0003E16C  1533 0001:0003E181  1534 0001:0003E19B
  1542 0001:0003E1A8  1543 0001:0003E1BD  1544 0001:0003E1F4  1547 0001:0003E200
  1548 0001:0003E215  1549 0001:0003E24D  1562 0001:0003E258  1563 0001:0003E26D
  1564 0001:0003E2A4  1567 0001:0003E2B0  1568 0001:0003E2C5  1569 0001:0003E2FD
  1600 0001:0003E308  1601 0001:0003E329  1602 0001:0003E32F  1604 0001:0003E347
  1605 0001:0003E36A  1608 0001:0003E384  1609 0001:0003E39C  1610 0001:0003E3AA
  1612 0001:0003E3B4  1613 0001:0003E3BF  1616 0001:0003E3CC  1617 0001:0003E3E9
  1618 0001:0003E3F8  1620 0001:0003E402  1621 0001:0003E430  1627 0001:0003E44C
  1628 0001:0003E464  1630 0001:0003E46A  1631 0001:0003E470  1633 0001:0003E476
  1636 0001:0003E47C  1637 0001:0003E482  1639 0001:0003E488  1640 0001:0003E49C
  1675 0001:0003E4A8  1676 0001:0003E4C0  1677 0001:0003E4D2  1700 0001:0003E4E0
  1701 0001:0003E4F8  1702 0001:0003E50E  1719 0001:0003E51C  1720 0001:0003E534
  1722 0001:0003E53A  1723 0001:0003E540  1725 0001:0003E546  1728 0001:0003E54C
  1729 0001:0003E552  1731 0001:0003E558  1732 0001:0003E56C  1767 0001:0003E578
  1768 0001:0003E590  1769 0001:0003E5A4  1772 0001:0003E5B0  1773 0001:0003E5C8
  1774 0001:0003E5DC  1787 0001:0003E5E8  1788 0001:0003E5FD  1789 0001:0003E603
  1790 0001:0003E611  1791 0001:0003E619  1794 0001:0003E624  1795 0001:0003E639
  1796 0001:0003E64C  1799 0001:0003E658  1800 0001:0003E670  1801 0001:0003E67E
  1803 0001:0003E68B  1804 0001:0003E693  1807 0001:0003E6A0  1808 0001:0003E6B8
  1809 0001:0003E6E3  1811 0001:0003E6F0  1812 0001:0003E6F8  1839 0001:0003E704
  1840 0001:0003E721  1841 0001:0003E727  1843 0001:0003E741  1844 0001:0003E761
  1847 0001:0003E77C  1848 0001:0003E794  1849 0001:0003E7A4  1851 0001:0003E7AE
  1852 0001:0003E7B9  1870 0001:0003E7D4  1871 0001:0003E7F4  1872 0001:0003E83A
  1886 0001:0003E854  1887 0001:0003E874  1889 0001:0003E8A2  1876 0001:0003E8B4
  1881 0001:0003E8C9  1885 0001:0003E907

Line numbers for SqlConst(SqlConst.pas) segment .text

   145 0001:0003EA28   145 0001:0003EA47

Line numbers for IniFiles(IniFiles.pas) segment .text

   945 0001:0003EABC   945 0001:0003EACF

Line numbers for DBConnAdmin(DBConnAdmin.pas) segment .text

   248 0001:0003EB14   248 0001:0003EB27

Line numbers for SqlExpr(SqlExpr.pas) segment .text

  5193 0001:0003EB6C  5193 0001:0003EB7F

Line numbers for DbxOpenOdbcCallback(DbxOpenOdbcCallback.pas) segment .text

   107 0001:0003EB8C   108 0001:0003EBA5   109 0001:0003EC5E   110 0001:0003EC71
   111 0001:0003EC84   112 0001:0003EC97   113 0001:0003ECAA   114 0001:0003ECBD
   115 0001:0003ECD0   116 0001:0003ECE3   117 0001:0003ECF6   118 0001:0003ED06
   119 0001:0003ED16   120 0001:0003ED26   122 0001:0003ED36   123 0001:0003ED46
   124 0001:0003ED56   126 0001:0003ED66   128 0001:0003ED76   130 0001:0003ED84
   159 0001:0003EEEC   159 0001:0003EEFF

Line numbers for RegExpr(RegExpr.pas) segment .text

   750 0001:0003EF7C   751 0001:0003EF94   753 0001:0003EF98   754 0001:0003EFA2
   755 0001:0003EFB8   756 0001:0003EFC4   758 0001:0003EFE5   761 0001:0003EFEB
   762 0001:0003F00F   767 0001:0003F02C   768 0001:0003F044   770 0001:0003F048
   771 0001:0003F052   772 0001:0003F068   773 0001:0003F074   775 0001:0003F095
   778 0001:0003F09B   779 0001:0003F0BF  1184 0001:0003F0F4  1185 0001:0003F103
  1186 0001:0003F270  1187 0001:0003F280  1188 0001:0003F290  1189 0001:0003F2A0
  1190 0001:0003F2B0  1191 0001:0003F2C0  1192 0001:0003F2D0  1193 0001:0003F2E0
  1194 0001:0003F2F0  1195 0001:0003F300  1196 0001:0003F310  1197 0001:0003F320
  1198 0001:0003F330  1199 0001:0003F340  1200 0001:0003F350  1201 0001:0003F360
  1202 0001:0003F370  1203 0001:0003F380  1204 0001:0003F390  1205 0001:0003F3A0
  1206 0001:0003F3B0  1207 0001:0003F3C0  1208 0001:0003F3D0  1209 0001:0003F3E0
  1210 0001:0003F3F0  1212 0001:0003F400  1213 0001:0003F410  1214 0001:0003F420
  1215 0001:0003F430  1216 0001:0003F440  1217 0001:0003F450  1218 0001:0003F460
  1219 0001:0003F470  1220 0001:0003F480  1221 0001:0003F490  1222 0001:0003F4A0
  1223 0001:0003F4B0  1225 0001:0003F4C0  1226 0001:0003F4D0  1228 0001:0003F4DD
  1256 0001:0003FCA0  1257 0001:0003FCC7  1258 0001:0003FCD0  1259 0001:0003FCD8
  1260 0001:0003FCE0  1262 0001:0003FCE8  1263 0001:0003FCF0  1265 0001:0003FCF7
  1266 0001:0003FD0B  1267 0001:0003FD1F  1268 0001:0003FD33  1269 0001:0003FD47
  1271 0001:0003FD5B  1272 0001:0003FD6E  1273 0001:0003FD81  1275 0001:0003FD98
  1276 0001:0003FDAB  1277 0001:0003FDD6  1281 0001:0003FDF4  1282 0001:0003FE0C
  1283 0001:0003FE16  1284 0001:0003FE1B  1285 0001:0003FE24  1286 0001:0003FE2F
  1287 0001:0003FE38  1288 0001:0003FE50  1292 0001:0003FE68  1299 0001:0003FE78
  1300 0001:0003FE82  1301 0001:0003FE87  1303 0001:0003FE91  1317 0001:0003FEA4
  1318 0001:0003FEC1  1319 0001:0003FEE4  1320 0001:0003FEEB  1321 0001:0003FEF4
  1322 0001:0003FEFF  1324 0001:0003FF07  1325 0001:0003FF0B  1326 0001:0003FF15
  1331 0001:0003FF24  1334 0001:0003FF44  1337 0001:0003FF63  1341 0001:0003FF80
  1342 0001:0003FF8C  1343 0001:0003FF95  1346 0001:0003FF9C  1344 0001:0003FF9D
  1348 0001:0003FFC8  1349 0001:0003FFCD  1353 0001:0003FFDC  1354 0001:0003FFE9
  1356 0001:00040020  1358 0001:0004003A  1359 0001:00040044  1373 0001:00040058
  1374 0001:00040069  1377 0001:000400A0  1378 0001:000400DA  1379 0001:000400E2
  1417 0001:00040100  1418 0001:00040128  1419 0001:0004012C  1420 0001:00040130
  1421 0001:00040135  1422 0001:0004014C  1423 0001:00040166  1425 0001:0004016F
  1426 0001:000401A0  1427 0001:000401AC  1428 0001:000401DD  1429 0001:000401E9
  1430 0001:0004021A  1431 0001:00040226  1432 0001:00040257  1433 0001:00040260
  1434 0001:00040291  1435 0001:0004029A  1436 0001:000402CB  1438 0001:000402D4
  1439 0001:000402D8  1441 0001:000402DA  1442 0001:000402E0  1443 0001:000402EA
  1444 0001:000402F4  1421 0001:000402F5  1445 0001:0004031C  1458 0001:00040384
  1459 0001:00040396  1460 0001:0004039A  1461 0001:000403C6  1462 0001:000403D0
  1463 0001:000403DA  1464 0001:000403E4  1465 0001:000403EE  1466 0001:000403F8
  1468 0001:00040402  1469 0001:0004040D  1472 0001:0004040F  1473 0001:00040420
  1479 0001:0004043C  1480 0001:0004044B  1481 0001:00040477  1482 0001:0004047E
  1483 0001:00040485  1484 0001:0004048C  1485 0001:00040493  1486 0001:0004049A
  1488 0001:000404A1  1489 0001:000404AC  1492 0001:000404AF  1493 0001:000404B3
  1494 0001:000404BB  1495 0001:000404C3  1504 0001:000404D8  1505 0001:000404E7
  1506 0001:000404F1  1507 0001:000404F6  1509 0001:000404FE  1513 0001:00040510
  1514 0001:0004051F  1515 0001:00040528  1516 0001:00040533  1518 0001:00040536
  1519 0001:00040543  1527 0001:00040554  1528 0001:00040567  1531 0001:0004056B
  1532 0001:00040579  1536 0001:00040580  1538 0001:00040595  1537 0001:000405DC
  1542 0001:000405DF  1543 0001:000405E8  1546 0001:000405EF  1548 0001:000405F8
  1549 0001:00040603  1550 0001:00040610  1551 0001:00040617  1560 0001:00040660
  1561 0001:00040677  1564 0001:00040683  1566 0001:00040685  1567 0001:0004068F
  1569 0001:00040693  1570 0001:00040695  1572 0001:00040697  1573 0001:0004069D
  1581 0001:000406AA  1582 0001:000406B3  1587 0001:000406CC  1589 0001:000406DB
  1591 0001:000406EE  1592 0001:000406F8  1597 0001:0004070C  1598 0001:00040719
  1599 0001:0004071F  1600 0001:00040729  1601 0001:00040731  1602 0001:00040737
  1603 0001:00040741  1605 0001:0004074A  1606 0001:00040753  1611 0001:00040764
  1612 0001:00040771  1613 0001:00040781  1614 0001:00040783  1616 0001:0004078C
  1617 0001:00040792  1626 0001:000407A4  1627 0001:000407BB  1628 0001:000407D1
  1629 0001:000407DD  1631 0001:000407DF  1632 0001:000407E8  1633 0001:000407F4
  1634 0001:00040800  1635 0001:00040804  1636 0001:00040807  1637 0001:00040808
  1634 0001:00040811  1639 0001:00040815  1640 0001:00040817  1641 0001:00040819
  1642 0001:0004081A  1643 0001:00040826  1644 0001:00040829  1642 0001:0004082A
  1646 0001:0004082F  1653 0001:00040840  1654 0001:00040852  1655 0001:00040858
  1657 0001:0004085E  1659 0001:00040863  1661 0001:0004086B  1658 0001:0004086C
  1662 0001:00040872  1663 0001:00040876  1656 0001:0004087A  1665 0001:00040887
  1718 0001:0004089C  1719 0001:000408B6  1721 0001:000408BA  1722 0001:000408C5
  1725 0001:000408D1  1726 0001:000408DD  1727 0001:000408EB  1730 0001:000408F6
  1731 0001:000408FC  1732 0001:00040908  1735 0001:00040912  1739 0001:00040924
  1740 0001:00040936  1741 0001:00040942  1742 0001:0004094F  1743 0001:0004095A
  1744 0001:0004096B  1745 0001:00040975  1746 0001:00040986  1756 0001:00040990
  1759 0001:000409A7  1760 0001:000409B9  1761 0001:000409C5  1762 0001:000409D2
  1763 0001:000409E4  1764 0001:000409EE  1765 0001:000409FF  1769 0001:00040A09
  1770 0001:00040A1F  1772 0001:00040A31  1773 0001:00040A3B  1774 0001:00040A45
  1775 0001:00040A50  1776 0001:00040A5B  1777 0001:00040A65  1778 0001:00040A78
  1781 0001:00040A7B  1782 0001:00040A80  1783 0001:00040A90  1784 0001:00040A95
  1792 0001:00040A9E  1793 0001:00040AA4  1794 0001:00040AA9  1795 0001:00040AAE
  1796 0001:00040AB2  1798 0001:00040AC4  1799 0001:00040ACA  1801 0001:00040AD5
  1795 0001:00040AE1  1803 0001:00040AE5  1804 0001:00040AF1  1808 0001:00040B06
  1811 0001:00040B12  1812 0001:00040B18  1813 0001:00040B20  1814 0001:00040B2B
  1818 0001:00040B42  1832 0001:00040B84  1833 0001:00040B9E  1834 0001:00040BA4
  1835 0001:00040BAE  1836 0001:00040BB4  1839 0001:00040BBE  1840 0001:00040BC4
  1841 0001:00040BCD  1842 0001:00040BD8  1844 0001:00040BDD  1845 0001:00040BE7
  1846 0001:00040BED  1848 0001:00040C01  1851 0001:00040C07  1852 0001:00040C14
  1853 0001:00040C18  1854 0001:00040C1E  1856 0001:00040C23  1857 0001:00040C2A
  1858 0001:00040C39  1859 0001:00040C3D  1860 0001:00040C44  1861 0001:00040C4B
  1863 0001:00040C5A  1864 0001:00040C60  1865 0001:00040C6D  1866 0001:00040C71
  1867 0001:00040C77  1869 0001:00040C7C  1870 0001:00040C89  1871 0001:00040C90
  1872 0001:00040C97  1862 0001:00040CA4  1876 0001:00040CAF  1877 0001:00040CB5
  1878 0001:00040CC9  1879 0001:00040CD6  1882 0001:00040CE5  1883 0001:00040CE9
  1884 0001:00040CED  1885 0001:00040CFA  1883 0001:00040D05  1889 0001:00040D09
  1890 0001:00040D0F  1891 0001:00040D1A  1892 0001:00040D25  1894 0001:00040D27
  1895 0001:00040D2D  1896 0001:00040D3E  1897 0001:00040D49  1898 0001:00040D56
  1899 0001:00040D61  1901 0001:00040D63  1902 0001:00040D6D  1903 0001:00040D79
  1912 0001:00040D98  1913 0001:00040DAE  1915 0001:00040DB5  1916 0001:00040DC2
  1919 0001:00040DCA  1920 0001:00040DD7  1921 0001:00040DDB  1922 0001:00040DE1
  1924 0001:00040DE3  1925 0001:00040DEF  1926 0001:00040DF6  1927 0001:00040E04
  1928 0001:00040E11  1917 0001:00040E15  1930 0001:00040E36  1931 0001:00040E3D
  1932 0001:00040E46  1933 0001:00040E52  1944 0001:00040E74  1945 0001:00040E88
  1946 0001:00040E8A  1947 0001:00040E95  1948 0001:00040EA4  1950 0001:00040EA6
  1951 0001:00040EAB  1952 0001:00040EBD  1950 0001:00040EBE  1954 0001:00040EC3
  1955 0001:00040ECF  1956 0001:00040EDE  1958 0001:00040EE0  1975 0001:00040EEC
  1979 0001:00040F0B  1980 0001:00040F0F  1981 0001:00040F18  1982 0001:00040F1F
  1983 0001:00040F30  1984 0001:00040F43  1985 0001:00040F57  1987 0001:00040F6C
  1988 0001:00040F71  1989 0001:00040F7A  1990 0001:00040F87  1991 0001:00040F90
  1992 0001:00040F9D  1994 0001:00040FA8  1995 0001:00040FB1  1996 0001:00040FC4
  1997 0001:00040FD8  1999 0001:00040FEF  2003 0001:00040FFC  2004 0001:00041012
  2005 0001:00041016  2006 0001:0004101F  2007 0001:00041026  2008 0001:0004103F
  2009 0001:0004105B  2010 0001:00041067  2012 0001:00041079  2014 0001:00041084
  2015 0001:000410A4  2016 0001:000410B2  2019 0001:000410BC  2020 0001:000410C7
  2021 0001:000410D7  2022 0001:000410DF  2024 0001:000410E4  2025 0001:000410EE
  2026 0001:000410FA  2029 0001:000410FF  2031 0001:00041120  2032 0001:00041129
  2033 0001:0004113A  2034 0001:00041155  2035 0001:0004115F  2036 0001:00041165
  2038 0001:0004117B  2039 0001:0004118A  2040 0001:000411A1  2041 0001:000411AF
  2042 0001:000411C6  2046 0001:000411DF  2047 0001:000411E5  2048 0001:000411EB
  2049 0001:000411EF  2051 0001:000411FF  2052 0001:00041209  2055 0001:00041217
  2056 0001:00041220  2057 0001:00041231  2058 0001:0004124C  2059 0001:00041256
  2060 0001:0004125C  2062 0001:00041275  2063 0001:00041282  2064 0001:00041290
  2065 0001:000412A7  2066 0001:000412BE  2070 0001:000412D7  2071 0001:000412DD
  2072 0001:000412E3  2073 0001:000412E7  2075 0001:000412F7  2076 0001:00041301
  2079 0001:0004130F  2080 0001:00041316  2081 0001:00041327  2082 0001:00041342
  2083 0001:00041348  2084 0001:0004134E  2085 0001:00041361  2088 0001:00041374
  2089 0001:00041383  2090 0001:0004139A  2091 0001:000413A7  2092 0001:000413B5
  2094 0001:000413C3  2095 0001:000413CD  2098 0001:000413DB  2101 0001:000413E7
  2102 0001:000413F0  2104 0001:000413FE  2103 0001:00041407  2105 0001:0004142C
  2106 0001:00041456  2107 0001:00041462  2108 0001:0004146A  2110 0001:0004146F
  2111 0001:00041486  2112 0001:00041498  2113 0001:000414A1  2115 0001:000414AF
  2114 0001:000414B8  2116 0001:000414DD  2117 0001:000414EB  2118 0001:000414F7
  2120 0001:000414FC  2121 0001:0004150A  2122 0001:00041513  2124 0001:0004152C
  2125 0001:00041532  2126 0001:0004153A  2127 0001:00041546  2129 0001:0004154B
  2130 0001:00041551  2131 0001:00041558  2132 0001:0004155E  2134 0001:0004156E
  2135 0001:0004157F  2136 0001:0004159A  2137 0001:000415A0  2138 0001:000415B2
  2139 0001:000415C2  2140 0001:000415C8  2145 0001:000415D1  2146 0001:000415DA
  2147 0001:000415F5  2148 0001:00041601  2150 0001:00041621  2178 0001:00041654
  2179 0001:00041667  2180 0001:00041676  2181 0001:0004168B  2182 0001:0004169E
  2183 0001:000416AC  2184 0001:000416B9  2185 0001:000416CF  2195 0001:000416DC
  2196 0001:000416EC  2197 0001:000416EE  2198 0001:000416F6  2199 0001:000416F8
  2200 0001:00041708  2201 0001:00041717  2203 0001:00041719  2204 0001:00041724
  2205 0001:00041728  2206 0001:0004172D  2209 0001:00041734  2211 0001:00041749
  2213 0001:00041754  2215 0001:00041763  2217 0001:00041770  2219 0001:0004177B
  2221 0001:00041784  2223 0001:0004178B  2224 0001:0004179D  2225 0001:000417AF
  2226 0001:000417B7  2227 0001:000417CA  2228 0001:000417D1  2234 0001:000417D8
  2238 0001:00041808  2239 0001:0004181B  2241 0001:0004182D  2242 0001:00041833
  2243 0001:0004183E  2244 0001:00041847  2245 0001:00041852  2246 0001:0004185B
  2247 0001:0004186B  2255 0001:00041878  2256 0001:0004188F  2258 0001:00041896
  2259 0001:0004189C  2260 0001:000418A9  2261 0001:000418B6  2268 0001:000418DA
  2269 0001:000418E7  2270 0001:00041903  2271 0001:00041918  2273 0001:0004191D
  2274 0001:0004192F  2275 0001:00041943  2276 0001:00041954  2277 0001:00041962
  2278 0001:0004196E  2274 0001:0004196F  2281 0001:00041976  2282 0001:0004198A
  2280 0001:00041996  2286 0001:000419B4  2287 0001:000419D0  2288 0001:000419E5
  2290 0001:000419EA  2291 0001:000419F9  2292 0001:00041A29  2293 0001:00041A36
  2294 0001:00041A48  2295 0001:00041A64  2301 0001:00041A71  2304 0001:00041AA0
  2305 0001:00041AAF  2306 0001:00041AB5  2307 0001:00041ABF  2308 0001:00041AC6
  2312 0001:00041ACC  2314 0001:00041AE1  2313 0001:00041B16  2315 0001:00041B19
  2318 0001:00041B28  2319 0001:00041B3B  2320 0001:00041B9C  2321 0001:00041BA5
  2322 0001:00041BAE  2323 0001:00041BB7  2324 0001:00041BC0  2325 0001:00041BC9
  2327 0001:00041BD2  2328 0001:00041BD6  2329 0001:00041BD8  2330 0001:00041BDF
  2331 0001:00041BEE  2333 0001:00041BF3  2335 0001:00041BFA  2336 0001:00041BFC
  2337 0001:00041C03  2338 0001:00041C12  2340 0001:00041C17  2341 0001:00041C22
  2343 0001:00041C2E  2344 0001:00041C3D  2346 0001:00041C3F  2350 0001:00041C58
  2353 0001:00041C5A  2355 0001:00041C6B  2356 0001:00041C6D  2357 0001:00041C74
  2358 0001:00041C83  2360 0001:00041C85  2364 0001:00041CA0  2366 0001:00041CAA
  2368 0001:00041CB8  2369 0001:00041CD9  2370 0001:00041CDB  2372 0001:00041CE2
  2373 0001:00041CEB  2374 0001:00041D72  2376 0001:00041D96  2377 0001:00041DA8
  2378 0001:00041DBA  2380 0001:00041DDE  2381 0001:00041DF0  2383 0001:00041E02
  2384 0001:00041E0E  2385 0001:00041E1B  2388 0001:00041E30  2389 0001:00041E3D
  2397 0001:00041E48  2398 0001:00041E56  2399 0001:00041E62  2400 0001:00041E70
  2401 0001:00041E7C  2404 0001:00041E87  2405 0001:00041E93  2406 0001:00041EA1
  2408 0001:00041EAD  2410 0001:00041EB1  2411 0001:00041EC3  2412 0001:00041ED5
  2416 0001:00041EE3  2419 0001:00041F15  2420 0001:00041F1E  2421 0001:00041F2C
  2427 0001:00041F32  2429 0001:00041F50  2430 0001:00041F59  2432 0001:00041F5E
  2433 0001:00041F67  2437 0001:00041F79  2439 0001:00041F91  2441 0001:00041FA3
  2443 0001:00041FBB  2445 0001:00041FCA  2447 0001:00041FE2  2448 0001:00041FEF
  2451 0001:00041FFE  2452 0001:00042006  2453 0001:00042012  2455 0001:00042017
  2456 0001:0004201A  2457 0001:00042024  2458 0001:0004202C  2459 0001:00042036
  2457 0001:00042039  2462 0001:00042041  2465 0001:0004204F  2466 0001:00042061
  2467 0001:0004206A  2468 0001:00042078  2469 0001:00042084  2471 0001:00042089
  2472 0001:000420A2  2473 0001:000420B1  2474 0001:000420C3  2475 0001:000420D5
  2478 0001:000420ED  2479 0001:000420FF  2415 0001:00042108  2482 0001:00042128
  2483 0001:00042131  2484 0001:0004213F  2485 0001:0004214B  2487 0001:00042150
  2488 0001:00042159  2491 0001:0004216E  2493 0001:00042180  2494 0001:0004218F
  2496 0001:0004219B  2495 0001:000421A4  2497 0001:000421C0  2498 0001:000421CE
  2499 0001:000421DA  2501 0001:000421DF  2502 0001:000421E8  2505 0001:000421FA
  2506 0001:00042203  2508 0001:00042211  2507 0001:0004221A  2509 0001:00042236
  2511 0001:00042286  2512 0001:00042292  2514 0001:00042297  2515 0001:000422A0
  2521 0001:000422B2  2522 0001:000422C5  2523 0001:000422CB  2524 0001:000422CD
  2526 0001:000422D2  2530 0001:000422E2  2531 0001:000422EE  2534 0001:000422F3
  2535 0001:000422FF  2538 0001:00042304  2539 0001:00042312  2540 0001:0004231E
  2542 0001:00042323  2543 0001:0004239B  2544 0001:000423AD  2545 0001:000423BF
  2546 0001:000423D1  2548 0001:000423E3  2549 0001:000423F0  2552 0001:00042405
  2553 0001:00042412  2557 0001:00042427  2558 0001:00042433  2559 0001:00042443
  2563 0001:0004244C  2567 0001:00042461  2568 0001:0004246D  2569 0001:0004247D
  2573 0001:00042486  2577 0001:0004249B  2578 0001:000424A7  2579 0001:000424B7
  2583 0001:000424C0  2587 0001:000424D5  2588 0001:000424E1  2589 0001:000424F1
  2593 0001:000424FA  2596 0001:0004250C  2597 0001:00042518  2598 0001:00042527
  2599 0001:00042534  2600 0001:0004254A  2602 0001:0004255C  2604 0001:00042572
  2607 0001:00042580  2608 0001:00042589  2612 0001:000425C4  2615 0001:000425D4
  2614 0001:000425DD  2617 0001:00042609  2616 0001:00042612  2622 0001:00042630
  2621 0001:00042639  2624 0001:00042652  2627 0001:00042664  2628 0001:0004267B
  2629 0001:00042681  2630 0001:0004268F  2631 0001:0004269B  2633 0001:000426A0
  2634 0001:000426B9  2635 0001:000426CA  2637 0001:000426E8  2638 0001:000426EB
  2639 0001:000426F1  2640 0001:000426F7  2641 0001:000426FD  2642 0001:00042709
  2643 0001:00042718  2646 0001:00042727  2649 0001:0004274C  2650 0001:0004275F
  2651 0001:00042768  2644 0001:0004276B  2653 0001:0004278B  2658 0001:00042795
  2659 0001:000427B7  2663 0001:0004284C  2664 0001:00042858  2665 0001:0004285A
  2667 0001:0004286C  2668 0001:0004287A  2696 0001:00042888  2697 0001:000428A5
  2698 0001:000428AB  2699 0001:000428B4  2700 0001:000428BC  2701 0001:000428CB
  2702 0001:000428D5  2703 0001:000428DD  2707 0001:0004294F  2708 0001:00042957
  2713 0001:00042960  2714 0001:00042964  2712 0001:00042965  2720 0001:0004297E
  2721 0001:00042982  2719 0001:00042983  2723 0001:00042993  2724 0001:000429A1
  2727 0001:000429B8  2728 0001:000429BC  2725 0001:000429BD  2733 0001:000429DE
  2734 0001:000429FA  2736 0001:00042A05  2737 0001:00042A24  2740 0001:00042A2F
  2741 0001:00042A33  2742 0001:00042A39  2744 0001:00042A52  2745 0001:00042A53
  2741 0001:00042A54  2747 0001:00042A5A  2748 0001:00042A5E  2749 0001:00042A67
  2752 0001:00042A76  2753 0001:00042A92  2755 0001:00042A9D  2756 0001:00042ABC
  2759 0001:00042AC7  2760 0001:00042ACB  2761 0001:00042AD1  2764 0001:00042AFF
  2765 0001:00042B00  2760 0001:00042B01  2767 0001:00042B07  2768 0001:00042B0B
  2769 0001:00042B14  2774 0001:00042B23  2775 0001:00042B27  2772 0001:00042B28
  2780 0001:00042B49  2781 0001:00042B4D  2778 0001:00042B4E  2818 0001:00042B6B
  2819 0001:00042B6F  2815 0001:00042B70  2826 0001:00042B94  2827 0001:00042B98
  2823 0001:00042B99  2834 0001:00042BBD  2835 0001:00042BC1  2832 0001:00042BC2
  2863 0001:00042BDA  2864 0001:00042BE0  2865 0001:00042BEC  2868 0001:00042BEE
  2869 0001:00042BFB  2875 0001:00042C20  2876 0001:00042C2D  2877 0001:00042C36
  2878 0001:00042C3B  2880 0001:00042C3D  2881 0001:00042C42  2882 0001:00042C46
  2883 0001:00042C4D  2884 0001:00042C55  2908 0001:00042C68  2909 0001:00042C8C
  2910 0001:00042C90  2912 0001:00042C92  2913 0001:00042C9A  2914 0001:00042CA2
  2915 0001:00042CA8  2916 0001:00042CAF  2918 0001:00042CB7  2921 0001:00042DAF
  2928 0001:00042E7F  2930 0001:00042E84  2931 0001:00042E96  2932 0001:00042E9B
  2933 0001:00042EAA  2934 0001:00042EAF  2935 0001:00042EC1  2936 0001:00042ECD
  2940 0001:00042EFE  2945 0001:00042F1D  2949 0001:00042F32  2952 0001:00042F37
  2953 0001:00042F46  2954 0001:00042F51  2957 0001:00042F71  2963 0001:00042F9F
  2967 0001:00042FB4  2971 0001:00042FB9  2973 0001:00042FC8  2976 0001:00042FD3
  2982 0001:00043021  2985 0001:0004302C  2987 0001:00043059  2990 0001:00043064
  2992 0001:0004308D  3017 0001:00043098  3019 0001:0004309F  3022 0001:000430CD
  3024 0001:000430E1  3025 0001:000430E7  3026 0001:000430F0  3027 0001:000430F6
  3028 0001:000430F9  3029 0001:000430FC  3032 0001:00043124  3026 0001:00043127
  3035 0001:0004312D  3038 0001:0004313B  3040 0001:00043142  3042 0001:00043155
  3044 0001:00043169  3045 0001:0004316F  3046 0001:00043178  3047 0001:0004317E
  3048 0001:00043181  3049 0001:00043184  3051 0001:00043194  3046 0001:00043197
  3054 0001:0004319D  3057 0001:000431AB  3058 0001:000431B6  3060 0001:000431CE
  3062 0001:000431E9  3063 0001:000431F2  3065 0001:00043208  3067 0001:00043227
  3068 0001:0004322A  3064 0001:0004322D  3070 0001:00043246  3073 0001:00043254
  3074 0001:0004325F  3076 0001:00043277  3078 0001:00043292  3079 0001:0004329B
  3081 0001:000432B1  3084 0001:000432E8  3085 0001:000432EB  3080 0001:000432EE
  3087 0001:00043307  3090 0001:00043315  3095 0001:00043359  3098 0001:00043364
  3103 0001:000433AC  3107 0001:000433B7  3110 0001:000433DF  3138 0001:000433EA
  3140 0001:000433F4  3141 0001:00043408  3142 0001:0004341F  3143 0001:0004342C
  3144 0001:00043436  3149 0001:0004344A  3152 0001:0004344F  3154 0001:00043459
  3155 0001:00043470  3156 0001:0004348A  3157 0001:00043497  3158 0001:000434A1
  3163 0001:000434B8  3166 0001:000434BD  3167 0001:000434C5  3170 0001:000434D1
  3171 0001:000434DA  3172 0001:000434E7  3174 0001:000434F1  3175 0001:000434FA
  3176 0001:00043505  3177 0001:00043512  3182 0001:00043517  3183 0001:00043520
  3184 0001:00043526  3185 0001:0004352F  3186 0001:0004353A  3188 0001:0004353F
  3189 0001:00043548  3190 0001:00043563  3191 0001:00043570  3192 0001:00043579
  3194 0001:00043583  3195 0001:0004358C  3198 0001:00043591  3199 0001:0004359A
  3200 0001:000435A5  3202 0001:000435AA  3203 0001:000435BA  3204 0001:000435C2
  3205 0001:000435CD  3206 0001:000435D6  3207 0001:000435F8  3209 0001:00043601
  3210 0001:0004361F  3211 0001:00043638  3212 0001:00043641  3213 0001:0004364E
  3214 0001:00043657  3216 0001:00043661  3218 0001:0004366A  3219 0001:00043670
  3220 0001:0004367D  3221 0001:00043687  3222 0001:00043690  3226 0001:00043695
  3227 0001:000436A2  3229 0001:000436AC  3230 0001:000436B5  3231 0001:000436D3
  3232 0001:000436EC  3233 0001:000436F5  3234 0001:00043702  3235 0001:0004370B
  3237 0001:00043715  3239 0001:0004371E  3240 0001:00043724  3244 0001:00043729
  3245 0001:00043742  3246 0001:0004374B  3247 0001:00043758  3248 0001:00043761
  3250 0001:0004376B  3251 0001:00043784  3252 0001:0004378D  3259 0001:00043792
  3260 0001:00043796  3261 0001:0004379E  3262 0001:000437AA  3263 0001:000437B1
  3264 0001:000437BB  3265 0001:000437C2  3266 0001:000437CC  3268 0001:000437D5
  3269 0001:000437DD  3271 0001:000437E8  3272 0001:000437F1  3273 0001:000437F7
  3274 0001:00043801  3276 0001:00043805  3278 0001:00043818  3283 0001:00043828
  3284 0001:0004382E  3285 0001:0004383A  3287 0001:00043846  3289 0001:00043859
  3290 0001:0004386C  3292 0001:00043875  3293 0001:00043883  3294 0001:00043887
  3297 0001:0004388C  3298 0001:0004389F  3301 0001:000438A8  3284 0001:000438AB
  3303 0001:000438B3  3306 0001:000438B8  3307 0001:000438C8  3309 0001:000438D4
  3311 0001:000438E7  3312 0001:000438FA  3314 0001:00043903  3315 0001:00043911
  3316 0001:00043915  3319 0001:00043917  3320 0001:0004392A  3323 0001:00043933
  3324 0001:00043936  3307 0001:00043942  3326 0001:0004394A  3330 0001:0004394C
  3331 0001:00043950  3334 0001:00043952  3335 0001:0004395D  3338 0001:0004395F
  2912 0001:00043962  3343 0001:0004396A  3344 0001:00043995  3354 0001:000439B4
  3355 0001:000439C7  3356 0001:000439C9  3357 0001:000439D1  3358 0001:000439DD
  3360 0001:00043ACD  3362 0001:00043AE0  3366 0001:00043AE5  3367 0001:00043AEC
  3369 0001:00043B00  3371 0001:00043B11  3372 0001:00043B23  3370 0001:00043B27
  3375 0001:00043B30  3379 0001:00043B35  3380 0001:00043B48  3383 0001:00043B4D
  3384 0001:00043B82  3387 0001:00043B87  3388 0001:00043BBC  3391 0001:00043BC1
  3392 0001:00043BD2  3393 0001:00043BEF  3396 0001:00043BF4  3397 0001:00043C05
  3400 0001:00043C0A  3401 0001:00043C40  3405 0001:00043C45  3406 0001:00043C56
  3407 0001:00043C68  3409 0001:00043C7C  3413 0001:00043C81  3418 0001:00043D36
  3424 0001:00043D3B  3425 0001:00043D45  3428 0001:00043D4A  3429 0001:00043D54
  3432 0001:00043D59  3433 0001:00043D61  3436 0001:00043D6C  3437 0001:00043D76
  3438 0001:00043D81  3439 0001:00043D8E  3445 0001:00043D93  3446 0001:00043D9D
  3449 0001:00043DA2  3450 0001:00043DB0  3451 0001:00043DB9  3452 0001:00043DC4
  3453 0001:00043DCB  3454 0001:00043DD5  3458 0001:00043DD7  3460 0001:00043DE3
  3461 0001:00043DED  3464 0001:00043DEF  3465 0001:00043DF9  3466 0001:00043E02
  3467 0001:00043E0D  3468 0001:00043E14  3471 0001:00043E16  3472 0001:00043E29
  3475 0001:00043E2B  3476 0001:00043E36  3479 0001:00043E38  3356 0001:00043E3B
  3481 0001:00043E43  3486 0001:00043EE8  3487 0001:00043EF8  3488 0001:00043EFF
  3489 0001:00043F11  3517 0001:00043F28  3518 0001:00043F38  3519 0001:00043F3A
  3520 0001:00043F52  3521 0001:00043F6B  3518 0001:00043F6C  3522 0001:00043F71
  3526 0001:00043F78  3528 0001:00043F8A  3529 0001:00043F96  3530 0001:00043FAE
  3531 0001:00043FB2  3532 0001:00043FBB  3534 0001:00043FD3  3540 0001:00043FD8
  3541 0001:00043FF6  3543 0001:00043FFA  3548 0001:00044001  3552 0001:00044011
  3553 0001:0004401D  3554 0001:00044029  3557 0001:0004402E  3560 0001:0004404A
  3561 0001:00044050  3562 0001:0004405C  3566 0001:00044061  3569 0001:0004406E
  3572 0001:0004407E  3573 0001:0004408A  3575 0001:0004408D  3576 0001:000440A1
  3577 0001:000440A5  3579 0001:000440CB  3581 0001:000440CC  3582 0001:000440D0
  3587 0001:000440D8  3591 0001:000440EA  3595 0001:000440FF  3599 0001:0004410A
  3600 0001:00044116  3601 0001:00044123  3605 0001:00044125  3606 0001:00044128
  3608 0001:00044134  3609 0001:00044146  3610 0001:0004414A  3611 0001:00044156
  3613 0001:0004415C  3614 0001:00044163  3616 0001:00044164  3620 0001:0004416A
  3621 0001:0004417E  3625 0001:0004418A  3627 0001:00044195  3628 0001:0004419C
  3629 0001:0004419D  3651 0001:000441BA  3685 0001:000441D8  3687 0001:000441F5
  3688 0001:000441F7  3689 0001:00044207  3690 0001:0004421A  3687 0001:0004421B
  3693 0001:00044220  3694 0001:0004422B  3695 0001:0004424F  3696 0001:0004425A
  3699 0001:00044262  3700 0001:0004426B  3706 0001:0004427A  3723 0001:000442B3
  3736 0001:000442D0  3737 0001:000442E2  3738 0001:000442F2  3741 0001:00044326
  3742 0001:00044331  3744 0001:00044336  3747 0001:00044381  3748 0001:00044388
  3749 0001:000443A7  3750 0001:000443C6  3753 0001:000443CF  3754 0001:000443DA
  3755 0001:000443E3  3756 0001:000443EA  3759 0001:000443F3  3760 0001:000443FE
  4130 0001:00044418  4131 0001:0004441B  4135 0001:00044424  4136 0001:00044442
  4137 0001:0004444B  4138 0001:00044454  4140 0001:000444A8  4141 0001:000444C8
  4142 0001:000444D1  4143 0001:000444DE  4147 0001:0004450A  4168 0001:000445B8
  4168 0001:000445CB

Line numbers for DbxObjectParser(DbxObjectParser.pas) segment .text

   427 0001:0004490C   428 0001:00044921   429 0001:00044932   430 0001:00044938
   431 0001:00044944   447 0001:00044970   448 0001:000449AA   449 0001:000449B0
   453 0001:000449B9   455 0001:000449C9   456 0001:000449CF   458 0001:000449D5
   459 0001:000449E0   456 0001:000449E9   461 0001:000449EF   462 0001:00044A0F
   464 0001:00044A2F   466 0001:00044A49   467 0001:00044A6E   468 0001:00044A7E
   469 0001:00044A90   473 0001:00044A9E   478 0001:00044AE2   479 0001:00044AF0
   481 0001:00044AFE   484 0001:00044B11   486 0001:00044B19   488 0001:00044B33
   489 0001:00044B57   491 0001:00044B86   492 0001:00044BA3   486 0001:00044BA6
   494 0001:00044BAB   504 0001:00044BD5   512 0001:00044BFF   520 0001:00044C29
   528 0001:00044C53   537 0001:00044C7D   538 0001:00044C96   539 0001:00044CA5
   540 0001:00044CB3   543 0001:00044CC5   545 0001:00044CE6   547 0001:00044CE9
   550 0001:00044D12   557 0001:00044D23   561 0001:00044D4F   565 0001:00044D7B
   569 0001:00044DA7   464 0001:00044DAA   571 0001:00044DBB   582 0001:00044E13
   587 0001:00044F2C   591 0001:00044F49   593 0001:00044F63   594 0001:00044F74
   595 0001:00044F82   591 0001:00044F85   596 0001:00044F8A   606 0001:00044FA6
   641 0001:00044FB4   643 0001:00044FE3   644 0001:00044FE8   645 0001:00044FF0
   646 0001:00044FF8   650 0001:00045000   651 0001:0004500E   653 0001:00045024
   655 0001:00045033   657 0001:00045046   658 0001:00045056   667 0001:0004505F
   668 0001:0004506A   669 0001:00045072   670 0001:00045076   672 0001:0004507C
   674 0001:00045092   678 0001:000450D7   679 0001:000450DB   680 0001:000450F1
   682 0001:000450F3   672 0001:000450F6   684 0001:000450FB   687 0001:00045105
   688 0001:00045110   689 0001:00045118   691 0001:0004511E   693 0001:00045135
   697 0001:0004517A   698 0001:00045190   700 0001:00045192   691 0001:00045195
   703 0001:0004519A   704 0001:000451A5   705 0001:000451AD   707 0001:000451B3
   709 0001:000451CA   713 0001:0004520F   714 0001:00045225   716 0001:00045227
   707 0001:0004522A   719 0001:0004522F   721 0001:00045235   722 0001:0004523E
   723 0001:0004524E   724 0001:00045259   725 0001:00045269   726 0001:00045274
   727 0001:00045284   729 0001:0004528F   731 0001:00045298   733 0001:000452A0
   734 0001:000452AD   736 0001:000452B5   738 0001:000452BD   739 0001:000452CA
   743 0001:000452D2   745 0001:000452D4   651 0001:000452D7   746 0001:000452E0
   747 0001:000452E9   748 0001:000452F9   759 0001:0004532C   773 0001:0004534C
   774 0001:0004535B   798 0001:0004536A   800 0001:00045370   805 0001:000453B1
   806 0001:000453B7   808 0001:000453C0   812 0001:000453C6   815 0001:000453D4
   816 0001:000453E0   817 0001:00045401   818 0001:0004540A   820 0001:0004541A
   821 0001:00045422   824 0001:0004544B   825 0001:00045457   826 0001:00045478
   827 0001:00045481   829 0001:00045491   830 0001:00045499   833 0001:000454C2
   834 0001:000454CE   835 0001:000454EF   836 0001:000454F8   838 0001:00045508
   841 0001:00045510   844 0001:00045539   846 0001:0004553E   847 0001:00045569
   851 0001:000455A0   852 0001:000455CB   856 0001:00045602   857 0001:0004562D
   861 0001:00045664   844 0001:00045667   871 0001:000456B0   895 0001:00045794
   895 0001:000457A7

Line numbers for DbxOpenOdbc3(DbxOpenOdbc3.pas) segment .text

   486 0001:000457B4   487 0001:000457D3   490 0001:000457D8   492 0001:0004583D
   493 0001:00045844   494 0001:00045851   495 0001:00045857   496 0001:00045897
   499 0001:000458CD   501 0001:000458D0   502 0001:000458E0   506 0001:000458F9
   509 0001:00045964   514 0001:00045A88   515 0001:00045AA7   518 0001:00045AAC
   520 0001:00045B11   521 0001:00045B18   522 0001:00045B25   523 0001:00045B2B
   524 0001:00045B6B   527 0001:00045BA1   529 0001:00045BA4   530 0001:00045BB4
   534 0001:00045BCD   537 0001:00045C38   622 0001:00045D5C   623 0001:00045D88
   624 0001:00045D95   633 0001:00045D9F   635 0001:00045DA9   637 0001:00045DCD
   638 0001:00045DF9   640 0001:00045E2C   643 0001:00045EB8   644 0001:00045ED7
   645 0001:00045EDE   646 0001:00045EE3   647 0001:00045EF0   649 0001:00045F27
   650 0001:00045F53   652 0001:00045FA1   657 0001:00046044   658 0001:00046070
   660 0001:0004607D   663 0001:0004609D   664 0001:000460C9   666 0001:000460FC
   669 0001:00046188   670 0001:000461A5   671 0001:000461B2   672 0001:000461CE
   675 0001:000461DC   676 0001:000461FB   679 0001:0004620D   681 0001:0004628C
   682 0001:000462B8   684 0001:0004630A   687 0001:000463B0   688 0001:000463CF
   689 0001:0004642C   690 0001:0004643C   691 0001:0004644C   694 0001:0004645C
   696 0001:000464DB   697 0001:00046507   699 0001:00046559   702 0001:0004663C
   703 0001:00046650   704 0001:00046655   705 0001:0004668C   707 0001:00046692
   708 0001:000466A0   711 0001:000466BE   712 0001:000466EA   714 0001:00046736
   717 0001:00046800   718 0001:00046814   719 0001:00046819   720 0001:00046826
   722 0001:00046861   723 0001:0004688D   725 0001:000468DC   728 0001:00046988
   729 0001:0004699D   730 0001:000469A9   731 0001:000469C4   732 0001:000469D3
   748 0001:000469E0   749 0001:000469FB   751 0001:00046A13   752 0001:00046A1C
   754 0001:00046A37   755 0001:00046A3F   756 0001:00046A4C   757 0001:00046A6C
   759 0001:00046A71   778 0001:00046AA5   780 0001:00046AC5   782 0001:00046AE5
   784 0001:00046AF9   786 0001:00046B09   788 0001:00046B19   790 0001:00046B29
   795 0001:00046B46   797 0001:00046B63   799 0001:00046BA3   805 0001:00046C2C
   806 0001:00046C46   807 0001:00046C5E   808 0001:00046C69   809 0001:00046C86
   819 0001:00046CA0   820 0001:00046CBE   821 0001:00046CCF   822 0001:00046CF9
   823 0001:00046D23   825 0001:00046D2D   827 0001:00046D60   829 0001:00046D69
   831 0001:00046D91   833 0001:00046D94   837 0001:00046DDB   842 0001:00046EA0
   843 0001:00046EB5   844 0001:00046EDF   845 0001:00046F12   848 0001:00046F25
   849 0001:00046F44   850 0001:00046F4D   852 0001:00046F8B   854 0001:00046FDC
   855 0001:00047013   857 0001:00047018   859 0001:0004701C   863 0001:00047087
   864 0001:0004708F   868 0001:000470A8   870 0001:000470B2   871 0001:000470BD
   872 0001:000470C8   875 0001:000470D2   877 0001:000470FA   892 0001:00047109
   893 0001:00047111   895 0001:00047123   898 0001:00047136   905 0001:00047148
   906 0001:00047150   907 0001:00047157   918 0001:00047161   920 0001:00047173
   922 0001:00047186   925 0001:000471AA   929 0001:000471C4   931 0001:000471D6
   933 0001:000471EB   934 0001:000471F9   936 0001:00047202   937 0001:00047217
   938 0001:00047220   939 0001:00047235   942 0001:00047244   949 0001:00047254
   952 0001:0004725E   953 0001:00047267   955 0001:00047294   956 0001:000472A1
   957 0001:000472AC   958 0001:000472B7   960 0001:000472DD   962 0001:000472E1
   969 0001:000472EB   970 0001:000472F1   972 0001:000472F9   973 0001:00047308
   975 0001:0004730E   977 0001:0004731C   981 0001:0004733A   982 0001:00047356
   987 0001:00047363   988 0001:0004736E   991 0001:00047399   992 0001:000473E2
   994 0001:000473EC   995 0001:00047403   996 0001:00047409   998 0001:00047437
  1003 0001:0004745F  1006 0001:0004748E  1007 0001:000474A5  1009 0001:000474D1
  1011 0001:000474D7  1012 0001:000474DD  1014 0001:00047511  1016 0001:0004751C
  1019 0001:000475BF  1025 0001:00047884  1026 0001:000478A3  1029 0001:000478A8
  1033 0001:000478F8  1035 0001:0004790D  1037 0001:00047917  1038 0001:0004792D
  1042 0001:0004795A  1044 0001:00047993  1045 0001:000479BF  1047 0001:00047A1C
  1050 0001:00047AF4  1051 0001:00047B13  1052 0001:00047B18  1053 0001:00047B44
  1054 0001:00047B4B  1056 0001:00047B5D  1060 0001:00047B80  1061 0001:00047B8B
  1062 0001:00047B9C  1065 0001:00047BB6  1066 0001:00047BE2  1068 0001:00047C30
  1071 0001:00047D08  1072 0001:00047D27  1073 0001:00047D2C  1074 0001:00047D58
  1075 0001:00047D5F  1077 0001:00047D71  1081 0001:00047D96  1082 0001:00047DA1
  1083 0001:00047DB2  1086 0001:00047DCC  1087 0001:00047DF8  1089 0001:00047E46
  1096 0001:00047F20  1104 0001:00047F42  1108 0001:00047FA3  1109 0001:00047FAF
  1112 0001:00047FF6  1114 0001:00047FFC  1115 0001:00048003  1117 0001:0004800D
  1119 0001:00048019  1124 0001:0004803E  1125 0001:00048054  1129 0001:00048091
  1130 0001:000480BD  1132 0001:0004811F  1137 0001:0004824C  1140 0001:00048265
  1142 0001:00048277  1143 0001:00048283  1145 0001:000482AA  1147 0001:000482D4
  1148 0001:00048300  1150 0001:00048366  1156 0001:0004843C  1159 0001:00048461
  1161 0001:00048490  1162 0001:0004849C  1164 0001:000484D6  1166 0001:000484DC
  1168 0001:000484F1  1172 0001:00048506  1173 0001:0004851C  1177 0001:00048538
  1179 0001:00048552  1180 0001:0004857E  1182 0001:000485FE  1185 0001:000486F4
  1186 0001:00048704  1187 0001:0004872C  1190 0001:0004873C  1191 0001:0004874C
  1192 0001:00048774  1197 0001:00048784  1198 0001:00048794  1199 0001:000487B9
  1207 0001:000487C8  1209 0001:000487E1  1211 0001:000487E6  1212 0001:0004884A
  1216 0001:00048852  1218 0001:00048882  1219 0001:00048891  1220 0001:0004889C
  1221 0001:000488C7  1222 0001:00048910  1224 0001:0004891A  1225 0001:00048931
  1229 0001:0004895F  1231 0001:000489A1  1232 0001:000489CD  1234 0001:00048A34
  1242 0001:00048B34  1243 0001:00048B53  1245 0001:00048BAA  1247 0001:00048BC8
  1249 0001:00048BE6  1251 0001:00048C04  1253 0001:00048C1F  1255 0001:00048C3A
  1257 0001:00048C55  1259 0001:00048C70  1261 0001:00048CD6  1263 0001:00048CF0
  1265 0001:00048D0F  1267 0001:00048D14  1271 0001:00048D6A  1273 0001:00048D85
  1274 0001:00048D9B  1277 0001:00048DC8  1279 0001:00048E01  1280 0001:00048E2D
  1282 0001:00048E8A  1287 0001:00048F5C  1288 0001:00048F6C  1289 0001:00048F94
  1292 0001:00048FA4  1293 0001:00048FB4  1294 0001:00048FDC  1297 0001:00048FEC
  1298 0001:00049005  1299 0001:0004900A  1300 0001:00049035  1302 0001:00049088
  1303 0001:000490B4  1305 0001:00049104  1308 0001:000491C4  1309 0001:000491D8
  1310 0001:000491DD  1313 0001:00049208  1315 0001:0004923B  1316 0001:00049267
  1318 0001:0004927F  1321 0001:00049310  1322 0001:00049324  1323 0001:00049329
  1324 0001:00049354  1326 0001:0004935A  1327 0001:00049361  1329 0001:0004936B
  1331 0001:0004937E  1332 0001:00049387  1333 0001:00049393  1335 0001:000493B8
  1336 0001:000493C0  1338 0001:000493D2  1341 0001:000493F8  1342 0001:00049424
  1344 0001:00049478  1351 0001:00049544  1352 0001:00049558  1354 0001:0004955D
  1355 0001:00049563  1356 0001:0004956B  1358 0001:00049574  1360 0001:0004959F
  1362 0001:000495A5  1363 0001:000495AC  1365 0001:000495B6  1368 0001:000495C9
  1370 0001:000495D2  1371 0001:000495DB  1373 0001:000495E9  1377 0001:000495F9
  1378 0001:00049604  1381 0001:0004961F  1382 0001:0004962A  1384 0001:00049638
  1385 0001:00049640  1389 0001:00049648  1392 0001:0004964D  1394 0001:00049655
  1395 0001:0004965D  1396 0001:00049670  1400 0001:0004967C  1402 0001:00049682
  1414 0001:0004968F  1416 0001:000496A8  1420 0001:000496BB  1419 0001:000496BF
  1421 0001:000496D3  1422 0001:000496E2  1424 0001:000496E8  1425 0001:000496F9
  1426 0001:00049706  1429 0001:00049717  1434 0001:00049724  1436 0001:00049735
  1437 0001:0004973B  1439 0001:00049748  1444 0001:0004975E  1445 0001:00049766
  1446 0001:0004976A  1442 0001:0004976E  1450 0001:00049779  1455 0001:00049794
  1456 0001:000497C0  1458 0001:00049812  1463 0001:000498E0  1464 0001:000498F4
  1465 0001:000498F9  1466 0001:00049923  1467 0001:00049929  1468 0001:00049937
  1470 0001:00049955  1471 0001:00049981  1473 0001:000499B6  1476 0001:00049A5C
  1477 0001:00049A70  1478 0001:00049A75  1479 0001:00049A82  1481 0001:00049ABD
  1482 0001:00049AE9  1484 0001:00049B38  1491 0001:00049BE4  1492 0001:00049BFD
  1495 0001:00049C2D  1497 0001:00049C5D  1498 0001:00049C6C  1499 0001:00049C77
  1500 0001:00049CA2  1501 0001:00049CEB  1503 0001:00049CF5  1504 0001:00049D0C
  1508 0001:00049D3A  1510 0001:00049D7C  1511 0001:00049DA8  1513 0001:00049E0F
  1521 0001:00049ED8  1522 0001:00049EF0  1527 0001:00049EFE  1529 0001:00049F19
  1531 0001:00049F52  1533 0001:00049F6C  1535 0001:00049F8B  1537 0001:00049F90
  1541 0001:00049FE6  1543 0001:0004A001  1544 0001:0004A017  1547 0001:0004A044
  1549 0001:0004A07D  1550 0001:0004A0A9  1552 0001:0004A106  1555 0001:0004A1D0
  1556 0001:0004A1EF  1557 0001:0004A1F6  1558 0001:0004A203  1560 0001:0004A21D
  1561 0001:0004A249  1563 0001:0004A261  1566 0001:0004A2DC  1567 0001:0004A2FB
  1570 0001:0004A341  1572 0001:0004A384  1573 0001:0004A3B0  1575 0001:0004A3C8
  1581 0001:0004A468  1582 0001:0004A495  1587 0001:0004A4DB  1588 0001:0004A503
  1591 0001:0004A535  1592 0001:0004A54B  1595 0001:0004A592  1596 0001:0004A5BE
  1598 0001:0004A5FB  1604 0001:0004A6B8  1605 0001:0004A6E5  1610 0001:0004A742
  1611 0001:0004A748  1612 0001:0004A75E  1613 0001:0004A764  1614 0001:0004A77A
  1616 0001:0004A7CA  1617 0001:0004A7F6  1619 0001:0004A838  1625 0001:0004A90C
  1626 0001:0004A933  1630 0001:0004A979  1631 0001:0004A97F  1632 0001:0004A995
  1634 0001:0004A9DC  1635 0001:0004AA08  1637 0001:0004AA40  1643 0001:0004AAFC
  1644 0001:0004AB29  1648 0001:0004AB6F  1649 0001:0004AB75  1650 0001:0004AB8B
  1651 0001:0004AB91  1652 0001:0004ABA7  1654 0001:0004ABF3  1655 0001:0004AC1F
  1657 0001:0004AC61  1662 0001:0004AD24  1663 0001:0004AD38  1664 0001:0004AD4A
  1666 0001:0004AD50  1667 0001:0004AD5E  1668 0001:0004AD69  1671 0001:0004AD70
  1673 0001:0004AD8A  1674 0001:0004ADB6  1676 0001:0004ADCE  1679 0001:0004AE54
  1680 0001:0004AE68  1681 0001:0004AE6D  1682 0001:0004AE7A  1684 0001:0004AEB5
  1685 0001:0004AEE1  1687 0001:0004AEF9  1690 0001:0004AF84  1691 0001:0004AF9D
  1692 0001:0004AFA2  1693 0001:0004AFCD  1696 0001:0004AFE2  1699 0001:0004B019
  1700 0001:0004B01F  1701 0001:0004B027  1704 0001:0004B041  1705 0001:0004B06D
  1707 0001:0004B09D  1712 0001:0004B150  1713 0001:0004B169  1714 0001:0004B16E
  1715 0001:0004B199  1718 0001:0004B1AE  1721 0001:0004B1E5  1722 0001:0004B1EB
  1723 0001:0004B1F3  1726 0001:0004B20D  1727 0001:0004B239  1729 0001:0004B269
  1732 0001:0004B320  1733 0001:0004B334  1734 0001:0004B346  1736 0001:0004B34C
  1737 0001:0004B35A  1738 0001:0004B365  1741 0001:0004B36C  1743 0001:0004B386
  1744 0001:0004B3B2  1746 0001:0004B3CA  1749 0001:0004B450  1750 0001:0004B464
  1751 0001:0004B469  1752 0001:0004B476  1754 0001:0004B4B1  1755 0001:0004B4DD
  1757 0001:0004B4F5  1762 0001:0004B580  1763 0001:0004B599  1764 0001:0004B59E
  1765 0001:0004B5C9  1768 0001:0004B5DE  1771 0001:0004B615  1772 0001:0004B61B
  1773 0001:0004B623  1776 0001:0004B63D  1777 0001:0004B669  1779 0001:0004B699
  1782 0001:0004B750  1783 0001:0004B764  1784 0001:0004B776  1786 0001:0004B77C
  1787 0001:0004B78A  1788 0001:0004B795  1791 0001:0004B79C  1793 0001:0004B7B6
  1794 0001:0004B7E2  1796 0001:0004B7FA  1799 0001:0004B880  1800 0001:0004B894
  1801 0001:0004B899  1802 0001:0004B8A6  1804 0001:0004B8E1  1805 0001:0004B90D
  1807 0001:0004B925  1812 0001:0004B9B0  1813 0001:0004B9C9  1814 0001:0004B9CE
  1815 0001:0004B9F9  1818 0001:0004BA0E  1821 0001:0004BA45  1822 0001:0004BA4B
  1823 0001:0004BA53  1826 0001:0004BA6D  1827 0001:0004BA99  1829 0001:0004BAC9
  1832 0001:0004BBB4  1833 0001:0004BBC8  1834 0001:0004BBDA  1836 0001:0004BBE0
  1837 0001:0004BBEE  1838 0001:0004BBF9  1841 0001:0004BC00  1843 0001:0004BC1A
  1844 0001:0004BC46  1846 0001:0004BC5E  1849 0001:0004BCE8  1850 0001:0004BCFC
  1851 0001:0004BD01  1852 0001:0004BD0E  1854 0001:0004BD49  1855 0001:0004BD75
  1857 0001:0004BD8D  1862 0001:0004BE1C  1863 0001:0004BE35  1864 0001:0004BE3A
  1865 0001:0004BE65  1868 0001:0004BE7A  1871 0001:0004BEB1  1872 0001:0004BEB7
  1873 0001:0004BEBF  1876 0001:0004BED9  1877 0001:0004BF05  1879 0001:0004BF35
  1882 0001:0004BFF4  1883 0001:0004C008  1884 0001:0004C01A  1886 0001:0004C020
  1887 0001:0004C02E  1888 0001:0004C039  1891 0001:0004C040  1893 0001:0004C05A
  1894 0001:0004C086  1896 0001:0004C09E  1899 0001:0004C12C  1900 0001:0004C140
  1901 0001:0004C145  1902 0001:0004C152  1904 0001:0004C18D  1905 0001:0004C1B9
  1907 0001:0004C1D1  1914 0001:0004C264  1915 0001:0004C284  1917 0001:0004C2D1
  1930 0001:0004C2FC  1931 0001:0004C317  1932 0001:0004C31D  1934 0001:0004C338
  1935 0001:0004C354  1941 0001:0004C378  1942 0001:0004C3C8  1946 0001:0004C3D2
  1948 0001:0004C3ED  1949 0001:0004C3FC  1951 0001:0004C406  1952 0001:0004C429
  1954 0001:0004C439  1955 0001:0004C447  1956 0001:0004C46F  1958 0001:0004C480
  1959 0001:0004C48F  1961 0001:0004C499  1962 0001:0004C49E  1963 0001:0004C4A5
  1964 0001:0004C4C2  1965 0001:0004C4DF  1967 0001:0004C4E6  1968 0001:0004C506
  1970 0001:0004C50D  1971 0001:0004C51F  1972 0001:0004C527  1974 0001:0004C53E
  1976 0001:0004C55B  1978 0001:0004C563  1979 0001:0004C56C  1980 0001:0004C589
  1983 0001:0004C5A6  1984 0001:0004C5DE  1985 0001:0004C600  1987 0001:0004C603
  1989 0001:0004C60B  1991 0001:0004C612  1993 0001:0004C624  1999 0001:0004C630
  2003 0001:0004C63B  2004 0001:0004C664  2006 0001:0004C6CA  2011 0001:0004C700
  2012 0001:0004C729  2013 0001:0004C731  2015 0001:0004C73E  2016 0001:0004C754
  2018 0001:0004C76C  2020 0001:0004C790  2021 0001:0004C79A  2022 0001:0004C7BC
  2024 0001:0004C7C1  2016 0001:0004C7C4  2025 0001:0004C7C9  2027 0001:0004C7DF
  2029 0001:0004C803  2030 0001:0004C80D  2031 0001:0004C82F  2033 0001:0004C831
  2025 0001:0004C834  2034 0001:0004C839  2035 0001:0004C861  2050 0001:0004C87C
  2051 0001:0004C8A8  2052 0001:0004C8B5  2060 0001:0004C8CD  2061 0001:0004C8D7
  2063 0001:0004C8F7  2064 0001:0004C911  2065 0001:0004C92D  2066 0001:0004C949
  2067 0001:0004C963  2071 0001:0004C97F  2074 0001:0004C999  2075 0001:0004C9C5
  2077 0001:0004C9F8  2082 0001:0004CAF0  2083 0001:0004CB12  2085 0001:0004CB2A
  2087 0001:0004CB4E  2089 0001:0004CB5E  2091 0001:0004CB6E  2093 0001:0004CB7E
  2095 0001:0004CB8E  2097 0001:0004CB9E  2099 0001:0004CBA6  2102 0001:0004CBD7
  2103 0001:0004CBFE  2394 0001:0004CCA0  2395 0001:0004CCCC  2396 0001:0004CCD9
  2404 0001:0004CCEE  2405 0001:0004CCF8  2407 0001:0004CD18  2408 0001:0004CD32
  2409 0001:0004CD4E  2410 0001:0004CD6A  2411 0001:0004CD86  2412 0001:0004CDA2
  2413 0001:0004CDBE  2414 0001:0004CDDA  2415 0001:0004CDF6  2416 0001:0004CE12
  2417 0001:0004CE2E  2418 0001:0004CE4A  2423 0001:0004CE79  2424 0001:0004CEA5
  2426 0001:0004CED8  2429 0001:0004D060  2430 0001:0004D074  2431 0001:0004D079
  2432 0001:0004D0A4  2435 0001:0004D0F1  2437 0001:0004D0FA  2440 0001:0004D111
  2442 0001:0004D11D  2443 0001:0004D126  2447 0001:0004D132  2448 0001:0004D139
  2453 0001:0004D149  2455 0001:0004D154  2456 0001:0004D15D  2460 0001:0004D166
  2461 0001:0004D16D  2466 0001:0004D17B  2467 0001:0004D182  2472 0001:0004D190
  2477 0001:0004D19B  2479 0001:0004D1B7  2480 0001:0004D1E3  2482 0001:0004D1FB
  2485 0001:0004D294  2486 0001:0004D2A8  2487 0001:0004D2AD  2488 0001:0004D2D8
  2491 0001:0004D319  2493 0001:0004D322  2496 0001:0004D334  2497 0001:0004D33B
  2501 0001:0004D345  2502 0001:0004D34C  2505 0001:0004D35B  2510 0001:0004D366
  2512 0001:0004D382  2513 0001:0004D3AE  2515 0001:0004D3C6  2534 0001:0004D460
  2535 0001:0004D48C  2536 0001:0004D499  2544 0001:0004D4AE  2545 0001:0004D4B8
  2547 0001:0004D4D8  2548 0001:0004D4F2  2549 0001:0004D50E  2550 0001:0004D52A
  2551 0001:0004D546  2552 0001:0004D560  2553 0001:0004D57C  2554 0001:0004D598
  2559 0001:0004D5C7  2560 0001:0004D5F3  2562 0001:0004D626  2573 0001:0004D790
  2574 0001:0004D7A4  2575 0001:0004D7A9  2576 0001:0004D7D4  2579 0001:0004D821
  2581 0001:0004D82A  2584 0001:0004D840  2585 0001:0004D847  2589 0001:0004D867
  2590 0001:0004D86E  2594 0001:0004D88B  2595 0001:0004D892  2598 0001:0004D8A7
  2603 0001:0004D8B2  2605 0001:0004D8CE  2606 0001:0004D8FA  2608 0001:0004D912
  2626 0001:0004D9D8  2627 0001:0004DA04  2628 0001:0004DA11  2634 0001:0004DA26
  2635 0001:0004DA30  2637 0001:0004DA50  2638 0001:0004DA6A  2639 0001:0004DA86
  2640 0001:0004DAA2  2641 0001:0004DABE  2642 0001:0004DADA  2643 0001:0004DAF6
  2648 0001:0004DB25  2649 0001:0004DB51  2651 0001:0004DB84  2654 0001:0004DCF8
  2655 0001:0004DD0C  2656 0001:0004DD11  2657 0001:0004DD3C  2660 0001:0004DD79
  2662 0001:0004DD82  2665 0001:0004DD8C  2666 0001:0004DD93  2669 0001:0004DDA1
  2674 0001:0004DDAC  2676 0001:0004DDC8  2677 0001:0004DDF4  2679 0001:0004DE0C
  2682 0001:0004DEAC  2683 0001:0004DEC0  2684 0001:0004DEC5  2685 0001:0004DEF0
  2688 0001:0004DF2D  2690 0001:0004DF36  2693 0001:0004DF40  2694 0001:0004DF47
  2697 0001:0004DF5C  2702 0001:0004DF67  2704 0001:0004DF83  2705 0001:0004DFAF
  2707 0001:0004DFC7  2712 0001:0004E068  2717 0001:0004E074  2720 0001:0004E07F
  2723 0001:0004E08C  2728 0001:0004E098  2731 0001:0004E0A3  2733 0001:0004E0E8
  2735 0001:0004E0FF  2739 0001:0004E118  2741 0001:0004E122  2742 0001:0004E12F
  2758 0001:0004E13C

Line numbers for DbxOpenOdbc(DbxOpenOdbc.pas) segment .text

  1764 0001:0004E154  1765 0001:0004E170  1766 0001:0004E177  1767 0001:0004E184
  1768 0001:0004E18A  1771 0001:0004E1CA  1772 0001:0004E1ED  1774 0001:0004E205
  1777 0001:0004E208  1779 0001:0004E218  1782 0001:0004E249  1787 0001:0004E300
  1788 0001:0004E31A  1789 0001:0004E321  1790 0001:0004E32E  1791 0001:0004E334
  1793 0001:0004E374  1794 0001:0004E397  1795 0001:0004E3BC  1801 0001:0004E424
  1804 0001:0004E43F  1805 0001:0004E443  1808 0001:0004E463  1812 0001:0004E46C
  1825 0001:0004E47D  1832 0001:0004E4A3  1854 0001:0004E4D8  1855 0001:0004E4DF
  1868 0001:0004E4F4  1869 0001:0004E515  1871 0001:0004E519  1877 0001:0004E54B
  1878 0001:0004E551  1881 0001:0004E55E  1883 0001:0004E567  1886 0001:0004E59E
  1889 0001:0004E5E1  1890 0001:0004E5ED  1894 0001:0004E5F6  1896 0001:0004E60A
  1897 0001:0004E616  1900 0001:0004E61F  1904 0001:0004E630  1908 0001:0004E63E
  1909 0001:0004E652  1911 0001:0004E66A  1916 0001:0004E682  1917 0001:0004E688
  1919 0001:0004E6A0  1923 0001:0004E6B6  1925 0001:0004E6CA  1928 0001:0004E6D5
  1935 0001:0004E6E9  1937 0001:0004E6F3  1940 0001:0004E6FE  1941 0001:0004E70E
  1947 0001:0004E717  1949 0001:0004E721  1951 0001:0004E731  1952 0001:0004E741
  1953 0001:0004E74E  1957 0001:0004E750  1959 0001:0004E75B  1964 0001:0004E762
  1967 0001:0004E76D  1968 0001:0004E773  1970 0001:0004E77A  1971 0001:0004E780
  1972 0001:0004E787  1973 0001:0004E793  1979 0001:0004E79C  1982 0001:0004E7A6
  1984 0001:0004E7B6  1985 0001:0004E7C4  1986 0001:0004E7CE  1990 0001:0004E7D0
  1993 0001:0004E7D7  1996 0001:0004E80B  1997 0001:0004E811  1999 0001:0004E81F
  2000 0001:0004E82C  2004 0001:0004E835  2005 0001:0004E83B  2006 0001:0004E844
  2007 0001:0004E84D  2009 0001:0004E856  2010 0001:0004E85F  2011 0001:0004E866
  2012 0001:0004E872  2016 0001:0004E87B  2017 0001:0004E881  2018 0001:0004E88A
  2019 0001:0004E893  2020 0001:0004E89A  2024 0001:0004E8AB  2025 0001:0004E8B1
  2026 0001:0004E8B8  2027 0001:0004E8C4  2031 0001:0004E8CD  2033 0001:0004E8D9
  2035 0001:0004E8E2  2037 0001:0004E8E7  2038 0001:0004E8F3  2044 0001:0004E8F9
  2046 0001:0004E90B  2049 0001:0004E912  2050 0001:0004E916  2056 0001:0004E974
  2061 0001:0004E9AC  2063 0001:0004E9CF  2064 0001:0004E9DC  2066 0001:0004E9E2
  2067 0001:0004E9ED  2068 0001:0004E9FF  2072 0001:0004EA09  2073 0001:0004EA26
  2074 0001:0004EA38  2076 0001:0004EA58  2083 0001:0004EA90  2084 0001:0004EAAE
  2085 0001:0004EAD9  2086 0001:0004EAE1  2087 0001:0004EAE9  2089 0001:0004EBC4
  2092 0001:0004EBD1  2094 0001:0004EBD9  2097 0001:0004EBDF  2104 0001:0004EBF7
  2109 0001:0004EC04  2114 0001:0004EC20  2120 0001:0004EC2D  2124 0001:0004EC3A
  2126 0001:0004EC47  2131 0001:0004EC54  2134 0001:0004EC66  2138 0001:0004EC73
  2142 0001:0004EC80  2145 0001:0004EC8D  2146 0001:0004EC95  2149 0001:0004ECA2
  2152 0001:0004ECAF  2153 0001:0004ECB7  2154 0001:0004ECBD  2155 0001:0004ECC5
  2156 0001:0004ECD0  2159 0001:0004ECDD  2161 0001:0004ECEA  2163 0001:0004ECF7
  2165 0001:0004ED04  2167 0001:0004ED11  2170 0001:0004ED1E  2171 0001:0004ED26
  2175 0001:0004ED33  2176 0001:0004ED3B  2180 0001:0004ED48  2181 0001:0004ED50
  2186 0001:0004ED5D  2189 0001:0004ED67  2190 0001:0004ED73  2194 0001:0004ED84
  2195 0001:0004ED8C  2196 0001:0004ED93  2198 0001:0004EDA0  2211 0001:0004EDAD
  2212 0001:0004EDB9  2214 0001:0004EDC7  2216 0001:0004EDD4  2218 0001:0004EDE7
  2220 0001:0004EDF7  2221 0001:0004EDFD  2223 0001:0004EE07  2225 0001:0004EE11
  2227 0001:0004EE17  2228 0001:0004EE1F  2232 0001:0004EE29  2233 0001:0004EE31
  2242 0001:0004EE4C  2243 0001:0004EE78  2245 0001:0004EEC7  2249 0001:0004EF78
  2250 0001:0004EF96  2251 0001:0004F080  2252 0001:0004F093  2253 0001:0004F0A6
  2254 0001:0004F0B9  2255 0001:0004F0CC  2256 0001:0004F0DF  2257 0001:0004F0F2
  2258 0001:0004F105  2259 0001:0004F118  2260 0001:0004F12B  2261 0001:0004F13E
  2262 0001:0004F151  2263 0001:0004F164  2264 0001:0004F177  2265 0001:0004F18A
  2266 0001:0004F19D  2267 0001:0004F1B0  2268 0001:0004F1C3  2269 0001:0004F1D6
  2270 0001:0004F1E9  2271 0001:0004F1FC  2272 0001:0004F20F  2273 0001:0004F222
  2274 0001:0004F235  2275 0001:0004F248  2276 0001:0004F25B  2277 0001:0004F26B
  2278 0001:0004F27B  2279 0001:0004F28B  2280 0001:0004F29B  2281 0001:0004F2AB
  2282 0001:0004F2BB  2284 0001:0004F2CB  2286 0001:0004F2FA  2289 0001:0004F58C
  2290 0001:0004F5AF  2291 0001:0004F5B7  2293 0001:0004F5C2  2295 0001:0004F61E
  2296 0001:0004F629  2298 0001:0004F63C  2299 0001:0004F693  2300 0001:0004F6A6
  2301 0001:0004F6B9  2302 0001:0004F6CC  2303 0001:0004F6DF  2304 0001:0004F6F2
  2305 0001:0004F705  2306 0001:0004F718  2307 0001:0004F72B  2308 0001:0004F73E
  2309 0001:0004F751  2310 0001:0004F764  2313 0001:0004F777  2314 0001:0004F797
  2315 0001:0004F7A7  2316 0001:0004F7B7  2317 0001:0004F7C7  2320 0001:0004F7D7
  2321 0001:0004F7DE  2323 0001:0004F7EE  2324 0001:0004F7F5  2326 0001:0004F805
  2327 0001:0004F80C  2330 0001:0004F81A  2331 0001:0004F828  2333 0001:0004F857
  2340 0001:0004FA44  2341 0001:0004FA6E  2342 0001:0004FA88  2343 0001:0004FA99
  2345 0001:0004FACB  2347 0001:0004FAE1  2349 0001:0004FAF7  2351 0001:0004FB0A
  2353 0001:0004FB1D  2355 0001:0004FB30  2357 0001:0004FB43  2360 0001:0004FB7F
  2363 0001:0004FB8F  2365 0001:0004FBA0  2366 0001:0004FBA4  2369 0001:0004FCBA
  2370 0001:0004FCCB  2373 0001:0004FCD0  2375 0001:0004FCE6  2377 0001:0004FCFC
  2379 0001:0004FD12  2382 0001:0004FD28  2383 0001:0004FD3D  2385 0001:0004FD53
  2388 0001:0004FD5C  2390 0001:0004FD72  2392 0001:0004FD88  2394 0001:0004FD9E
  2396 0001:0004FDB4  2398 0001:0004FDCA  2400 0001:0004FDE0  2402 0001:0004FDF6
  2404 0001:0004FE0C  2406 0001:0004FE22  2408 0001:0004FE38  2410 0001:0004FE4E
  2414 0001:0004FE93  2416 0001:0004FEA9  2418 0001:0004FEBF  2420 0001:0004FED5
  2422 0001:0004FEEB  2424 0001:0004FF01  2426 0001:0004FF14  2429 0001:0004FF27
  2430 0001:0004FF3C  2432 0001:0004FF4F  2436 0001:0004FF55  2437 0001:0004FF6A
  2439 0001:0004FF7D  2443 0001:0004FF81  2445 0001:0004FF87  2446 0001:0004FFC4
  2449 0001:0004FFC9  2451 0001:0004FFDA  2453 0001:0004FFE3  2454 0001:0004FFF4
  2457 0001:0004FFF9  2459 0001:000500F6  2460 0001:000500FF  2462 0001:0005013C
  2464 0001:00050152  2465 0001:0005015B  2466 0001:0005016E  2469 0001:000501AC
  2472 0001:000501C2  2474 0001:000501DF  2475 0001:000501E8  2477 0001:00050225
  2481 0001:0005023B  2483 0001:0005025C  2485 0001:0005027E  2487 0001:000502A2
  2489 0001:000502CA  2494 0001:0005031E  2499 0001:00050372  2508 0001:0005042A
  2510 0001:00050456  2512 0001:0005047B  2515 0001:0005048E  2518 0001:000504A1
  2520 0001:000504B6  2525 0001:000504C9  2527 0001:000504DE  2531 0001:00050553
  2534 0001:00050960  2535 0001:0005097D  2536 0001:0005098A  2538 0001:000509AB
  2539 0001:000509D7  2541 0001:000509EC  2544 0001:00050A54  2546 0001:00050A76
  2548 0001:00050A97  2550 0001:00050A9A  2554 0001:00050AEB  2560 0001:00050B60
  2561 0001:00050B7D  2562 0001:00050B85  2564 0001:00050BA4  2565 0001:00050BB2
  2567 0001:00050BCB  2568 0001:00050BDC  2569 0001:00050C0A  2565 0001:00050C0D
  2570 0001:00050C2A  2577 0001:00050C70  2578 0001:00050C85  2580 0001:00050C95
  2582 0001:00050C9A  2583 0001:00050CA4  2580 0001:00050CA7  2585 0001:00050CAD
  2588 0001:00050CB8  2589 0001:00050CC8  2590 0001:00050CDB  2591 0001:00050CEA
  2592 0001:00050D08  2595 0001:00050D14  2596 0001:00050D27  2598 0001:00050D2F
  2599 0001:00050D4C  2600 0001:00050D5C  2602 0001:00050D63  2609 0001:00050D70
  2610 0001:00050D8E  2612 0001:00050DA4  2614 0001:00050DAE  2615 0001:00050DBE
  2616 0001:00050DC4  2618 0001:00050DC7  2619 0001:00050DE9  2620 0001:00050DEC
  2621 0001:00050DF7  2622 0001:00050E01  2624 0001:00050E13  2625 0001:00050E2A
  2626 0001:00050E31  2627 0001:00050E3A  2628 0001:00050E40  2629 0001:00050E48
  2631 0001:00050E62  2632 0001:00050E6A  2622 0001:00050E6D  2633 0001:00050E72
  2640 0001:00050E90  2641 0001:00050E9B  2643 0001:00050EA5  2644 0001:00050EB5
  2646 0001:00050EC2  2647 0001:00050EC5  2648 0001:00050ECD  2649 0001:00050ED3
  2650 0001:00050ED9  2653 0001:00050EE4  2654 0001:00050EEE  2655 0001:00050F0B
  2656 0001:00050F16  2658 0001:00050F1B  2660 0001:00050F20  2661 0001:00050F25
  2663 0001:00050F2D  2664 0001:00050F36  2666 0001:00050F3C  2667 0001:00050F42
  2661 0001:00050F45  2669 0001:00050F4D  2670 0001:00050F58  2671 0001:00050F5E
  2672 0001:00050F66  2674 0001:00050F6E  2675 0001:00050F88  2677 0001:00050F8D
  2678 0001:00050F98  2680 0001:00050F9E  2681 0001:00050FBD  2682 0001:00050FC0
  2678 0001:00050FC9  2685 0001:00050FCF  2686 0001:00050FDA  2688 0001:00050FE0
  2689 0001:00050FFF  2690 0001:00051002  2686 0001:0005100B  2693 0001:00051011
  2694 0001:0005102E  2697 0001:00051062  2774 0001:000517B8  2775 0001:000517D0
  2776 0001:000517D8  2778 0001:000517E5  2780 0001:000517F2  2782 0001:00051807
  2783 0001:00051819  2785 0001:00051829  2788 0001:00051839  2789 0001:0005184E
  2791 0001:0005185E  2792 0001:00051873  2794 0001:00051881  2796 0001:00051889
  2798 0001:0005189E  2800 0001:000518AE  2802 0001:000518BE  2805 0001:000518CE
  2806 0001:000518D6  2811 0001:000518D8  2817 0001:00051973  2819 0001:00051A9C
  2820 0001:00051AC0  2822 0001:00051AC7  2823 0001:00051ACD  2824 0001:00051AEC
  2825 0001:00051AF0  2827 0001:00051AF5  2829 0001:00051AF9  2830 0001:00051B1D
  2833 0001:00051B2C  2835 0001:00051B34  2836 0001:00051B41  2840 0001:00051B4C
  2841 0001:00051B54  2843 0001:00051B5F  2844 0001:00051B67  2845 0001:00051B72
  2848 0001:00051B7B  2851 0001:00051B7D  2852 0001:00051B8F  2854 0001:00051B99
  2855 0001:00051BA1  2857 0001:00051BAD  2858 0001:00051BB6  2862 0001:00051BCC
  2864 0001:00051BD2  2865 0001:00051BD8  2868 0001:00051BF7  2870 0001:00051C1B
  2876 0001:00051C3C  2877 0001:00051C4C  2878 0001:00051C55  2883 0001:00051C64
  2884 0001:00051C90  2885 0001:00051CBA  2886 0001:00051CC2  2887 0001:00051CCC
  2888 0001:00051CD3  2889 0001:00051CDC  2890 0001:00051CE5  2891 0001:00051CEE
  2893 0001:00051D00  2895 0001:00051D24  2896 0001:00051D37  2897 0001:00051D41
  2898 0001:00051D49  2900 0001:00051D64  2901 0001:00051D90  2903 0001:00051DC3
  2906 0001:00051E68  2907 0001:00051E9B  2908 0001:00051ED1  2909 0001:00051ED9
  2910 0001:00051EE4  2911 0001:00051EEF  2912 0001:00051EF7  2914 0001:00051F18
  2915 0001:00051F76  2917 0001:00051FF3  2920 0001:00052070  2921 0001:00052083
  2922 0001:0005209A  2923 0001:000520A2  2924 0001:000520AB  2925 0001:000520B6
  2928 0001:000520CC  2929 0001:000520E4  2931 0001:000520EA  2932 0001:000520F6
  2933 0001:00052102  2934 0001:0005210E  2935 0001:0005211A  2937 0001:00052126
  2950 0001:00052134  2951 0001:00052166  2954 0001:000521C0  2956 0001:000521DB
  2960 0001:000521E5  2961 0001:000521F0  2963 0001:0005220F  2965 0001:0005223D
  2967 0001:00052276  2970 0001:00052279  2972 0001:00052289  2978 0001:000522A8
  2979 0001:000522B3  2981 0001:000522D2  2985 0001:000522FA  2986 0001:00052305
  2987 0001:00052324  2988 0001:00052352  2992 0001:00052388  2993 0001:000523B4
  2995 0001:000523E6  3025 0001:000525AC  3026 0001:000525BC  3028 0001:000525C5
  3029 0001:000525CE  3031 0001:000525DF  3032 0001:000525E8  3034 0001:000525F9
  3035 0001:00052602  3037 0001:0005260E  3038 0001:0005261A  3041 0001:00052624
  3042 0001:00052634  3043 0001:00052647  3049 0001:00052654  3050 0001:0005266B
  3052 0001:00052678  3054 0001:00052688  3055 0001:00052695  3056 0001:000526AD
  3058 0001:000526C0  3059 0001:000526D8  3060 0001:000526F1  3056 0001:000526F4
  3061 0001:000526F9  3063 0001:0005270A  3064 0001:0005272D  3079 0001:00052748
  3080 0001:0005275B  3082 0001:0005276D  3083 0001:00052776  3084 0001:0005279E
  3087 0001:000527A9  3088 0001:000527B2  3090 0001:000527BC  3091 0001:000527DB
  3094 0001:000527E7  3098 0001:000527FC  3109 0001:00052832  3111 0001:0005284E
  3113 0001:00052851  3116 0001:0005286B  3118 0001:00052898  3119 0001:000528C4
  3122 0001:00052936  3123 0001:0005293B  3124 0001:00052940  3125 0001:00052945
  3126 0001:0005294A  3127 0001:0005294F  3128 0001:00052954  3129 0001:00052959
  3130 0001:0005295F  3131 0001:00052966  3132 0001:0005296C  3134 0001:00052973
  3138 0001:0005297C  3143 0001:0005299A  3146 0001:000529A0  3149 0001:000529A4
  3151 0001:000529B4  3152 0001:000529B9  3153 0001:000529BE  3154 0001:000529C3
  3156 0001:000529D8  3158 0001:000529E0  3160 0001:000529E8  3162 0001:000529EE
  3164 0001:000529F4  3165 0001:000529FA  3167 0001:00052A08  3168 0001:00052A0E
  3170 0001:00052A1C  3171 0001:00052A22  3173 0001:00052A2E  3175 0001:00052A38
  3176 0001:00052A3E  3177 0001:00052A46  3179 0001:00052A4C  3181 0001:00052A52
  3182 0001:00052A5F  3184 0001:00052A6F  3187 0001:00052A7D  3189 0001:00052A83
  3190 0001:00052A90  3192 0001:00052A9D  3195 0001:00052AAB  3196 0001:00052AB1
  3199 0001:00052ABA  3201 0001:00052AC0  3203 0001:00052AC6  3204 0001:00052AD3
  3206 0001:00052AE3  3209 0001:00052AF1  3211 0001:00052AF7  3212 0001:00052B04
  3214 0001:00052B11  3218 0001:00052B1A  3220 0001:00052B20  3222 0001:00052B35
  3224 0001:00052B3D  3226 0001:00052B45  3231 0001:00052B4B  3232 0001:00052B53
  3233 0001:00052B65  3235 0001:00052B6C  3237 0001:00052B93  3239 0001:00052BA3
  3241 0001:00052BB3  3243 0001:00052BC3  3245 0001:00052BD3  3247 0001:00052BE3
  3249 0001:00052BF3  3251 0001:00052C03  3254 0001:00052C11  3255 0001:00052C17
  3257 0001:00052C62  3259 0001:00052C68  3260 0001:00052C78  3261 0001:00052C8B
  3262 0001:00052C96  3265 0001:00052CDC  3266 0001:00052CE9  3267 0001:00052CEF
  3269 0001:00052CF6  3270 0001:00052CFC  3272 0001:00052D02  3273 0001:00052D08
  3275 0001:00052D20  3276 0001:00052D26  3279 0001:00052D55  3282 0001:00052D80
  3284 0001:00052D8B  3285 0001:00052D9C  3287 0001:00052DA2  3288 0001:00052DB9
  3290 0001:00052DC5  3293 0001:00052DE9  3294 0001:00052DEF  3297 0001:00052E05
  3298 0001:00052E0F  3302 0001:00052E46  3304 0001:00052E58  3305 0001:00052E63
  3306 0001:00052E6A  3307 0001:00052E74  3310 0001:00052E80  3313 0001:00052E92
  3316 0001:00052EB0  3319 0001:00052EBE  3321 0001:00052EC8  3322 0001:00052ECD
  3323 0001:00052EE9  3325 0001:00052EF0  3327 0001:00052EF6  3328 0001:00052F01
  3329 0001:00052F08  3330 0001:00052F0E  3334 0001:00052F17  3339 0001:00052F1F
  3340 0001:00052F25  3342 0001:00052F38  3343 0001:00052F3E  3346 0001:00052F60
  3347 0001:00052F66  3348 0001:00052F6F  3353 0001:00052F79  3354 0001:00052F7C
  3356 0001:00052F88  3358 0001:00052F8E  3359 0001:00052F9B  3362 0001:00052FD3
  3364 0001:00052FD9  3365 0001:00052FEC  3366 0001:00052FF7  3369 0001:00053019
  3371 0001:00053023  3372 0001:00053029  3374 0001:00053061  3375 0001:00053067
  3376 0001:0005309A  3377 0001:000530A3  3380 0001:000530AC  3381 0001:000530B4
  3382 0001:000530BA  3384 0001:000530C5  3385 0001:000530D0  3388 0001:000530DA
  3390 0001:000530E0  3391 0001:000530EF  3392 0001:00053145  3396 0001:0005314A
  3397 0001:00053150  3399 0001:00053160  3400 0001:00053166  3403 0001:00053183
  3404 0001:00053187  3405 0001:0005318D  3408 0001:000531BC  3349 0001:000531E7
  3412 0001:000531F8  3413 0001:000531FE  3415 0001:00053207  3417 0001:0005320F
  3419 0001:00053215  3420 0001:00053228  3421 0001:00053233  3423 0001:0005323B
  3425 0001:00053252  3427 0001:00053258  3428 0001:0005325E  3430 0001:0005326D
  3431 0001:00053273  3433 0001:00053281  3434 0001:00053287  3439 0001:000532E8
  3446 0001:00053344  3448 0001:0005334E  3450 0001:00053354  3451 0001:00053361
  3454 0001:00053374  3455 0001:0005337A  3457 0001:00053388  3459 0001:00053391
  3460 0001:00053397  3461 0001:000533A8  3462 0001:000533AE  3466 0001:000533D0
  3467 0001:000533D6  3469 0001:000533E9  3470 0001:000533EF  3472 0001:0005340F
  3474 0001:0005343F  3476 0001:00053445  3477 0001:00053452  3480 0001:00053465
  3481 0001:0005346B  3482 0001:00053479  3484 0001:00053496  3485 0001:0005349C
  3487 0001:000534D3  3488 0001:000534D9  3489 0001:0005351D  3482 0001:00053520
  3491 0001:00053529  3493 0001:0005352F  3494 0001:0005353C  3495 0001:0005354D
  3499 0001:00053560  3500 0001:00053573  3501 0001:0005357E  3505 0001:00053592
  3507 0001:0005359C  3508 0001:000535AD  3509 0001:000535B8  3510 0001:000535C2
  3512 0001:000535D4  3513 0001:000535EA  3514 0001:000535F5  3510 0001:000535F8
  3515 0001:000535FD  3518 0001:0005360A  3519 0001:0005361F  3516 0001:00053629
  3521 0001:00053632  3524 0001:0005364C  3526 0001:0005364F  3527 0001:00053655
  3528 0001:0005365C  3529 0001:00053684  3530 0001:0005368C  3532 0001:00053694
  3538 0001:000536B8  3540 0001:000536F5  3545 0001:00053C14  3546 0001:00053C2E
  3547 0001:00053C3B  3550 0001:00053C44  3551 0001:00053C5E  3552 0001:00053C65
  3554 0001:00053C8C  3555 0001:00053C92  3559 0001:00053CAC  3560 0001:00053CD8
  3562 0001:00053CED  3568 0001:00053D88  3569 0001:00053DA5  3570 0001:00053DB2
  3571 0001:00053DBA  3572 0001:00053DC4  3575 0001:00053DCD  3576 0001:00053DE2
  3578 0001:00053DE9  3579 0001:00053DEF  3581 0001:00053DFA  3583 0001:00053E22
  3585 0001:00053E29  3589 0001:00053E42  3590 0001:00053E6E  3592 0001:00053E83
  3599 0001:00053F34  3600 0001:00053F53  3601 0001:00053F60  3604 0001:00053F69
  3605 0001:00053F82  3606 0001:00053F89  3608 0001:00053FB0  3610 0001:00053FB7
  3613 0001:00053FC6  3616 0001:00053FD0  3618 0001:00053FE2  3619 0001:00053FE9
  3623 0001:00053FF9  3624 0001:00054000  3627 0001:0005400E  3628 0001:0005402B
  3629 0001:00054032  3635 0001:00054089  3636 0001:000540B5  3638 0001:000540EA
  3643 0001:00054224  3644 0001:0005423B  3645 0001:00054248  3648 0001:00054251
  3649 0001:00054267  3651 0001:0005426E  3655 0001:0005429C  3656 0001:000542A8
  3660 0001:000542C3  3661 0001:000542EF  3663 0001:00054304  3707 0001:000543E4
  3708 0001:000543F8  3709 0001:000543FD  3710 0001:00054432  3711 0001:0005443A
  3713 0001:00054440  3714 0001:00054447  3717 0001:00054451  3719 0001:00054482
  3720 0001:0005448B  3722 0001:0005449B  3724 0001:000544A7  3725 0001:000544B0
  3727 0001:000544BC  3729 0001:000544C8  3730 0001:000544D1  3732 0001:000544DD
  3734 0001:000544E9  3735 0001:000544F2  3737 0001:00054502  3741 0001:0005450E
  3742 0001:00054517  3744 0001:00054521  3746 0001:0005452E  3747 0001:00054550
  3754 0001:0005457C  3756 0001:00054589  3757 0001:000545AB  3765 0001:000545E5
  3768 0001:000545E8  3772 0001:0005460E  3773 0001:0005463A  3775 0001:00054689
  3780 0001:00054784  3781 0001:000547A3  3782 0001:000547A8  3784 0001:000547B5
  3785 0001:000547BC  3787 0001:000547F3  3790 0001:000547F6  3794 0001:0005481C
  3795 0001:00054848  3797 0001:00054896  3803 0001:00054964  3804 0001:00054980
  3805 0001:00054985  3807 0001:000549D1  3809 0001:000549ED  3815 0001:000549FB
  3819 0001:00054A09  3820 0001:00054A12  3822 0001:00054A1C  3825 0001:00054A40
  3828 0001:00054A6E  3834 0001:00054A7A  3837 0001:00054A9E  3840 0001:00054AC8
  3841 0001:00054AD1  3842 0001:00054ADA  3847 0001:00054AF7  3850 0001:00054AFA
  3854 0001:00054B20  3855 0001:00054B4C  3857 0001:00054B9E  3869 0001:00054CD0
  3870 0001:00054CEF  3871 0001:00054CFC  3874 0001:00054D05  3875 0001:00054D0A
  3876 0001:00054D0F  3878 0001:00054D17  3879 0001:00054D24  3880 0001:00054D31
  3881 0001:00054D39  3882 0001:00054D3F  3883 0001:00054D45  3886 0001:00054D75
  3887 0001:00054D83  3888 0001:00054DAA  3890 0001:00054DB5  3891 0001:00054DCB
  3892 0001:00054DD1  3893 0001:00054DD7  3896 0001:00054E07  3897 0001:00054E15
  3888 0001:00054E3C  3900 0001:00054E4F  3901 0001:00054E57  3902 0001:00054E5F
  3907 0001:00054E80  3908 0001:00054EAC  3910 0001:00054ED9  3915 0001:00054FC0
  3916 0001:00054FD9  3917 0001:00054FEA  3919 0001:00054FFA  3920 0001:00055005
  3921 0001:00055013  3922 0001:00055019  3924 0001:00055031  3926 0001:00055043
  3929 0001:00055064  3930 0001:00055090  3932 0001:000550C0  3937 0001:0005516C
  3938 0001:00055198  3939 0001:000551A5  3940 0001:000551AF  3941 0001:000551B6
  3942 0001:000551BE  3943 0001:000551C9  3944 0001:000551E6  3945 0001:000551ED
  3946 0001:000551F4  3947 0001:00055207  3950 0001:00055210  3952 0001:0005522B
  3953 0001:00055257  3955 0001:0005528A  3958 0001:00055320  3959 0001:00055353
  3960 0001:00055389  3961 0001:000553A4  3962 0001:000553AE  3964 0001:000553CF
  3965 0001:0005542D  3967 0001:000554AA  3970 0001:00055528  3971 0001:00055556
  3972 0001:000555BA  3973 0001:000555C3  3975 0001:000555EF  3977 0001:000555F7
  3979 0001:000555FD  3981 0001:00055608  3983 0001:0005561D  3984 0001:00055626
  3986 0001:00055630  3991 0001:00055649  3992 0001:00055652  3993 0001:0005565D
  3994 0001:00055668  3996 0001:00055685  3999 0001:000556A0  4000 0001:000556FE
  4002 0001:0005576D  4011 0001:00055834  4012 0001:00055876  4017 0001:000558DE
  4022 0001:000558E2  4025 0001:00055917  4028 0001:00055921  4029 0001:00055929
  4031 0001:0005592E  4032 0001:00055941  4033 0001:00055949  4034 0001:0005594F
  4038 0001:0005598A  4043 0001:00055996  4044 0001:000559A0  4045 0001:000559AB
  4046 0001:000559B6  4048 0001:000559C0  4049 0001:000559CE  4051 0001:000559D9
  4052 0001:000559E5  4054 0001:000559EA  4061 0001:000559F7  4062 0001:000559FD
  4063 0001:00055A0B  4064 0001:00055A1C  4065 0001:00055A21  4066 0001:00055A33
  4067 0001:00055A3D  4068 0001:00055A4B  4069 0001:00055A56  4070 0001:00055A5F
  4071 0001:00055A64  4074 0001:00055A7A  4075 0001:00055A82  4076 0001:00055A8A
  4077 0001:00055A90  4080 0001:00055AA0  4086 0001:00055AB7  4087 0001:00055B15
  4089 0001:00055BC5  4095 0001:00055CD0  4096 0001:00055CEA  4097 0001:00055CF7
  4100 0001:00055D03  4101 0001:00055D15  4103 0001:00055D1F  4106 0001:00055D2F
  4108 0001:00055D3B  4109 0001:00055D59  4110 0001:00055D60  4114 0001:00055D8B
  4116 0001:00055D93  4118 0001:00055DAF  4119 0001:00055DB6  4124 0001:00055DE1
  4125 0001:00055DFF  4126 0001:00055E06  4129 0001:00055E31  4131 0001:00055E3F
  4133 0001:00055E61  4134 0001:00055E68  4139 0001:00055E93  4140 0001:00055E99
  4141 0001:00055EA8  4145 0001:00055EC2  4146 0001:00055EEE  4148 0001:00055F03
  4161 0001:000560C8  4162 0001:000560EA  4164 0001:000560F7  4165 0001:00056100
  4167 0001:00056126  4170 0001:00056132  4171 0001:0005613D  4172 0001:00056146
  4174 0001:0005614B  4175 0001:00056151  4177 0001:0005615C  4179 0001:00056164
  4180 0001:00056168  4183 0001:00056172  4185 0001:00056178  4186 0001:00056182
  4187 0001:00056186  4188 0001:00056196  4189 0001:000561A1  4191 0001:000561AD
  4192 0001:000561B4  4194 0001:000561BF  4197 0001:000561C8  4199 0001:000561D8
  4200 0001:000561E5  4202 0001:00056207  4203 0001:00056213  4205 0001:0005622B
  4206 0001:00056237  4208 0001:0005624F  4210 0001:0005625B  4213 0001:00056277
  4214 0001:0005627E  4217 0001:000562AB  4222 0001:000562E2  4223 0001:000562F0
  4226 0001:0005631D  4230 0001:00056321  4232 0001:00056345  4234 0001:0005634C
  4237 0001:00056379  4239 0001:00056389  4241 0001:00056394  4243 0001:000563AC
  4245 0001:000563D5  4246 0001:000563DC  4251 0001:00056409  4252 0001:0005640F
  4253 0001:0005641E  4254 0001:00056424  4258 0001:00056434  4260 0001:0005643E
  4261 0001:00056444  4262 0001:00056453  4263 0001:00056468  4264 0001:00056471
  4265 0001:0005647A  4267 0001:00056480  4268 0001:00056490  4269 0001:00056498
  4271 0001:0005649F  4273 0001:000564A7  4274 0001:000564B0  4279 0001:000564D4
  4280 0001:00056500  4282 0001:0005652D  4285 0001:00056694  4286 0001:000566AE
  4288 0001:000566D8  4291 0001:000566F9  4294 0001:00056715  4295 0001:00056741
  4297 0001:00056756  4304 0001:000567F0  4305 0001:0005680D  4306 0001:0005683B
  4308 0001:00056841  4309 0001:00056845  4312 0001:0005684F  4315 0001:0005685B
  4316 0001:0005685F  4317 0001:00056865  4319 0001:0005686B  4320 0001:00056887
  4322 0001:0005688E  4323 0001:00056896  4324 0001:000568B0  4326 0001:000568B9
  4327 0001:000568C0  4332 0001:000568FA  4333 0001:00056926  4335 0001:0005695B
  4341 0001:00056A20  4342 0001:00056A3D  4343 0001:00056A82  4345 0001:00056A88
  4346 0001:00056A8C  4349 0001:00056A96  4352 0001:00056AA2  4353 0001:00056AA6
  4354 0001:00056AAC  4356 0001:00056AB2  4357 0001:00056ACE  4359 0001:00056AD5
  4360 0001:00056ADD  4361 0001:00056AF7  4363 0001:00056B00  4364 0001:00056B07
  4369 0001:00056B41  4370 0001:00056B6D  4372 0001:00056BA2  4405 0001:00056C7C
  4407 0001:00056C91  4408 0001:00056C9D  4411 0001:00056CA8  4412 0001:00056CB4
  4417 0001:00056CC0  4418 0001:00056CD8  4419 0001:00056CE3  4421 0001:00056CFD
  4422 0001:00056D04  4423 0001:00056D0A  4425 0001:00056D2F  4426 0001:00056D32
  4428 0001:00056D35  4430 0001:00056D62  4431 0001:00056D65  4433 0001:00056D68
  4436 0001:00056D72  4439 0001:00056D7F  4442 0001:00056D98  4444 0001:00056D9B
  4440 0001:00056DB2  4449 0001:00056DC3  4454 0001:00056DD0  4455 0001:00056DF4
  4456 0001:00056DFF  4458 0001:00056E0F  4459 0001:00056E1A  4461 0001:00056E24
  4463 0001:00056E49  4464 0001:00056E55  4466 0001:00056E58  4467 0001:00056E85
  4469 0001:00056E97  4472 0001:00056EA1  4474 0001:00056EAE  4480 0001:00056F01
  4517 0001:00056F24  4518 0001:00056F46  4521 0001:00056F4A  4522 0001:00056F56
  4524 0001:00056F62  4526 0001:00056F8E  4527 0001:00056F98  4528 0001:00056FA2
  4530 0001:00056FDB  4532 0001:00056FFA  4533 0001:00056FFE  4537 0001:00057005
  4538 0001:00057011  4539 0001:0005701D  4541 0001:0005704C  4545 0001:000570C8
  4546 0001:000570E3  4547 0001:000570EB  4548 0001:0005710C  4549 0001:00057112
  4551 0001:00057126  4552 0001:00057145  4555 0001:00057154  4556 0001:00057167
  4557 0001:0005717B  4558 0001:00057188  4559 0001:00057195  4567 0001:000571A0
  4568 0001:000571AF  4569 0001:000571BA  4570 0001:000571C5  4571 0001:000571D0
  4710 0001:000571D4  4711 0001:00057205  4713 0001:0005721A  4714 0001:00057221
  4715 0001:00057226  4718 0001:0005722B  4724 0001:0005724A  4727 0001:00057258
  4729 0001:0005726C  4731 0001:00057274  4732 0001:00057293  4733 0001:000572A0
  4737 0001:000572A8  4739 0001:000572D1  4742 0001:000572E1  4744 0001:0005732B
  4745 0001:0005734A  4749 0001:00057352  4754 0001:000573B0  4759 0001:000573E0
  4760 0001:00057421  4762 0001:00057436  4763 0001:0005744F  4764 0001:00057468
  4767 0001:00057481  4768 0001:00057487  4771 0001:000574A9  4805 0001:000574C9
  4806 0001:000574CF  4809 0001:000574D9  4815 0001:00057512  4820 0001:0005756D
  4827 0001:00057594  4828 0001:000575BB  4830 0001:000575D0  4836 0001:000575DA
  4838 0001:000575F5  4866 0001:00057630  4878 0001:00057650  4879 0001:00057687
  4881 0001:000576A7  4885 0001:000576C9  4886 0001:000576DC  4893 0001:000576DE
  4894 0001:000576ED  4905 0001:000576F7  4907 0001:0005770A  4908 0001:00057713
  4909 0001:0005771F  4910 0001:00057730  4911 0001:0005774E  4912 0001:0005776F
  4913 0001:0005777C  4914 0001:0005778B  4916 0001:000577C2  4992 0001:000577E1
  4993 0001:000577ED  4994 0001:000577FC  4995 0001:0005780D  4996 0001:0005782B
  4997 0001:0005784F  4998 0001:0005785F  4999 0001:00057871  5001 0001:000578A7
  5003 0001:000578D7  5004 0001:000578E2  5007 0001:0005791F  5013 0001:0005796C
  5015 0001:0005798E  5016 0001:000579A0  5018 0001:000579B5  5019 0001:000579D9
  5042 0001:00057A28  5043 0001:00057A3D  5045 0001:00057A41  5077 0001:00057A87
  5089 0001:00057AB5  5093 0001:00057ADE  5095 0001:00057AF0  5096 0001:00057B08
  5098 0001:00057B11  5101 0001:00057B1E  5104 0001:00057B29  5106 0001:00057B32
  5107 0001:00057B48  5108 0001:00057B54  5109 0001:00057B5E  5112 0001:00057B6F
  5113 0001:00057B7B  5114 0001:00057B8A  5115 0001:00057B96  5116 0001:00057BA4
  5118 0001:00057BB3  5120 0001:00057BBA  5122 0001:00057BC8  5126 0001:00057BE5
  5129 0001:00057C2A  5133 0001:00057C4F  5134 0001:00057C53  5138 0001:00057C5D
  5139 0001:00057C65  5143 0001:00057C8A  5144 0001:00057C8E  5148 0001:00057C98
  5149 0001:00057C9F  5150 0001:00057CA7  5151 0001:00057CAD  5152 0001:00057CB2
  5154 0001:00057CB7  5156 0001:00057CC9  5157 0001:00057CDA  5159 0001:00057CE0
  5160 0001:00057CE8  5163 0001:00057CF0  5165 0001:00057CFE  5166 0001:00057D02
  5169 0001:00057D0C  5154 0001:00057D0F  5170 0001:00057D15  5172 0001:00057D1B
  5173 0001:00057D1F  5176 0001:00057D29  5178 0001:00057D40  5179 0001:00057D6C
  5181 0001:00057DA1  5189 0001:00057EC0  5192 0001:00057EE0  5193 0001:00057F29
  5194 0001:00057F33  5197 0001:00057F8A  5200 0001:00057F96  5202 0001:00057FA4
  5204 0001:00057FBD  5207 0001:00057FCB  5209 0001:00057FD8  5212 0001:00057FDE
  5213 0001:00057FE7  5214 0001:00057FED  5215 0001:00058005  5216 0001:00058011
  5217 0001:0005801A  5218 0001:00058025  5223 0001:0005802B  5224 0001:00058044
  5225 0001:0005804B  5228 0001:00058076  5229 0001:0005807F  5231 0001:000580A4
  5232 0001:000580AE  5233 0001:000580B7  5234 0001:000580BD  5237 0001:000580C3
  5238 0001:000580CD  5242 0001:000580E0  5243 0001:000580FA  5244 0001:00058101
  5247 0001:0005812B  5248 0001:00058134  5250 0001:00058159  5251 0001:0005815F
  5254 0001:00058166  5258 0001:00058182  5260 0001:000581AE  5261 0001:000581BC
  5267 0001:000582C8  5270 0001:0005831C  5281 0001:000584F0  5282 0001:00058502
  5285 0001:00058511  5288 0001:00058520  5289 0001:0005852C  5291 0001:00058557
  5292 0001:00058572  5293 0001:00058588  5296 0001:000585BF  5297 0001:000585C9
  5299 0001:000585D6  5300 0001:000585DF  5301 0001:000585EB  5302 0001:000585F4
  5305 0001:00058600  5306 0001:0005860E  5308 0001:0005861C  5309 0001:0005862D
  5313 0001:0005863A  5314 0001:00058649  5316 0001:0005864F  5318 0001:0005865E
  5319 0001:00058670  5324 0001:00058687  5329 0001:00058691  5330 0001:000586A0
  5331 0001:000586A6  5336 0001:000586AE  5337 0001:000586BC  5338 0001:000586CA
  5340 0001:000586D0  5341 0001:000586DF  5345 0001:000586F0  5346 0001:000586FE
  5350 0001:00058712  5354 0001:00058730  5356 0001:00058740  5357 0001:0005874B
  5359 0001:00058755  5361 0001:00058765  5362 0001:00058774  5366 0001:0005877E
  5372 0001:000587AA  5374 0001:000587C1  5375 0001:000587D1  5376 0001:000587DB
  5377 0001:000587E5  5378 0001:000587EE  5380 0001:000587F9  5382 0001:00058803
  5384 0001:0005881D  5385 0001:0005882E  5386 0001:00058839  5387 0001:0005884D
  5394 0001:00058858  5396 0001:000588AC  5399 0001:000588CC  5400 0001:000588F8
  5401 0001:00058902  5406 0001:00058975  5407 0001:0005897D  5408 0001:00058987
  5410 0001:00058991  5411 0001:000589A0  5413 0001:000589A6  5414 0001:000589AE
  5416 0001:000589B9  5421 0001:000589C6  5423 0001:000589D5  5424 0001:000589DC
  5428 0001:000589E6  5432 0001:00058A03  5435 0001:00058A0F  5436 0001:00058A18
  5438 0001:00058A3D  5439 0001:00058A52  5440 0001:00058A62  5441 0001:00058A78
  5442 0001:00058A7F  5445 0001:00058A9B  5447 0001:00058AC7  5448 0001:00058AD5
  5453 0001:00058B8D  5456 0001:00058BC4  5462 0001:00058D98  5463 0001:00058DAD
  5464 0001:00058DB2  5466 0001:00058DC0  5467 0001:00058DCC  5469 0001:00058DE1
  5474 0001:00058E15  5477 0001:00058E23  5478 0001:00058E2B  5479 0001:00058E30
  5480 0001:00058E35  5482 0001:00058E4B  5483 0001:00058E5C  5490 0001:00058E84
  5497 0001:00058EA5  5498 0001:00058EAE  5499 0001:00058EB4  5502 0001:00058EB6
  5503 0001:00058EBC  5504 0001:00058EC2  5480 0001:00058EC5  5505 0001:00058ECB
  5506 0001:00058ED1  5508 0001:00058ED9  5509 0001:00058EDF  5511 0001:00058EE7
  5514 0001:00058EFA  5517 0001:00058F08  5518 0001:00058F20  5519 0001:00058F2B
  5520 0001:00058F31  5522 0001:00058F3D  5523 0001:00058F4B  5528 0001:00058F58
  5529 0001:00058F6D  5530 0001:00058F78  5531 0001:00058F7E  5533 0001:00058F89
  5534 0001:00058F94  5538 0001:00058FA0  5539 0001:00058FBC  5541 0001:00058FEB
  5547 0001:00058FFC  5548 0001:0005901E  5549 0001:00059026  5550 0001:00059050
  5552 0001:00059060  5553 0001:0005906F  5554 0001:0005909E  5555 0001:000590A4
  5556 0001:000590AD  5557 0001:000590B2  5558 0001:000590BE  5564 0001:000590E9
  5566 0001:000590F0  5568 0001:000590F8  5574 0001:00059121  5575 0001:00059133
  5577 0001:00059140  5581 0001:00059170  5582 0001:0005919C  5584 0001:000591E8
  5587 0001:000592A0  5588 0001:000592BF  5589 0001:00059306  5591 0001:00059312
  5592 0001:00059330  5593 0001:0005933C  5596 0001:00059359  5597 0001:00059385
  5599 0001:000593D5  5611 0001:0005949C  5612 0001:000594BB  5613 0001:000594C0
  5615 0001:000594F5  5616 0001:000594FE  5625 0001:00059532  5627 0001:0005953E
  5628 0001:00059556  5632 0001:0005956E  5633 0001:00059573  5635 0001:00059583
  5637 0001:00059593  5638 0001:00059599  5643 0001:000595AE  5646 0001:000595B7
  5649 0001:000595C0  5652 0001:000595C9  5654 0001:000595DD  5660 0001:00059616
  5663 0001:00059622  5665 0001:0005962C  5669 0001:00059637  5670 0001:0005963C
  5671 0001:00059641  5673 0001:0005964D  5676 0001:0005965A  5677 0001:0005965F
  5679 0001:00059671  5683 0001:00059688  5684 0001:00059695  5685 0001:0005969E
  5688 0001:000596A9  5690 0001:000596B9  5692 0001:000596C9  5693 0001:000596E5
  5695 0001:000596EF  5696 0001:000596FD  5699 0001:00059709  5702 0001:00059710
  5708 0001:0005973C  5710 0001:0005974E  5715 0001:00059768  5719 0001:00059776
  5722 0001:000597A2  5726 0001:000597CE  5729 0001:000597DA  5730 0001:000597DF
  5731 0001:000597FB  5732 0001:00059802  5736 0001:00059830  5738 0001:00059837
  5740 0001:0005983D  5742 0001:00059855  5743 0001:0005985C  5745 0001:00059888
  5749 0001:00059893  5750 0001:0005989F  5751 0001:000598AA  5752 0001:000598B3
  5754 0001:000598C1  5756 0001:000598CD  5757 0001:000598DF  5758 0001:000598EA
  5760 0001:000598F4  5762 0001:00059906  5763 0001:00059917  5765 0001:00059928
  5766 0001:0005992F  5760 0001:00059932  5768 0001:00059938  5771 0001:00059957
  5774 0001:0005995A  5775 0001:00059965  5778 0001:00059976  5779 0001:0005997D
  5783 0001:000599B3  5784 0001:000599DF  5786 0001:00059A31  5795 0001:00059CEC
  5796 0001:00059CFB  5797 0001:00059D04  5800 0001:00059D0D  5801 0001:00059D21
  5803 0001:00059D2C  5805 0001:00059D30  5806 0001:00059D44  5807 0001:00059D49
  5809 0001:00059D73  5810 0001:00059D7C  5812 0001:00059D9F  5814 0001:00059DAB
  5816 0001:00059DB5  5818 0001:00059DC5  5819 0001:00059DDD  5820 0001:00059DE8
  5826 0001:00059E17  5827 0001:00059E1C  5828 0001:00059E21  5830 0001:00059E37
  5832 0001:00059E48  5836 0001:00059E5F  5838 0001:00059E67  5839 0001:00059E71
  5840 0001:00059E78  5843 0001:00059E7D  5845 0001:00059E86  5847 0001:00059E92
  5848 0001:00059EA9  5849 0001:00059EB0  5852 0001:00059EDB  5853 0001:00059EE4
  5854 0001:00059EEA  5856 0001:00059EF3  5857 0001:00059EFA  5862 0001:00059F02
  5864 0001:00059F0B  5865 0001:00059F11  5867 0001:00059F16  5869 0001:00059F1C
  5870 0001:00059F27  5871 0001:00059F2F  5872 0001:00059F3C  5873 0001:00059F43
  5874 0001:00059F4A  5875 0001:00059F50  5876 0001:00059F58  5880 0001:00059F5F
  5828 0001:00059F62  5882 0001:00059F6C  5883 0001:00059F78  5884 0001:00059F81
  5886 0001:00059F91  5890 0001:00059FB2  5893 0001:00059FB5  5894 0001:00059FC0
  5895 0001:00059FD1  5896 0001:00059FD8  5900 0001:0005A00E  5901 0001:0005A03A
  5903 0001:0005A06F  5912 0001:0005A194  5913 0001:0005A1A3  5914 0001:0005A1AC
  5917 0001:0005A1B5  5918 0001:0005A1C9  5920 0001:0005A1D4  5922 0001:0005A1D8
  5923 0001:0005A1EC  5924 0001:0005A1F1  5926 0001:0005A21B  5927 0001:0005A224
  5929 0001:0005A247  5931 0001:0005A253  5933 0001:0005A25D  5935 0001:0005A26D
  5936 0001:0005A285  5937 0001:0005A290  5943 0001:0005A2BF  5944 0001:0005A2C4
  5945 0001:0005A2C9  5948 0001:0005A2DF  5950 0001:0005A2F0  5955 0001:0005A307
  5957 0001:0005A30F  5958 0001:0005A319  5959 0001:0005A320  5963 0001:0005A325
  5965 0001:0005A32E  5967 0001:0005A33A  5968 0001:0005A351  5969 0001:0005A358
  5972 0001:0005A383  5973 0001:0005A38C  5974 0001:0005A392  5976 0001:0005A39B
  5977 0001:0005A3A2  5983 0001:0005A3AA  5985 0001:0005A3B3  5986 0001:0005A3B9
  5988 0001:0005A3BE  5990 0001:0005A3C4  5991 0001:0005A3CF  5992 0001:0005A3D7
  5993 0001:0005A3E4  5994 0001:0005A3EB  5995 0001:0005A3F2  5996 0001:0005A3F8
  5997 0001:0005A400  6002 0001:0005A407  5945 0001:0005A40A  6004 0001:0005A414
  6005 0001:0005A420  6006 0001:0005A429  6008 0001:0005A439  6012 0001:0005A45A
  6015 0001:0005A45D  6016 0001:0005A468  6017 0001:0005A479  6018 0001:0005A480
  6022 0001:0005A4B6  6023 0001:0005A4E2  6025 0001:0005A517  6028 0001:0005A644
  6029 0001:0005A65B  6031 0001:0005A668  6032 0001:0005A66F  6033 0001:0005A676
  6036 0001:0005A67D  6038 0001:0005A684  6040 0001:0005A693  6041 0001:0005A69A
  6042 0001:0005A6A5  6043 0001:0005A6B2  6044 0001:0005A6BC  6045 0001:0005A6C9
  6046 0001:0005A6D6  6047 0001:0005A6E3  6048 0001:0005A6ED  6049 0001:0005A6F7
  6051 0001:0005A701  6052 0001:0005A715  6053 0001:0005A722  6054 0001:0005A72F
  6055 0001:0005A73C  6056 0001:0005A746  6057 0001:0005A751  6058 0001:0005A75C
  6059 0001:0005A766  6060 0001:0005A76E  6061 0001:0005A776  6062 0001:0005A77E
  6063 0001:0005A789  6064 0001:0005A792  6065 0001:0005A79D  6066 0001:0005A7A8
  6067 0001:0005A7B3  6068 0001:0005A7BE  6069 0001:0005A7CB  6070 0001:0005A7D8
  6071 0001:0005A7E5  6072 0001:0005A7F6  6074 0001:0005A813  6075 0001:0005A83F
  6077 0001:0005A854  6080 0001:0005A8D8  6081 0001:0005A8EB  6082 0001:0005A8F4
  6083 0001:0005A905  6113 0001:0005A910  6114 0001:0005A937  6115 0001:0005A945
  6116 0001:0005A94B  6117 0001:0005A959  6118 0001:0005A964  6121 0001:0005A990
  6123 0001:0005A9C9  6167 0001:0005AA2C  6168 0001:0005AA3C  6170 0001:0005AA40
  6172 0001:0005AA55  6180 0001:0005AA9F  6183 0001:0005AAD0  6185 0001:0005AAF4
  6187 0001:0005AB09  6188 0001:0005AB29  6168 0001:0005AB2C  6189 0001:0005AB36
  6194 0001:0005AB40  6196 0001:0005AB57  6198 0001:0005AB5B  6200 0001:0005AB6C
  6201 0001:0005AB86  6203 0001:0005AB8B  6205 0001:0005ABD0  6208 0001:0005AC1C
  6209 0001:0005AC36  6196 0001:0005AC39  6210 0001:0005AC5B  6212 0001:0005AC84
  6213 0001:0005ACB7  6214 0001:0005ACBF  6218 0001:0005AD63  6219 0001:0005AD6C
  6221 0001:0005ADDA  6222 0001:0005ADE3  6224 0001:0005ADED  6226 0001:0005ADF8
  6229 0001:0005AE07  6230 0001:0005AE0F  6231 0001:0005AE18  6235 0001:0005AE2C
  6236 0001:0005AE33  6235 0001:0005AE4D  6241 0001:0005AE56  6242 0001:0005AE5F
  6244 0001:0005AE72  6246 0001:0005AE91  6249 0001:0005AE98  6252 0001:0005AEA5
  6254 0001:0005AEDA  6255 0001:0005AF0C  6256 0001:0005AF22  6257 0001:0005AF2F
  6263 0001:0005AF45  6265 0001:0005AF51  6267 0001:0005AF80  6268 0001:0005AF89
  6270 0001:0005AF93  6271 0001:0005AFEA  6274 0001:0005B003  6276 0001:0005B013
  6277 0001:0005B03C  6280 0001:0005B04F  6281 0001:0005B06B  6285 0001:0005B09B
  6290 0001:0005B0D8  6291 0001:0005B0FE  6294 0001:0005B111  6295 0001:0005B124
  6296 0001:0005B140  6301 0001:0005B170  6302 0001:0005B196  6305 0001:0005B1A9
  6306 0001:0005B1BC  6307 0001:0005B1D8  6312 0001:0005B208  6313 0001:0005B22E
  6316 0001:0005B241  6317 0001:0005B254  6318 0001:0005B270  6323 0001:0005B2A0
  6324 0001:0005B2C6  6327 0001:0005B2D9  6328 0001:0005B2EC  6329 0001:0005B308
  6334 0001:0005B338  6335 0001:0005B35E  6338 0001:0005B371  6339 0001:0005B384
  6340 0001:0005B3A0  6345 0001:0005B3D0  6346 0001:0005B3F9  6349 0001:0005B40C
  6350 0001:0005B428  6355 0001:0005B458  6372 0001:0005B495  6373 0001:0005B4A1
  6374 0001:0005B4E2  6376 0001:0005B4FC  6377 0001:0005B535  6378 0001:0005B54B
  6381 0001:0005B563  6382 0001:0005B59C  6383 0001:0005B5B2  6386 0001:0005B5CA
  6387 0001:0005B603  6388 0001:0005B619  6391 0001:0005B631  6392 0001:0005B66A
  6393 0001:0005B680  6396 0001:0005B695  6397 0001:0005B6CE  6398 0001:0005B6E4
  6400 0001:0005B6F9  6443 0001:0005B706  6444 0001:0005B71C  6446 0001:0005B729
  6447 0001:0005B737  6450 0001:0005B745  6453 0001:0005B75A  6454 0001:0005B78B
  6455 0001:0005B7A2  6456 0001:0005B7AB  6457 0001:0005B7DD  6458 0001:0005B7EE
  6460 0001:0005B7FB  6461 0001:0005B81F  6465 0001:0005B835  6471 0001:0005B84B
  6474 0001:0005B858  6476 0001:0005B87D  6477 0001:0005B890  6479 0001:0005B8B5
  6480 0001:0005B8CC  6484 0001:0005B8F2  6485 0001:0005B918  6486 0001:0005B92B
  6487 0001:0005B951  6488 0001:0005B964  6494 0001:0005B96F  6501 0001:0005B97C
  6503 0001:0005B9A1  6504 0001:0005B9B4  6507 0001:0005B9F5  6509 0001:0005BA08
  6511 0001:0005BA2D  6512 0001:0005BA40  6515 0001:0005BA7C  6516 0001:0005BA8F
  6518 0001:0005BAB3  6521 0001:0005BAED  6524 0001:0005BB13  6525 0001:0005BB1C
  6528 0001:0005BB5B  6529 0001:0005BB67  6544 0001:0005BBA3  6547 0001:0005BBAB
  6549 0001:0005BBB3  6551 0001:0005BBDC  6552 0001:0005BBE6  6554 0001:0005BC13
  6556 0001:0005BC1F  6558 0001:0005BC40  6559 0001:0005BC4A  6563 0001:0005BC77
  6564 0001:0005BC83  6566 0001:0005BC9A  6567 0001:0005BCA6  6569 0001:0005BCBD
  6570 0001:0005BCCE  6571 0001:0005BCF4  6572 0001:0005BD2A  6575 0001:0005BD3B
  6576 0001:0005BD71  6577 0001:0005BDAA  6578 0001:0005BDE3  6581 0001:0005BE1C
  6582 0001:0005BE2C  6586 0001:0005BE66  6588 0001:0005BE8C  6594 0001:0005BED2
  6596 0001:0005BEE0  6597 0001:0005BEF2  6598 0001:0005BF19  6600 0001:0005BF35
  6602 0001:0005BF3F  6608 0001:0005BF4C  6610 0001:0005BF57  6611 0001:0005BF62
  6612 0001:0005BF84  6614 0001:0005BF8E  6615 0001:0005BF96  6617 0001:0005BFA0
  6618 0001:0005BFB4  6620 0001:0005BFE3  6621 0001:0005BFF5  6622 0001:0005C01C
  6623 0001:0005C02D  6627 0001:0005C039  6633 0001:0005C07F  6634 0001:0005C093
  6636 0001:0005C0C2  6637 0001:0005C0C9  6638 0001:0005C0DB  6640 0001:0005C102
  6642 0001:0005C128  6643 0001:0005C131  6647 0001:0005C170  6648 0001:0005C17B
  6651 0001:0005C1B1  6656 0001:0005C1B8  6657 0001:0005C1BF  6658 0001:0005C1C8
  6659 0001:0005C1EF  6661 0001:0005C1F9  6663 0001:0005C208  6666 0001:0005C235
  6667 0001:0005C23C  6669 0001:0005C245  6670 0001:0005C24E  6671 0001:0005C275
  6672 0001:0005C27F  6675 0001:0005C290  6677 0001:0005C2BD  6681 0001:0005C2D2
  6682 0001:0005C2FC  6683 0001:0005C310  6685 0001:0005C31C  6687 0001:0005C349
  6691 0001:0005C351  6693 0001:0005C361  6694 0001:0005C36D  6697 0001:0005C3AE
  6698 0001:0005C3E7  6699 0001:0005C3FD  6702 0001:0005C415  6703 0001:0005C44E
  6704 0001:0005C464  6707 0001:0005C47C  6708 0001:0005C4B5  6709 0001:0005C4CB
  6712 0001:0005C4E3  6713 0001:0005C51C  6714 0001:0005C532  6717 0001:0005C547
  6718 0001:0005C580  6719 0001:0005C596  6721 0001:0005C5AB  6727 0001:0005C5B8
  6728 0001:0005C5CE  6730 0001:0005C5DB  6731 0001:0005C5E7  6735 0001:0005C5FA
  6737 0001:0005C606  6740 0001:0005C61E  6742 0001:0005C62F  6746 0001:0005C63E
  6748 0001:0005C665  6752 0001:0005C66F  6754 0001:0005C677  6770 0001:0005C6A4
  6786 0001:0005C6B7  6791 0001:0005C6C1  6793 0001:0005C6DA  6794 0001:0005C6E4
  6797 0001:0005C6EE  6801 0001:0005C70B  6806 0001:0005C71D  6808 0001:0005C72D
  6809 0001:0005C737  6810 0001:0005C741  6812 0001:0005C762  6813 0001:0005C76C
  6816 0001:0005C778  6819 0001:0005C7AC  6821 0001:0005C7B8  6822 0001:0005C7C2
  6824 0001:0005C7E3  6825 0001:0005C7ED  6828 0001:0005C7F9  6830 0001:0005C82D
  6832 0001:0005C841  6837 0001:0005C859  6838 0001:0005C865  6846 0001:0005C871
  6847 0001:0005C87B  6853 0001:0005C885  6856 0001:0005C88C  6857 0001:0005C89D
  6858 0001:0005C8C3  6860 0001:0005C8D6  6861 0001:0005C8FC  6862 0001:0005C90F
  6865 0001:0005C91A  6866 0001:0005C92D  6867 0001:0005C953  6869 0001:0005C979
  6872 0001:0005C98C  6874 0001:0005C99C  6876 0001:0005C9C8  6877 0001:0005C9CF
  6878 0001:0005C9F1  6879 0001:0005C9FD  6881 0001:0005CA07  6882 0001:0005CA11
  6885 0001:0005CA40  6888 0001:0005CA4A  6890 0001:0005CA56  6892 0001:0005CA77
  6893 0001:0005CA81  6898 0001:0005CAB0  6902 0001:0005CAF3  6904 0001:0005CB14
  6905 0001:0005CB1E  6911 0001:0005CB4B  6913 0001:0005CB5E  6914 0001:0005CB6F
  6915 0001:0005CBA6  6918 0001:0005CBF4  6919 0001:0005CC05  6920 0001:0005CC2B
  6922 0001:0005CC3C  6928 0001:0005CC72  6930 0001:0005CC99  6932 0001:0005CCA3
  6934 0001:0005CCAB  6936 0001:0005CCD8  6937 0001:0005CCEB  6939 0001:0005CCFE
  6941 0001:0005CD25  6943 0001:0005CD2F  6945 0001:0005CD38  6947 0001:0005CD65
  6949 0001:0005CD8C  6951 0001:0005CD96  6953 0001:0005CD9F  6956 0001:0005CDCE
  6957 0001:0005CDD8  6958 0001:0005CDE1  6960 0001:0005CDF1  6962 0001:0005CE18
  6964 0001:0005CE22  6966 0001:0005CE2C  6968 0001:0005CE59  6969 0001:0005CE63
  6970 0001:0005CE6C  6972 0001:0005CE93  6974 0001:0005CE9D  6976 0001:0005CEA5
  6978 0001:0005CED2  6979 0001:0005CEE5  6982 0001:0005CEF8  6984 0001:0005CF1F
  6986 0001:0005CF29  6988 0001:0005CF32  6991 0001:0005CF61  6992 0001:0005CF6B
  6994 0001:0005CF74  6996 0001:0005CF9B  6998 0001:0005CFA5  7000 0001:0005CFAE
  7003 0001:0005CFDD  7004 0001:0005CFE7  7006 0001:0005CFF0  7007 0001:0005CFF9
  7008 0001:0005D01C  7010 0001:0005D026  7012 0001:0005D02F  7014 0001:0005D05C
  7015 0001:0005D070  7016 0001:0005D079  7017 0001:0005D09C  7019 0001:0005D0A6
  7021 0001:0005D0AF  7023 0001:0005D0DC  7025 0001:0005D0F0  7026 0001:0005D10F
  7029 0001:0005D123  7032 0001:0005D12F  7033 0001:0005D147  7045 0001:0005D151
  7048 0001:0005D159  7050 0001:0005D16A  7053 0001:0005D1A2  7054 0001:0005D1AB
  7057 0001:0005D223  7059 0001:0005D24C  7061 0001:0005D273  7062 0001:0005D27D
  7067 0001:0005D2AC  7068 0001:0005D2D6  7070 0001:0005D2E0  7072 0001:0005D2EA
  7077 0001:0005D319  7087 0001:0005D321  7092 0001:0005D329  7093 0001:0005D332
  7095 0001:0005D359  7096 0001:0005D363  7109 0001:0005D392  7113 0001:0005D3A0
  7114 0001:0005D3B3  7115 0001:0005D3BE  7116 0001:0005D3CF  7117 0001:0005D3DA
  7119 0001:0005D3EE  7120 0001:0005D3FE  7121 0001:0005D40C  7122 0001:0005D41E
  7123 0001:0005D42A  7124 0001:0005D434  7141 0001:0005D43E  7143 0001:0005D445
  7144 0001:0005D461  7146 0001:0005D4A7  7141 0001:0005D4AD  7148 0001:0005D4B6
  7152 0001:0005D4C7  7153 0001:0005D4D0  7154 0001:0005D54E  7155 0001:0005D555
  7157 0001:0005D565  7158 0001:0005D5E1  7159 0001:0005D65F  7161 0001:0005D6DD
  7162 0001:0005D6E4  7163 0001:0005D760  7164 0001:0005D767  7165 0001:0005D7E3
  7166 0001:0005D7EA  7167 0001:0005D866  7168 0001:0005D86D  7169 0001:0005D921
  7170 0001:0005D928  7171 0001:0005D9A4  7172 0001:0005D9AB  7173 0001:0005DA29
  7174 0001:0005DA30  7175 0001:0005DAAE  7176 0001:0005DAB5  7177 0001:0005DB33
  7178 0001:0005DB3A  7179 0001:0005DBB8  7180 0001:0005DBBF  7181 0001:0005DC3D
  7182 0001:0005DC44  7183 0001:0005DCC0  7184 0001:0005DCC7  7185 0001:0005DD45
  7186 0001:0005DD4C  7187 0001:0005DDCA  7188 0001:0005DDD1  7189 0001:0005DDE4
  7191 0001:0005DE64  7192 0001:0005DEC9  7193 0001:0005DED0  7194 0001:0005DF4E
  7195 0001:0005DF55  7196 0001:0005DFD3  7197 0001:0005DFDA  7198 0001:0005E058
  7199 0001:0005E05F  7200 0001:0005E0DD  7201 0001:0005E0E4  7203 0001:0005E0EB
  7205 0001:0005E1A6  7201 0001:0005E1AC  7208 0001:0005E1B9  7211 0001:0005E1D7
  7214 0001:0005E1DD  7215 0001:0005E1E8  7217 0001:0005E1FC  7218 0001:0005E206
  7219 0001:0005E20F  7221 0001:0005E22C  7222 0001:0005E234  7228 0001:0005E26D
  7229 0001:0005E29F  7231 0001:0005E3D4  7241 0001:0005ED3C  7242 0001:0005ED61
  7245 0001:0005ED66  7246 0001:0005ED73  7247 0001:0005ED84  7250 0001:0005ED92
  7258 0001:0005EDAD  7260 0001:0005EDE3  7261 0001:0005EDF1  7263 0001:0005EE2B
  7264 0001:0005EE30  7266 0001:0005EE70  7267 0001:0005EE77  7268 0001:0005EE83
  7269 0001:0005EEA5  7270 0001:0005EEC5  7272 0001:0005EF24  7276 0001:0005EF72
  7287 0001:0005EF8F  7288 0001:0005EFBB  7291 0001:0005EFF5  7293 0001:0005EFFB
  7295 0001:0005F00A  7297 0001:0005F01B  7299 0001:0005F021  7301 0001:0005F030
  7305 0001:0005F05A  7311 0001:0005F09C  7335 0001:0005F2DC  7336 0001:0005F310
  7337 0001:0005F315  7339 0001:0005F319  7341 0001:0005F333  7342 0001:0005F350
  7344 0001:0005F359  7346 0001:0005F35F  7347 0001:0005F363  7348 0001:0005F366
  7351 0001:0005F36C  7354 0001:0005F3A3  7355 0001:0005F3A7  7339 0001:0005F3AA
  7356 0001:0005F3AF  7357 0001:0005F3B5  7359 0001:0005F3C7  7360 0001:0005F3CE
  7361 0001:0005F3D4  7363 0001:0005F3E6  7364 0001:0005F3ED  7365 0001:0005F3F3
  7367 0001:0005F405  7368 0001:0005F40C  7369 0001:0005F412  7371 0001:0005F424
  7372 0001:0005F456  7374 0001:0005F474  7375 0001:0005F4AB  7378 0001:0005F4BD
  7381 0001:0005F4C9  7382 0001:0005F4D6  7383 0001:0005F50A  7384 0001:0005F54D
  7385 0001:0005F554  7387 0001:0005F580  7388 0001:0005F59E  7390 0001:0005F5AC
  7391 0001:0005F5B5  7396 0001:0005F5E2  7398 0001:0005F5F2  7400 0001:0005F5F9
  7407 0001:0005F60C  7409 0001:0005F61C  7411 0001:0005F623  7415 0001:0005F636
  7417 0001:0005F646  7419 0001:0005F64D  7423 0001:0005F660  7425 0001:0005F67C
  7427 0001:0005F683  7431 0001:0005F696  7433 0001:0005F6B2  7435 0001:0005F6B9
  7439 0001:0005F6CC  7441 0001:0005F6DC  7443 0001:0005F6E3  7447 0001:0005F6F6
  7449 0001:0005F706  7451 0001:0005F70D  7455 0001:0005F720  7457 0001:0005F730
  7459 0001:0005F737  7463 0001:0005F74A  7465 0001:0005F766  7467 0001:0005F76D
  7471 0001:0005F780  7473 0001:0005F790  7475 0001:0005F797  7479 0001:0005F7AA
  7481 0001:0005F7C6  7483 0001:0005F7CD  7487 0001:0005F7E0  7489 0001:0005F7F0
  7491 0001:0005F7F7  7495 0001:0005F80A  7497 0001:0005F81A  7499 0001:0005F821
  7503 0001:0005F834  7505 0001:0005F850  7507 0001:0005F857  7511 0001:0005F86A
  7513 0001:0005F87A  7515 0001:0005F881  7518 0001:0005F894  7520 0001:0005F8A4
  7522 0001:0005F8AB  7526 0001:0005F8BE  7528 0001:0005F8CE  7530 0001:0005F8D5
  7534 0001:0005F8E8  7536 0001:0005F8F8  7538 0001:0005F8FF  7542 0001:0005F912
  7544 0001:0005F92E  7546 0001:0005F935  7550 0001:0005F948  7552 0001:0005F958
  7554 0001:0005F95F  7558 0001:0005F972  7560 0001:0005F982  7562 0001:0005F989
  7566 0001:0005F99C  7568 0001:0005F9B8  7570 0001:0005F9BF  7574 0001:0005F9D2
  7576 0001:0005F9E2  7578 0001:0005F9E9  7582 0001:0005F9FC  7584 0001:0005FA0C
  7586 0001:0005FA13  7590 0001:0005FA26  7592 0001:0005FA36  7594 0001:0005FA3D
  7598 0001:0005FA50  7600 0001:0005FA60  7602 0001:0005FA67  7606 0001:0005FA7A
  7608 0001:0005FA8A  7610 0001:0005FA91  7614 0001:0005FAA4  7616 0001:0005FAC4
  7618 0001:0005FACB  7622 0001:0005FADB  7624 0001:0005FAF7  7626 0001:0005FAFE
  7630 0001:0005FB0E  7632 0001:0005FB2A  7634 0001:0005FB31  7639 0001:0005FB41
  7641 0001:0005FB48  7646 0001:0005FB56  7647 0001:0005FB5F  7648 0001:0005FB8C
  7652 0001:0005FB94  7653 0001:0005FBA1  7654 0001:0005FBD5  7655 0001:0005FC17
  7659 0001:0005FC1E  7660 0001:0005FC48  7661 0001:0005FC59  7662 0001:0005FC61
  7663 0001:0005FC69  7664 0001:0005FC71  7668 0001:0005FC7E  7669 0001:0005FC9C
  7674 0001:0005FCC5  7675 0001:0005FCCE  7678 0001:0005FCFE  7680 0001:0005FD0B
  7681 0001:0005FD3F  7682 0001:0005FD81  7683 0001:0005FD88  7685 0001:0005FDB4
  7686 0001:0005FDD4  7688 0001:0005FE08  7689 0001:0005FE1F  7692 0001:0005FE45
  7695 0001:0005FE5A  7696 0001:0005FE8E  7697 0001:0005FED0  7701 0001:0005FED7
  7702 0001:0005FF01  7703 0001:0005FF14  7704 0001:0005FF1F  7705 0001:0005FF2A
  7706 0001:0005FF35  7710 0001:0005FF42  7711 0001:0005FF62  7715 0001:0005FF96
  7716 0001:0005FFCA  7717 0001:0006000C  7721 0001:00060013  7722 0001:0006003D
  7723 0001:00060050  7727 0001:0006005A  7728 0001:0006007A  7731 0001:0006008B
  7732 0001:000600A1  7733 0001:000600B7  7735 0001:000600C2  7736 0001:000600CB
  7739 0001:00060108  7745 0001:0006014D  7747 0001:00060157  7756 0001:0006016A
  7767 0001:0006020A  7769 0001:00060214  7773 0001:00060227  7779 0001:00060283
  7781 0001:0006028D  7785 0001:000602A0  7788 0001:000602B7  7790 0001:000602C1
  7794 0001:000602D4  7797 0001:000602EB  7799 0001:000602F5  7805 0001:00060308
  7806 0001:0006031F  7808 0001:0006032E  7810 0001:00060345  7812 0001:0006034F
  7816 0001:00060362  7831 0001:00060461  7833 0001:0006046B  7837 0001:0006047E
  7843 0001:000604CC  7845 0001:000604D6  7850 0001:000604E9  7852 0001:00060500
  7854 0001:0006050A  7872 0001:0006051D  7874 0001:00060534  7876 0001:0006053E
  7880 0001:00060551  7882 0001:00060568  7884 0001:00060572  7886 0001:00060580
  7888 0001:00060592  7890 0001:000605A9  7892 0001:000605B3  7894 0001:000605C1
  7895 0001:000605CB  7897 0001:000605DA  7899 0001:000605F1  7901 0001:000605FB
  7906 0001:0006060E  7908 0001:00060625  7910 0001:0006062F  7914 0001:00060642
  7916 0001:00060659  7918 0001:00060663  7922 0001:00060676  7929 0001:000606E9
  7931 0001:000606F3  7934 0001:00060706  7936 0001:0006071D  7938 0001:00060727
  7942 0001:0006073A  7944 0001:00060751  7946 0001:0006075B  7949 0001:0006076E
  7951 0001:00060785  7953 0001:0006078F  7957 0001:000607A2  7959 0001:000607B9
  7961 0001:000607C3  7963 0001:000607D1  7964 0001:000607E1  7967 0001:000607F0
  7969 0001:00060807  7971 0001:00060811  7975 0001:00060824  7977 0001:0006083B
  7979 0001:00060845  7984 0001:00060858  7989 0001:00060886  7991 0001:00060890
  7997 0001:0006089E  7998 0001:000608AA  7999 0001:000608B4  8000 0001:000608C4
  8003 0001:000608D3  8006 0001:000608F3  8008 0001:000608FD  8010 0001:0006090B
  8011 0001:00060918  8015 0001:00060927  8021 0001:0006095E  8023 0001:00060968
  8027 0001:00060976  8028 0001:00060982  8029 0001:0006098C  8030 0001:0006099C
  8034 0001:000609AB  8040 0001:000609E2  8042 0001:000609EC  8046 0001:000609FF
  8052 0001:00060A36  8054 0001:00060A40  8058 0001:00060A53  8064 0001:00060A8E
  8066 0001:00060A98  8068 0001:00060AA6  8070 0001:00060AC1  8071 0001:00060ACD
  8072 0001:00060AD7  8073 0001:00060AE7  8077 0001:00060AF6  8085 0001:00060B44
  8087 0001:00060B4E  8091 0001:00060B5E  8097 0001:00060B95  8099 0001:00060B9F
  8101 0001:00060BAD  8102 0001:00060BB9  8107 0001:00060BC5  8109 0001:00060BCF
  8122 0001:00060BDD  8123 0001:00060BE6  8124 0001:00060C13  8129 0001:00060C1B
  8138 0001:00060C78  8146 0001:00060C84  8147 0001:00060C8B  8153 0001:00060C97
  8154 0001:00060CA3  8156 0001:00060CB6  8157 0001:00060CBD  8162 0001:00060CCC
  8163 0001:00060CD3  8166 0001:00060CDD  8167 0001:00060CE7  8180 0001:00060CF3
  8184 0001:00060CFD  8188 0001:00060D6F  8196 0001:00060D7E  8198 0001:00060D8B
  8199 0001:00060D98  8204 0001:00060DA7  8208 0001:00060DB4  8210 0001:00060DCB
  8220 0001:00060DD5  8221 0001:00060DDE  8223 0001:00060DE8  8249 0001:00060E0A
  8256 0001:00060E19  8261 0001:00060E28  8263 0001:00060E32  8267 0001:00060E41
  8269 0001:00060E4B  8271 0001:00060E55  8273 0001:00060E62  8282 0001:00060E71
  8286 0001:00060E80  8288 0001:00060E87  8291 0001:00060E91  8293 0001:00060E9B
  8294 0001:00060EA7  8296 0001:00060EB1  8314 0001:00060EBD  8321 0001:00060EC9
  8330 0001:00060ED5  8335 0001:00060EE1  8353 0001:00060EED  8357 0001:00060EF7
  8393 0001:00060F01  8396 0001:00060F16  8399 0001:00060F2E  8401 0001:00060F38
  8404 0001:00060F50  8407 0001:00060F5A  8409 0001:00060F66  8410 0001:00060F72
  8412 0001:00060F7E  8415 0001:00060F88  8417 0001:00060F94  8418 0001:00060FA0
  8421 0001:00060FAA  8425 0001:00060FC2  8427 0001:00060FEE  8428 0001:00061015
  8429 0001:0006103C  8430 0001:00061066  8431 0001:00061090  8432 0001:000610C4
  8433 0001:000610F5  8436 0001:0006116A  8445 0001:00061F28  8446 0001:00061F3C
  8448 0001:00061F4E  8449 0001:00061F57  8451 0001:00061F7A  8453 0001:00061F86
  8455 0001:00061FA1  8457 0001:00061FBC  8459 0001:00061FC4  8461 0001:00061FDA
  8462 0001:00061FEB  8464 0001:00061FF5  8466 0001:00062005  8468 0001:00062011
  8469 0001:00062017  8470 0001:00062020  8471 0001:00062026  8472 0001:0006202D
  8474 0001:0006204A  8475 0001:00062068  8477 0001:0006206F  8479 0001:00062075
  8481 0001:000620A2  8484 0001:000620CF  8486 0001:000620DC  8488 0001:000620E6
  8490 0001:000620F8  8491 0001:000620FE  8492 0001:00062115  8494 0001:0006211C
  8496 0001:00062122  8498 0001:0006214F  8501 0001:0006217C  8502 0001:00062186
  8488 0001:00062189  8507 0001:00062198  8509 0001:000621A2  8511 0001:000621BC
  8513 0001:000621C3  8515 0001:000621C9  8517 0001:000621F6  8523 0001:00062223
  8525 0001:00062229  8526 0001:00062231  8528 0001:00062238  8530 0001:00062242
  8531 0001:00062253  8533 0001:00062260  8535 0001:0006226F  8537 0001:0006229C
  8541 0001:000622D1  8545 0001:0006230B  8547 0001:0006231B  8459 0001:0006231E
  8549 0001:00062330  8550 0001:00062339  8554 0001:0006234C  8556 0001:00062366
  8558 0001:00062386  8560 0001:0006239B  8561 0001:000623A4  8563 0001:000623BD
  8564 0001:000623D5  8566 0001:000623DC  8568 0001:000623E2  8570 0001:0006240E
  8573 0001:0006243A  8558 0001:0006243D  8574 0001:00062447  8577 0001:00062454
  8578 0001:00062466  8580 0001:0006246D  8582 0001:00062473  8584 0001:0006249F
  8587 0001:000624D3  8588 0001:000624DA  8591 0001:0006250E  8593 0001:00062515
  8596 0001:0006252A  8597 0001:00062533  8599 0001:00062543  8601 0001:0006255E
  8604 0001:00062561  8605 0001:0006256C  8606 0001:0006257D  8607 0001:00062584
  8611 0001:000625BA  8612 0001:000625E6  8614 0001:0006261B  8617 0001:00062828
  8618 0001:0006283F  8619 0001:00062845  8620 0001:00062865  8621 0001:00062870
  8622 0001:00062890  8625 0001:000628AC  8626 0001:000628C3  8627 0001:000628F5
  8628 0001:00062915  8634 0001:00062934  8635 0001:0006294B  8636 0001:00062958
  8664 0001:00062964  8666 0001:00062982  8668 0001:00062989  8671 0001:000629B3
  8674 0001:000629D0  8681 0001:000629ED  8683 0001:00062A08  8684 0001:00062A0F
  8686 0001:00062A19  8687 0001:00062A20  8688 0001:00062A4A  8690 0001:00062A65
  8691 0001:00062A78  8695 0001:00062AA4  8696 0001:00062AAB  8701 0001:00062AE8
  8702 0001:00062B14  8704 0001:00062B29  8707 0001:00062BE4  8708 0001:00062BFB
  8709 0001:00062C08  8711 0001:00062C14  8712 0001:00062C1D  8715 0001:00062C3A
  8716 0001:00062C66  8718 0001:00062C7B  8733 0001:00062D04  8735 0001:00062D41
  8737 0001:00062D46  8752 0001:00062D7B  8754 0001:00062D87  8755 0001:00062D8C
  8756 0001:00062D94  8760 0001:00062DF5  8762 0001:00062E07  8763 0001:00062E10
  8766 0001:00062E44  8777 0001:00062E6A  8778 0001:00062E73  8781 0001:00062EA7
  8789 0001:00062ECD  8791 0001:00062EE2  8793 0001:00062EEB  8795 0001:00062F0F
  8796 0001:00062F16  8798 0001:00062F40  8802 0001:00062F61  8803 0001:00062F69
  8806 0001:00062F6F  8807 0001:00062F7C  8812 0001:00062FBA  8814 0001:00062FC6
  8816 0001:00062FD5  8817 0001:00062FE0  8835 0001:00062FED  8841 0001:00062FF9
  8844 0001:00063006  8845 0001:00063014  8847 0001:0006301C  8848 0001:00063029
  8853 0001:00063054  8855 0001:00063060  8857 0001:00063077  8858 0001:0006307F
  8860 0001:0006308C  8862 0001:000630AA  8863 0001:000630B1  8865 0001:000630DB
  8867 0001:000630E4  8869 0001:00063102  8870 0001:00063109  8873 0001:00063133
  8875 0001:00063151  8876 0001:00063158  8879 0001:00063182  8880 0001:00063189
  8881 0001:00063192  8882 0001:00063199  8883 0001:000631A2  8884 0001:000631AA
  8888 0001:000631B5  8891 0001:000631BE  8892 0001:000631CB  8897 0001:000631F5
  8899 0001:00063201  8901 0001:00063218  8902 0001:00063220  8904 0001:00063229
  8906 0001:00063247  8907 0001:0006324E  8909 0001:00063278  8913 0001:00063283
  8916 0001:0006328C  8917 0001:00063299  8922 0001:000632C3  8924 0001:000632CF
  8926 0001:000632E6  8927 0001:000632EE  8929 0001:000632F7  8931 0001:00063315
  8932 0001:0006331C  8934 0001:00063346  8938 0001:00063351  8941 0001:0006335A
  8942 0001:00063367  8947 0001:00063391  8949 0001:0006339D  8951 0001:000633B4
  8952 0001:000633BC  8954 0001:000633C5  8956 0001:000633E3  8957 0001:000633EA
  8959 0001:00063414  8963 0001:0006341F  8966 0001:00063428  8967 0001:00063435
  8972 0001:0006345F  8974 0001:0006346B  8976 0001:00063482  8977 0001:0006348A
  8979 0001:00063493  8981 0001:000634B1  8982 0001:000634B8  8984 0001:000634E2
  8988 0001:000634ED  8991 0001:000634F6  8992 0001:00063503  8997 0001:0006352D
  8999 0001:00063539  9001 0001:0006354E  9003 0001:0006355B  9005 0001:00063566
  9007 0001:00063573  9009 0001:00063593  9010 0001:0006359A  9012 0001:000635C4
  9014 0001:000635D0  9015 0001:000635D6  9016 0001:000635DD  9020 0001:000635EA
  9021 0001:000635F2  9026 0001:000635FF  9027 0001:00063605  9032 0001:0006360F
  9034 0001:00063618  9036 0001:0006363B  9037 0001:00063642  9042 0001:0006366E
  9043 0001:00063674  9049 0001:0006367E  9050 0001:00063684  9053 0001:0006368C
  9054 0001:00063699  9059 0001:000636D9  9061 0001:000636E5  9063 0001:000636FA
  9065 0001:00063707  9067 0001:00063712  9069 0001:00063732  9070 0001:00063739
  9072 0001:00063763  9073 0001:0006376B  9075 0001:00063773  9076 0001:00063780
  9082 0001:000637C0  9084 0001:000637E3  9085 0001:000637EA  9088 0001:00063814
  9089 0001:00063821  9096 0001:00063861  9097 0001:00063867  9098 0001:0006386F
  9102 0001:0006387B  9107 0001:00063887  9109 0001:0006389C  9111 0001:000638A5
  9113 0001:000638C5  9114 0001:000638CC  9116 0001:000638F6  9117 0001:000638FC
  9119 0001:00063904  9123 0001:0006390C  9125 0001:00063912  9127 0001:0006391A
  9128 0001:00063927  9133 0001:00063952  9136 0001:0006395E  9138 0001:00063973
  9140 0001:0006397C  9142 0001:0006399A  9143 0001:000639A1  9146 0001:000639CB
  9149 0001:000639D1  9151 0001:000639D9  9155 0001:000639E1  9157 0001:000639E7
  9159 0001:000639EF  9160 0001:000639FC  9165 0001:00063A27  9167 0001:00063A33
  9171 0001:00063A42  9172 0001:00063A54  9174 0001:00063A5C  9175 0001:00063A69
  9180 0001:00063A98  9183 0001:00063AA4  9186 0001:00063AB1  9187 0001:00063ABA
  9190 0001:00063AE0  9191 0001:00063AE6  9194 0001:00063AF3  9200 0001:00063AFF
  9201 0001:00063B08  9204 0001:00063B2E  9208 0001:00063B3A  9211 0001:00063B67
  9212 0001:00063B6A  9213 0001:00063B73  9214 0001:00063B76  9215 0001:00063B7F
  9218 0001:00063B82  9219 0001:00063B8D  9220 0001:00063B9E  9224 0001:00063BC4
  9225 0001:00063BF0  9227 0001:00063C42  9248 0001:000643C0  9249 0001:000643D6
  9250 0001:000643DE  9252 0001:000643E2  9254 0001:000643F7  9255 0001:0006440C
  9257 0001:00064444  9258 0001:0006447A  9250 0001:0006447D  9261 0001:00064487
  9274 0001:00064556  9275 0001:0006456C  9276 0001:00064592  9280 0001:000645B6
  9281 0001:000645FA  9287 0001:00064660  9307 0001:0006467A  9308 0001:00064691
  9309 0001:000646A3  9311 0001:000646B2  9313 0001:000646E1  9314 0001:000646EB
  9317 0001:00064720  9318 0001:00064735  9320 0001:00064742  9322 0001:0006475D
  9323 0001:00064769  9325 0001:0006478F  9326 0001:000647D6  9336 0001:00064860
  9337 0001:0006487A  9338 0001:00064895  9339 0001:000648A0  9340 0001:000648BD
  9342 0001:000648D8  9343 0001:000648F8  9344 0001:00064906  9346 0001:00064913
  9347 0001:0006492C  9349 0001:00064936  9350 0001:0006493E  9353 0001:00064962
  9357 0001:0006497C  9359 0001:0006498E  9360 0001:00064998  9362 0001:000649AB
  9364 0001:000649BD  9365 0001:000649C7  9373 0001:000649DA  9376 0001:000649EC
  9377 0001:00064A07  9379 0001:00064A1A  9381 0001:00064A2D  9384 0001:00064A3F
  9385 0001:00064A52  9387 0001:00064A65  9389 0001:00064A78  9391 0001:00064A8A
  9393 0001:00064A9D  9395 0001:00064AAF  9403 0001:00064AC5  9405 0001:00064AD7
  9407 0001:00064AEA  9409 0001:00064AFC  9410 0001:00064B17  9412 0001:00064B2D
  9414 0001:00064B37  9416 0001:00064B49  9417 0001:00064B53  9419 0001:00064B63
  9421 0001:00064B75  9422 0001:00064B84  9424 0001:00064B94  9442 0001:00064BA2
  9443 0001:00064BAE  9446 0001:00064BDE  9447 0001:00064C22  9454 0001:00064E74
  9455 0001:00064E8E  9457 0001:00064EA2  9459 0001:00064EB2  9461 0001:00064EC2
  9463 0001:00064ED2  9465 0001:00064F05  9470 0001:00064F74  9471 0001:00064F93
  9474 0001:0006500A  9476 0001:0006502A  9478 0001:0006504A  9480 0001:0006505E
  9482 0001:00065071  9484 0001:00065084  9486 0001:00065097  9493 0001:000650B7
  9497 0001:000650D5  9505 0001:000650F2  9507 0001:0006510D  9509 0001:0006511F
  9511 0001:0006513A  9513 0001:00065172  9516 0001:000651E0  9517 0001:000651FE
  9520 0001:00065203  9522 0001:0006522D  9524 0001:00065239  9526 0001:000652FE
  9528 0001:00065313  9530 0001:0006531C  9531 0001:0006532A  9533 0001:00065346
  9534 0001:0006534D  9536 0001:00065376  9539 0001:00065384  9541 0001:0006538B
  9542 0001:00065398  9546 0001:000653C7  9554 0001:000653D3  9555 0001:000653E0
  9557 0001:000653EB  9562 0001:000653F7  9564 0001:00065406  9566 0001:00065411
  9567 0001:0006541E  9571 0001:00065449  9574 0001:00065455  9579 0001:00065472
  9583 0001:0006548F  9586 0001:000654AC  9588 0001:000654C3  9590 0001:000654CF
  9591 0001:000654DD  9593 0001:000654F9  9594 0001:00065500  9598 0001:0006552B
  9599 0001:00065532  9602 0001:00065538  9603 0001:00065543  9605 0001:00065549
  9606 0001:00065554  9608 0001:0006555A  9609 0001:00065563  9611 0001:00065569
  9614 0001:00065572  9615 0001:0006557F  9619 0001:000655B1  9622 0001:000655BD
  9627 0001:000655CC  9630 0001:000655E6  9634 0001:000655F2  9635 0001:000655FB
  9638 0001:00065621  9642 0001:00065644  9643 0001:00065653  9645 0001:00065663
  9647 0001:0006566F  9648 0001:0006567E  9650 0001:0006568E  9652 0001:0006569A
  9655 0001:000656B7  9658 0001:000656C3  9665 0001:000656E0  9671 0001:000656F7
  9672 0001:00065703  9677 0001:0006570D  9685 0001:00065716  9686 0001:0006571E
  9697 0001:00065757  9709 0001:0006577A  9710 0001:00065783  9713 0001:000657B7
  9717 0001:000657E3  9719 0001:000657EF  9721 0001:00065804  9723 0001:0006580D
  9724 0001:0006581B  9726 0001:0006583B  9727 0001:00065842  9731 0001:0006586D
  9733 0001:00065874  9734 0001:00065881  9738 0001:000658A9  9741 0001:000658B5
  9745 0001:000658D2  9746 0001:000658E1  9748 0001:000658ED  9750 0001:000658F9
  9753 0001:00065906  9754 0001:0006590F  9756 0001:00065943  9758 0001:0006594C
  9759 0001:0006595A  9763 0001:00065967  9764 0001:0006596D  9769 0001:0006597A
  9770 0001:00065982  9773 0001:0006598E  9776 0001:00065995  9777 0001:0006599E
  9779 0001:000659C4  9783 0001:000659E7  9785 0001:000659F3  9788 0001:00065A10
  9790 0001:00065A25  9791 0001:00065A37  9793 0001:00065A47  9795 0001:00065A50
  9797 0001:00065A6E  9798 0001:00065A75  9800 0001:00065A9F  9803 0001:00065AAC
  9804 0001:00065AB9  9808 0001:00065AE4  9812 0001:00065AF0  9814 0001:00065AFF
  9815 0001:00065B11  9818 0001:00065B1E  9820 0001:00065B2A  9823 0001:00065B47
  9826 0001:00065B64  9828 0001:00065B71  9830 0001:00065B83  9831 0001:00065B90
  9835 0001:00065BBB  9839 0001:00065BC7  9842 0001:00065BCE  9843 0001:00065BD7
  9845 0001:00065C0B  9849 0001:00065C31  9852 0001:00065C3D  9854 0001:00065C48
  9856 0001:00065C54  9857 0001:00065C66  9862 0001:00065C89  9866 0001:00065CA3
  9867 0001:00065CB0  9871 0001:00065CEE  9873 0001:00065CFA  9875 0001:00065D05
  9876 0001:00065D11  9880 0001:00065D34  9884 0001:00065D4E  9885 0001:00065D5B
  9889 0001:00065D99  9891 0001:00065DA5  9894 0001:00065DAC  9895 0001:00065DB5
  9897 0001:00065DE9  9901 0001:00065E0F  9903 0001:00065E1B  9911 0001:00065E22
  9913 0001:00065E56  9914 0001:00065E63  9918 0001:00065EA1  9920 0001:00065EAD
  9921 0001:00065EB4  9923 0001:00065EC0  9925 0001:00065ECC  9927 0001:00065EDB
  9928 0001:00065EE7  9930 0001:00065EF5  9933 0001:00065F08  9936 0001:00065F14
  9939 0001:00065F1B  9940 0001:00065F24  9942 0001:00065F4A  9946 0001:00065F6D
  9949 0001:00065F79  9950 0001:00065F88  9952 0001:00065F9B  9954 0001:00065FA7
  9957 0001:00065FC4  9960 0001:00065FE1  9963 0001:00065FFE  9966 0001:0006601B
  9967 0001:00066028  9969 0001:0006603B  9971 0001:00066047  9974 0001:00066054
  9975 0001:0006605D  9977 0001:0006609C  9980 0001:000660AC  9984 0001:000660B5
  9986 0001:000660BE  9987 0001:000660C5  9989 0001:000660CE  9992 0001:000660D7
  9997 0001:00066111  9998 0001:00066117 10000 0001:0006615A 10004 0001:0006618B
 10005 0001:0006618E 10006 0001:00066197 10007 0001:0006619A 10008 0001:000661A3
 10011 0001:000661A6 10012 0001:000661B1 10013 0001:000661C2 10014 0001:000661C9
 10018 0001:000661FF 10019 0001:0006622B 10021 0001:00066290 10024 0001:00066D74
 10025 0001:00066D93 10026 0001:00066D98 10028 0001:00066DA5 10030 0001:00066DAC
 10031 0001:00066DBE 10032 0001:00066DD6 10034 0001:00066E0D 10037 0001:00066E10
 10038 0001:00066E18 10039 0001:00066E23 10040 0001:00066E34 10041 0001:00066E3B
 10045 0001:00066E71 10046 0001:00066E9D 10048 0001:00066EEB 10051 0001:00066FF0
 10052 0001:0006700F 10053 0001:00067014 10055 0001:00067021 10057 0001:00067028
 10058 0001:0006703A 10059 0001:00067052 10061 0001:0006708B 10064 0001:0006708E
 10065 0001:00067096 10066 0001:000670A1 10067 0001:000670B2 10068 0001:000670B9
 10072 0001:000670EF 10073 0001:0006711B 10075 0001:00067169 10091 0001:00067274
 10092 0001:0006728C 10095 0001:000672AA 10097 0001:000672C5 10098 0001:000672FE
 10107 0001:00067318 10108 0001:00067333 10109 0001:00067340 10114 0001:00067350
 10115 0001:00067354 10122 0001:0006737C 10124 0001:00067392 10125 0001:000673C3
 10126 0001:000673DB 10132 0001:000673E5 10134 0001:000673F3 10135 0001:000673F7
 10137 0001:00067407 10138 0001:0006741D 10140 0001:00067462 10141 0001:00067493
 10142 0001:000674A4 10147 0001:000674A8 10148 0001:000674B8 10150 0001:000674BC
 10157 0001:000674E4 10159 0001:00067502 10170 0001:00067544 10172 0001:00067559
 10173 0001:00067578 10175 0001:00067586 10178 0001:000675C4 10179 0001:000675D8
 10183 0001:0006761A 10186 0001:00067652 10187 0001:00067668 10192 0001:000676C4
 10193 0001:000676DA 10198 0001:00067736 10199 0001:00067755 10204 0001:000677A0
 10205 0001:000677B3 10210 0001:0006780C 10211 0001:00067822 10212 0001:00067856
 10220 0001:00067888 10222 0001:00067894 10148 0001:00067897 10225 0001:000678A1
 10226 0001:000678A7 10228 0001:000678C0 10229 0001:0006791B 10241 0001:000679BC
 10242 0001:000679D6 10244 0001:00067A3B 10246 0001:00067A4E 10248 0001:00067A60
 10250 0001:00067A70 10252 0001:00067A80 10254 0001:00067A90 10271 0001:00067AA0
 10273 0001:00067AB0 10275 0001:00067ABF 10277 0001:00067AF0 10280 0001:00067BB0
 10281 0001:00067BCD 10284 0001:00067BD2 10286 0001:00067C28 10288 0001:00067C34
 10291 0001:00067CF1 10293 0001:00067CFE 10294 0001:00067D04 10296 0001:00067D0B
 10299 0001:00067D12 10300 0001:00067D1B 10303 0001:00067D45 10305 0001:00067D53
 10306 0001:00067D6F 10307 0001:00067D76 10310 0001:00067D9F 10330 0001:00067DA7
 10331 0001:00067DC1 10332 0001:00067DC8 10335 0001:00067DF1 10336 0001:00067DF7
 10337 0001:00067E00 10340 0001:00067E11 10344 0001:00067E1D 10351 0001:00067E3A
 10353 0001:00067E43 10354 0001:00067E50 10359 0001:00067E7B 10368 0001:00067E98
 10370 0001:00067E9F 10374 0001:00067EB1 10375 0001:00067EC1 10380 0001:00067ED3
 10383 0001:00067EF0 10385 0001:00067F0D 10391 0001:00067F1C 10393 0001:00067F23
 10399 0001:00067F33 10401 0001:00067F3A 10407 0001:00067F4A 10409 0001:00067F51
 10415 0001:00067F61 10417 0001:00067F6F 10423 0001:00067FA0 10424 0001:00067FA9
 10428 0001:00067FCC 10430 0001:00067FDA 10431 0001:00067FF6 10432 0001:00067FFD
 10435 0001:00068026 10437 0001:00068032 10439 0001:00068040 10441 0001:00068056
 10442 0001:00068067 10448 0001:00068099 10449 0001:000680B5 10450 0001:000680BC
 10452 0001:000680E7 10439 0001:000680EA 10454 0001:000680F4 10455 0001:0006810E
 10456 0001:00068119 10462 0001:00068147 10468 0001:00068164 10475 0001:00068181
 10481 0001:000681A3 10483 0001:000681BB 10484 0001:000681C2 10487 0001:000681FE
 10489 0001:00068203 10491 0001:0006820C 10492 0001:00068230 10499 0001:0006826F
 10501 0001:00068287 10502 0001:0006828E 10505 0001:000682D7 10507 0001:000682DC
 10509 0001:000682E5 10510 0001:00068309 10514 0001:00068355 10517 0001:00068372
 10522 0001:0006838F 10530 0001:000683AC 10534 0001:000683C9 10539 0001:000683E6
 10544 0001:00068403 10547 0001:00068420 10550 0001:0006843D 10553 0001:0006845A
 10557 0001:00068477 10560 0001:00068494 10563 0001:000684B1 10568 0001:000684CE
 10573 0001:000684E9 10575 0001:00068504 10576 0001:0006850D 10579 0001:00068547
 10580 0001:0006857E 10582 0001:000685AB 10583 0001:000685B8 10587 0001:000685F7
 10593 0001:00068607 10596 0001:00068612 10597 0001:0006861B 10600 0001:0006863E
 10601 0001:00068663 10603 0001:0006866D 10605 0001:00068676 10606 0001:00068686
 10610 0001:0006869B 10611 0001:000686A9 10612 0001:000686B4 10616 0001:000686DD
 10618 0001:000686EB 10620 0001:00068701 10621 0001:00068712 10626 0001:00068747
 10628 0001:0006876C 10630 0001:0006878D 10631 0001:00068794 10634 0001:000687BF
 10618 0001:000687C2 10637 0001:000687CC 10639 0001:000687EB 10640 0001:000687F2
 10642 0001:0006881B 10648 0001:0006882B 10649 0001:00068838 10658 0001:00068877
 10661 0001:00068882 10664 0001:0006888E 10666 0001:0006889B 10667 0001:000688A1
 10669 0001:000688B2 10674 0001:000688C4 10676 0001:000688D1 10678 0001:000688F0
 10679 0001:000688FD 10685 0001:00068928 10686 0001:00068935 10690 0001:00068964
 10695 0001:00068981 10700 0001:0006899E 10705 0001:000689BB 10709 0001:000689D8
 10712 0001:000689E9 10714 0001:00068A04 10715 0001:00068A0D 10717 0001:00068A30
 10719 0001:00068A3A 10721 0001:00068A6C 10723 0001:00068A8B 10724 0001:00068A9C
 10728 0001:00068AA8 10729 0001:00068ACD 10735 0001:00068AD9 10740 0001:00068B25
 10741 0001:00068B32 10746 0001:00068B82 10750 0001:00068BD8 10753 0001:00068BDB
 10754 0001:00068BE6 10755 0001:00068BF7 10756 0001:00068BFE 10760 0001:00068C34
 10761 0001:00068C60 10763 0001:00068CE1 10771 0001:00069A58 10772 0001:00069A72
 10773 0001:00069A7F 10775 0001:00069A91 10776 0001:00069AA9 10779 0001:00069AB3
 10780 0001:00069ABF 10781 0001:00069AC9 10782 0001:00069AD2 10787 0001:00069AD9
 10788 0001:00069AF0 10791 0001:00069AFA 10792 0001:00069B05 10793 0001:00069B0F
 10794 0001:00069B19 10797 0001:00069B21 10800 0001:00069B2D 10801 0001:00069B32
 10802 0001:00069B4E 10803 0001:00069B55 10806 0001:00069B7E 10808 0001:00069B84
 10810 0001:00069B9C 10811 0001:00069BA3 10814 0001:00069BCC 10815 0001:00069BD4
 10816 0001:00069BE0 10820 0001:00069C00 10821 0001:00069C2C 10823 0001:00069C41
 10826 0001:00069DA4 10827 0001:00069DB4 10828 0001:00069DC0 10831 0001:00069DD0
 10832 0001:00069DE0 10833 0001:00069DEF 10839 0001:00069DFC 10840 0001:00069E18
 10841 0001:00069E25 10842 0001:00069E2B 10843 0001:00069E3B 10844 0001:00069E43
 10845 0001:00069E4B 10847 0001:00069E64 10848 0001:00069E94 10850 0001:00069EB4
 10851 0001:00069EBF 10853 0001:00069EC7 10845 0001:00069ECA 10854 0001:00069ECF
 10855 0001:00069ED5 10856 0001:00069EE0 10858 0001:00069EFB 10859 0001:00069F27
 10861 0001:00069F5C 10864 0001:00069FFC 10865 0001:0006A00C 10866 0001:0006A01A
 10869 0001:0006A028 10870 0001:0006A037 10871 0001:0006A045 10874 0001:0006A04C
 10875 0001:0006A05C 10876 0001:0006A068 10879 0001:0006A078 10880 0001:0006A088
 10881 0001:0006A094 10884 0001:0006A0A4 10885 0001:0006A0B4 10886 0001:0006A0C0
 10889 0001:0006A0D0 10890 0001:0006A0E0 10891 0001:0006A0EF 10894 0001:0006A0FC
 10895 0001:0006A10B 10896 0001:0006A119 10899 0001:0006A120 10900 0001:0006A12F
 10901 0001:0006A140 10904 0001:0006A148 10905 0001:0006A158 10906 0001:0006A167
 10909 0001:0006A174 10910 0001:0006A184 10911 0001:0006A193 10914 0001:0006A1A0
 10915 0001:0006A1B0 10916 0001:0006A1BF 10919 0001:0006A1CC 10920 0001:0006A1DC
 10921 0001:0006A1EB 10924 0001:0006A1F8 10925 0001:0006A207 10926 0001:0006A218
 10934 0001:0006A220 10935 0001:0006A230 10936 0001:0006A23F 10939 0001:0006A24C
 10940 0001:0006A25C 10941 0001:0006A26E 10944 0001:0006A27C 10945 0001:0006A28C
 10946 0001:0006A29B 10949 0001:0006A2A8 10950 0001:0006A2B8 10951 0001:0006A2C7
 10954 0001:0006A2D4 10955 0001:0006A2E4 10956 0001:0006A2F1 10959 0001:0006A300
 10960 0001:0006A310 10961 0001:0006A31F 10964 0001:0006A32C 10965 0001:0006A33C
 10966 0001:0006A348 10969 0001:0006A358 10970 0001:0006A367 10971 0001:0006A378
 10974 0001:0006A380 10975 0001:0006A390 10976 0001:0006A39F 10985 0001:0006A3AC
 10986 0001:0006A3EC 10987 0001:0006A422 10988 0001:0006A42C 10989 0001:0006A433
 10991 0001:0006A43B 10992 0001:0006A444 10993 0001:0006A453 10994 0001:0006A462
 10995 0001:0006A46A 10996 0001:0006A472 10997 0001:0006A481 10998 0001:0006A488
 10999 0001:0006A492 11000 0001:0006A49C 11003 0001:0006A4A4 11006 0001:0006A4CD
 11007 0001:0006A52B 11009 0001:0006A5B8 11016 0001:0006A648 11017 0001:0006A65F
 11019 0001:0006A66C 11020 0001:0006A673 11021 0001:0006A67A 11022 0001:0006A683
 11024 0001:0006A68F 11025 0001:0006A6A8 11026 0001:0006A6B2 11027 0001:0006A6BB
 11029 0001:0006A6C3 11030 0001:0006A6CF 11033 0001:0006A6FF 11034 0001:0006A706
 11036 0001:0006A725 11039 0001:0006A732 11042 0001:0006A74D 11043 0001:0006A754
 11045 0001:0006A783 11047 0001:0006A78C 11049 0001:0006A793 11050 0001:0006A7B3
 11052 0001:0006A7DD 11056 0001:0006A7EC 11057 0001:0006A7FB 11059 0001:0006A837
 11060 0001:0006A863 11062 0001:0006A878 11067 0001:0006A908 11068 0001:0006A925
 11069 0001:0006A966 11070 0001:0006A96D 11071 0001:0006A974 11072 0001:0006A981
 11074 0001:0006A98D 11082 0001:0006A99A 11084 0001:0006A9A7 11086 0001:0006A9B1
 11087 0001:0006A9BD 11089 0001:0006A9E6 11090 0001:0006A9F8 11092 0001:0006A9FF
 11095 0001:0006AA2E 11096 0001:0006AA42 11099 0001:0006AA49 11101 0001:0006AA78
 11103 0001:0006AA85 11104 0001:0006AA9B 11107 0001:0006AAA2 11109 0001:0006AAD1
 11110 0001:0006AAE7 11113 0001:0006AAEE 11115 0001:0006AB1D 11117 0001:0006AB29
 11119 0001:0006AB2F 11120 0001:0006AB39 11122 0001:0006AB50 11123 0001:0006AB59
 11126 0001:0006AB61 11127 0001:0006AB67 11130 0001:0006AB82 11131 0001:0006ABAE
 11133 0001:0006ABC3 11139 0001:0006AC8C 11140 0001:0006ACA3 11141 0001:0006ACB0
 11143 0001:0006ACBD 11145 0001:0006ACCF 11146 0001:0006ACE0 11147 0001:0006ACF0
 11148 0001:0006ACF8 11143 0001:0006ACFB 11149 0001:0006AD01 11152 0001:0006AD1F
 11153 0001:0006AD4B 11155 0001:0006AD60 11158 0001:0006ADD4 11159 0001:0006AE07
 11160 0001:0006AE3D 11161 0001:0006AE58 11163 0001:0006AE79 11164 0001:0006AED7
 11166 0001:0006AF54 11169 0001:0006AFD0 11170 0001:0006AFE8 11171 0001:0006AFF6
 11172 0001:0006B00A 11175 0001:0006B018 11176 0001:0006B034 11178 0001:0006B069
 11181 0001:0006B078 11182 0001:0006B08C 11183 0001:0006B099 11184 0001:0006B0B3
 11185 0001:0006B0C1 11186 0001:0006B0CD 11189 0001:0006B0EA 11190 0001:0006B116
 11192 0001:0006B12B 11193 0001:0006B133 11199 0001:0006B1A4 11200 0001:0006B1C7
 11201 0001:0006B1D5 11202 0001:0006B1DE 11203 0001:0006B1EF 11204 0001:0006B200
 11205 0001:0006B209 11207 0001:0006B24F 11208 0001:0006B275 11211 0001:0006B2B3
 11212 0001:0006B2C1 11214 0001:0006B2D2 11215 0001:0006B2DB 11217 0001:0006B2E9
 11218 0001:0006B2EE 11219 0001:0006B2F4 11220 0001:0006B2FD 11221 0001:0006B300
 11222 0001:0006B306 11223 0001:0006B317 11224 0001:0006B31D 11225 0001:0006B32E
 11226 0001:0006B33F 11222 0001:0006B342 11229 0001:0006B347 11231 0001:0006B358
 11232 0001:0006B364 11234 0001:0006B3B1 11242 0001:0006B464 11243 0001:0006B47B
 11244 0001:0006B481 11245 0001:0006B48E 11259 0001:0006B49A 11260 0001:0006B49F
 11264 0001:0006B4A5 11266 0001:0006B4B0 11267 0001:0006B4C2 11269 0001:0006B4C9
 11270 0001:0006B4D7 11272 0001:0006B4ED 11273 0001:0006B521 11275 0001:0006B52B
 11276 0001:0006B540 11278 0001:0006B547 11279 0001:0006B57B 11281 0001:0006B585
 11282 0001:0006B588 11284 0001:0006B591 11285 0001:0006B597 11264 0001:0006B599
 11290 0001:0006B5B7 11291 0001:0006B5E3 11293 0001:0006B61A 11305 0001:0006B6F4
 11309 0001:0006B710 11310 0001:0006B72E 11312 0001:0006B752 11314 0001:0006B770
 11315 0001:0006B785 11319 0001:0006B794 11333 0001:0006B98C 11342 0001:0006BA0B
 11343 0001:0006BA15 11344 0001:0006BA2F 11346 0001:0006BA39 11312 0001:0006BA3C
 11348 0001:0006BA6D 11351 0001:0006BB7C 11353 0001:0006BB8B 11354 0001:0006BB96
 11355 0001:0006BBA4 11358 0001:0006BBB2 11359 0001:0006BBBB 11362 0001:0006BC0B
 11365 0001:0006BC59 11371 0001:0006BC7E 11373 0001:0006BC88 11375 0001:0006BC8C
 11376 0001:0006BCAE 11377 0001:0006BCDD 11378 0001:0006BCE4 11379 0001:0006BCEC
 11382 0001:0006BCF8 11383 0001:0006BCFF 11384 0001:0006BD09 11386 0001:0006BD24
 11387 0001:0006BD2B 11389 0001:0006BD32 11390 0001:0006BD39 11391 0001:0006BD40
 11396 0001:0006BD4A 11397 0001:0006BD51 11399 0001:0006BD62 11401 0001:0006BD71
 11402 0001:0006BD83 11403 0001:0006BD99 11407 0001:0006BDB2 11409 0001:0006BDB8
 11410 0001:0006BDEC 11411 0001:0006BDFA 11415 0001:0006BE10 11416 0001:0006BE31
 11417 0001:0006BE3F 11421 0001:0006BE53 11422 0001:0006BE5A 11425 0001:0006BE61
 11426 0001:0006BE67 11427 0001:0006BE7C 11430 0001:0006BE83 11431 0001:0006BEB7
 11434 0001:0006BEBD 11435 0001:0006BEC2 11436 0001:0006BED7 11439 0001:0006BEDE
 11440 0001:0006BF12 11442 0001:0006BF17 11443 0001:0006BF1D 11445 0001:0006BF31
 11448 0001:0006BF39 11449 0001:0006BF45 11452 0001:0006BF76 11454 0001:0006BF80
 11461 0001:0006BF9A 11463 0001:0006BFA7 11464 0001:0006BFB6 11466 0001:0006BFC7
 11470 0001:0006BFD8 11473 0001:0006BFEF 11474 0001:0006BFFE 11476 0001:0006C00F
 11478 0001:0006C01E 11479 0001:0006C02A 11481 0001:0006C038 11486 0001:0006C044
 11488 0001:0006C04F 11491 0001:0006C079 11496 0001:0006C088 11497 0001:0006C094
 11498 0001:0006C09C 11500 0001:0006C0A7 11501 0001:0006C0B1 11502 0001:0006C0B7
 11503 0001:0006C0CC 11504 0001:0006C0D3 11506 0001:0006C0E7 11507 0001:0006C0F3
 11509 0001:0006C11A 11511 0001:0006C125 11512 0001:0006C12E 11514 0001:0006C138
 11515 0001:0006C144 11518 0001:0006C16A 11530 0001:0006C18D 11531 0001:0006C196
 11534 0001:0006C1A0 11535 0001:0006C1AC 11538 0001:0006C1CF 11541 0001:0006C1F0
 11542 0001:0006C1F7 11544 0001:0006C212 11547 0001:0006C215 11548 0001:0006C21D
 11549 0001:0006C228 11551 0001:0006C22F 11553 0001:0006C237 11554 0001:0006C243
 11556 0001:0006C26A 11560 0001:0006C2A0 11561 0001:0006C2CC 11563 0001:0006C332
 11566 0001:0006C584 11567 0001:0006C59D 11569 0001:0006C5AF 11570 0001:0006C5BB
 11573 0001:0006C5E2 11576 0001:0006C605 11577 0001:0006C631 11579 0001:0006C697
 11582 0001:0006C768 11583 0001:0006C77B 11584 0001:0006C784 11585 0001:0006C78E
 11586 0001:0006C797 11587 0001:0006C79F 11588 0001:0006C7A6 11589 0001:0006C7AD
 11590 0001:0006C7B7 11593 0001:0006C7C4 11594 0001:0006C7D7 11596 0001:0006C7E7
 11599 0001:0006C7F4 11600 0001:0006C807 11602 0001:0006C81B 11636 0001:0006C828
 11637 0001:0006C843 11638 0001:0006C862 11639 0001:0006C877 11641 0001:0006C893
 11642 0001:0006C8B5 11643 0001:0006C8C5 11644 0001:0006C8CD 11645 0001:0006C8EF
 11646 0001:0006C911 11651 0001:0006C916 11652 0001:0006C92D 11653 0001:0006C94A
 11655 0001:0006C94E 11656 0001:0006C965 11657 0001:0006C982 11659 0001:0006C986
 11660 0001:0006C99D 11661 0001:0006C9BA 11663 0001:0006C9BE 11664 0001:0006C9D5
 11665 0001:0006C9F2 11667 0001:0006C9F6 11668 0001:0006CA0D 11669 0001:0006CA2A
 11671 0001:0006CA2E 11673 0001:0006CA5B 11675 0001:0006CA62 11677 0001:0006CA8D
 11678 0001:0006CAA1 11679 0001:0006CAE0 11685 0001:0006CBFC 11686 0001:0006CC14
 11687 0001:0006CC33 11688 0001:0006CC48 11690 0001:0006CC64 11691 0001:0006CC86
 11692 0001:0006CCA8 11694 0001:0006CCCA 11699 0001:0006CCF3 11700 0001:0006CD07
 11701 0001:0006CD39 11707 0001:0006CD98 11708 0001:0006CDB0 11709 0001:0006CDCF
 11710 0001:0006CDE4 11713 0001:0006CE1C 11714 0001:0006CE3E 11715 0001:0006CE60
 11716 0001:0006CE82 11720 0001:0006CEAD 11721 0001:0006CEC1 11722 0001:0006CEF3
 11728 0001:0006CF50 11729 0001:0006CF6C 11730 0001:0006CF8B 11731 0001:0006CFA0
 11734 0001:0006CFD8 11735 0001:0006CFFA 11736 0001:0006D01C 11737 0001:0006D03E
 11738 0001:0006D060 11743 0001:0006D092 11744 0001:0006D0A6 11745 0001:0006D0D8
 11747 0001:0006D14C 11766 0001:0006D15D 11767 0001:0006D175 11768 0001:0006D17E
 11769 0001:0006D196 11781 0001:0006D19F 11782 0001:0006D1B7 11783 0001:0006D1C0
 11784 0001:0006D1D8 11856 0001:0006D1F7 11858 0001:0006D268 11859 0001:0006D282
 11860 0001:0006D28B 11862 0001:0006D29B 11863 0001:0006D2B4 11865 0001:0006D2C9
 11866 0001:0006D2D4 11868 0001:0006D2DA 11869 0001:0006D2E1 11872 0001:0006D2F6
 11874 0001:0006D329 11877 0001:0006D35C 11879 0001:0006D387 11880 0001:0006D38C
 11882 0001:0006D3DB 11885 0001:0006D3E2 11887 0001:0006D3F5 11890 0001:0006D40A
 11891 0001:0006D414 11892 0001:0006D41F 11894 0001:0006D426 11895 0001:0006D42D
 11897 0001:0006D444 11901 0001:0006D456 11905 0001:0006D460 11906 0001:0006D468
 11909 0001:0006D474 11911 0001:0006D486 11912 0001:0006D48E 11915 0001:0006D498
 11917 0001:0006D4A1 11920 0001:0006D4A9 11921 0001:0006D4B0 11923 0001:0006D4B6
 11925 0001:0006D4C4 11926 0001:0006D4CF 11930 0001:0006D4E2 11932 0001:0006D4FB
 11935 0001:0006D506 11936 0001:0006D50D 11937 0001:0006D51E 11938 0001:0006D525
 11940 0001:0006D52E 11941 0001:0006D532 11942 0001:0006D54B 11943 0001:0006D551
 11947 0001:0006D564 11948 0001:0006D575 11949 0001:0006D57B 11952 0001:0006D58C
 11953 0001:0006D596 11955 0001:0006D59C 11958 0001:0006D5D0 11959 0001:0006D5DE
 11963 0001:0006D5F4 11966 0001:0006D615 11967 0001:0006D623 11971 0001:0006D637
 11975 0001:0006D63E 11976 0001:0006D644 11977 0001:0006D659 11980 0001:0006D660
 11981 0001:0006D694 11984 0001:0006D69A 11985 0001:0006D69F 11986 0001:0006D6B4
 11989 0001:0006D6BB 11990 0001:0006D6EF 11992 0001:0006D6F4 11993 0001:0006D6FA
 11995 0001:0006D70E 11998 0001:0006D716 11999 0001:0006D722 12002 0001:0006D753
 12004 0001:0006D75D 12011 0001:0006D777 12013 0001:0006D784 12014 0001:0006D793
 12016 0001:0006D7A4 12020 0001:0006D7B5 12023 0001:0006D7CC 12024 0001:0006D7DB
 12026 0001:0006D7EC 12028 0001:0006D7FB 12029 0001:0006D807 12031 0001:0006D815
 12036 0001:0006D821 12038 0001:0006D82C 12039 0001:0006D834 12042 0001:0006D85E
 12045 0001:0006D86D 12047 0001:0006D878 12048 0001:0006D884 12049 0001:0006D88C
 12051 0001:0006D897 12052 0001:0006D8A1 12053 0001:0006D8A7 12054 0001:0006D8BC
 12055 0001:0006D8C3 12057 0001:0006D8D7 12058 0001:0006D8E3 12060 0001:0006D90A
 12062 0001:0006D915 12063 0001:0006D91E 12065 0001:0006D928 12066 0001:0006D934
 12069 0001:0006D95A 12082 0001:0006D97D 12083 0001:0006D986 12086 0001:0006D990
 12087 0001:0006D99C 12090 0001:0006D9BF 12093 0001:0006D9E0 12094 0001:0006D9E7
 12096 0001:0006DA02 12099 0001:0006DA05 12100 0001:0006DA0D 12101 0001:0006DA18
 12103 0001:0006DA1F 12105 0001:0006DA27 12106 0001:0006DA33 12108 0001:0006DA5A
 12112 0001:0006DA90 12113 0001:0006DABC 12115 0001:0006DB2F 12118 0001:0006DDB0
 12119 0001:0006DDCF 12121 0001:0006DE09 12122 0001:0006DE15 12125 0001:0006DE44
 12126 0001:0006DE4A 12128 0001:0006DE5F 12131 0001:0006DE79 12132 0001:0006DEA5
 12134 0001:0006DF10 12139 0001:0006E008 12140 0001:0006E01C 12141 0001:0006E029
 12144 0001:0006E035 12145 0001:0006E047 12146 0001:0006E04E 12151 0001:0006E075
 12152 0001:0006E0A1 12154 0001:0006E0B6 12168 0001:0006E13C 12169 0001:0006E150
 12170 0001:0006E17E 12173 0001:0006E18A 12174 0001:0006E18E 12175 0001:0006E197
 12177 0001:0006E1A1 12179 0001:0006E1A7 12180 0001:0006E1AB 12182 0001:0006E1B5
 12184 0001:0006E1BB 12185 0001:0006E1C0 12187 0001:0006E1DC 12189 0001:0006E1EB
 12190 0001:0006E205 12192 0001:0006E20E 12193 0001:0006E215 12197 0001:0006E25C
 12198 0001:0006E288 12200 0001:0006E2BD 12206 0001:0006E398 12207 0001:0006E3AC
 12208 0001:0006E3C0 12211 0001:0006E3CC 12213 0001:0006E3D5 12214 0001:0006E3DA
 12216 0001:0006E3F6 12218 0001:0006E3FD 12222 0001:0006E408 12223 0001:0006E43C
 12228 0001:0006E445 12233 0001:0006E467 12234 0001:0006E493 12236 0001:0006E4C8
 12239 0001:0006E558 12240 0001:0006E56F 12241 0001:0006E575 12242 0001:0006E598
 12243 0001:0006E5A6 12244 0001:0006E5C6 12247 0001:0006E5E4 12248 0001:0006E5FB
 12249 0001:0006E630 12250 0001:0006E650 12261 0001:0006E66C 12262 0001:0006E680
 12263 0001:0006E685 12264 0001:0006E692 12265 0001:0006E699 12268 0001:0006E6A5
 12269 0001:0006E6B1 12271 0001:0006E6C7 12273 0001:0006E6D9 12274 0001:0006E6E0
 12277 0001:0006E6EA 12278 0001:0006E6F3 12280 0001:0006E701 12284 0001:0006E707
 12286 0001:0006E70E 12287 0001:0006E716 12292 0001:0006E73A 12294 0001:0006E746
 12295 0001:0006E74D 12300 0001:0006E757 12302 0001:0006E761 12303 0001:0006E767
 12305 0001:0006E770 12306 0001:0006E785 12307 0001:0006E78C 12310 0001:0006E7A0
 12313 0001:0006E7A7 12317 0001:0006E7B3 12318 0001:0006E7BC 12320 0001:0006E7C6
 12321 0001:0006E7D2 12324 0001:0006E7F8 12328 0001:0006E82F 12331 0001:0006E832
 12332 0001:0006E83A 12333 0001:0006E845 12334 0001:0006E84C 12338 0001:0006E882
 12339 0001:0006E8AE 12341 0001:0006E8FC 12353 0001:0006EA78 12354 0001:0006EAA6
 12357 0001:0006EAAB 12359 0001:0006EB0F 12361 0001:0006EB1B 12362 0001:0006EB23
 12364 0001:0006EB88 12366 0001:0006EB97 12367 0001:0006EBA2 12370 0001:0006EBAF
 12372 0001:0006EBBB 12374 0001:0006EBCA 12375 0001:0006EBD5 12378 0001:0006EBE2
 12380 0001:0006EBEE 12382 0001:0006EBFB 12383 0001:0006EC06 12386 0001:0006EC13
 12388 0001:0006EC1F 12391 0001:0006EC3C 12393 0001:0006EC4B 12400 0001:0006EC60
 12403 0001:0006EC70 12404 0001:0006EC77 12406 0001:0006EC7F 12407 0001:0006EC8F
 12411 0001:0006ECBC 12413 0001:0006ECC8 12415 0001:0006ECD7 12416 0001:0006ECE2
 12419 0001:0006ECEF 12421 0001:0006ECFB 12423 0001:0006ED06 12425 0001:0006ED13
 12426 0001:0006ED19 12427 0001:0006ED20 12429 0001:0006ED27 12430 0001:0006ED45
 12431 0001:0006ED4C 12432 0001:0006ED60 12434 0001:0006ED6A 12435 0001:0006ED8F
 12439 0001:0006EDD0 12441 0001:0006EDDC 12443 0001:0006EDEB 12444 0001:0006EDFD
 12446 0001:0006EE05 12447 0001:0006EE15 12451 0001:0006EE42 12453 0001:0006EE4E
 12457 0001:0006EE6B 12459 0001:0006EE7A 12460 0001:0006EE8B 12462 0001:0006EE93
 12463 0001:0006EEA3 12467 0001:0006EED0 12470 0001:0006EEDC 12473 0001:0006EEE3
 12475 0001:0006EF01 12476 0001:0006EF11 12480 0001:0006EF4A 12482 0001:0006EF56
 12484 0001:0006EF65 12485 0001:0006EF71 12488 0001:0006EF7E 12490 0001:0006EF8A
 12493 0001:0006EFA7 12496 0001:0006EFAE 12498 0001:0006EFCC 12499 0001:0006EFDC
 12503 0001:0006F015 12505 0001:0006F021 12508 0001:0006F028 12510 0001:0006F046
 12511 0001:0006F056 12515 0001:0006F08F 12517 0001:0006F09B 12520 0001:0006F0B8
 12525 0001:0006F0D5 12528 0001:0006F0F2 12532 0001:0006F10F 12538 0001:0006F171
 12539 0001:0006F179 12540 0001:0006F180 12544 0001:0006F189 12545 0001:0006F191
 12549 0001:0006F19A 12550 0001:0006F1A2 12551 0001:0006F1A9 12553 0001:0006F1B2
 12556 0001:0006F1B5 12557 0001:0006F1BD 12558 0001:0006F1C4 12559 0001:0006F1CF
 12560 0001:0006F1D6 12564 0001:0006F20C 12565 0001:0006F238 12567 0001:0006F2AD
 12575 0001:0006F7C4 12576 0001:0006F7DD 12577 0001:0006F7E2 12580 0001:0006F7EB
 12583 0001:0006F82E 12584 0001:0006F83A 12586 0001:0006F861 12588 0001:0006F867
 12589 0001:0006F86D 12590 0001:0006F874 12593 0001:0006F87E 12594 0001:0006F884
 12595 0001:0006F88B 12596 0001:0006F89A 12598 0001:0006F8B2 12600 0001:0006F8C5
 12601 0001:0006F8D1 12606 0001:0006F913 12609 0001:0006F91C 12612 0001:0006F934
 12614 0001:0006F93E 12618 0001:0006F945 12619 0001:0006F94C 12620 0001:0006F955
 12622 0001:0006F960 12624 0001:0006F969 12629 0001:0006FA25 12632 0001:0006FA3A
 12633 0001:0006FA41 12634 0001:0006FA48 12637 0001:0006FA53 12646 0001:0006FA7C
 12647 0001:0006FA85 12650 0001:0006FA8A 12652 0001:0006FA94 12653 0001:0006FA9D
 12654 0001:0006FAA4 12662 0001:0006FAB7 12665 0001:0006FACC 12666 0001:0006FAD3
 12667 0001:0006FADA 12670 0001:0006FAE5 12679 0001:0006FB0E 12680 0001:0006FB17
 12683 0001:0006FB1C 12685 0001:0006FB26 12686 0001:0006FB2F 12688 0001:0006FB36
 12693 0001:0006FB49 12697 0001:0006FB59 12701 0001:0006FB6B 12705 0001:0006FB81
 12714 0001:0006FB97 12717 0001:0006FBC0 12719 0001:0006FBD9 12720 0001:0006FBE2
 12722 0001:0006FC25 12723 0001:0006FC2E 12725 0001:0006FC5F 12726 0001:0006FC68
 12727 0001:0006FC74 12728 0001:0006FC82 12729 0001:0006FC90 12730 0001:0006FC9E
 12731 0001:0006FCAC 12732 0001:0006FCBA 12735 0001:0006FCDC 12736 0001:0006FCE5
 12740 0001:0006FD5F 12741 0001:0006FD6B 12742 0001:0006FD73 12743 0001:0006FD82
 12745 0001:0006FD9D 12747 0001:0006FDA3 12748 0001:0006FDAC 12750 0001:0006FDB3
 12756 0001:0006FDC6 12757 0001:0006FDD2 12758 0001:0006FDDA 12759 0001:0006FDE9
 12761 0001:0006FE04 12763 0001:0006FE0A 12764 0001:0006FE13 12766 0001:0006FE1A
 12768 0001:0006FE24 12770 0001:0006FE2E 12773 0001:0006FE3E 12777 0001:0006FE51
 12781 0001:0006FE61 12782 0001:0006FE6A 12783 0001:0006FE71 12788 0001:0006FE95
 12791 0001:0006FE98 12792 0001:0006FEA1 12793 0001:0006FEAC 12794 0001:0006FEB3
 12798 0001:0006FEE9 12799 0001:0006FF15 12801 0001:0006FF7D 12804 0001:00070188
 12805 0001:0007019C 12806 0001:000701A1 12807 0001:000701AE 12809 0001:000701CC
 12810 0001:000701F8 12812 0001:0007022F 12818 0001:000702B8 12819 0001:000702D1
 12821 0001:000702DA 12822 0001:000702EC 12821 0001:00070302 12823 0001:00070308
 12826 0001:00070313 12828 0001:0007031A 12829 0001:0007032D 12830 0001:0007033C
 12832 0001:00070350 12833 0001:00070360 12834 0001:00070371 12835 0001:00070388
 12830 0001:0007038B 12837 0001:00070390 12843 0001:0007039C 12844 0001:000703B5
 12845 0001:000703BE 12846 0001:000703CC 12848 0001:000703DB 12849 0001:000703EA
 12850 0001:000703F6 12852 0001:0007040A 12853 0001:0007041A 12854 0001:0007042B
 12855 0001:00070442 12850 0001:00070445 12857 0001:0007044A 12862 0001:00070458
 12863 0001:00070484 12866 0001:00070489 12867 0001:00070493 12870 0001:0007052F
 12872 0001:00070535 12873 0001:0007053C 12875 0001:00070546 12878 0001:00070552
 12881 0001:0007057C 12884 0001:00070584 12885 0001:0007058B 12886 0001:00070595
 12888 0001:0007059B 12890 0001:000705A9 12891 0001:000705B4 12895 0001:000705C7
 12897 0001:000705E0 12900 0001:000705EB 12901 0001:000705F1 12902 0001:00070602
 12904 0001:00070609 12905 0001:0007060F 12907 0001:0007061B 12909 0001:00070628
 12910 0001:00070633 12922 0001:00070642 12923 0001:0007065B 12925 0001:00070661
 12926 0001:00070672 12928 0001:00070683 12930 0001:0007068D 12932 0001:00070693
 12933 0001:000706C7 12935 0001:000706CE 12936 0001:000706DF 12941 0001:000706F5
 12942 0001:00070716 12943 0001:0007071D 12946 0001:00070731 12950 0001:0007073D
 12951 0001:0007074E 12952 0001:00070754 12953 0001:00070765 12954 0001:00070773
 12956 0001:0007077D 12958 0001:00070783 12959 0001:000707B7 12961 0001:000707BE
 12962 0001:000707CF 12967 0001:000707E5 12968 0001:00070806 12969 0001:0007080D
 12972 0001:00070821 12976 0001:0007083E 12979 0001:00070841 12980 0001:0007084C
 12982 0001:00070853 12983 0001:0007085B 12987 0001:00070891 12988 0001:000708BD
 12990 0001:0007091B 12993 0001:00070AC4 12994 0001:00070ADD 12996 0001:00070B42
 12997 0001:00070B4E 12999 0001:00070B8A 13001 0001:00070B90 13002 0001:00070B97
 13004 0001:00070BA1 13006 0001:00070BD7 13007 0001:00070C03 13009 0001:00070C50
 13026 0001:00070D7C 13027 0001:00070D91 13028 0001:00070D9D 13030 0001:00070DAE
 13031 0001:00070DB3 13033 0001:00070DBB 13034 0001:00070DCC 13036 0001:00070DDF
 13038 0001:00070DF4 13039 0001:00070E04 13040 0001:00070E18 13042 0001:00070E2F
 13034 0001:00070E32 13044 0001:00070E37 13048 0001:00070E44 13049 0001:00070E63
 13051 0001:00070EBA 13053 0001:00070ED8 13055 0001:00070EF6 13057 0001:00070F14
 13059 0001:00070F2F 13061 0001:00070F4A 13063 0001:00070F65 13065 0001:00070F80
 13067 0001:00070FB6 13070 0001:00070FD0 13071 0001:00071001 13074 0001:00071006
 13076 0001:0007105C 13078 0001:00071068 13083 0001:000710C5 13084 0001:000710CE
 13086 0001:000710D9 13087 0001:000710E5 13089 0001:000710EE 13090 0001:000710F4
 13091 0001:000710FD 13092 0001:00071115 13093 0001:0007111C 13096 0001:0007112B
 13098 0001:0007114F 13099 0001:00071158 13100 0001:0007115F 13102 0001:0007117B
 13104 0001:0007119A 13106 0001:000711A1 13107 0001:000711A8 13108 0001:000711B5
 13109 0001:000711BC 13111 0001:000711F0 13113 0001:000711FD 13115 0001:00071207
 13117 0001:00071211 13119 0001:0007122C 13121 0001:00071233 13123 0001:0007123A
 13124 0001:00071241 13127 0001:00071275 13133 0001:000712A0 13135 0001:000712A6
 13137 0001:000712C1 13139 0001:000712C8 13140 0001:000712CF 13141 0001:000712D6
 13144 0001:000712EA 13151 0001:00071313 13153 0001:0007131C 13160 0001:00071348
 13162 0001:00071351 13163 0001:00071361 13168 0001:0007138F 13170 0001:0007139E
 13171 0001:000713B4 13173 0001:000713C0 13177 0001:000713CE 13183 0001:000713EB
 13185 0001:000713F4 13187 0001:00071401 13189 0001:0007140B 13190 0001:0007141B
 13195 0001:00071446 13199 0001:00071463 13203 0001:00071480 13204 0001:00071497
 13205 0001:0007149E 13207 0001:000714B2 13208 0001:000714C2 13213 0001:00071503
 13214 0001:0007150A 13216 0001:00071516 13218 0001:0007151E 13219 0001:0007152E
 13223 0001:0007155C 13232 0001:00071579 13234 0001:00071587 13235 0001:00071597
 13240 0001:000715D0 13243 0001:000715DE 13247 0001:000715FB 13249 0001:00071609
 13250 0001:00071619 13255 0001:00071652 13257 0001:0007166B 13258 0001:0007167B
 13262 0001:000716B4 13265 0001:000716D1 13269 0001:000716EE 13273 0001:00071740
 13274 0001:00071743 13275 0001:0007174C 13278 0001:0007174F 13279 0001:0007175A
 13280 0001:00071761 13284 0001:00071797 13285 0001:000717C3 13287 0001:0007181D
 13320 0001:00071DF0 13334 0001:00071E08 13335 0001:00071E26 13337 0001:00071E2C
 13338 0001:00071E35 13340 0001:00071E3E 13341 0001:00071E45 13342 0001:00071E54
 13345 0001:00071E71 13347 0001:00071E7D 13348 0001:00071E8E 13352 0001:00071E9F
 13355 0001:00071EAE 13358 0001:00071EBC 13359 0001:00071ECF 13363 0001:00071EE5
 13364 0001:00071EEE 13365 0001:00071EFA 13367 0001:00071F0C 13368 0001:00071F26
 13370 0001:00071F3D 13371 0001:00071F4C 13372 0001:00071F61 13373 0001:00071F73
 13376 0001:00071F99 13384 0001:00071FA4 13385 0001:00071FBC 13386 0001:00071FCD
 13387 0001:0007200A 13388 0001:00072010 13390 0001:00072021 13391 0001:0007202C
 13393 0001:00072038 13394 0001:00072049 13396 0001:00072052 13400 0001:00072070
 13404 0001:0007208F 13405 0001:0007209B 13406 0001:000720A4 13408 0001:000720B2
 13411 0001:000720D6 13414 0001:000720F0 13415 0001:0007210D 13417 0001:00072112
 13420 0001:00072119 13425 0001:0007229B 13427 0001:000722A7 13428 0001:000722AD
 13430 0001:000722B1 13434 0001:000722B8 13437 0001:000722BE 13438 0001:000722CA
 13441 0001:000722DD 13444 0001:000722EE 13448 0001:000722FA 13452 0001:00072306
 13453 0001:00072310 13457 0001:00072319 13458 0001:00072320 13459 0001:00072327
 13463 0001:00072333 13468 0001:0007234B 13469 0001:00072361 13471 0001:00072370
 13472 0001:0007237B 13474 0001:00072386 13475 0001:0007238E 13476 0001:00072397
 13477 0001:000723A4 13479 0001:000723AF 13480 0001:000723BB 13483 0001:000723C2
 13484 0001:000723CE 13486 0001:000723DF 13488 0001:000723EA 13489 0001:000723F0
 13491 0001:000723FA 13492 0001:000723FE 13513 0001:000724AE 13520 0001:000724CC
 13523 0001:000724D4 13524 0001:000724E3 13525 0001:000724E9 13526 0001:000724EF
 13529 0001:000724F5 13530 0001:000724FB 13532 0001:00072500 13535 0001:0007250A
 13537 0001:00072514 13540 0001:00072520 13541 0001:00072526 13543 0001:0007253C
 13544 0001:00072550 13545 0001:00072558 13548 0001:00072569 13551 0001:00072578
 13552 0001:0007257E 13554 0001:0007259E 13558 0001:000725BE 13561 0001:000725C4
 13564 0001:000725CB 13570 0001:000725CE 13573 0001:000725DA 13577 0001:000725F5
 13578 0001:000725FA 13579 0001:00072601 13587 0001:0007260B 13590 0001:00072611
 13600 0001:0007261A 13601 0001:00072620 13603 0001:0007262B 13607 0001:00072636
 13608 0001:0007263F 13609 0001:00072645 13611 0001:00072650 13618 0001:00072659
 13620 0001:0007265F 13632 0001:000726AB 13633 0001:000726B0 13634 0001:000726B5
 13635 0001:000726BC 13640 0001:000726C8 13643 0001:000726E3 13644 0001:000726EC
 13645 0001:000726F3 13646 0001:000726F8 13650 0001:00072700 13651 0001:00072708
 13659 0001:00072718 13661 0001:00072735 13663 0001:0007273B 13664 0001:00072742
 13665 0001:0007274D 13666 0001:00072758 13668 0001:00072768 13670 0001:0007276E
 13671 0001:00072775 13672 0001:0007277F 13674 0001:00072784 13677 0001:0007279F
 13678 0001:000727A8 13679 0001:000727AF 13680 0001:000727B4 13684 0001:000727BC
 13685 0001:000727C4 13686 0001:000727D4 13687 0001:000727DA 13689 0001:000727E2
 13693 0001:000727E6 13695 0001:000727EC 13696 0001:000727F3 13698 0001:000727F9
 13699 0001:00072808 13704 0001:00072816 13705 0001:0007281C 13711 0001:00072824
 13713 0001:0007282A 13714 0001:00072830 13724 0001:0007283F 13726 0001:0007284A
 13728 0001:00072856 13730 0001:00072863 13733 0001:0007287F 13736 0001:0007288B
 13741 0001:00072896 13742 0001:000728A2 13761 0001:000728AD 13764 0001:000728C9
 13767 0001:000728D5 13772 0001:000728E0 13773 0001:000728EC 13778 0001:000728F5
 13780 0001:00072912 13781 0001:00072921 13786 0001:00072934 13787 0001:0007293B
 13789 0001:00072946 13790 0001:0007294F 13791 0001:00072958 13792 0001:00072962
 13794 0001:0007296C 13795 0001:00072976 13800 0001:00072986 13801 0001:0007298D
 13803 0001:00072998 13804 0001:000729A1 13805 0001:000729AA 13806 0001:000729B4
 13808 0001:000729BE 13809 0001:000729C8 13814 0001:000729DA 13815 0001:000729E1
 13817 0001:000729EC 13818 0001:000729F5 13819 0001:000729FE 13820 0001:00072A08
 13822 0001:00072A12 13823 0001:00072A1C 13832 0001:00072A32 13833 0001:00072A3B
 13834 0001:00072A44 13835 0001:00072A4E 13837 0001:00072A58 13838 0001:00072A62
 13848 0001:00072A78 13851 0001:00072A87 13852 0001:00072AAC 13856 0001:00072ABC
 13857 0001:00072AC5 13860 0001:00072ACE 13861 0001:00072AD8 13863 0001:00072AE2
 13864 0001:00072AEC 13873 0001:00072AF9 13874 0001:00072B11 13875 0001:00072B32
 13876 0001:00072B3D 13881 0001:00072B4D 13884 0001:00072B5C 13885 0001:00072B82
 13889 0001:00072B92 13890 0001:00072B9B 13893 0001:00072BA4 13894 0001:00072BAE
 13897 0001:00072BB8 13898 0001:00072BD2 13899 0001:00072BDC 13900 0001:00072BFA
 13901 0001:00072C21 13906 0001:00072C45 13909 0001:00072C54 13910 0001:00072C7A
 13914 0001:00072C8A 13915 0001:00072C93 13918 0001:00072C9C 13919 0001:00072CA6
 13920 0001:00072CAF 13923 0001:00072CC1 13924 0001:00072CCB 13926 0001:00072CD4
 13928 0001:00072CED 13929 0001:00072CF7 13930 0001:00072D03 13931 0001:00072D11
 13932 0001:00072D1F 13933 0001:00072D2D 13934 0001:00072D3B 13936 0001:00072D49
 13937 0001:00072D80 13946 0001:00072D9E 13947 0001:00072DA7 13948 0001:00072DB0
 13949 0001:00072DBA 13950 0001:00072DC3 13953 0001:00072DD5 13954 0001:00072DDF
 13956 0001:00072DE8 13959 0001:00072DFB 13960 0001:00072E09 13961 0001:00072E1B
 13962 0001:00072E27 13963 0001:00072E3B 13964 0001:00072E53 13965 0001:00072E73
 13966 0001:00072E7E 13967 0001:00072E89 13968 0001:00072E94 13969 0001:00072E9F
 13971 0001:00072EAA 13972 0001:00072ED7 13978 0001:00072EEC 13979 0001:00072EF5
 13980 0001:00072EFE 13981 0001:00072F0D 13982 0001:00072F16 13983 0001:00072F1F
 13984 0001:00072F3F 13986 0001:00072F5C 13987 0001:00072F66 13995 0001:00072F98
 13996 0001:00072F9F 13997 0001:00072FA9 14003 0001:00072FD6 14004 0001:00072FE0
 14010 0001:00072FEE 14011 0001:00072FF7 14012 0001:00073000 14013 0001:0007300A
 14015 0001:00073014 14016 0001:0007301E 14017 0001:00073026 14019 0001:00073032
 14040 0001:0007303E 14041 0001:0007304D 14042 0001:00073053 14045 0001:00073094
 14046 0001:0007309A 14047 0001:000730A9 14048 0001:000730AF 14049 0001:000730B6
 14050 0001:000730BF 14052 0001:000730C8 14053 0001:000730D3 14060 0001:000730EB
 14061 0001:000730F4 14063 0001:000730FE 14064 0001:00073107 14065 0001:00073110
 14066 0001:00073115 14068 0001:0007311B 14070 0001:00073121 14071 0001:00073128
 14073 0001:00073132 14074 0001:00073141 14076 0001:00073147 14077 0001:0007314E
 14078 0001:00073155 14084 0001:00073161 14086 0001:00073169 14088 0001:0007316F
 14089 0001:00073176 14090 0001:0007317D 14092 0001:00073187 14095 0001:00073196
 14099 0001:000731AA 14100 0001:000731B3 14101 0001:000731BC 14103 0001:000731C2
 14104 0001:000731D1 14105 0001:000731E5 14106 0001:000731EE 14107 0001:00073200
 14108 0001:00073206 14112 0001:0007320F 14114 0001:00073214 14115 0001:00073224
 14116 0001:0007322A 14117 0001:00073231 14118 0001:00073239 14120 0001:0007324D
 14121 0001:00073258 14123 0001:00073267 14125 0001:00073279 14126 0001:0007327E
 14127 0001:00073285 14131 0001:0007328F 14133 0001:000732AC 14135 0001:000732B2
 14136 0001:000732B6 14137 0001:000732BF 14139 0001:000732C8 14141 0001:000732CE
 14142 0001:000732EA 14143 0001:000732F5 14145 0001:00073309 14147 0001:0007330F
 14148 0001:00073316 14149 0001:0007331B 14151 0001:00073327 14153 0001:0007332D
 14157 0001:00073332 14158 0001:00073347 14159 0001:0007335A 14161 0001:00073364
 14166 0001:0007337D 14173 0001:0007339A 14174 0001:000733A0 14175 0001:000733AF
 14176 0001:000733B5 14177 0001:000733BC 14178 0001:000733C3 14180 0001:000733CE
 14181 0001:000733D7 14182 0001:000733E0 14183 0001:000733EB 14188 0001:00073400
 14190 0001:0007340F 14191 0001:00073418 14192 0001:00073421 14193 0001:0007342B
 14195 0001:00073431 14196 0001:0007343B 14200 0001:00073448 14213 0001:0007344E
 14216 0001:00073452 14217 0001:00073458 14220 0001:000734A5 14221 0001:000734B1
 14224 0001:000734C0 14226 0001:000734CC 14228 0001:000734E1 14229 0001:000734ED
 14232 0001:00073544 14233 0001:00073549 14238 0001:00073553 14239 0001:0007355F
 14244 0001:000735B6 14247 0001:000735C6 14248 0001:000735CF 14251 0001:000735D7
 14265 0001:00073823 14275 0001:00073890 14276 0001:00073897 14278 0001:000738E0
 14282 0001:00073905 14283 0001:0007390E 14286 0001:00073911 14287 0001:0007391C
 14288 0001:00073923 14292 0001:00073959 14293 0001:00073985 14295 0001:000739E5
 14300 0001:00073E14 14301 0001:00073E40 14302 0001:00073E4D 14303 0001:00073E57
 14304 0001:00073E5E 14305 0001:00073E67 14306 0001:00073E7A 14308 0001:00073E96
 14309 0001:00073EC2 14311 0001:00073EF5 14314 0001:00073F80 14315 0001:00073F9F
 14316 0001:00073FAC 14317 0001:00073FB7 14319 0001:00073FD8 14320 0001:00074004
 14322 0001:00074027 14328 0001:0007409C 14329 0001:000740BB 14330 0001:000740C0
 14331 0001:00074118 14333 0001:0007411F 14334 0001:0007412E 14337 0001:0007414A
 14340 0001:00074164 14342 0001:00074173 14345 0001:000741A1 14346 0001:000741B0
 14349 0001:000741C7 14351 0001:000741EF 14354 0001:000741F2 14355 0001:000741FA
 14356 0001:00074202 14357 0001:0007420D 14358 0001:0007421E 14359 0001:00074225
 14363 0001:0007425B 14364 0001:00074287 14366 0001:0007429F 14369 0001:00074384
 14370 0001:0007439B 14372 0001:000743A1 14373 0001:000743A8 14375 0001:000743AA
 14376 0001:000743CA 14377 0001:000743D5 14378 0001:000743F5 14381 0001:00074414
 14382 0001:0007442B 14383 0001:0007445D 14384 0001:0007447D 14390 0001:0007449C
 14391 0001:000744BB 14392 0001:000744C0 14393 0001:00074501 14395 0001:00074508
 14396 0001:00074517 14399 0001:00074533 14402 0001:0007454D 14404 0001:0007455C
 14405 0001:0007456B 14408 0001:00074599 14409 0001:000745A8 14412 0001:000745BF
 14414 0001:000745E7 14417 0001:000745EA 14418 0001:000745F2 14419 0001:000745FA
 14420 0001:00074605 14421 0001:00074616 14422 0001:0007461D 14426 0001:00074653
 14427 0001:0007467F 14429 0001:00074697 14432 0001:00074764 14433 0001:00074783
 14434 0001:0007478A 14435 0001:00074797 14437 0001:000747B1 14438 0001:000747DD
 14440 0001:000747F5 14446 0001:00074898 14447 0001:000748AC 14450 0001:000748B1
 14453 0001:000748E6 14455 0001:000748FC 14458 0001:0007491F 14462 0001:00074942
 14466 0001:00074965 14467 0001:00074971 14470 0001:00074993 14472 0001:0007499A
 14473 0001:000749A0 14477 0001:000749AD 14478 0001:000749B5 14484 0001:000749C1
 14487 0001:00074A04 14489 0001:00074A07 14490 0001:00074A0F 14492 0001:00074A18
 14494 0001:00074A1B 14495 0001:00074A23 14497 0001:00074A2C 14500 0001:00074A2F
 14501 0001:00074A37 14502 0001:00074A42 14503 0001:00074A53 14504 0001:00074A5A
 14508 0001:00074A90 14509 0001:00074ABC 14511 0001:00074AD4 14517 0001:00074B90
 14518 0001:00074BAF 14519 0001:00074BB4 14520 0001:00074BF5 14522 0001:00074BFC
 14523 0001:00074C0B 14526 0001:00074C27 14529 0001:00074C41 14531 0001:00074C50
 14534 0001:00074C7A 14535 0001:00074C89 14538 0001:00074CA0 14540 0001:00074CC8
 14543 0001:00074CCB 14544 0001:00074CD3 14545 0001:00074CDB 14546 0001:00074CE6
 14547 0001:00074CF7 14548 0001:00074CFE 14552 0001:00074D34 14553 0001:00074D60
 14555 0001:00074D78 14561 0001:00074E50 14562 0001:00074E6F 14563 0001:00074E74
 14564 0001:00074EB5 14566 0001:00074EBC 14567 0001:00074ECB 14570 0001:00074EE7
 14573 0001:00074F01 14575 0001:00074F10 14577 0001:00074F1E 14578 0001:00074F2D
 14581 0001:00074F44 14583 0001:00074F6C 14586 0001:00074F6F 14587 0001:00074F77
 14588 0001:00074F7F 14589 0001:00074F8A 14590 0001:00074F9B 14591 0001:00074FA2
 14595 0001:00074FD8 14596 0001:00075004 14598 0001:0007501C 14604 0001:000750F4
 14605 0001:0007510D 14606 0001:00075112 14609 0001:00075178 14611 0001:0007517F
 14612 0001:0007518E 14615 0001:000751B1 14617 0001:000751D2 14620 0001:000751EC
 14621 0001:000751FB 14624 0001:00075212 14627 0001:0007523A 14630 0001:0007523D
 14631 0001:00075245 14632 0001:0007524C 14633 0001:00075257 14634 0001:00075268
 14635 0001:0007526F 14639 0001:000752A5 14640 0001:000752D1 14642 0001:00075301
 14646 0001:00075400 14647 0001:00075424 14650 0001:00075475 14652 0001:000754B8
 14653 0001:000754E4 14655 0001:00075514 14663 0001:000755CC 14664 0001:000755E4
 14669 0001:000755F2 14671 0001:0007560D 14673 0001:00075643 14675 0001:0007565C
 14676 0001:00075681 14679 0001:00075686 14682 0001:000756DC 14684 0001:00075739
 14687 0001:0007576E 14688 0001:00075781 14690 0001:0007579F 14693 0001:000757BC
 14697 0001:000757D9 14701 0001:000757F6 14704 0001:00075813 14707 0001:00075830
 14710 0001:0007584D 14713 0001:0007586A 14716 0001:00075887 14719 0001:000758A4
 14722 0001:000758C1 14725 0001:000758DE 14728 0001:000758FB 14731 0001:00075918
 14735 0001:00075935 14739 0001:00075974 14740 0001:00075977 14741 0001:00075980
 14742 0001:00075983 14743 0001:0007598C 14746 0001:0007598F 14747 0001:0007599A
 14748 0001:000759AB 14749 0001:000759B2 14753 0001:000759E8 14754 0001:00075A14
 14756 0001:00075A66 14761 0001:00075FFC 14762 0001:0007603C 14763 0001:00076072
 14764 0001:0007607C 14766 0001:00076083 14767 0001:0007608C 14768 0001:00076098
 14769 0001:000760A7 14770 0001:000760B3 14771 0001:000760BA 14773 0001:000760D0
 14774 0001:000760DD 14775 0001:000760E9 14777 0001:000760F5 14778 0001:0007610D
 14780 0001:0007611B 14782 0001:00076125 14785 0001:00076140 14786 0001:0007619E
 14788 0001:0007622B 14793 0001:000762BC 14794 0001:000762D6 14795 0001:000762E3
 14796 0001:000762EC 14798 0001:000762F6 14801 0001:00076302 14802 0001:0007630F
 14803 0001:0007631B 14805 0001:00076327 14807 0001:00076333 14808 0001:00076342
 14809 0001:00076349 14811 0001:00076356 14814 0001:00076363 14815 0001:0007636F
 14817 0001:0007637F 14820 0001:0007639A 14821 0001:000763C6 14823 0001:000763DB
 14829 0001:00076468 14830 0001:000764A1 14833 0001:000764D7 14834 0001:000764E3
 14837 0001:00076543 14839 0001:0007654D 14841 0001:00076556 14843 0001:00076568
 14844 0001:00076579 14845 0001:00076589 14846 0001:00076591 14841 0001:00076594
 14847 0001:0007659A 14850 0001:000765A5 14851 0001:000765B0 14853 0001:000765CB
 14855 0001:000765EC 14856 0001:0007664A 14858 0001:000766C7 14862 0001:00076780
 14863 0001:0007679C 14865 0001:000767CF 14871 0001:000767E0 14872 0001:000767FB
 14873 0001:0007693F 14874 0001:00076952 14875 0001:00076965 14876 0001:00076978
 14877 0001:0007698B 14878 0001:0007699E 14879 0001:000769B1 14880 0001:000769C4
 14881 0001:000769D7 14882 0001:000769EA 14883 0001:000769FD 14884 0001:00076A10
 14885 0001:00076A23 14886 0001:00076A36 14887 0001:00076A49 14888 0001:00076A5C
 14889 0001:00076A6F 14890 0001:00076A82 14891 0001:00076A95 14892 0001:00076AA8
 14893 0001:00076ABB 14894 0001:00076ACE 14895 0001:00076AE1 14896 0001:00076AF4
 14897 0001:00076B07 14898 0001:00076B1A 14899 0001:00076B2D 14900 0001:00076B40
 14901 0001:00076B53 14902 0001:00076B66 14903 0001:00076B79 14904 0001:00076B8C
 14905 0001:00076B9F 14906 0001:00076BB2 14907 0001:00076BC5 14908 0001:00076BD8
 14909 0001:00076BEB 14910 0001:00076BFE 14911 0001:00076C11 14914 0001:00076C24
 14915 0001:00076C28 14916 0001:00076C32 14919 0001:00076C74 14920 0001:00076C78
 14924 0001:00076C8B 14925 0001:00076C8F 14929 0001:00076CA2 14930 0001:00076CA6
 14934 0001:00076CB9 14935 0001:00076CBD 14939 0001:00076CD0 14940 0001:00076CD4
 14944 0001:00076CE7 14945 0001:00076CEB 14949 0001:00076CFB 14950 0001:00076CFF
 14954 0001:00076D0F 14955 0001:00076D13 14959 0001:00076D23 14960 0001:00076D27
 14964 0001:00076D37 14965 0001:00076D3B 14968 0001:00076D4B 14969 0001:00076D51
 14972 0001:00076D5B 14973 0001:00076D5F 14976 0001:00076D6D 14977 0001:00076D73
 14980 0001:00076D81 14983 0001:000772C0 14984 0001:000772DD 14985 0001:00077434
 14986 0001:00077447 14987 0001:0007745A 14988 0001:0007746D 14989 0001:00077480
 14990 0001:00077493 14991 0001:000774A6 14992 0001:000774B9 14993 0001:000774CC
 14994 0001:000774DF 14995 0001:000774F2 14996 0001:00077505 14997 0001:00077518
 14998 0001:0007752B 14999 0001:0007753E 15000 0001:00077551 15001 0001:00077564
 15002 0001:00077577 15003 0001:0007758A 15004 0001:0007759D 15005 0001:000775B0
 15006 0001:000775C3 15007 0001:000775D6 15008 0001:000775E9 15009 0001:000775FC
 15010 0001:0007760F 15011 0001:00077622 15012 0001:00077635 15013 0001:00077648
 15014 0001:0007765B 15015 0001:0007766E 15016 0001:00077681 15017 0001:00077694
 15018 0001:000776A4 15019 0001:000776B4 15020 0001:000776C4 15021 0001:000776D4
 15022 0001:000776E4 15024 0001:000776F4 15026 0001:00077704 15028 0001:00077732
 15057 0001:00077B64 15058 0001:00077B74 15060 0001:00077B83 15062 0001:00077B99
 15064 0001:00077BA1 15074 0001:00077BDB 15075 0001:00077BEE 15077 0001:00077BFC
 15078 0001:00077C06 15083 0001:00077C52 15085 0001:00077C5C 15086 0001:00077C7C
 15089 0001:00077C89 15090 0001:00077C95 15093 0001:00077CBB 15094 0001:00077CC0
 15095 0001:00077CC4 15097 0001:00077CD0 15098 0001:00077CDD 15100 0001:00077CF2
 15101 0001:00077D0A 15102 0001:00077D11 15104 0001:00077D25 15106 0001:00077D2E
 15107 0001:00077D40 15106 0001:00077D56 15108 0001:00077D5C 15110 0001:00077D67
 15111 0001:00077D7A 15112 0001:00077D8C 15115 0001:00077D91 15117 0001:00077DAA
 15118 0001:00077DBA 15122 0001:00077DCB 15123 0001:00077DE1 15125 0001:00077DE7
 15129 0001:00077E2D 15131 0001:00077E38 15133 0001:00077E45 15135 0001:00077E7F
 15137 0001:00077E8E 15138 0001:00077E96 15139 0001:00077EA3 15141 0001:00077EB8
 15145 0001:00077F13 15146 0001:00077F1A 15149 0001:00077F30 15153 0001:00077F44
 15155 0001:00077F4E 15156 0001:00077F5F 15158 0001:00077F67 15157 0001:00077F6A
 15159 0001:00077F7A 15162 0001:00077FA2 15168 0001:00077FAC 15169 0001:00077FC8
 15170 0001:00077FED 15174 0001:0007800D 15177 0001:00078048 15179 0001:0007805E
 15182 0001:0007809C 15184 0001:000780A9 15186 0001:000780BB 15188 0001:000780C9
 15194 0001:000780D4 15195 0001:000780E3 15197 0001:000780EE 15205 0001:000780F9
 15209 0001:00078105 15210 0001:00078114 15212 0001:0007811F 15241 0001:0007812A
 15244 0001:00078137 15245 0001:00078147 15261 0001:00078150 15262 0001:00078163
 15264 0001:0007816C 15265 0001:00078178 15266 0001:00078181 15268 0001:00078188
 15271 0001:0007820A 15274 0001:000782D5 15275 0001:000782DE 15276 0001:000782E7
 15277 0001:000782F1 15297 0001:000782FD 15306 0001:00078318 15307 0001:00078321
 15308 0001:0007832A 15313 0001:00078336 15322 0001:00078354 15323 0001:0007835D
 15324 0001:00078366 15329 0001:00078372 15330 0001:0007837B 15331 0001:00078384
 15332 0001:0007838E 15333 0001:00078397 15337 0001:000783A6 15341 0001:000783B2
 15342 0001:000783BB 15343 0001:000783C4 15344 0001:000783CE 15348 0001:000783DA
 15353 0001:000783F2 15354 0001:000783FB 15355 0001:00078404 15358 0001:00078413
 15360 0001:00078426 15361 0001:0007842F 15362 0001:00078438 15363 0001:0007844C
 15364 0001:00078452 15365 0001:00078464 15366 0001:0007848F 15367 0001:00078499
 15371 0001:000784AD 15372 0001:000784BA 15377 0001:00078540 15378 0001:00078549
 15401 0001:00078552 15410 0001:00078566 15414 0001:0007856C 15418 0001:000785B1
 15420 0001:000785C0 15450 0001:000785CF 15453 0001:000785EF 15454 0001:000785F8
 15455 0001:00078601 15460 0001:0007860B 15464 0001:00078614 15465 0001:0007861D
 15466 0001:00078626 15469 0001:00078630 15470 0001:00078643 15479 0001:000786C9
 15481 0001:000786DC 15483 0001:000786EF 15484 0001:000786F8 15485 0001:00078701
 15487 0001:0007870D 15489 0001:00078720 15490 0001:00078729 15491 0001:00078732
 15493 0001:0007873E 15495 0001:00078747 15496 0001:00078750 15497 0001:00078759
 15501 0001:00078763 15502 0001:0007877F 15507 0001:0007878B 15508 0001:00078794
 15509 0001:0007879D 15513 0001:000787AC 15514 0001:000787B5 15516 0001:000787E1
 15518 0001:000787E7 15520 0001:000787F3 15524 0001:000787FE 15526 0001:00078807
 15527 0001:00078810 15528 0001:0007881A 15530 0001:00078825 15532 0001:00078839
 15533 0001:00078842 15537 0001:0007884D 15540 0001:00078856 15542 0001:0007885F
 15549 0001:00078869 15551 0001:0007887B 15559 0001:00078885 15563 0001:000788A0
 15564 0001:000788A9 15565 0001:000788AF 15567 0001:000788BA 15569 0001:000788C3
 15571 0001:000788CF 15573 0001:000788DB 15582 0001:000788E4 15585 0001:000788EE
 15586 0001:000788F7 15587 0001:000788FE 15588 0001:00078902 15590 0001:0007891F
 15591 0001:00078924 15593 0001:00078952 15595 0001:0007895F 15596 0001:00078963
 15597 0001:0007896C 15598 0001:00078975 15599 0001:0007897F 15600 0001:00078988
 15603 0001:00078991 15604 0001:00078998 15607 0001:000789D2 15609 0001:000789DC
 15610 0001:000789EA 15611 0001:000789F4 15619 0001:00078A02 15621 0001:00078A12
 15623 0001:00078A18 15624 0001:00078A21 15625 0001:00078A2A 15629 0001:00078A35
 15630 0001:00078A3E 15631 0001:00078A47 15633 0001:00078A50 15637 0001:00078A5C
 15640 0001:00078A70 15642 0001:00078A7F 15646 0001:00078A88 15647 0001:00078A95
 15648 0001:00078A9F 15650 0001:00078AAD 15651 0001:00078ABA 15657 0001:00078AC6
 15658 0001:00078AD0 15660 0001:00078ADB 15661 0001:00078AE4 15662 0001:00078AED
 15663 0001:00078AF6 15666 0001:00078B04 15667 0001:00078B17 15669 0001:00078B1F
 15671 0001:00078B34 15673 0001:00078B40 15676 0001:00078B5C 15679 0001:00078B70
 15682 0001:00078B77 15683 0001:00078B84 15687 0001:00078B90 15689 0001:00078B99
 15690 0001:00078BC4 15694 0001:00078BD3 15696 0001:00078BDC 15697 0001:00078C08
 15701 0001:00078C17 15703 0001:00078C20 15704 0001:00078C4C 15710 0001:00078C5B
 15712 0001:00078C64 15713 0001:00078C90 15717 0001:00078C9F 15718 0001:00078CA8
 15719 0001:00078CB1 15723 0001:00078CC0 15725 0001:00078CE2 15727 0001:00078CE8
 15728 0001:00078CF1 15729 0001:00078CFA 15733 0001:00078D05 15734 0001:00078D0E
 15735 0001:00078D17 15737 0001:00078D20 15741 0001:00078D2C 15744 0001:00078D40
 15745 0001:00078D4F 15748 0001:00078D58 15749 0001:00078D65 15750 0001:00078D6F
 15753 0001:00078D7D 15754 0001:00078D8A 15760 0001:00078D96 15761 0001:00078D9F
 15762 0001:00078DA8 15765 0001:00078DB1 15766 0001:00078DB8 15772 0001:00078DC4
 15773 0001:00078DCD 15774 0001:00078DD6 15775 0001:00078DE0 15779 0001:00078DEE
 15780 0001:00078DF2 15782 0001:00078E05 15787 0001:00078E2E 15788 0001:00078E37
 15790 0001:00078E5B 15792 0001:00078E62 15794 0001:00078E92 15819 0001:00078E9C
 15820 0001:00078EA4 15837 0001:00078EAD 15839 0001:00078EB6 15841 0001:00078EDA
 15843 0001:00078EE1 15845 0001:00078F11 15847 0001:00078F1B 15848 0001:00078F24
 15849 0001:00078F2C 15853 0001:00078F30 15855 0001:00078F3F 15858 0001:00078F4C
 15859 0001:00078F55 15860 0001:00078F5D 15861 0001:00078F61 15865 0001:00078F6A
 15868 0001:00078F74 15871 0001:00078FD9 15875 0001:00078FFA 15876 0001:0007900A
 15877 0001:00079012 15878 0001:00079016 15882 0001:0007901B 15890 0001:00079092
 15891 0001:00079099 15893 0001:000790A4 15895 0001:000790A7 15896 0001:000790B0
 15898 0001:000790B6 15902 0001:000790CB 15905 0001:000790D2 15906 0001:000790E2
 15920 0001:0007925C 15115 0001:0007925F 15922 0001:00079268 15923 0001:00079276
 15944 0001:00079296 15945 0001:000792A0 15947 0001:000792A8 15948 0001:000792AD
 15949 0001:000792B4 15951 0001:000792B9 15953 0001:000792D0 15956 0001:000792E1
 15958 0001:000792EA 15959 0001:000792ED 15962 0001:000792FB 15964 0001:00079304
 15965 0001:0007930D 15966 0001:00079313 15969 0001:00079319 15951 0001:0007931C
 15970 0001:00079321 15972 0001:0007932D 15974 0001:00079336 15975 0001:0007934B
 15978 0001:00079355 15980 0001:0007935E 15983 0001:00079379 15986 0001:00079385
 15989 0001:00079398 15990 0001:000793B0 15991 0001:000793B9 16004 0001:000793C3
 16007 0001:000793D0 16009 0001:000793D9 16012 0001:000793E3 16014 0001:00079400
 16016 0001:00079407 16017 0001:0007940E 16019 0001:00079448 16021 0001:0007944D
 16028 0001:0007946C 16032 0001:0007947B 16033 0001:00079482 16034 0001:0007948D
 16036 0001:000794C7 16039 0001:000794CC 16041 0001:000794EC 16043 0001:000794F3
 16044 0001:000794FA 16046 0001:00079534 16048 0001:00079539 16050 0001:00079558
 16052 0001:0007956A 16053 0001:00079571 16054 0001:0007957C 16056 0001:000795B6
 16058 0001:000795BB 16059 0001:000795DB 16066 0001:00079630 16067 0001:0007964B
 16069 0001:00079652 16009 0001:00079654 16071 0001:0007965E 16073 0001:00079668
 16076 0001:00079672 16078 0001:00079689 16079 0001:000796A4 16081 0001:000796AB
 16083 0001:000796E5 16085 0001:00079700 16086 0001:00079707 16089 0001:0007971B
 16090 0001:00079725 16091 0001:00079732 16092 0001:0007973C 16095 0001:0007975F
 16097 0001:00079762 16098 0001:00079774 16100 0001:000797AE 16102 0001:000797B8
 16105 0001:000797D3 16106 0001:000797DA 16109 0001:00079814 16110 0001:0007982F
 16113 0001:0007983A 16115 0001:00079874 16117 0001:0007988F 16122 0001:00079896
 16127 0001:000798D0 16128 0001:000798DA 16129 0001:000798E7 16130 0001:000798F1
 16135 0001:0007990A 16137 0001:00079913 16138 0001:00079919 16139 0001:00079925
 16140 0001:0007992B 16145 0001:00079934 16146 0001:00079943 16149 0001:0007995D
 16151 0001:00079966 16154 0001:00079973 16157 0001:00079979 16159 0001:0007998A
 16162 0001:00079999 16164 0001:000799B0 16167 0001:000799C1 16169 0001:000799D3
 16174 0001:000799E5 16177 0001:000799EB 16162 0001:000799EE 16182 0001:000799F3
 16184 0001:00079A0E 16187 0001:00079A1F 16189 0001:00079A2C 16191 0001:00079A35
 16193 0001:00079A45 16195 0001:00079A4E 16197 0001:00079A5F 16201 0001:00079A95
 16202 0001:00079A9C 16205 0001:00079AE7 16182 0001:00079AEA 16207 0001:00079B09
 16209 0001:00079B0C 16210 0001:00079B1E 16212 0001:00079B50 16213 0001:00079B66
 16214 0001:00079B6D 16216 0001:00079B9F 16217 0001:00079BAA 16219 0001:00079BC5
 16221 0001:00079BD7 16222 0001:00079BE8 16223 0001:00079BF8 16224 0001:00079C00
 16219 0001:00079C03 16225 0001:00079C09 16227 0001:00079C14 16228 0001:00079C1E
 16229 0001:00079C2B 16230 0001:00079C35 16233 0001:00079C42 16241 0001:00079C5E
 16243 0001:00079C79 16246 0001:00079C8A 16248 0001:00079C97 16250 0001:00079CA0
 16251 0001:00079CB1 16253 0001:00079CBE 16257 0001:00079CF4 16259 0001:00079CFF
 16260 0001:00079D0B 16263 0001:00079D58 16265 0001:00079D5F 16272 0001:00079D99
 16241 0001:00079D9C 16275 0001:00079DAD 16279 0001:00079DCE 16280 0001:00079DFA
 16283 0001:00079E8B 16288 0001:0007A348 16289 0001:0007A36A 16290 0001:0007A397
 16294 0001:0007A3A3 16297 0001:0007A3D9 16298 0001:0007A3E7 16299 0001:0007A426
 16302 0001:0007A440 16303 0001:0007A46C 16305 0001:0007A49E 16311 0001:0007A56C
 16312 0001:0007A58F 16313 0001:0007A5BA 16314 0001:0007A5BE 16315 0001:0007A5D0
 16317 0001:0007A5DC 16318 0001:0007A5E5 16320 0001:0007A5EF 16321 0001:0007A615
 16323 0001:0007A621 16326 0001:0007A657 16327 0001:0007A665 16328 0001:0007A6A4
 16331 0001:0007A6BE 16332 0001:0007A6EA 16334 0001:0007A71C 16341 0001:0007A7FC
 16342 0001:0007A817 16351 0001:0007A842 16353 0001:0007A85A 16354 0001:0007A86B
 16356 0001:0007A878 16358 0001:0007A885 16359 0001:0007A88E 16362 0001:0007A89E
 16365 0001:0007A8B9 16366 0001:0007A8CC 16368 0001:0007A8EC 16372 0001:0007A8F2
 16375 0001:0007A912 16377 0001:0007A916 16381 0001:0007A928 16383 0001:0007A92F
 16351 0001:0007A932 16385 0001:0007A94E 16386 0001:0007A97A 16388 0001:0007A98F
 16391 0001:0007AA28 16392 0001:0007AA40 16393 0001:0007AA4E 16407 0001:0007AA5C
 16412 0001:0007AA6F 16413 0001:0007AA81 16415 0001:0007AA9F 16416 0001:0007AABC
 16418 0001:0007AAD1 16419 0001:0007AAEC 16422 0001:0007AB15 16423 0001:0007AB2B
 16425 0001:0007AB4A 16430 0001:0007AB56 16432 0001:0007AB60 16436 0001:0007ABB3
 16439 0001:0007ABF8 16440 0001:0007AC0B 16443 0001:0007AC19 16444 0001:0007AC2F
 16447 0001:0007AC39 16449 0001:0007AC43 16455 0001:0007AC50 16456 0001:0007AC69
 16459 0001:0007AC73 16461 0001:0007AC7D 16466 0001:0007AC88 16468 0001:0007AD20
 16469 0001:0007AD57 16470 0001:0007AD81 16496 0001:0007AD8D 16498 0001:0007AD9F
 16502 0001:0007ADA7 16503 0001:0007ADB6 16505 0001:0007ADC8 16509 0001:0007ADD0
 16510 0001:0007ADE0 16512 0001:0007ADE7 16513 0001:0007ADFE 16518 0001:0007AE07
 16521 0001:0007AE3A 16523 0001:0007AE3F 16524 0001:0007AE4E 16529 0001:0007AE52
 16532 0001:0007AE76 16534 0001:0007AE8E 16537 0001:0007AE97 16540 0001:0007AEAF
 16542 0001:0007AEBA 16544 0001:0007AEC0 16545 0001:0007AED4 16547 0001:0007AEE9
 16548 0001:0007AEFC 16552 0001:0007AF06 16553 0001:0007AF0F 16554 0001:0007AF1A
 16558 0001:0007AF23 16560 0001:0007AF2E 16562 0001:0007AF3D 16564 0001:0007AF44
 16565 0001:0007AF4D 16567 0001:0007AF54 16570 0001:0007AF5D 16574 0001:0007AF64
 16576 0001:0007AF69 16578 0001:0007AF8D 16581 0001:0007AF92 16583 0001:0007AF9C
 16584 0001:0007AFA5 16585 0001:0007AFB0 16586 0001:0007AFBA 16589 0001:0007AFE7
 16591 0001:0007AFF2 16592 0001:0007AFFC 16595 0001:0007B005 16597 0001:0007B019
 16600 0001:0007B01F 16601 0001:0007B028 16603 0001:0007B02F 16605 0001:0007B038
 16606 0001:0007B041 16607 0001:0007B04F 16608 0001:0007B059 16611 0001:0007B086
 16615 0001:0007B0AB 16616 0001:0007B0C3 16618 0001:0007B0CE 16620 0001:0007B0D9
 16621 0001:0007B0E8 16623 0001:0007B0FE 16624 0001:0007B109 16627 0001:0007B121
 16628 0001:0007B129 16630 0001:0007B133 16632 0001:0007B135 16593 0001:0007B13F
 16635 0001:0007B144 16637 0001:0007B160 16638 0001:0007B16A 16644 0001:0007B17D
 16645 0001:0007B195 16647 0001:0007B1A0 16649 0001:0007B1AB 16650 0001:0007B1BA
 16653 0001:0007B1D0 16654 0001:0007B1DB 16656 0001:0007B1F3 16659 0001:0007B1FB
 16675 0001:0007B20B 16676 0001:0007B214 16677 0001:0007B222 16678 0001:0007B22C
 16679 0001:0007B235 16681 0001:0007B262 16682 0001:0007B268 16686 0001:0007B273
 16687 0001:0007B27D 16688 0001:0007B286 16689 0001:0007B28C 16691 0001:0007B297
 16692 0001:0007B2A8 16694 0001:0007B2B1 16695 0001:0007B2BD 16696 0001:0007B2C7
 16697 0001:0007B2D0 16702 0001:0007B2FD 16706 0001:0007B30F 16707 0001:0007B318
 16682 0001:0007B31F 16710 0001:0007B32A 16711 0001:0007B342 16713 0001:0007B34D
 16715 0001:0007B358 16716 0001:0007B367 16719 0001:0007B37D 16732 0001:0007B388
 16733 0001:0007B39A 16737 0001:0007B3A0 16740 0001:0007B3BE 16747 0001:0007B41E
 16748 0001:0007B425 16749 0001:0007B46A 16752 0001:0007B484 16753 0001:0007B4B0
 16755 0001:0007B4F2 16762 0001:0007B6DC 16763 0001:0007B6FA 16764 0001:0007B73C
 16765 0001:0007B740 16768 0001:0007B752 16769 0001:0007B75B 16771 0001:0007B765
 16772 0001:0007B78B 16774 0001:0007B797 16777 0001:0007B7BC 16778 0001:0007B7E8
 16780 0001:0007B7FD 16795 0001:0007B8C0 16796 0001:0007B8D4 16797 0001:0007B904
 16799 0001:0007B90A 16800 0001:0007B911 16802 0001:0007B91B 16805 0001:0007B92E
 16806 0001:0007B937 16807 0001:0007B943 16809 0001:0007B968 16810 0001:0007B970
 16812 0001:0007B97B 16887 0001:0007B99F 16890 0001:0007B9B7 16891 0001:0007B9E3
 16893 0001:0007B9FB 16899 0001:0007BA9C 16900 0001:0007BAB0 16907 0001:0007BAE0
 16911 0001:0007BAF3 16912 0001:0007BAFC 16915 0001:0007BB17 16917 0001:0007BB2A
 16919 0001:0007BB4F 16921 0001:0007BB59 16922 0001:0007BB61 16926 0001:0007BB6D
 16929 0001:0007BB76 16930 0001:0007BB8A 16934 0001:0007BBA3 16936 0001:0007BBBD
 16937 0001:0007BBD1 16939 0001:0007BBEA 16941 0001:0007BC04 16944 0001:0007BC0E
 16948 0001:0007BC18 16949 0001:0007BC3D 16950 0001:0007BC45 16953 0001:0007BC4E
 16954 0001:0007BC57 16956 0001:0007BC7E 16958 0001:0007BC95 16962 0001:0007BCB0
 16965 0001:0007BCB3 16966 0001:0007BCBA 16967 0001:0007BCC3 16968 0001:0007BCCE
 16969 0001:0007BCD5 16973 0001:0007BD0B 16974 0001:0007BD37 16976 0001:0007BD8B
 16982 0001:0007BECC 16984 0001:0007BEE8 16985 0001:0007BEEF 16986 0001:0007BEF8
 16988 0001:0007BEFD 16991 0001:0007BF28 16995 0001:0007BF3B 16996 0001:0007BF45
 17000 0001:0007BF77 17001 0001:0007BF80 17004 0001:0007BF9B 17005 0001:0007BFB0
 17006 0001:0007BFB8 17007 0001:0007BFC1 17008 0001:0007BFD0 17010 0001:0007BFE8
 17012 0001:0007BFF9 17015 0001:0007C014 17018 0001:0007C017 17019 0001:0007C01E
 17020 0001:0007C027 17021 0001:0007C032 17022 0001:0007C039 17026 0001:0007C06F
 17027 0001:0007C09B 17029 0001:0007C10C 17034 0001:0007C250 17035 0001:0007C264
 17036 0001:0007C294 17038 0001:0007C29A 17039 0001:0007C2A1 17041 0001:0007C2AB
 17044 0001:0007C2BE 17045 0001:0007C2C7 17046 0001:0007C2D3 17048 0001:0007C2F8
 17050 0001:0007C2FE 17051 0001:0007C306 17058 0001:0007C30F 17060 0001:0007C319
 17062 0001:0007C333 17064 0001:0007C343 17066 0001:0007C359 17069 0001:0007C360
 17072 0001:0007C37A 17073 0001:0007C3A6 17075 0001:0007C3FA 17078 0001:0007C4C0
 17079 0001:0007C4D0 17080 0001:0007C4E9 17081 0001:0007C4F1 17086 0001:0007C500
 17087 0001:0007C522 17089 0001:0007C552 17092 0001:0007C565 17096 0001:0007C63D
 17101 0001:0007C64B 17105 0001:0007C66F 17109 0001:0007C67D 17110 0001:0007C686
 17112 0001:0007C69F 17116 0001:0007C6AD 17120 0001:0007C6BB 17124 0001:0007C6C9
 17128 0001:0007C6D7 17132 0001:0007C6E5 17136 0001:0007C709 17140 0001:0007C722
 17144 0001:0007C730 17148 0001:0007C73E 17152 0001:0007C74C 17156 0001:0007C75A
 17160 0001:0007C768 17161 0001:0007C771 17163 0001:0007C78A 17167 0001:0007C798
 17171 0001:0007C7B1 17175 0001:0007C7CA 17179 0001:0007C7D8 17183 0001:0007C7E6
 17187 0001:0007C7FF 17188 0001:0007C808 17190 0001:0007C821 17194 0001:0007C82F
 17198 0001:0007C848 17205 0001:0007C861 17209 0001:0007C86F 17215 0001:0007C893
 17219 0001:0007C8B7 17220 0001:0007C8D5 17226 0001:0007C949 17227 0001:0007C951
 17228 0001:0007C95A 17230 0001:0007C975 17233 0001:0007C978 17234 0001:0007C97F
 17235 0001:0007C98A 17236 0001:0007C991 17240 0001:0007C9C7 17241 0001:0007C9F3
 17243 0001:0007CA47 17247 0001:0007CBA4 17248 0001:0007CBB8 17249 0001:0007CBE8
 17250 0001:0007CC08 17252 0001:0007CC20 17253 0001:0007CC4C 17255 0001:0007CC64
 17258 0001:0007CCF8 17259 0001:0007CD0C 17260 0001:0007CD11 17261 0001:0007CD3C
 17263 0001:0007CD84 17264 0001:0007CDB0 17266 0001:0007CDE8 17272 0001:0007CE90
 17273 0001:0007CEA4 17275 0001:0007CED4 17278 0001:0007CEE7 17284 0001:0007CF1D
 17285 0001:0007CF26 17286 0001:0007CF2C 17287 0001:0007CF33 17288 0001:0007CF47
 17290 0001:0007CF68 17298 0001:0007CF72 17299 0001:0007CF7B 17300 0001:0007CF81
 17301 0001:0007CF88 17302 0001:0007CF9C 17304 0001:0007CFBD 17310 0001:0007CFC7
 17317 0001:0007CFCF 17319 0001:0007CFEA 17322 0001:0007CFED 17323 0001:0007CFF5
 17324 0001:0007D000 17325 0001:0007D007 17329 0001:0007D03D 17330 0001:0007D069
 17332 0001:0007D0A1 17337 0001:0007D180 17338 0001:0007D194 17340 0001:0007D1C4
 17342 0001:0007D1D7 17344 0001:0007D1E4 17350 0001:0007D1F3 17352 0001:0007D1FB
 17354 0001:0007D216 17357 0001:0007D219 17358 0001:0007D221 17359 0001:0007D22C
 17360 0001:0007D233 17364 0001:0007D269 17365 0001:0007D295 17367 0001:0007D2CD
 17373 0001:0007D3A4 17374 0001:0007D3C0 17375 0001:0007D3F0 17377 0001:0007D3FF
 17380 0001:0007D412 17381 0001:0007D41F 17383 0001:0007D42C 17388 0001:0007D433
 17389 0001:0007D43B 17390 0001:0007D443 17393 0001:0007D45B 17394 0001:0007D487
 17396 0001:0007D512 17402 0001:0007D5E0 17403 0001:0007D5F4 17404 0001:0007D624
 17406 0001:0007D62A 17407 0001:0007D631 17409 0001:0007D63B 17412 0001:0007D64E
 17413 0001:0007D657 17414 0001:0007D663 17421 0001:0007D688 17422 0001:0007D690
 17424 0001:0007D699 17428 0001:0007D6A2 17433 0001:0007D6EE 17434 0001:0007D6F7
 17441 0001:0007D70A 17444 0001:0007D722 17445 0001:0007D74E 17447 0001:0007D766
 17453 0001:0007D838 17454 0001:0007D84C 17455 0001:0007D87C 17457 0001:0007D882
 17458 0001:0007D889 17460 0001:0007D893 17463 0001:0007D8A6 17464 0001:0007D8AF
 17465 0001:0007D8BB 17467 0001:0007D8E0 17468 0001:0007D8E8 17470 0001:0007D8F4
 17471 0001:0007D907 17474 0001:0007D91F 17475 0001:0007D94B 17477 0001:0007D963
 17480 0001:0007DA08 17481 0001:0007DA1F 17483 0001:0007DA25 17484 0001:0007DA2C
 17486 0001:0007DA2E 17487 0001:0007DA54 17488 0001:0007DA65 17489 0001:0007DA85
 17492 0001:0007DAA4 17493 0001:0007DABB 17494 0001:0007DAF3 17495 0001:0007DB13
 17501 0001:0007DB30 17502 0001:0007DB44 17503 0001:0007DB74 17505 0001:0007DB7A
 17506 0001:0007DB81 17508 0001:0007DB8B 17511 0001:0007DB9E 17512 0001:0007DBA7
 17513 0001:0007DBB3 17515 0001:0007DBD8 17516 0001:0007DBE0 17518 0001:0007DBE9
 17520 0001:0007DBF6 17522 0001:0007DC0E 17523 0001:0007DC3A 17525 0001:0007DC8E
 17529 0001:0007DD54 17530 0001:0007DD68 17531 0001:0007DD6F 17548 0001:0007DDB5
 17549 0001:0007DDE1 17551 0001:0007DDF9 17557 0001:0007DE84 17558 0001:0007DE98
 17559 0001:0007DEC8 17561 0001:0007DECE 17562 0001:0007DED5 17564 0001:0007DEDF
 17567 0001:0007DEF2 17568 0001:0007DEFB 17569 0001:0007DF07 17571 0001:0007DF2C
 17572 0001:0007DF34 17573 0001:0007DF3E 17574 0001:0007DF48 17576 0001:0007DF59
 17577 0001:0007DF68 17580 0001:0007DF80 17581 0001:0007DFAC 17583 0001:0007E001
 17595 0001:0007E0C8 17597 0001:0007E0DC 17598 0001:0007E0E2 17599 0001:0007E0E8
 17600 0001:0007E0F1 17602 0001:0007E0F6 17604 0001:0007E121 17606 0001:0007E127
 17607 0001:0007E12E 17609 0001:0007E138 17612 0001:0007E14B 17614 0001:0007E154
 17615 0001:0007E15D 17617 0001:0007E16B 17620 0001:0007E17B 17623 0001:0007E1A2
 17625 0001:0007E1AD 17628 0001:0007E1C8 17630 0001:0007E1D6 17632 0001:0007E1DC
 17633 0001:0007E1E7 17637 0001:0007E1F2 17638 0001:0007E1FF 17643 0001:0007E20C
 17646 0001:0007E211 17648 0001:0007E219 17649 0001:0007E21F 17651 0001:0007E227
 17652 0001:0007E22F 17653 0001:0007E242 17657 0001:0007E24E 17659 0001:0007E254
 17660 0001:0007E25A 17662 0001:0007E265 17665 0001:0007E272 17667 0001:0007E28F
 17668 0001:0007E29E 17671 0001:0007E2A6 17670 0001:0007E2A9 17672 0001:0007E2BC
 17673 0001:0007E2C9 17674 0001:0007E2CF 17675 0001:0007E2E0 17680 0001:0007E2EF
 17679 0001:0007E2F3 17681 0001:0007E307 17682 0001:0007E31B 17683 0001:0007E321
 17684 0001:0007E337 17685 0001:0007E34E 17690 0001:0007E360 17692 0001:0007E366
 17693 0001:0007E377 17694 0001:0007E37D 17697 0001:0007E391 17698 0001:0007E39D
 17699 0001:0007E3AA 17701 0001:0007E3B0 17705 0001:0007E3B8 17706 0001:0007E3CC
 17707 0001:0007E3E1 17711 0001:0007E3F5 17726 0001:0007E40D 17727 0001:0007E439
 17729 0001:0007E48B 17734 0001:0007E554 17735 0001:0007E568 17736 0001:0007E598
 17738 0001:0007E59E 17739 0001:0007E5A5 17741 0001:0007E5AF 17744 0001:0007E5C2
 17745 0001:0007E5CB 17746 0001:0007E5D7 17748 0001:0007E5FC 17749 0001:0007E604
 17751 0001:0007E60D 17752 0001:0007E616 17753 0001:0007E642 17756 0001:0007E65A
 17757 0001:0007E686 17759 0001:0007E69E 17765 0001:0007E740 17766 0001:0007E754
 17767 0001:0007E784 17769 0001:0007E78A 17770 0001:0007E791 17772 0001:0007E79B
 17775 0001:0007E7AE 17776 0001:0007E7B7 17777 0001:0007E7C3 17779 0001:0007E7E8
 17780 0001:0007E7F0 17786 0001:0007E804 17788 0001:0007E80D 17790 0001:0007E816
 17791 0001:0007E822 17792 0001:0007E830 17793 0001:0007E83E 17794 0001:0007E84C
 17795 0001:0007E85A 17797 0001:0007E868 17801 0001:0007E887 17802 0001:0007E890
 17807 0001:0007E89F 17809 0001:0007E8B7 17810 0001:0007E8E3 17812 0001:0007E8FB
 17820 0001:0007E9A0 17821 0001:0007E9B4 17822 0001:0007E9E4 17824 0001:0007E9F0
 17826 0001:0007E9FF 17827 0001:0007EA06 17828 0001:0007EA0B 17830 0001:0007EA15
 17831 0001:0007EA28 17836 0001:0007EA41 17837 0001:0007EA48 17838 0001:0007EA4D
 17841 0001:0007EA57 17842 0001:0007EA5C 17850 0001:0007EA81 17852 0001:0007EA9D
 17853 0001:0007EAA4 17855 0001:0007EADE 17857 0001:0007EAF9 17860 0001:0007EAFC
 17861 0001:0007EB03 17862 0001:0007EB0E 17863 0001:0007EB15 17867 0001:0007EB4B
 17868 0001:0007EB77 17870 0001:0007EBB2 17876 0001:0007ECD0 17878 0001:0007ECE2
 17880 0001:0007ECE7 17881 0001:0007ECFA 17882 0001:0007ED10 17888 0001:0007ED20
 17889 0001:0007ED34 17890 0001:0007ED39 17891 0001:0007ED64 17892 0001:0007ED77
 17904 0001:0007ED9E 17905 0001:0007EDCA 17907 0001:0007EE05 17918 0001:0007EEA8
 17919 0001:0007EEBC 17920 0001:0007EEC1 17921 0001:0007EEEC 17923 0001:0007EEF8
 17977 0001:0007EF15 17980 0001:0007EF18 17981 0001:0007EF23 17982 0001:0007EF2A
 17986 0001:0007EF60 17987 0001:0007EF8C 17989 0001:0007EFC7 17997 0001:0007F098
 17999 0001:0007F0AC 18000 0001:0007F0B1 18001 0001:0007F0DC 18003 0001:0007F0E8
 18004 0001:0007F0FB 18006 0001:0007F120 18007 0001:0007F127 18008 0001:0007F13B
 18010 0001:0007F161 18013 0001:0007F164 18014 0001:0007F16F 18015 0001:0007F176
 18019 0001:0007F1AC 18020 0001:0007F1D8 18022 0001:0007F213 18051 0001:0007F310
 18052 0001:0007F330 18054 0001:0007F363 18056 0001:0007F376 18058 0001:0007F389
 18060 0001:0007F399 18062 0001:0007F3A9 18064 0001:0007F3B9 18066 0001:0007F3C9
 18068 0001:0007F3D9 18070 0001:0007F42C 18072 0001:0007F52C 18074 0001:0007F55D
 18075 0001:0007F562 18076 0001:0007F56B 18078 0001:0007F59A 18080 0001:0007F5A7
 18083 0001:0007F5B3 18085 0001:0007F5C8 18086 0001:0007F5CF 18089 0001:0007F5D9
 18095 0001:0007F5EC 18097 0001:0007F5F9 18099 0001:0007F606 18100 0001:0007F60C
 18101 0001:0007F61C 18104 0001:0007F622 18118 0001:0007F630 18119 0001:0007F638
 18120 0001:0007F641 18126 0001:0007F647 18133 0001:0007F65E 18134 0001:0007F666
 18138 0001:0007F66F 18140 0001:0007F686 18143 0001:0007F697 18145 0001:0007F6A0
 18147 0001:0007F6A9 18148 0001:0007F6B9 18150 0001:0007F6C2 18153 0001:0007F6D3
 18138 0001:0007F6D6 18158 0001:0007F6DD 18159 0001:0007F6E1 18162 0001:0007F6E9
 18164 0001:0007F6F3 18165 0001:0007F705 18168 0001:0007F71C 18174 0001:0007F726
 18176 0001:0007F752 18178 0001:0007F75C 18181 0001:0007F766 18182 0001:0007F76D
 18183 0001:0007F778 18189 0001:0007F791 18190 0001:0007F798 18194 0001:0007F7A7
 18195 0001:0007F7AE 18196 0001:0007F7B9 18203 0001:0007F7D2 18205 0001:0007F7DF
 18206 0001:0007F809 18207 0001:0007F810 18210 0001:0007F878 18212 0001:0007F8A4
 18214 0001:0007F8AE 18217 0001:0007F8B8 18227 0001:0007F950 18228 0001:0007F962
 18230 0001:0007F976 18233 0001:0007F97D 18238 0001:0007F984 18241 0001:0007F98D
 18242 0001:0007F994 18243 0001:0007F99B 18249 0001:0007F9AF 18251 0001:0007F9C8
 18252 0001:0007F9D9 18263 0001:0007F9E0 18249 0001:0007F9E3 18268 0001:0007F9E8
 18275 0001:0007FA15 18279 0001:0007FA32 18282 0001:0007FA35 18283 0001:0007FA40
 18284 0001:0007FA47 18288 0001:0007FA6A 18290 0001:0007FA80 18299 0001:0007FAD4
 18301 0001:0007FB00 18303 0001:0007FB0A 18304 0001:0007FB13 18306 0001:0007FB8F
 18309 0001:0007FBFD 18318 0001:0007FC41 18323 0001:0007FEB0 18324 0001:0007FEC4
 18328 0001:0007FF13 18330 0001:0007FF41 18333 0001:0007FF44 18334 0001:0007FF4F
 18335 0001:0007FF56 18339 0001:0007FF8C 18340 0001:0007FFB8 18342 0001:0007FFD0
 18347 0001:000800D8 18348 0001:00080104 18349 0001:00080111 18350 0001:0008011B
 18352 0001:00080122 18353 0001:0008012C 18354 0001:00080135 18355 0001:0008013D
 18356 0001:00080150 18357 0001:00080159 18358 0001:00080168 18361 0001:0008018A
 18362 0001:000801B6 18364 0001:000801E9 18367 0001:00080278 18368 0001:00080297
 18369 0001:000802A4 18370 0001:000802AF 18372 0001:000802D0 18373 0001:000802FC
 18375 0001:0008031F 18378 0001:00080394 18379 0001:000803A7 18380 0001:000803B4
 18381 0001:000803C1 18382 0001:000803CE 18385 0001:000803D8 18386 0001:000803F0
 18387 0001:00080419 18389 0001:0008041F 18390 0001:00080425 18392 0001:0008043D
 18393 0001:0008044D 18394 0001:00080453 18396 0001:00080479 18400 0001:00080483
 18401 0001:0008048E 18404 0001:0008049C 18405 0001:000804B5 18407 0001:000804E2
 18409 0001:000804E8 18411 0001:000804EF 18414 0001:000804FC 18415 0001:00080515
 18417 0001:0008053D 18419 0001:00080543 18421 0001:0008054A 18424 0001:00080558
 18425 0001:00080574 18426 0001:0008057A 18429 0001:00080588 18430 0001:000805A4
 18431 0001:000805AC 18434 0001:000805B8 18435 0001:000805D4 18436 0001:000805E3
 18438 0001:00080608 18439 0001:00080610 18442 0001:0008061C 18443 0001:00080638
 18444 0001:0008065B 18447 0001:00080668 18448 0001:00080685 18449 0001:000806A5
 18450 0001:000806AB 18451 0001:000806CE 18452 0001:000806D4 18453 0001:000806F4
 18456 0001:000806FA 18458 0001:00080723 18460 0001:0008072C 18462 0001:0008074A
 18467 0001:00080758 18468 0001:00080780 18469 0001:000807AA 18470 0001:000807B2
 18471 0001:000807C0 18472 0001:000807CA 18474 0001:000807F0 18475 0001:000807FC
 18477 0001:00080806 18479 0001:00080816 18481 0001:00080826 18483 0001:00080849
 18484 0001:00080875 18486 0001:000808FD 18491 0001:00080A20 18492 0001:00080A3B
 18493 0001:00080A46 18494 0001:00080A51 18496 0001:00080A5F 18497 0001:00080A64
 18499 0001:00080A69 18500 0001:00080A7E 18501 0001:00080A8E 18502 0001:00080A99
 18503 0001:00080AAE 18504 0001:00080ABE 18516 0001:00080ACC 18517 0001:00080AEF
 18518 0001:00080B1E 18521 0001:00080B2A 18522 0001:00080B37 18525 0001:00080B6F
 18526 0001:00080B78 18528 0001:00080B7E 18530 0001:00080B84 18532 0001:00080BB1
 18534 0001:00080BBB 18536 0001:00080BCD 18537 0001:00080BE4 18538 0001:00080C0B
 18539 0001:00080C14 18540 0001:00080C1A 18541 0001:00080C20 18543 0001:00080C34
 18548 0001:00080C74 18549 0001:00080CA0 18551 0001:00080CD0 18563 0001:00080DD4
 18564 0001:00080DF7 18565 0001:00080DFB 18566 0001:00080E26 18569 0001:00080E32
 18570 0001:00080E3E 18572 0001:00080E48 18573 0001:00080E55 18576 0001:00080EA2
 18577 0001:00080EAB 18579 0001:00080EB1 18581 0001:00080EB7 18583 0001:00080EE4
 18585 0001:00080EEE 18587 0001:00080F00 18588 0001:00080F19 18589 0001:00080F42
 18590 0001:00080F4B 18591 0001:00080F51 18592 0001:00080F57 18594 0001:00080F6B
 18599 0001:00080FAB 18600 0001:00080FD7 18602 0001:00081007 18614 0001:00081120
 18615 0001:00081167 18616 0001:000811A5 18619 0001:000811B1 18622 0001:000811E7
 18623 0001:000811F0 18625 0001:000811F6 18627 0001:000811FC 18629 0001:00081229
 18631 0001:00081233 18634 0001:00081245 18639 0001:00081250 18643 0001:00081273
 18644 0001:00081279 18645 0001:00081283 18649 0001:000812EC 18651 0001:000812FD
 18652 0001:00081301 18653 0001:00081307 18654 0001:00081311 18658 0001:0008137A
 18660 0001:0008139C 18661 0001:000813A5 18663 0001:000813AF 18665 0001:000813B5
 18667 0001:000813E2 18669 0001:000813E9 18674 0001:0008140E 18675 0001:0008143A
 18677 0001:00081472 18689 0001:00081628 18690 0001:0008166F 18691 0001:000816AD
 18694 0001:000816B9 18697 0001:000816EF 18698 0001:000816F8 18700 0001:000816FE
 18702 0001:00081704 18704 0001:00081731 18706 0001:0008173B 18716 0001:0008174D
 18719 0001:0008175A 18720 0001:0008175E 18721 0001:00081764 18722 0001:0008176E
 18726 0001:000817D7 18728 0001:000817E8 18729 0001:000817EC 18730 0001:000817F2
 18731 0001:000817FC 18735 0001:00081865 18737 0001:00081887 18738 0001:00081890
 18740 0001:0008189A 18742 0001:000818A0 18744 0001:000818CD 18746 0001:000818D4
 18751 0001:000818F9 18752 0001:00081925 18754 0001:0008195D 18757 0001:00081B14
 18758 0001:00081B28 18759 0001:00081B2D 18762 0001:00081B58 18763 0001:00081B68
 18764 0001:00081B70 18769 0001:00081B8C 18770 0001:00081BB8 18772 0001:00081BD0
 18775 0001:00081C60 18776 0001:00081C74 18777 0001:00081C79 18780 0001:00081CA4
 18785 0001:00081CC0 18786 0001:00081CEC 18788 0001:00081D04 18791 0001:00081D94
 18792 0001:00081DA8 18793 0001:00081DAD 18796 0001:00081DD8 18797 0001:00081DDF
 18802 0001:00081DFB 18803 0001:00081E27 18805 0001:00081E3F 18808 0001:00081ED0
 18809 0001:00081EE4 18810 0001:00081EE9 18813 0001:00081F14 18814 0001:00081F24
 18815 0001:00081F2C 18820 0001:00081F46 18821 0001:00081F72 18823 0001:00081F8A
 18826 0001:00082018 18827 0001:00082028 18828 0001:00082031 18830 0001:0008204B
 18831 0001:00082063 18832 0001:0008206B 18835 0001:00082078 18836 0001:0008208C
 18837 0001:00082091 18838 0001:000820BC 18840 0001:000820CB 18841 0001:000820EB
 18844 0001:000820FB 18845 0001:00082100 18846 0001:00082108 18847 0001:00082111
 18848 0001:00082127 18852 0001:00082134 18854 0001:0008214E 18855 0001:0008217A
 18857 0001:00082192 18860 0001:00082228 18861 0001:00082241 18862 0001:00082246
 18863 0001:00082271 18864 0001:00082286 18867 0001:000822B0 18868 0001:000822B6
 18869 0001:000822BC 18872 0001:000822D6 18873 0001:00082302 18875 0001:0008235A
 18878 0001:00082418 18879 0001:0008242C 18880 0001:00082431 18881 0001:0008245C
 18882 0001:0008246B 18884 0001:000824AA 18886 0001:000824C4 18887 0001:000824F0
 18889 0001:00082528 18894 0001:000825D4 18895 0001:000825E8 18896 0001:000825ED
 18897 0001:00082618 18899 0001:0008262B 18905 0001:0008266F 18906 0001:0008268D
 18907 0001:00082693 18908 0001:0008269A 18909 0001:000826A3 18911 0001:000826AF
 18919 0001:000826B9 18922 0001:000826C3 18926 0001:000826CD 18928 0001:000826E7
 18929 0001:00082713 18931 0001:0008274B 18936 0001:000827F8 18937 0001:0008280C
 18938 0001:00082811 18940 0001:0008283C 18943 0001:0008285B 18944 0001:00082879
 18945 0001:0008287F 18946 0001:00082886 18947 0001:0008288F 18949 0001:0008289B
 18952 0001:000828A5 18954 0001:000828C0 18955 0001:000828EC 18957 0001:00082924
 18960 0001:000829CC 18961 0001:000829E5 18962 0001:000829EA 18963 0001:00082A15
 18965 0001:00082A24 18966 0001:00082A2C 18970 0001:00082A50 18971 0001:00082A58
 18972 0001:00082A60 18975 0001:00082A7A 18976 0001:00082AA6 18978 0001:00082B0E
 18981 0001:00082BE0 18982 0001:00082BF4 18983 0001:00082BF9 18986 0001:00082C24
 18987 0001:00082C34 18988 0001:00082C3C 18993 0001:00082C56 18994 0001:00082C82
 18996 0001:00082C9A 18999 0001:00082D28 19000 0001:00082D3C 19001 0001:00082D41
 19004 0001:00082D6C 19005 0001:00082D7C 19006 0001:00082D84 19011 0001:00082DA1
 19012 0001:00082DCD 19014 0001:00082DE5 19017 0001:00082E78 19018 0001:00082E8F
 19020 0001:00082E95 19021 0001:00082E9C 19023 0001:00082E9E 19024 0001:00082EBE
 19025 0001:00082EC9 19026 0001:00082EE9 19029 0001:00082F08 19030 0001:00082F1F
 19031 0001:00082F51 19032 0001:00082F71 19035 0001:00082F90 19036 0001:00082FA4
 19037 0001:00082FA9 19040 0001:00082FD4 19041 0001:00082FE4 19042 0001:00082FEC
 19047 0001:00083006 19048 0001:00083032 19050 0001:0008304A 19053 0001:000830D8
 19054 0001:000830EC 19055 0001:000830F3 19069 0001:00083139 19070 0001:00083165
 19072 0001:0008317D 19075 0001:0008320C 19076 0001:00083220 19077 0001:00083225
 19080 0001:00083250 19081 0001:00083260 19082 0001:00083268 19087 0001:00083283
 19088 0001:000832AF 19090 0001:000832C7 19093 0001:00083354 19094 0001:00083368
 19095 0001:0008336D 19096 0001:00083398 19097 0001:0008339F 19098 0001:000833D3
 19101 0001:000833E3 19102 0001:000833E9 19104 0001:000833F1 19107 0001:0008340D
 19108 0001:00083439 19110 0001:00083451 19113 0001:000834E4 19114 0001:000834F8
 19115 0001:000834FD 19116 0001:00083528 19117 0001:0008352F 19118 0001:00083554
 19121 0001:00083565 19122 0001:0008356B 19124 0001:00083575 19127 0001:00083591
 19128 0001:000835BD 19130 0001:000835D5 19133 0001:00083668 19134 0001:0008367C
 19135 0001:00083681 19138 0001:000836AC 19139 0001:000836BC 19140 0001:000836C4
 19145 0001:000836E7 19146 0001:00083713 19148 0001:0008372B 19151 0001:000837B8
 19152 0001:000837CC 19153 0001:000837D1 19156 0001:000837FC 19157 0001:0008380C
 19158 0001:00083814 19163 0001:0008382E 19164 0001:0008385A 19166 0001:00083872
 19169 0001:00083900 19170 0001:00083914 19171 0001:00083919 19174 0001:00083944
 19175 0001:00083954 19176 0001:0008395C 19181 0001:0008397E 19182 0001:000839AA
 19184 0001:000839C2 19187 0001:00083A54 19188 0001:00083A68 19189 0001:00083A6D
 19190 0001:00083A98 19192 0001:00083AB2 19193 0001:00083ADE 19195 0001:00083AF6
 19198 0001:00083B8C 19199 0001:00083BA0 19200 0001:00083BA5 19201 0001:00083BD0
 19203 0001:00083BEA 19204 0001:00083C16 19206 0001:00083C2E 19209 0001:00083CC4
 19210 0001:00083CD8 19211 0001:00083CDD 19212 0001:00083D08 19214 0001:00083D22
 19215 0001:00083D4E 19217 0001:00083D66 19220 0001:00083DF8 19221 0001:00083E0C
 19222 0001:00083E11 19223 0001:00083E3C 19225 0001:00083E58 19226 0001:00083E84
 19228 0001:00083E9C 19242 0001:00083F30 19243 0001:00083F44 19244 0001:00083F49
 19245 0001:00083F74 19247 0001:00083F8E 19248 0001:00083FBA 19250 0001:00083FD2
 19253 0001:00084064 19254 0001:00084078 19255 0001:0008407D 19256 0001:0008408A
 19257 0001:00084096 19259 0001:0008409E 19261 0001:000840B8 19262 0001:000840E4
 19264 0001:0008411C 19267 0001:000841A0 19268 0001:000841B4 19272 0001:00084203
 19275 0001:00084231 19278 0001:00084234 19279 0001:00084245 19280 0001:0008424C
 19284 0001:00084282 19285 0001:000842AE 19287 0001:000842C6 19292 0001:000843DC
 19293 0001:00084401 19298 0001:00084417 19299 0001:00084422 19301 0001:00084441
 19305 0001:00084466 19306 0001:00084472 19308 0001:00084481 19310 0001:000844B0
 19314 0001:000844E1 19319 0001:00084558 19320 0001:00084581 19321 0001:0008458E
 19322 0001:00084598 19324 0001:000845B4 19325 0001:000845E0 19327 0001:00084613
 19330 0001:00084698 19331 0001:000846B7 19332 0001:000846C4 19334 0001:000846D6
 19335 0001:000846E1 19337 0001:000846E9 19338 0001:000846F4 19340 0001:00084715
 19341 0001:00084741 19343 0001:00084764 19348 0001:000847D4 19349 0001:000847FD
 19350 0001:0008480A 19351 0001:00084814 19353 0001:00084830 19354 0001:0008485C
 19356 0001:0008488F 19359 0001:00084918 19360 0001:00084937 19361 0001:00084944
 19362 0001:0008494F 19364 0001:00084970 19365 0001:0008499C 19367 0001:000849BF
 19384 0001:00084A30 19385 0001:00084A7C 19388 0001:00084B13 19390 0001:00084B18
 19392 0001:00084B1E 19393 0001:00084B26 19395 0001:00084B3B 19397 0001:00084B40
 19398 0001:00084B53 19400 0001:00084B63 19401 0001:00084B67 19409 0001:00084B6B
 19410 0001:00084B7D 19412 0001:00084B83 19415 0001:00084BA9 19417 0001:00084BAD
 19418 0001:00084BBF 19422 0001:00084BC3 19424 0001:00084BCC 19425 0001:00084BD0
 19429 0001:00084BD4 19430 0001:00084BE0 19432 0001:00084BED 19434 0001:00084BF7
 19435 0001:00084C03 19437 0001:00084C10 19439 0001:00084C1A 19440 0001:00084C20
 19442 0001:00084C2D 19445 0001:00084C37 19447 0001:00084C62 19448 0001:00084C6E
 19450 0001:00084C80 19452 0001:00084C8B 19453 0001:00084C94 19462 0001:00084CB3
 19463 0001:00084CC4 19464 0001:00084CD5 19465 0001:00084CE6 19466 0001:00084CF7
 19469 0001:00084D1B 19470 0001:00084D47 19472 0001:00084DA7 19487 0001:00084EA4
 19488 0001:00084EDE 19491 0001:00084F75 19492 0001:00084F7A 19494 0001:00084F80
 19495 0001:00084F89 19497 0001:00084F9E 19499 0001:00084FA3 19500 0001:00084FB6
 19502 0001:00084FC6 19503 0001:00084FCA 19511 0001:00084FCE 19512 0001:00084FE0
 19514 0001:00084FE6 19517 0001:00085029 19519 0001:0008502D 19520 0001:0008503F
 19524 0001:00085043 19526 0001:0008504C 19527 0001:00085050 19531 0001:00085054
 19532 0001:00085060 19534 0001:0008507E 19536 0001:00085088 19537 0001:00085094
 19539 0001:000850B2 19541 0001:000850BC 19542 0001:000850C2 19544 0001:000850E0
 19547 0001:000850EA 19549 0001:00085115 19550 0001:00085121 19553 0001:00085144
 19556 0001:0008514F 19557 0001:00085158 19566 0001:00085166 19567 0001:00085177
 19568 0001:00085188 19569 0001:00085199 19570 0001:000851AA 19573 0001:000851CE
 19574 0001:000851FA 19576 0001:00085280 19579 0001:00085380 19580 0001:0008539F
 19581 0001:000853AC 19582 0001:000853B7 19584 0001:000853D8 19585 0001:00085404
 19587 0001:00085427 19592 0001:00085494 19593 0001:000854C0 19596 0001:00085519
 19598 0001:00085524 19599 0001:00085534 19600 0001:00085544 19601 0001:00085554
 19603 0001:00085564 19604 0001:00085575 19605 0001:00085586 19606 0001:00085597
 19608 0001:000855BB 19609 0001:000855E7 19611 0001:0008561A 19636 0001:000856E8
 19637 0001:00085707 19638 0001:00085714 19640 0001:00085735 19641 0001:00085761
 19643 0001:00085784 19649 0001:000857F0 19650 0001:0008581C 19653 0001:00085874
 19655 0001:0008587D 19656 0001:0008588D 19657 0001:0008589D 19658 0001:000858AD
 19659 0001:000858BD 19661 0001:000858CD 19662 0001:000858E0 19663 0001:000858F3
 19664 0001:00085906 19665 0001:00085919 19668 0001:0008593F 19669 0001:0008596B
 19671 0001:0008599E 19700 0001:00085A6C 19701 0001:00085A8B 19702 0001:00085A98
 19704 0001:00085AB9 19705 0001:00085AE5 19707 0001:00085B08 19712 0001:00085B7C
 19713 0001:00085BA8 19716 0001:00085C17 19717 0001:00085C27 19718 0001:00085C37
 19720 0001:00085C47 19722 0001:00085C50 19723 0001:00085C63 19724 0001:00085C76
 19726 0001:00085C9C 19727 0001:00085CC8 19729 0001:00085CFB 19752 0001:00085DD0
 19753 0001:00085DEF 19754 0001:00085DFC 19756 0001:00085E1D 19757 0001:00085E49
 19759 0001:00085E6C 19764 0001:00085EDC 19765 0001:00085F08 19766 0001:00085F32
 19767 0001:00085F3A 19768 0001:00085F4A 19770 0001:00085F70 19771 0001:00085F9C
 19773 0001:00085FCF 19788 0001:00086070 19789 0001:0008608F 19790 0001:0008609C
 19792 0001:000860BD 19793 0001:000860E9 19795 0001:0008610C 19831 0001:00086180
 19832 0001:000861AC 19833 0001:000861B9 19835 0001:000861CA 19837 0001:000861D3
 19838 0001:000861DC 19840 0001:000861E4 19844 0001:000861EA 19845 0001:000861F4
 19846 0001:000861FE 19847 0001:0008621E 19848 0001:0008623E 19850 0001:0008625E
 19851 0001:00086282 19852 0001:0008629E 19854 0001:000862BB 19855 0001:000862E2
 19856 0001:00086303 19858 0001:00086323 19859 0001:0008634A 19860 0001:0008636B
 19862 0001:0008638B 19863 0001:000863B2 19864 0001:000863D3 19866 0001:000863F3
 19867 0001:0008641A 19868 0001:00086439 19870 0001:00086459 19871 0001:00086480
 19872 0001:000864A1 19876 0001:000864C1 19879 0001:000864DB 19880 0001:00086507
 19882 0001:0008653A 19885 0001:00086640 19886 0001:0008665F 19887 0001:0008666C
 19888 0001:00086674 19890 0001:00086695 19891 0001:000866C1 19893 0001:000866E4
 19898 0001:00086760 19899 0001:00086777 19900 0001:00086784 19902 0001:00086791
 19904 0001:000867A3 19905 0001:000867B6 19906 0001:000867C6 19902 0001:000867C9
 19907 0001:000867CF 19910 0001:000867ED 19911 0001:00086819 19913 0001:0008682E
 20089 0001:000868D4 20090 0001:000868F1 20091 0001:000868F9 20092 0001:00086902
 20093 0001:00086910 20094 0001:00086919 20095 0001:0008692A 20096 0001:00086933
 20098 0001:00086944 20099 0001:0008694D 20101 0001:0008695E 20102 0001:00086967
 20103 0001:00086978 20104 0001:00086981 20105 0001:00086992 20106 0001:0008699B
 20108 0001:000869AC 20109 0001:000869BA 20110 0001:000869D3 20111 0001:000869D9
 20112 0001:00086A0E 20114 0001:00086AC8 20115 0001:00086AF2 20120 0001:00086BFC
 20121 0001:00086C0C 20126 0001:00086CB0 20129 0001:00086CDF 20131 0001:00086CE4
 20132 0001:00086CF2 20133 0001:00086CF7 20134 0001:00086D05 20138 0001:00086D0A
 20139 0001:00086D12 20140 0001:00086D17 20141 0001:00086D1C 20142 0001:00086D21
 20143 0001:00086D26 20144 0001:00086D2B 20145 0001:00086D33 20147 0001:00086D38
 20150 0001:00086D47 20152 0001:00086D83 20153 0001:00086D88 20154 0001:00086D8D
 20156 0001:00086D9A 20157 0001:00086DA8 20158 0001:00086DB4 20161 0001:00086DB9
 20163 0001:00086DCF 20165 0001:00086DD7 20166 0001:00086DDD 20168 0001:00086DE4
 20170 0001:00086E01 20172 0001:00086E10 20173 0001:00086E1C 20176 0001:00086E24
 20177 0001:00086E2A 20179 0001:00086E37 20181 0001:00086E3C 20182 0001:00086E49
 20184 0001:00086E57 20186 0001:00086E5F 20213 0001:00086E6D 20216 0001:00086E79
 20218 0001:00086E7F 20220 0001:00086E85 20221 0001:00086EA1 20224 0001:00086EAE
 20227 0001:00086EB4 20229 0001:00086EBE 20231 0001:00086EC4 20232 0001:00086EE0
 20235 0001:00086EED 20239 0001:00086EF5 20241 0001:00086F04 20243 0001:00086F19
 20244 0001:00086F1F 20247 0001:00086F35 20248 0001:00086F49 20253 0001:00086F54
 20255 0001:00086F5A 20257 0001:00086F60 20258 0001:00086F6B 20259 0001:00086F76
 20263 0001:00086F83 20264 0001:00086F8E 20265 0001:00086F99 20267 0001:00086FA4
 20268 0001:00086FB0 20270 0001:00086FB5 20271 0001:00086FC0 20273 0001:00086FEA
 20274 0001:00086FF8 20275 0001:00087003 20276 0001:0008700B 20279 0001:00087013
 20281 0001:00087019 20283 0001:0008701F 20285 0001:00087028 20287 0001:0008702E
 20288 0001:0008703C 20292 0001:00087049 20296 0001:00087051 20298 0001:00087059
 20299 0001:0008705F 20302 0001:00087067 20303 0001:00087083 20307 0001:0008708E
 20309 0001:00087094 20315 0001:000870C0 20318 0001:000870CB 20324 0001:000870FD
 20326 0001:00087103 20327 0001:0008710E 20329 0001:00087119 20335 0001:0008715A
 20338 0001:00087161 20343 0001:0008718E 20344 0001:00087193 20345 0001:00087198
 20346 0001:0008719D 20347 0001:000871A2 20349 0001:000871A7 20351 0001:000871B2
 20353 0001:000871B8 20354 0001:000871C7 20355 0001:000871DC 20356 0001:000871F1
 20357 0001:00087206 20358 0001:0008721B 20362 0001:00087232 20363 0001:00087241
 20364 0001:00087256 20365 0001:0008726B 20366 0001:00087280 20367 0001:00087295
 20371 0001:000872AA 20401 0001:000872BD 20402 0001:000872C4 20405 0001:000872D9
 20407 0001:000872E4 20409 0001:000872EF 20410 0001:000872F6 20412 0001:00087308
 20413 0001:00087329 20414 0001:00087335 20415 0001:00087356 20416 0001:00087362
 20420 0001:000873A4 20423 0001:000873AB 20425 0001:000873BB 20427 0001:000873C5
 20429 0001:000873CB 20430 0001:000873DB 20434 0001:000873E6 20435 0001:000873F6
 20440 0001:00087403 20441 0001:00087424 20443 0001:00087430 20444 0001:00087451
 20446 0001:0008745A 20447 0001:0008747B 20448 0001:00087484 20449 0001:000874A5
 20452 0001:000874AE 20454 0001:000874B5 20455 0001:000874BB 20457 0001:000874E7
 20459 0001:00087511 20460 0001:00087520 20462 0001:00087530 20464 0001:00087538
 20407 0001:0008754D 20470 0001:00087558 20471 0001:0008755F 20472 0001:00087569
 20473 0001:00087573 20474 0001:0008757D 20476 0001:00087583 20478 0001:000875A3
 20479 0001:000875B4 20480 0001:000875C2 20481 0001:000875D3 20482 0001:000875E4
 20483 0001:000875F5 20476 0001:000875F8 20487 0001:00087602 20489 0001:0008761E
 20490 0001:0008762F 20491 0001:0008763D 20492 0001:0008764E 20493 0001:0008765F
 20494 0001:00087670 20487 0001:00087673 20499 0001:0008767B 20501 0001:00087684
 20502 0001:0008768F 20503 0001:00087698 20504 0001:000876A6 20505 0001:000876B2
 20506 0001:000876C0 20507 0001:000876CC 20508 0001:000876DA 20510 0001:000876E6
 20511 0001:00087705 20512 0001:00087727 20513 0001:00087749 20516 0001:00087773
 20517 0001:0008777B 20518 0001:00087783 20519 0001:0008778B 20520 0001:00087793
 20522 0001:0008779B 20525 0001:000877A4 20526 0001:000877B8 20529 0001:000877D1
 20533 0001:000877F8 20534 0001:0008782A 20536 0001:000878A4 20539 0001:00087AC4
 20540 0001:00087AE0 20542 0001:00087B10 20544 0001:00087B23 20545 0001:00087B28
 20548 0001:00087B3A 20549 0001:00087B45 20553 0001:00087B51 20554 0001:00087B5F
 20558 0001:00087B6B 20559 0001:00087B72 20566 0001:00087BA9 20568 0001:00087BC6
 20571 0001:00087BC9 20572 0001:00087BDA 20573 0001:00087BE1 20577 0001:00087C17
 20578 0001:00087C43 20580 0001:00087CB4 20585 0001:00087DF8 20586 0001:00087E1A
 20587 0001:00087E24 20589 0001:00087E31 20591 0001:00087E53 20592 0001:00087E5C
 20594 0001:00087E72 20596 0001:00087E7F 20597 0001:00087E88 20599 0001:00087E9B
 20602 0001:00087EA5 20604 0001:00087EB7 20605 0001:00087EC0 20608 0001:00087EE8
 20611 0001:00087EFB 20614 0001:00087F0C 20615 0001:00087F53 20620 0001:00087F70
 20621 0001:00087F95 20622 0001:00087F9F 20624 0001:00087FAC 20626 0001:00087FCE
 20627 0001:00087FD7 20629 0001:00087FED 20631 0001:00087FFA 20632 0001:00088003
 20634 0001:00088016 20637 0001:00088020 20639 0001:00088032 20640 0001:0008803B
 20643 0001:0008806E 20646 0001:00088081 20649 0001:00088092 20650 0001:000880E1
 20656 0001:000880FC 20657 0001:00088110 20658 0001:00088137 20659 0001:00088162
 20661 0001:00088196 20665 0001:000881A8 20669 0001:000881B6 20674 0001:0008820F
 20675 0001:00088214 20676 0001:0008821C 20677 0001:00088225 20678 0001:0008823B
 20683 0001:00088259 20684 0001:00088285 20686 0001:0008829D 20689 0001:0008833C
 20690 0001:00088350 20691 0001:00088362 20693 0001:00088368 20696 0001:00088382
 20700 0001:0008838B 20701 0001:000883A3 20704 0001:000883BB 20705 0001:000883E7
 20707 0001:000883FF 20803 0001:00088478 20804 0001:000884A4 20805 0001:000884B1
 20807 0001:000884C2 20808 0001:000884CB 20810 0001:000884D3 20814 0001:000884D9
 20815 0001:000884E3 20816 0001:000884ED 20817 0001:0008850D 20818 0001:0008852D
 20820 0001:0008854D 20821 0001:00088571 20822 0001:0008858D 20824 0001:000885AA
 20825 0001:000885D1 20826 0001:000885F2 20828 0001:00088612 20829 0001:00088639
 20830 0001:0008865A 20832 0001:0008867A 20833 0001:000886A1 20834 0001:000886C2
 20836 0001:000886E2 20837 0001:00088709 20838 0001:0008872A 20840 0001:0008874A
 20841 0001:00088771 20842 0001:00088790 20844 0001:000887B0 20845 0001:000887D7
 20846 0001:000887F6 20848 0001:00088816 20849 0001:0008883D 20850 0001:0008885C
 20852 0001:0008887C 20853 0001:000888A3 20854 0001:000888C4 20856 0001:000888E4
 20857 0001:0008890B 20858 0001:0008892A 20860 0001:0008894A 20861 0001:00088971
 20862 0001:00088990 20864 0001:000889B0 20865 0001:000889D7 20866 0001:000889F6
 20868 0001:00088A16 20869 0001:00088A3D 20870 0001:00088A5C 20872 0001:00088A7C
 20873 0001:00088AA3 20874 0001:00088AC2 20876 0001:00088AE2 20877 0001:00088B09
 20878 0001:00088B2A 20880 0001:00088B4A 20881 0001:00088B71 20882 0001:00088B92
 20887 0001:00088BC5 20888 0001:00088BF1 20890 0001:00088C24 20893 0001:00088E1C
 20894 0001:00088E3B 20895 0001:00088E48 20896 0001:00088E50 20898 0001:00088E71
 20899 0001:00088E9D 20901 0001:00088EC0 20906 0001:00088F3C 20907 0001:00088F53
 20908 0001:00088F60 20910 0001:00088F69 20912 0001:00088F7B 20913 0001:00088F8E
 20914 0001:00088F9E 20910 0001:00088FA1 20915 0001:00088FA7 20917 0001:00088FB2
 20919 0001:00088FBF 20921 0001:00088FD1 20922 0001:00088FE4 20923 0001:00088FF4
 20919 0001:00088FF7 20924 0001:00088FFD 20927 0001:0008901B 20928 0001:00089047
 20930 0001:0008905C 20982 0001:00089100 20983 0001:0008914C 20986 0001:000891CB
 20987 0001:000891D3 20988 0001:000891D8 20989 0001:000891DD 20990 0001:000891E2
 20991 0001:000891E7 20992 0001:000891EC 20993 0001:000891F1 20994 0001:000891F6
 20995 0001:000891FE 20998 0001:00089206 20999 0001:00089216 21005 0001:000892C9
 21010 0001:000892D8 21011 0001:000892E0 21012 0001:000892E8 21014 0001:000892F5
 21015 0001:00089306 21016 0001:00089312 21019 0001:0008931A 21021 0001:00089333
 21022 0001:00089342 21024 0001:00089347 21026 0001:00089359 21027 0001:0008935F
 21028 0001:00089367 21030 0001:0008936C 21036 0001:000893B2 21037 0001:000893B9
 21039 0001:000893CB 21040 0001:000893DA 21041 0001:000893EF 21042 0001:000893FC
 21043 0001:00089411 21044 0001:00089426 21045 0001:0008943B 21046 0001:00089450
 21047 0001:00089465 21048 0001:0008947A 21049 0001:0008948F 21050 0001:000894A4
 21051 0001:000894B9 21053 0001:000894CE 21055 0001:000894DD 21056 0001:000894E2
 21057 0001:000894E9 21065 0001:000894F2 21066 0001:00089507 21067 0001:0008951C
 21069 0001:00089538 21071 0001:00089548 21072 0001:0008954D 21073 0001:00089554
 21077 0001:00089567 21078 0001:0008957A 21080 0001:0008958D 21082 0001:000895A2
 21084 0001:000895AD 21085 0001:000895B4 21096 0001:000895C6 21097 0001:000895CC
 21099 0001:000895E2 21100 0001:000895E7 21103 0001:00089615 21104 0001:0008962A
 21108 0001:0008962F 21109 0001:00089636 21110 0001:0008963B 21112 0001:00089657
 21113 0001:00089668 21117 0001:0008969E 21118 0001:000896A5 21120 0001:000896A7
 21110 0001:000896AA 21121 0001:000896B2 21123 0001:000896BB 21124 0001:000896E1
 21127 0001:000896EF 21128 0001:0008972B 21129 0001:0008973C 21130 0001:00089748
 21131 0001:0008974E 21133 0001:0008975D 21135 0001:00089769 21136 0001:0008976F
 21138 0001:0008977D 21139 0001:0008978B 21140 0001:00089791 21143 0001:000897A0
 21146 0001:000897AD 21148 0001:000897C7 21151 0001:000897D3 21153 0001:000897DF
 21155 0001:000897ED 21157 0001:000897FB 21160 0001:00089807 21162 0001:0008983A
 21164 0001:00089847 21177 0001:00089856 21185 0001:000898B7 21187 0001:000898C6
 21190 0001:000898D3 21191 0001:000898E2 21207 0001:000898EF 21208 0001:000898F5
 21209 0001:00089922 21082 0001:00089937 21212 0001:00089942 21213 0001:00089957
 21214 0001:0008995E 21215 0001:00089970 21216 0001:00089989 21217 0001:00089990
 21302 0001:000899A2 21303 0001:000899AC 21304 0001:000899B6 21305 0001:000899C0
 21306 0001:000899CA 21307 0001:000899D4 21308 0001:000899DE 21309 0001:000899E8
 21311 0001:00089A04 21312 0001:00089A15 21313 0001:00089A26 21314 0001:00089A37
 21315 0001:00089A48 21309 0001:00089A4B 21316 0001:00089A53 21318 0001:00089A6F
 21319 0001:00089A83 21320 0001:00089A97 21321 0001:00089AAB 21322 0001:00089ABF
 21323 0001:00089AD3 21316 0001:00089AD6 21327 0001:00089ADE 21329 0001:00089AEB
 21330 0001:00089AF9 21331 0001:00089B05 21332 0001:00089B13 21333 0001:00089B1F
 21334 0001:00089B2D 21335 0001:00089B39 21336 0001:00089B47 21337 0001:00089B53
 21338 0001:00089B61 21339 0001:00089B6D 21340 0001:00089B7B 21342 0001:00089B87
 21343 0001:00089BA9 21344 0001:00089BCB 21345 0001:00089BED 21346 0001:00089C0F
 21347 0001:00089C31 21350 0001:00089C5B 21351 0001:00089C63 21352 0001:00089C6B
 21353 0001:00089C73 21354 0001:00089C7B 21355 0001:00089C83 21356 0001:00089C8B
 21358 0001:00089C93 21361 0001:00089C9C 21362 0001:00089CB3 21365 0001:00089CCC
 21370 0001:00089CF9 21371 0001:00089D2B 21373 0001:00089D60 21376 0001:00089F64
 21377 0001:00089F7D 21378 0001:00089F82 21380 0001:00089FAD 21382 0001:00089FC0
 21384 0001:00089FCA 21387 0001:00089FEB 21388 0001:00089FF2 21392 0001:0008A002
 21393 0001:0008A009 21397 0001:0008A01D 21399 0001:0008A02C 21400 0001:0008A035
 21404 0001:0008A041 21405 0001:0008A048 21410 0001:0008A05B 21412 0001:0008A06A
 21413 0001:0008A073 21417 0001:0008A07F 21418 0001:0008A086 21423 0001:0008A099
 21424 0001:0008A0A4 21433 0001:0008A0B2 21437 0001:0008A0C0 21439 0001:0008A0DD
 21442 0001:0008A0E0 21443 0001:0008A0E6 21444 0001:0008A0ED 21445 0001:0008A0F6
 21446 0001:0008A107 21447 0001:0008A10E 21451 0001:0008A144 21452 0001:0008A170
 21454 0001:0008A1E5 21457 0001:0008A2E8 21458 0001:0008A301 21459 0001:0008A306
 21461 0001:0008A331 21463 0001:0008A344 21465 0001:0008A34E 21468 0001:0008A38D
 21469 0001:0008A394 21473 0001:0008A3A9 21474 0001:0008A3B0 21478 0001:0008A3C5
 21479 0001:0008A3CC 21483 0001:0008A3E1 21485 0001:0008A3EF 21486 0001:0008A3F8
 21490 0001:0008A405 21491 0001:0008A40C 21496 0001:0008A421 21497 0001:0008A428
 21501 0001:0008A43D 21502 0001:0008A445 21511 0001:0008A453 21515 0001:0008A461
 21517 0001:0008A47E 21520 0001:0008A481 21521 0001:0008A487 21522 0001:0008A48F
 21523 0001:0008A498 21524 0001:0008A4A9 21525 0001:0008A4B0 21529 0001:0008A4E6
 21530 0001:0008A512 21532 0001:0008A587 21537 0001:0008A688 21538 0001:0008A6AA
 21539 0001:0008A6B4 21541 0001:0008A6CE 21543 0001:0008A726 21545 0001:0008A739
 21547 0001:0008A74C 21549 0001:0008A75F 21551 0001:0008A772 21553 0001:0008A785
 21555 0001:0008A798 21558 0001:0008A7A9 21559 0001:0008A7F0 21564 0001:0008A80C
 21565 0001:0008A82E 21566 0001:0008A838 21568 0001:0008A852 21570 0001:0008A8AA
 21572 0001:0008A8BD 21574 0001:0008A8D0 21576 0001:0008A8E3 21578 0001:0008A8F6
 21580 0001:0008A909 21582 0001:0008A91C 21585 0001:0008A92D 21586 0001:0008A974
 21589 0001:0008A990 21590 0001:0008A9A4 21591 0001:0008A9D6 21592 0001:0008A9DC
 21594 0001:0008A9F6 21598 0001:0008A9FF 21599 0001:0008AA17 21600 0001:0008AA26
 21603 0001:0008AA3E 21604 0001:0008AA6A 21606 0001:0008AAA2 21727 0001:0008AB30
 21728 0001:0008AB5C 21729 0001:0008AB69 21731 0001:0008AB7A 21732 0001:0008AB83
 21734 0001:0008AB8B 21738 0001:0008AB91 21739 0001:0008AB9B 21740 0001:0008ABBB
 21741 0001:0008ABDB 21743 0001:0008ABFB 21744 0001:0008AC1F 21745 0001:0008AC3B
 21747 0001:0008AC58 21748 0001:0008AC7F 21749 0001:0008ACA0 21751 0001:0008ACC0
 21752 0001:0008ACE7 21753 0001:0008AD08 21755 0001:0008AD28 21756 0001:0008AD4F
 21757 0001:0008AD70 21759 0001:0008AD90 21760 0001:0008ADB7 21761 0001:0008ADD8
 21763 0001:0008ADF8 21764 0001:0008AE1F 21765 0001:0008AE40 21767 0001:0008AE60
 21768 0001:0008AE87 21769 0001:0008AEA8 21771 0001:0008AEC8 21772 0001:0008AEEF
 21773 0001:0008AF0E 21775 0001:0008AF2E 21776 0001:0008AF55 21777 0001:0008AF74
 21779 0001:0008AF94 21780 0001:0008AFBB 21781 0001:0008AFDC 21783 0001:0008AFFC
 21784 0001:0008B023 21785 0001:0008B044 21789 0001:0008B064 21790 0001:0008B077
 21793 0001:0008B09D 21794 0001:0008B0C9 21796 0001:0008B0FC 21799 0001:0008B270
 21800 0001:0008B28F 21801 0001:0008B29C 21802 0001:0008B2A4 21804 0001:0008B2C5
 21805 0001:0008B2F1 21807 0001:0008B314 21812 0001:0008B390 21813 0001:0008B3A7
 21814 0001:0008B3B4 21816 0001:0008B3BD 21818 0001:0008B3CF 21819 0001:0008B3E2
 21820 0001:0008B3F2 21816 0001:0008B3F5 21821 0001:0008B3FB 21823 0001:0008B406
 21825 0001:0008B413 21827 0001:0008B425 21828 0001:0008B438 21829 0001:0008B448
 21825 0001:0008B44B 21830 0001:0008B451 21833 0001:0008B46F 21834 0001:0008B49B
 21836 0001:0008B4B0 21921 0001:0008B528 21922 0001:0008B53F 21924 0001:0008B560
 21925 0001:0008B598 21926 0001:0008B59E 21928 0001:0008B5B0 21929 0001:0008B5D0
 21933 0001:0008B5FC 21934 0001:0008B611 21936 0001:0008B63E 21940 0001:0008B64C
 21941 0001:0008B675 21942 0001:0008B6FA 21947 0001:0008B728 21948 0001:0008B749
 21950 0001:0008B752 21951 0001:0008B76D 21952 0001:0008B77F 21955 0001:0008B795
 21956 0001:0008B799 21959 0001:0008B79B 21960 0001:0008B7BA 21969 0001:0008B7D8
 21970 0001:0008B7ED 21971 0001:0008B7F6 21973 0001:0008B7FE 21974 0001:0008B80A
 21976 0001:0008B818 21977 0001:0008B843 21985 0001:0008B8C2 21987 0001:0008B8CA
 21988 0001:0008B8CF 21989 0001:0008B8D4 21990 0001:0008B8D9 21991 0001:0008B8DE
 21993 0001:0008B8E3 21994 0001:0008B8E8 21995 0001:0008B8ED 21996 0001:0008B8F2
 21997 0001:0008B8F7 21998 0001:0008B8FC 22000 0001:0008B901 22002 0001:0008B909
 22003 0001:0008B913 22004 0001:0008B91D 22005 0001:0008B927 22006 0001:0008B931
 22007 0001:0008B93B 22010 0001:0008B945 22011 0001:0008B94F 22012 0001:0008B959
 22013 0001:0008B95E 22016 0001:0008B963 22018 0001:0008B973 22020 0001:0008B987
 22022 0001:0008B997 22024 0001:0008B9A7 22026 0001:0008B9B7 22028 0001:0008B9C5
 22034 0001:0008BA78 22039 0001:0008BA87 22041 0001:0008BA8D 22042 0001:0008BA9D
 22043 0001:0008BAA3 22046 0001:0008BAAD 22047 0001:0008BAB9 22049 0001:0008BABE
 22053 0001:0008BACE 22054 0001:0008BAD6 22055 0001:0008BADE 22057 0001:0008BAEB
 22058 0001:0008BAFC 22059 0001:0008BB08 22062 0001:0008BB10 22064 0001:0008BB29
 22065 0001:0008BB38 22067 0001:0008BB3D 22069 0001:0008BB4F 22070 0001:0008BB62
 22072 0001:0008BB71 22075 0001:0008BB83 22077 0001:0008BB8E 22122 0001:0008BB97
 22125 0001:0008BBD8 22127 0001:0008BBE9 22129 0001:0008BC0C 22131 0001:0008BC23
 22137 0001:0008BC71 22138 0001:0008BC79 22142 0001:0008BC81 22144 0001:0008BC94
 22151 0001:0008BCDD 22153 0001:0008BCE8 22154 0001:0008BCF7 22155 0001:0008BD0C
 22156 0001:0008BD21 22157 0001:0008BD36 22158 0001:0008BD4B 22159 0001:0008BD63
 22162 0001:0008BD72 22163 0001:0008BD7F 22164 0001:0008BDA7 22165 0001:0008BDAE
 22168 0001:0008BDC2 22170 0001:0008BDD7 22176 0001:0008BDEC 22178 0001:0008BDF7
 22180 0001:0008BDFC 22181 0001:0008BE03 22183 0001:0008BE15 22228 0001:0008BE41
 22230 0001:0008BE53 22231 0001:0008BE62 22233 0001:0008BE8F 22234 0001:0008BE96
 22239 0001:0008BEC8 22240 0001:0008BEE0 22245 0001:0008BF11 22247 0001:0008BF1B
 22248 0001:0008BF27 22249 0001:0008BF3D 22251 0001:0008BF4B 22252 0001:0008BF57
 22253 0001:0008BF63 22255 0001:0008BF74 22257 0001:0008BF7F 22258 0001:0008BF88
 22259 0001:0008BF8F 22261 0001:0008BF9C 22263 0001:0008BFD1 22176 0001:0008BFE6
 22266 0001:0008BFF1 22267 0001:0008C006 22268 0001:0008C00D 22269 0001:0008C01F
 22270 0001:0008C038 22271 0001:0008C03F 22278 0001:0008C051 22285 0001:0008C0B0
 22286 0001:0008C0B7 22291 0001:0008C0E4 22293 0001:0008C0EF 22294 0001:0008C0FE
 22295 0001:0008C116 22296 0001:0008C12E 22297 0001:0008C146 22298 0001:0008C15B
 22299 0001:0008C170 22302 0001:0008C188 22304 0001:0008C1A3 22305 0001:0008C1BB
 22307 0001:0008C1E0 22308 0001:0008C1E7 22309 0001:0008C1F9 22311 0001:0008C20E
 22312 0001:0008C223 22314 0001:0008C22E 22315 0001:0008C235 22317 0001:0008C247
 22319 0001:0008C255 22326 0001:0008C2AB 22328 0001:0008C2BD 22334 0001:0008C39E
 22336 0001:0008C3BA 22338 0001:0008C3EB 22339 0001:0008C3F7 22340 0001:0008C40D
 22341 0001:0008C41B 22343 0001:0008C42C 22345 0001:0008C437 22346 0001:0008C440
 22348 0001:0008C458 22351 0001:0008C485 22352 0001:0008C491 22354 0001:0008C4AA
 22355 0001:0008C4B5 22358 0001:0008C50D 22361 0001:0008C518 22364 0001:0008C521
 22365 0001:0008C52D 22367 0001:0008C536 22369 0001:0008C53D 22370 0001:0008C543
 22373 0001:0008C55D 22377 0001:0008C570 22379 0001:0008C581 22381 0001:0008C591
 22383 0001:0008C59B 22385 0001:0008C5A1 22389 0001:0008C5C1 22395 0001:0008C5CB
 22399 0001:0008C618 22400 0001:0008C626 22402 0001:0008C637 22404 0001:0008C654
 22405 0001:0008C665 22407 0001:0008C674 22408 0001:0008C67A 22410 0001:0008C694
 22411 0001:0008C699 22413 0001:0008C6A9 22415 0001:0008C6E8 22416 0001:0008C6F8
 22417 0001:0008C6FE 22420 0001:0008C70F 22381 0001:0008C714 22427 0001:0008C71E
 22312 0001:0008C733 22430 0001:0008C73E 22431 0001:0008C753 22432 0001:0008C75A
 22433 0001:0008C76C 22434 0001:0008C785 22435 0001:0008C78C 22437 0001:0008C79E
 22127 0001:0008C7A4 22441 0001:0008C7B0 22443 0001:0008C7D3 22445 0001:0008C7EA
 22446 0001:0008C804 22447 0001:0008C81E 22448 0001:0008C838 22441 0001:0008C83E
 22449 0001:0008C846 22451 0001:0008C869 22453 0001:0008C87D 22454 0001:0008C894
 22456 0001:0008C8AE 22457 0001:0008C8C5 22459 0001:0008C8DF 22460 0001:0008C8F6
 22462 0001:0008C910 22463 0001:0008C927 22464 0001:0008C93E 22465 0001:0008C94F
 22449 0001:0008C955 22469 0001:0008C961 22471 0001:0008C96E 22472 0001:0008C97C
 22473 0001:0008C988 22474 0001:0008C996 22475 0001:0008C9A2 22476 0001:0008C9B0
 22477 0001:0008C9BC 22478 0001:0008C9CA 22479 0001:0008C9D6 22480 0001:0008C9E4
 22481 0001:0008C9F0 22482 0001:0008C9FE 22483 0001:0008CA0A 22484 0001:0008CA18
 22485 0001:0008CA24 22486 0001:0008CA32 22488 0001:0008CA3E 22489 0001:0008CA60
 22490 0001:0008CA82 22491 0001:0008CAA4 22492 0001:0008CAC6 22493 0001:0008CAE8
 22494 0001:0008CB0A 22497 0001:0008CB2C 22500 0001:0008CB56 22501 0001:0008CB5E
 22507 0001:0008CB66 22508 0001:0008CB6E 22509 0001:0008CB76 22510 0001:0008CB7E
 22511 0001:0008CB86 22512 0001:0008CB8E 22513 0001:0008CB96 22514 0001:0008CB9E
 22515 0001:0008CBA6 22516 0001:0008CBAE 22517 0001:0008CBB6 22519 0001:0008CBBE
 22522 0001:0008CBC7 22523 0001:0008CBDE 22526 0001:0008CBF7 22530 0001:0008CC24
 22531 0001:0008CC56 22533 0001:0008CC9E 22539 0001:0008CF3C 22540 0001:0008CF5E
 22541 0001:0008CF68 22543 0001:0008CF75 22546 0001:0008CFB9 22549 0001:0008CFF8
 22551 0001:0008D002 22552 0001:0008D014 22554 0001:0008D02A 22559 0001:0008D043
 22562 0001:0008D073 22564 0001:0008D07D 22565 0001:0008D08F 22567 0001:0008D0A5
 22572 0001:0008D0BE 22573 0001:0008D0D0 22575 0001:0008D0E6 22578 0001:0008D0FF
 22581 0001:0008D115 22586 0001:0008D145 22590 0001:0008D15E 22592 0001:0008D171
 22594 0001:0008D184 22597 0001:0008D195 22598 0001:0008D1DC 22604 0001:0008D1F8
 22605 0001:0008D21A 22606 0001:0008D224 22608 0001:0008D231 22611 0001:0008D275
 22614 0001:0008D2B4 22616 0001:0008D2BE 22617 0001:0008D2D0 22619 0001:0008D2E6
 22624 0001:0008D2FF 22627 0001:0008D32F 22629 0001:0008D339 22630 0001:0008D34B
 22632 0001:0008D361 22637 0001:0008D37A 22638 0001:0008D38C 22640 0001:0008D3A2
 22643 0001:0008D3BB 22646 0001:0008D3D1 22651 0001:0008D401 22655 0001:0008D41A
 22657 0001:0008D42D 22659 0001:0008D440 22662 0001:0008D451 22663 0001:0008D498
 22666 0001:0008D4B4 22667 0001:0008D4D0 22668 0001:0008D500 22670 0001:0008D506
 22671 0001:0008D50D 22674 0001:0008D517 22676 0001:0008D533 22677 0001:0008D538
 22680 0001:0008D542 22681 0001:0008D54D 22684 0001:0008D559 22690 0001:0008D590
 22692 0001:0008D5AD 22695 0001:0008D5B0 22696 0001:0008D5B7 22697 0001:0008D5C0
 22698 0001:0008D5D1 22699 0001:0008D5D8 22703 0001:0008D60E 22704 0001:0008D63A
 22706 0001:0008D6AB 22710 0001:0008D804 22711 0001:0008D820 22712 0001:0008D850
 22714 0001:0008D856 22715 0001:0008D85D 22718 0001:0008D867 22720 0001:0008D88F
 22721 0001:0008D894 22724 0001:0008D8A3 22725 0001:0008D8B3 22729 0001:0008D8BF
 22730 0001:0008D8CF 22733 0001:0008D8DB 22739 0001:0008D912 22741 0001:0008D92F
 22744 0001:0008D932 22745 0001:0008D93B 22746 0001:0008D943 22747 0001:0008D954
 22748 0001:0008D95B 22752 0001:0008D991 22753 0001:0008D9BD 22755 0001:0008DA2F
 22758 0001:0008DB8C 22759 0001:0008DBA0 22760 0001:0008DBB2 22761 0001:0008DBB8
 22763 0001:0008DBD2 22764 0001:0008DBEA 22767 0001:0008DBF1 22769 0001:0008DC0B
 22770 0001:0008DC37 22772 0001:0008DC4F 22819 0001:0008DCC8 22820 0001:0008DCF4
 22821 0001:0008DD01 22823 0001:0008DD12 22824 0001:0008DD1B 22826 0001:0008DD23
 22830 0001:0008DD29 22831 0001:0008DD33 22832 0001:0008DD53 22833 0001:0008DD73
 22835 0001:0008DD93 22836 0001:0008DDB7 22837 0001:0008DDD3 22839 0001:0008DDF0
 22840 0001:0008DE17 22841 0001:0008DE38 22843 0001:0008DE58 22844 0001:0008DE7F
 22845 0001:0008DEA0 22847 0001:0008DEC0 22848 0001:0008DEE7 22849 0001:0008DF08
 22851 0001:0008DF28 22852 0001:0008DF4F 22853 0001:0008DF6E 22855 0001:0008DF8E
 22856 0001:0008DFB5 22857 0001:0008DFD4 22859 0001:0008DFF4 22860 0001:0008E01B
 22861 0001:0008E03A 22866 0001:0008E06D 22867 0001:0008E099 22869 0001:0008E0CC
 22874 0001:0008E1F0 22875 0001:0008E20F 22876 0001:0008E21C 22878 0001:0008E225
 22880 0001:0008E237 22881 0001:0008E24A 22882 0001:0008E25A 22878 0001:0008E25D
 22883 0001:0008E263 22885 0001:0008E26E 22887 0001:0008E28F 22888 0001:0008E2BB
 22890 0001:0008E2DE 22912 0001:0008E360 22913 0001:0008E39A 22914 0001:0008E3DB
 22915 0001:0008E3E0 22916 0001:0008E3E5 22917 0001:0008E3EA 22918 0001:0008E3EF
 22919 0001:0008E3F7 22922 0001:0008E3FC 22923 0001:0008E408 22927 0001:0008E44F
 22932 0001:0008E45B 22933 0001:0008E460 22934 0001:0008E465 22936 0001:0008E472
 22937 0001:0008E480 22938 0001:0008E48C 22941 0001:0008E491 22952 0001:0008E4A7
 22956 0001:0008E4CB 22957 0001:0008E4DF 22960 0001:0008E4E6 22965 0001:0008E520
 22966 0001:0008E527 22968 0001:0008E539 22969 0001:0008E53E 22970 0001:0008E54D
 22971 0001:0008E562 22972 0001:0008E577 22973 0001:0008E58C 22975 0001:0008E5A1
 22976 0001:0008E5A6 22977 0001:0008E5AB 22979 0001:0008E5B0 22980 0001:0008E5C3
 22982 0001:0008E5D5 22983 0001:0008E5DC 22984 0001:0008E5E3 22986 0001:0008E5EA
 22989 0001:0008E5F5 22990 0001:0008E5FC 22992 0001:0008E60E 22993 0001:0008E62E
 22995 0001:0008E63C 22996 0001:0008E658 22997 0001:0008E674 22999 0001:0008E690
 22986 0001:0008E6A2 23004 0001:0008E6AD 23006 0001:0008E6B6 23007 0001:0008E6C1
 23008 0001:0008E6CA 23009 0001:0008E6D5 23010 0001:0008E6DE 23011 0001:0008E6E9
 23013 0001:0008E6F2 23014 0001:0008E711 23015 0001:0008E730 23017 0001:0008E757
 23018 0001:0008E75F 23019 0001:0008E767 23021 0001:0008E76F 23024 0001:0008E778
 23025 0001:0008E78C 23028 0001:0008E7A5 23032 0001:0008E7CC 23034 0001:0008E7F8
 23036 0001:0008E82D 23039 0001:0008E964 23040 0001:0008E978 23041 0001:0008E97D
 23043 0001:0008E9A8 23045 0001:0008E9B7 23047 0001:0008E9BD 23050 0001:0008E9CF
 23051 0001:0008E9DA 23056 0001:0008E9E6 23057 0001:0008E9EF 23061 0001:0008E9FB
 23062 0001:0008EA04 23070 0001:0008EA10 23073 0001:0008EA1E 23075 0001:0008EA3B
 23078 0001:0008EA3E 23079 0001:0008EA45 23080 0001:0008EA56 23081 0001:0008EA5D
 23085 0001:0008EA93 23086 0001:0008EABF 23088 0001:0008EB13 23091 0001:0008EC00
 23092 0001:0008EC14 23093 0001:0008EC19 23095 0001:0008EC44 23097 0001:0008EC53
 23099 0001:0008EC59 23102 0001:0008EC6A 23103 0001:0008EC72 23107 0001:0008EC7E
 23108 0001:0008EC86 23112 0001:0008EC92 23113 0001:0008EC9A 23122 0001:0008ECA8
 23126 0001:0008ECB6 23128 0001:0008ECD3 23131 0001:0008ECD6 23132 0001:0008ECDD
 23133 0001:0008ECEE 23134 0001:0008ECF5 23138 0001:0008ED2B 23139 0001:0008ED57
 23141 0001:0008EDAC 23146 0001:0008EE9C 23147 0001:0008EEBE 23148 0001:0008EEC8
 23150 0001:0008EED1 23152 0001:0008EEE6 23154 0001:0008EEF9 23156 0001:0008EF0C
 23159 0001:0008EF1D 23160 0001:0008EF64 23165 0001:0008EF80 23166 0001:0008EFA2
 23167 0001:0008EFAC 23169 0001:0008EFB5 23171 0001:0008EFCA 23173 0001:0008EFDD
 23175 0001:0008EFF0 23178 0001:0008F001 23179 0001:0008F048 23182 0001:0008F064
 23183 0001:0008F078 23184 0001:0008F08A 23185 0001:0008F090 23187 0001:0008F0AA
 23188 0001:0008F0C2 23191 0001:0008F0C9 23193 0001:0008F0E3 23194 0001:0008F10F
 23196 0001:0008F127 23350 0001:0008F1A4 23351 0001:0008F1D0 23352 0001:0008F1DD
 23354 0001:0008F1EE 23355 0001:0008F1F7 23357 0001:0008F1FF 23361 0001:0008F205
 23362 0001:0008F20F 23363 0001:0008F22F 23364 0001:0008F24F 23366 0001:0008F26F
 23367 0001:0008F293 23368 0001:0008F2AF 23370 0001:0008F2CC 23371 0001:0008F2F3
 23372 0001:0008F314 23374 0001:0008F334 23375 0001:0008F35B 23376 0001:0008F37C
 23378 0001:0008F39C 23379 0001:0008F3C3 23380 0001:0008F3E4 23382 0001:0008F404
 23383 0001:0008F42B 23384 0001:0008F44C 23386 0001:0008F46C 23387 0001:0008F493
 23388 0001:0008F4B2 23390 0001:0008F4D2 23391 0001:0008F4F9 23392 0001:0008F518
 23394 0001:0008F538 23395 0001:0008F55F 23396 0001:0008F57E 23398 0001:0008F59E
 23399 0001:0008F5C5 23400 0001:0008F5E6 23402 0001:0008F606 23403 0001:0008F62D
 23404 0001:0008F64C 23406 0001:0008F66C 23407 0001:0008F693 23408 0001:0008F6B2
 23410 0001:0008F6D2 23411 0001:0008F6F9 23412 0001:0008F718 23414 0001:0008F738
 23415 0001:0008F75F 23416 0001:0008F77E 23418 0001:0008F79E 23419 0001:0008F7C5
 23420 0001:0008F7E4 23425 0001:0008F817 23426 0001:0008F843 23428 0001:0008F876
 23433 0001:0008FA30 23434 0001:0008FA4F 23435 0001:0008FA5C 23437 0001:0008FA65
 23439 0001:0008FA77 23440 0001:0008FA8A 23441 0001:0008FA9A 23437 0001:0008FA9D
 23442 0001:0008FAA3 23444 0001:0008FAAE 23446 0001:0008FAB7 23448 0001:0008FAC9
 23449 0001:0008FADC 23450 0001:0008FAEC 23446 0001:0008FAEF 23451 0001:0008FAF5
 23453 0001:0008FB00 23455 0001:0008FB21 23456 0001:0008FB4D 23458 0001:0008FB70
 23530 0001:0008FBF4 23531 0001:0008FC0E 23532 0001:0008FC22 23534 0001:0008FC38
 23535 0001:0008FC6B 23537 0001:0008FC7F 23538 0001:0008FC86 23539 0001:0008FCA7
 23541 0001:0008FCB1 23542 0001:0008FCC0 23543 0001:0008FCE5 23544 0001:0008FD08
 23545 0001:0008FD26 23547 0001:0008FD2C 23548 0001:0008FD59 23549 0001:0008FD5F
 23551 0001:0008FD72 23555 0001:0008FD7C 23558 0001:0008FD9C 23560 0001:0008FDB8
 23561 0001:0008FDE3 23565 0001:0008FE85 23566 0001:0008FE8A 23567 0001:0008FE8F
 23568 0001:0008FE94 23569 0001:0008FE99 23570 0001:0008FE9E 23571 0001:0008FEA6
 23574 0001:0008FEAE 23575 0001:0008FEBE 23580 0001:0008FF61 23585 0001:0008FF70
 23586 0001:0008FF78 23587 0001:0008FF80 23589 0001:0008FF8D 23590 0001:0008FF9E
 23591 0001:0008FFAA 23594 0001:0008FFB2 23596 0001:0008FFCB 23597 0001:0008FFCF
 23600 0001:0008FFDC 23603 0001:0008FFE0 23605 0001:0008FFEA 23607 0001:0008FFF8
 23608 0001:00090014 23610 0001:0009001F 23612 0001:0009002D 23613 0001:00090049
 23615 0001:00090054 23617 0001:0009006A 23618 0001:00090086 23620 0001:00090098
 23623 0001:000900DD 23624 0001:000900F8 23625 0001:00090106 23628 0001:00090111
 23630 0001:0009011C 23632 0001:0009012A 23633 0001:00090146 23637 0001:00090151
 23638 0001:00090157 23639 0001:0009015F 23641 0001:00090164 23642 0001:00090173
 23644 0001:00090178 23645 0001:0009018A 23648 0001:00090194 23649 0001:000901A4
 23654 0001:0009024D 23659 0001:00090295 23660 0001:0009029C 23662 0001:000902AE
 23663 0001:000902BD 23664 0001:000902D2 23665 0001:000902DF 23666 0001:000902F4
 23667 0001:00090309 23668 0001:0009031E 23669 0001:00090336 23670 0001:0009034E
 23672 0001:00090363 23673 0001:00090378 23674 0001:0009038D 23675 0001:000903A2
 23681 0001:000903B7 23682 0001:000903BD 23683 0001:000903C3 23684 0001:000903C8
 23687 0001:000903CD 23689 0001:000903E2 23690 0001:000903FA 23692 0001:00090405
 23693 0001:0009040C 23696 0001:0009041C 23697 0001:0009042F 23699 0001:00090442
 23705 0001:00090457 23708 0001:00090462 23709 0001:00090469 23717 0001:0009047B
 23718 0001:00090481 23720 0001:0009049A 23721 0001:000904A2 23724 0001:000904D9
 23729 0001:000904EE 23733 0001:000904F3 23735 0001:000904FE 23736 0001:0009051E
 23737 0001:0009052F 23738 0001:00090545 23740 0001:00090556 23741 0001:00090565
 23743 0001:00090591 23745 0001:0009059E 23747 0001:000905AD 23749 0001:000905BC
 23751 0001:000905CB 23756 0001:000905D8 23757 0001:000905DE 23759 0001:000905ED
 23761 0001:000905F9 23762 0001:000905FF 23764 0001:0009060D 23766 0001:0009061B
 23767 0001:00090621 23770 0001:00090630 23771 0001:0009063D 23773 0001:00090657
 23775 0001:00090663 23778 0001:00090690 23779 0001:0009069A 23781 0001:000906D8
 23782 0001:000906E9 23783 0001:000906FA 23785 0001:0009070D 23786 0001:00090714
 23788 0001:00090722 23789 0001:0009072E 23790 0001:00090734 23791 0001:00090737
 23795 0001:0009075A 23796 0001:00090760 23797 0001:00090766 23799 0001:0009076B
 23802 0001:00090770 23705 0001:00090785 23813 0001:00090790 23819 0001:0009081B
 23824 0001:00090823 23828 0001:0009087D 23830 0001:00090887 23832 0001:00090894
 23833 0001:000908A3 23842 0001:000908C1 23844 0001:000908CD 23846 0001:00090904
 23849 0001:00090917 23850 0001:0009092A 23852 0001:00090958 23854 0001:00090978
 23855 0001:0009097E 23856 0001:00090981 23857 0001:000909C6 23858 0001:000909D7
 23859 0001:000909E6 23861 0001:00090A17 23863 0001:00090A26 23865 0001:00090A35
 23867 0001:00090A44 23869 0001:00090A53 23872 0001:00090A60 23873 0001:00090A8A
 23874 0001:00090AB4 23875 0001:00090AC9 23876 0001:00090ADB 23877 0001:00090AEF
 23878 0001:00090AFB 23879 0001:00090B0C 23882 0001:00090BA4 23883 0001:00090BB0
 23885 0001:00090BC6 23888 0001:00090BDC 23891 0001:00090BF2 23893 0001:00090C08
 23895 0001:00090C1E 23897 0001:00090C34 23899 0001:00090C4A 23901 0001:00090C60
 23903 0001:00090C76 23905 0001:00090CD6 23907 0001:00090CEC 23909 0001:00090D49
 23911 0001:00090D5F 23913 0001:00090D75 23915 0001:00090D8B 23917 0001:00090DA1
 23919 0001:00090DB7 23921 0001:00090DCD 23923 0001:00090DE3 23925 0001:00090DF9
 23927 0001:00090E0C 23929 0001:00090E1F 23931 0001:00090E32 23933 0001:00090E45
 23936 0001:00090E58 23938 0001:00090E6B 23941 0001:00090E7C 23942 0001:00090E92
 23943 0001:00090EB5 23850 0001:00090EBB 23951 0001:00090EC7 23952 0001:00090ED3
 23958 0001:00090F08 23959 0001:00090F12 23960 0001:00090F1C 23961 0001:00090F26
 23962 0001:00090F30 23963 0001:00090F3A 23965 0001:00090F59 23966 0001:00090F70
 23967 0001:00090F84 23968 0001:00090F98 23969 0001:00090FAC 23963 0001:00090FB2
 23970 0001:00090FBA 23972 0001:00090FD9 23973 0001:00090FF0 23974 0001:00091004
 23975 0001:00091018 23970 0001:0009101E 23979 0001:00091026 23981 0001:00091033
 23982 0001:00091041 23983 0001:0009104D 23984 0001:0009105B 23985 0001:00091067
 23986 0001:00091075 23987 0001:00091081 23988 0001:0009108F 23989 0001:0009109B
 23990 0001:000910A9 23992 0001:000910B5 23993 0001:000910D7 23994 0001:000910F9
 23995 0001:0009111B 23996 0001:0009113D 23998 0001:00091167 23999 0001:0009116F
 24000 0001:00091177 24001 0001:0009117F 24002 0001:00091187 24004 0001:0009118F
 24007 0001:00091198 24008 0001:000911AF 24011 0001:000911C8 24015 0001:000911F2
 24016 0001:00091224 24018 0001:000912B8 24021 0001:00091688 24022 0001:0009169C
 24023 0001:000916A1 24025 0001:000916CC 24027 0001:000916DF 24029 0001:000916E5
 24032 0001:000916FD 24033 0001:00091708 24037 0001:00091714 24038 0001:00091722
 24042 0001:0009172E 24043 0001:0009173C 24047 0001:00091748 24048 0001:0009174F
 24057 0001:0009175D 24061 0001:0009176B 24063 0001:00091788 24066 0001:0009178B
 24067 0001:00091792 24068 0001:0009179B 24069 0001:000917AC 24070 0001:000917B3
 24074 0001:000917E9 24075 0001:00091815 24077 0001:00091869 24081 0001:0009195C
 24082 0001:00091970 24083 0001:00091975 24085 0001:000919A0 24087 0001:000919B3
 24089 0001:000919BD 24092 0001:000919FD 24093 0001:00091A0D 24097 0001:00091A19
 24098 0001:00091A29 24102 0001:00091A35 24103 0001:00091A45 24107 0001:00091A51
 24108 0001:00091A61 24112 0001:00091A6D 24113 0001:00091A7D 24117 0001:00091A89
 24118 0001:00091A99 24122 0001:00091AA5 24123 0001:00091AAD 24132 0001:00091ABB
 24136 0001:00091AC9 24138 0001:00091AE6 24141 0001:00091AE9 24142 0001:00091AF1
 24143 0001:00091AFA 24144 0001:00091B0B 24145 0001:00091B12 24149 0001:00091B48
 24150 0001:00091B74 24152 0001:00091BC9 24157 0001:00091CBC 24158 0001:00091CDE
 24159 0001:00091CE8 24160 0001:00091D05 24162 0001:00091D0E 24164 0001:00091D4A
 24166 0001:00091D5D 24168 0001:00091D70 24170 0001:00091D83 24172 0001:00091D93
 24175 0001:00091DA1 24176 0001:00091DE8 24181 0001:00091E04 24182 0001:00091E26
 24183 0001:00091E30 24184 0001:00091E4D 24186 0001:00091E56 24188 0001:00091E92
 24190 0001:00091EA5 24192 0001:00091EB8 24194 0001:00091ECB 24196 0001:00091EDB
 24199 0001:00091EE9 24200 0001:00091F30 24203 0001:00091F4C 24204 0001:00091F60
 24205 0001:00091F72 24206 0001:00091F78 24208 0001:00091F92 24209 0001:00091FAA
 24212 0001:00091FB1 24214 0001:00091FCB 24215 0001:00091FF7 24217 0001:0009200F
 24224 0001:00092090 24225 0001:000920AB 24227 0001:000920B8 24228 0001:000920C0
 24229 0001:000920C9 24231 0001:000920D1 24232 0001:000920DA 24234 0001:000920E8
 24235 0001:000920F1 24236 0001:000920FA 24238 0001:00092107 24240 0001:0009210D
 24245 0001:00092118 24248 0001:0009212A 24249 0001:00092133 24250 0001:00092142
 24251 0001:0009214C 24253 0001:00092159 24246 0001:0009215F 24257 0001:00092168
 24259 0001:00092170 24260 0001:00092178 24263 0001:00092188 24264 0001:000921B0
 24265 0001:000921C0 24266 0001:000921DC 24269 0001:000921E8 24270 0001:000921FA
 24271 0001:0009220F 24277 0001:00092220 24278 0001:00092232 24280 0001:0009223A
 24281 0001:00092242 24282 0001:0009224B 24285 0001:00092251 24287 0001:00092264
 24289 0001:00092270 24282 0001:00092279 24291 0001:0009227F 24296 0001:00092290
 24297 0001:000922B9 24298 0001:000922C7 24317 0001:000922DC 24324 0001:000922EC
 24325 0001:00092306 24327 0001:0009231F 24331 0001:0009232F 24332 0001:0009233D
 24333 0001:00092346 24335 0001:0009234C 24336 0001:00092351 24337 0001:00092380
 24339 0001:00092386 24340 0001:00092390 24342 0001:0009239B 24333 0001:000923A4
 24345 0001:000923C8 24348 0001:000923E8 24354 0001:000923F4 24357 0001:00092400
 24363 0001:0009240C 24369 0001:00092418 24370 0001:0009242D 24371 0001:00092432
 24377 0001:00092438 24378 0001:00092445 24382 0001:0009246F 24388 0001:00092488
 24389 0001:000924A5 24390 0001:000924AE 24391 0001:000924B7 24392 0001:000924DE
 24393 0001:00092505 24395 0001:0009252C 24396 0001:00092553 24397 0001:0009257A
 24398 0001:000925A1 24401 0001:000925C8 24402 0001:000925F4 24413 0001:00092602
 24415 0001:00092637 24416 0001:0009265E 24417 0001:00092685 24418 0001:000926AC
 24420 0001:000926D3 24421 0001:000926E0 24424 0001:000926ED 24434 0001:00092717
 24440 0001:000929AC 24445 0001:00092A19 24436 0001:00092A5C 24437 0001:00092A71
 24439 0001:00092A76

Line numbers for dbxoodbc(./../../../source/driver/dbxoodbc.dpr) segment .text

   139 0001:00092C20   140 0001:00092C4E   141 0001:00092C57

Bound resource files

UxKOkb


Program entry point at 0001:00092C20
